 Baronow23

 Timestamp is 5dedfd18 (Mon Dec 09 16:51:52 2019)

 Preferred load address is 10000000

 Start         Length     Name                   Class
 0001:00000000 00050623H .textbss                DATA
 0002:00000000 0000b39cH .text$di                CODE
 0002:0000b3a0 00097052H .text$mn                CODE
 0002:000a2400 0000acfbH .text$x                 CODE
 0002:000ad100 00001564H .text$yd                CODE
 0003:00000000 00000104H .CRT$XCA                DATA
 0003:00000104 00000109H .CRT$XCL                DATA
 0003:00000210 000001bdH .CRT$XCU                DATA
 0003:000003d0 00000104H .CRT$XCZ                DATA
 0003:000004d4 00000104H .CRT$XIA                DATA
 0003:000005d8 00000104H .CRT$XIAA               DATA
 0003:000006dc 00000109H .CRT$XIC                DATA
 0003:000007e8 00000104H .CRT$XIZ                DATA
 0003:000008f0 00012be3H .rdata                  DATA
 0003:000134d4 00000178H .rdata$debug            DATA
 0003:0001364c 00001858H .rdata$r                DATA
 0003:00014ea4 00000104H .rtc$IAA                DATA
 0003:00014fa8 000001a8H .rtc$IMZ                DATA
 0003:00015150 00000104H .rtc$IZZ                DATA
 0003:00015254 00000104H .rtc$TAA                DATA
 0003:00015358 000001a8H .rtc$TMZ                DATA
 0003:00015500 00000104H .rtc$TZZ                DATA
 0003:00015608 00008a8bH .xdata$x                DATA
 0003:0001e094 00000104H ATL$__a                 DATA
 0003:0001e198 00000104H ATL$__z                 DATA
 0003:0001e2a0 0000a7cfH .edata                  DATA
 0004:00000000 000008e2H .data                   DATA
 0004:000008e8 00002189H .data$r                 DATA
 0004:00002a78 00004948H .bss                    DATA
 0005:00000000 00000c68H .idata$5                DATA
 0005:00000c68 0000017cH .idata$2                DATA
 0005:00000de4 00000014H .idata$3                DATA
 0005:00000df8 00000c68H .idata$4                DATA
 0005:00001a60 00001aafH .idata$6                DATA
 0006:00000000 000001c0H .rsrc$01                DATA
 0006:000001c0 0000068cH .rsrc$02                DATA

  Address         Publics by Value              Rva+Base       Lib:Object

 0000:00000000       ___safe_se_handler_count   00000000     <absolute>
 0000:00000000       ___guard_fids_table        00000000     <absolute>
 0000:00000000       ___safe_se_handler_table   00000000     <absolute>
 0000:00000000       ___guard_fids_count        00000000     <absolute>
 0000:00000000       ___guard_flags             00000000     <absolute>
 0000:00000000       __except_list              00000000     <absolute>
 0000:00009876       __ldused                   00009876     <absolute>
 0000:00009876       __fltused                  00009876     <absolute>
 0000:00000000       ___ImageBase               10000000     <linker-defined>
 0001:00000000       __enc$textbss$begin        10001000     <linker-defined>
 0001:00050623       __enc$textbss$end          10051623     <linker-defined>
 0002:0000b3a0       ??0CBaronow23App@@QAE@XZ   1005d3a0 f   Baronow23.obj
 0002:0000b410       ??0GdiplusStartupInput@Gdiplus@@QAE@P6GXW4DebugEventLevel@1@PAD@ZHH@Z 1005d410 f i Baronow23.obj
 0002:0000b480       ??1CBaronow23App@@UAE@XZ   1005d480 f i Baronow23.obj
 0002:0000b4d0       ??_ECBaronow23App@@UAEPAXI@Z 1005d4d0 f i Baronow23.obj
 0002:0000b4d0       ??_GCBaronow23App@@UAEPAXI@Z 1005d4d0 f i Baronow23.obj
 0002:0000b540       ?ExitInstance@CBaronow23App@@MAEHXZ 1005d540 f   Baronow23.obj
 0002:0000b5e0       ?GetApplicationRecoveryParameter@CWinApp@@UAEPAXXZ 1005d5e0 f i Baronow23.obj
 0002:0000b620       ?GetApplicationRecoveryPingInterval@CWinApp@@UAEKXZ 1005d620 f i Baronow23.obj
 0002:0000b660       ?GetApplicationRestartFlags@CWinApp@@UAEKXZ 1005d660 f i Baronow23.obj
 0002:0000b6a0       ?GetMessageMap@CBaronow23App@@MBEPBUAFX_MSGMAP@@XZ 1005d6a0 f   Baronow23.obj
 0002:0000b6f0       ?GetThisMessageMap@CBaronow23App@@KGPBUAFX_MSGMAP@@XZ 1005d6f0 f   Baronow23.obj
 0002:0000b730       ?InitInstance@CBaronow23App@@UAEHXZ 1005d730 f   Baronow23.obj
 0002:0000b870       ?ReopenPreviousFilesAtRestart@CWinApp@@UBEHXZ 1005d870 f i Baronow23.obj
 0002:0000b8c0       ?RestoreAutosavedFilesAtRestart@CWinApp@@UBEHXZ 1005d8c0 f i Baronow23.obj
 0002:0000b910       ?SupportsApplicationRecovery@CWinApp@@UBEHXZ 1005d910 f i Baronow23.obj
 0002:0000b960       ?SupportsAutosaveAtInterval@CWinApp@@UBEHXZ 1005d960 f i Baronow23.obj
 0002:0000b9b0       ?SupportsAutosaveAtRestart@CWinApp@@UBEHXZ 1005d9b0 f i Baronow23.obj
 0002:0000ba00       ?SupportsRestartManager@CWinApp@@UBEHXZ 1005da00 f i Baronow23.obj
 0002:0000ba50       ?__autoclassinit2@CBaronow23App@@QAEXI@Z 1005da50 f i Baronow23.obj
 0002:0000bab0       ??0?$CTraceCategoryEx@$0CAAA@$0A@@ATL@@QAE@PB_W@Z 1005dab0 f i CppSQLite3U.obj
 0002:0000bb10       ??0?$CTraceCategoryEx@$0CAAAA@$0A@@ATL@@QAE@PB_W@Z 1005db10 f i CppSQLite3U.obj
 0002:0000bb70       ??0CppSqlite3DB@@AAE@ABV0@@Z 1005db70 f   CppSQLite3U.obj
 0002:0000bbe0       ??0CppSqlite3DB@@QAE@XZ    1005dbe0 f   CppSQLite3U.obj
 0002:0000bc40       ??0CppSqlite3Exception@@QAE@ABV0@@Z 1005dc40 f   CppSQLite3U.obj
 0002:0000bd70       ??0CppSqlite3Exception@@QAE@HPA_W_N@Z 1005dd70 f   CppSQLite3U.obj
 0002:0000bf00       ??0CppSqlite3Query@@QAE@ABV0@@Z 1005df00 f   CppSQLite3U.obj
 0002:0000bf90       ??0CppSqlite3Query@@QAE@PAUsqlite3@@PAUsqlite3_stmt@@_N2@Z 1005df90 f   CppSQLite3U.obj
 0002:0000c030       ??0CppSqlite3Query@@QAE@XZ 1005e030 f   CppSQLite3U.obj
 0002:0000c0a0       ??0CppSqlite3Statement@@QAE@ABV0@@Z 1005e0a0 f   CppSQLite3U.obj
 0002:0000c110       ??0CppSqlite3Statement@@QAE@PAUsqlite3@@PAUsqlite3_stmt@@@Z 1005e110 f   CppSQLite3U.obj
 0002:0000c170       ??0CppSqlite3Statement@@QAE@XZ 1005e170 f   CppSQLite3U.obj
 0002:0000c1d0       ??1CppSqlite3DB@@UAE@XZ    1005e1d0 f   CppSQLite3U.obj
 0002:0000c230       ??1CppSqlite3Exception@@UAE@XZ 1005e230 f   CppSQLite3U.obj
 0002:0000c2c0       ??1CppSqlite3Query@@UAE@XZ 1005e2c0 f   CppSQLite3U.obj
 0002:0000c380       ??1CppSqlite3Statement@@UAE@XZ 1005e380 f   CppSQLite3U.obj
 0002:0000c440       ??4CppSqlite3DB@@AAEAAV0@ABV0@@Z 1005e440 f   CppSQLite3U.obj
 0002:0000c4a0       ??4CppSqlite3Query@@QAEAAV0@ABV0@@Z 1005e4a0 f   CppSQLite3U.obj
 0002:0000c5a0       ??4CppSqlite3Statement@@QAEAAV0@ABV0@@Z 1005e5a0 f   CppSQLite3U.obj
 0002:0000c610       ??_ECppSqlite3DB@@UAEPAXI@Z 1005e610 f i CppSQLite3U.obj
 0002:0000c610       ??_GCppSqlite3DB@@UAEPAXI@Z 1005e610 f i CppSQLite3U.obj
 0002:0000c680       ??_GCppSqlite3Exception@@UAEPAXI@Z 1005e680 f i CppSQLite3U.obj
 0002:0000c680       ??_ECppSqlite3Exception@@UAEPAXI@Z 1005e680 f i CppSQLite3U.obj
 0002:0000c6f0       ??_GCppSqlite3Query@@UAEPAXI@Z 1005e6f0 f i CppSQLite3U.obj
 0002:0000c6f0       ??_ECppSqlite3Query@@UAEPAXI@Z 1005e6f0 f i CppSQLite3U.obj
 0002:0000c760       ??_GCppSqlite3Statement@@UAEPAXI@Z 1005e760 f i CppSQLite3U.obj
 0002:0000c760       ??_ECppSqlite3Statement@@UAEPAXI@Z 1005e760 f i CppSQLite3U.obj
 0002:0000c7d0       ?DoubleQuotes@@YA?AV?$CStringT@_WV?$StrTraitMFC_DLL@_WV?$ChTraitsCRT@_W@ATL@@@@@ATL@@V12@@Z 1005e7d0 f   CppSQLite3U.obj
 0002:0000c8d0       ?RegisterCategory@CTrace@ATL@@SAXPB_WI@Z 1005e8d0 f i CppSQLite3U.obj
 0002:0000c9d0       ?__autoclassinit2@CppSqlite3Query@@QAEXI@Z 1005e9d0 f i CppSQLite3U.obj
 0002:0000ca30       ?bind@CppSqlite3Statement@@QAEXHH@Z 1005ea30 f   CppSQLite3U.obj
 0002:0000cae0       ?bind@CppSqlite3Statement@@QAEXHN@Z 1005eae0 f   CppSQLite3U.obj
 0002:0000cba0       ?bind@CppSqlite3Statement@@QAEXHPBEH@Z 1005eba0 f   CppSQLite3U.obj
 0002:0000cc60       ?bind@CppSqlite3Statement@@QAEXHPB_W@Z 1005ec60 f   CppSQLite3U.obj
 0002:0000cd10       ?bindNull@CppSqlite3Statement@@QAEXH@Z 1005ed10 f   CppSQLite3U.obj
 0002:0000cdc0       ?checkDB@CppSqlite3DB@@AAEXXZ 1005edc0 f   CppSQLite3U.obj
 0002:0000ce50       ?checkDB@CppSqlite3Statement@@AAEXXZ 1005ee50 f   CppSQLite3U.obj
 0002:0000cee0       ?checkVM@CppSqlite3Query@@AAEXXZ 1005eee0 f   CppSQLite3U.obj
 0002:0000cf70       ?checkVM@CppSqlite3Statement@@AAEXXZ 1005ef70 f   CppSQLite3U.obj
 0002:0000d000       ?close@CppSqlite3DB@@QAEXXZ 1005f000 f   CppSQLite3U.obj
 0002:0000d0c0       ?compile@CppSqlite3DB@@AAEPAUsqlite3_stmt@@PB_W@Z 1005f0c0 f   CppSQLite3U.obj
 0002:0000d1e0       ?compileStatement@CppSqlite3DB@@QAE?AVCppSqlite3Statement@@PB_W@Z 1005f1e0 f   CppSQLite3U.obj
 0002:0000d280       ?eof@CppSqlite3Query@@QAE_NXZ 1005f280 f   CppSQLite3U.obj
 0002:0000d2e0       ?errorCodeAsString@CppSqlite3Exception@@SAPB_WH@Z 1005f2e0 f   CppSQLite3U.obj
 0002:0000d5b0       ?execDML@CppSqlite3DB@@QAEHPB_W@Z 1005f5b0 f   CppSQLite3U.obj
 0002:0000d6a0       ?execDML@CppSqlite3Statement@@QAEHXZ 1005f6a0 f   CppSQLite3U.obj
 0002:0000d800       ?execQuery@CppSqlite3DB@@QAE?AVCppSqlite3Query@@PB_W@Z 1005f800 f   CppSQLite3U.obj
 0002:0000d970       ?execScalar@CppSqlite3DB@@QAEHPB_W@Z 1005f970 f   CppSQLite3U.obj
 0002:0000db00       ?execScalarStr@CppSqlite3DB@@QAE?AV?$CStringT@_WV?$StrTraitMFC_DLL@_WV?$ChTraitsCRT@_W@ATL@@@@@ATL@@PB_W@Z 1005fb00 f   CppSQLite3U.obj
 0002:0000dca0       ?fieldDataType@CppSqlite3Query@@QAEHH@Z 1005fca0 f   CppSQLite3U.obj
 0002:0000dd60       ?fieldDeclType@CppSqlite3Query@@QAEPB_WH@Z 1005fd60 f   CppSQLite3U.obj
 0002:0000de20       ?fieldIndex@CppSqlite3Query@@QAEHPB_W@Z 1005fe20 f   CppSQLite3U.obj
 0002:0000df20       ?fieldIsNull@CppSqlite3Query@@QAE_NH@Z 1005ff20 f   CppSQLite3U.obj
 0002:0000dfa0       ?fieldIsNull@CppSqlite3Query@@QAE_NPB_W@Z 1005ffa0 f   CppSQLite3U.obj
 0002:0000e040       ?fieldName@CppSqlite3Query@@QAEPB_WH@Z 10060040 f   CppSQLite3U.obj
 0002:0000e100       ?fieldValue@CppSqlite3Query@@QAEPB_WH@Z 10060100 f   CppSQLite3U.obj
 0002:0000e1c0       ?fieldValue@CppSqlite3Query@@QAEPB_WPB_W@Z 100601c0 f   CppSQLite3U.obj
 0002:0000e240       ?finalize@CppSqlite3Query@@QAEXXZ 10060240 f   CppSQLite3U.obj
 0002:0000e310       ?finalize@CppSqlite3Statement@@QAEXXZ 10060310 f   CppSQLite3U.obj
 0002:0000e3d0       ?getBlobField@CppSqlite3Query@@QAEPBEHAAH@Z 100603d0 f   CppSQLite3U.obj
 0002:0000e4b0       ?getBlobField@CppSqlite3Query@@QAEPBEPB_WAAH@Z 100604b0 f   CppSQLite3U.obj
 0002:0000e520       ?getFloatField@CppSqlite3Query@@QAENHN@Z 10060520 f   CppSQLite3U.obj
 0002:0000e5a0       ?getFloatField@CppSqlite3Query@@QAENPB_WN@Z 100605a0 f   CppSQLite3U.obj
 0002:0000e620       ?getIntField@CppSqlite3Query@@QAEHHH@Z 10060620 f   CppSQLite3U.obj
 0002:0000e6a0       ?getIntField@CppSqlite3Query@@QAEHPB_WH@Z 100606a0 f   CppSQLite3U.obj
 0002:0000e710       ?getStringField@CppSqlite3Query@@QAEPB_WHPB_W@Z 10060710 f   CppSQLite3U.obj
 0002:0000e790       ?getStringField@CppSqlite3Query@@QAEPB_WPB_W0@Z 10060790 f   CppSQLite3U.obj
 0002:0000e800       ?lastRowId@CppSqlite3DB@@QAE_JXZ 10060800 f   CppSQLite3U.obj
 0002:0000e860       ?nextRow@CppSqlite3Query@@QAEXXZ 10060860 f   CppSQLite3U.obj
 0002:0000e950       ?numFields@CppSqlite3Query@@QAEHXZ 10060950 f   CppSQLite3U.obj
 0002:0000e9b0       ?open@CppSqlite3DB@@QAEXPB_W@Z 100609b0 f   CppSQLite3U.obj
 0002:0000ea80       ?reset@CppSqlite3Statement@@QAEXXZ 10060a80 f   CppSQLite3U.obj
 0002:0000eb40       ?setBusyTimeout@CppSqlite3DB@@QAEXH@Z 10060b40 f   CppSQLite3U.obj
 0002:0000ebb0       ?tableExists@CppSqlite3DB@@QAE_NPB_W@Z 10060bb0 f   CppSQLite3U.obj
 0002:0000ecc0       ??0?$TBuffer@D@baro@@QAE@I@Z 10060cc0 f i crypt.obj
 0002:0000ed50       ??0?$TBuffer@_W@baro@@QAE@I@Z 10060d50 f i crypt.obj
 0002:0000ede0       ??1?$TBuffer@D@baro@@UAE@XZ 10060de0 f i crypt.obj
 0002:0000ee60       ??1?$TBuffer@_W@baro@@UAE@XZ 10060e60 f i crypt.obj
 0002:0000eee0       ??_E?$TBuffer@D@baro@@UAEPAXI@Z 10060ee0 f i crypt.obj
 0002:0000eee0       ??_G?$TBuffer@D@baro@@UAEPAXI@Z 10060ee0 f i crypt.obj
 0002:0000ef50       ??_E?$TBuffer@_W@baro@@UAEPAXI@Z 10060f50 f i crypt.obj
 0002:0000ef50       ??_G?$TBuffer@_W@baro@@UAEPAXI@Z 10060f50 f i crypt.obj
 0002:0000efc0       ?BinaryToStringA@bapi@@YA_NPBEKAAV?$CStringT@DV?$StrTraitMFC_DLL@DV?$ChTraitsCRT@D@ATL@@@@@ATL@@@Z 10060fc0 f   crypt.obj
 0002:0000f3f0       ?BinaryToStringW@bapi@@YA_NPBEKAAV?$CStringT@_WV?$StrTraitMFC_DLL@_WV?$ChTraitsCRT@_W@ATL@@@@@ATL@@@Z 100613f0 f   crypt.obj
 0002:0000f820       ?DecodeAES@bapi@@YA_NPB_W0AAV?$CStringT@_WV?$StrTraitMFC_DLL@_WV?$ChTraitsCRT@_W@ATL@@@@@ATL@@@Z 10061820 f   crypt.obj
 0002:0000fe40       ?DecodeBase64@bapi@@YA_NV?$CStringT@_WV?$StrTraitMFC_DLL@_WV?$ChTraitsCRT@_W@ATL@@@@@ATL@@AAV23@@Z 10061e40 f   crypt.obj
 0002:00010010       ?DecryptString@bapi@@YA_NV?$CStringT@_WV?$StrTraitMFC_DLL@_WV?$ChTraitsCRT@_W@ATL@@@@@ATL@@KAAV23@@Z 10062010 f   crypt.obj
 0002:00010110       ?DecryptStringA@bapi@@YA_NV?$CStringT@DV?$StrTraitMFC_DLL@DV?$ChTraitsCRT@D@ATL@@@@@ATL@@KAAV23@@Z 10062110 f   crypt.obj
 0002:000105f0       ?DecryptStringW@bapi@@YA_NV?$CStringT@_WV?$StrTraitMFC_DLL@_WV?$ChTraitsCRT@_W@ATL@@@@@ATL@@KAAV23@@Z 100625f0 f   crypt.obj
 0002:00010b80       ?EncodeAES@bapi@@YA_NPB_W0AAV?$CStringT@_WV?$StrTraitMFC_DLL@_WV?$ChTraitsCRT@_W@ATL@@@@@ATL@@@Z 10062b80 f   crypt.obj
 0002:000111b0       ?EncodeBase64@bapi@@YA_NV?$CStringT@_WV?$StrTraitMFC_DLL@_WV?$ChTraitsCRT@_W@ATL@@@@@ATL@@AAV23@@Z 100631b0 f   crypt.obj
 0002:00011380       ?EncryptString@bapi@@YA_NV?$CStringT@_WV?$StrTraitMFC_DLL@_WV?$ChTraitsCRT@_W@ATL@@@@@ATL@@KAAV23@@Z 10063380 f   crypt.obj
 0002:00011480       ?EncryptStringA@bapi@@YA_NV?$CStringT@DV?$StrTraitMFC_DLL@DV?$ChTraitsCRT@D@ATL@@@@@ATL@@KAAV23@@Z 10063480 f   crypt.obj
 0002:000119c0       ?EncryptStringW@bapi@@YA_NV?$CStringT@_WV?$StrTraitMFC_DLL@_WV?$ChTraitsCRT@_W@ATL@@@@@ATL@@KAAV23@@Z 100639c0 f   crypt.obj
 0002:00011ef0       ?GetBase64Key@blocal@@YAHPADD@Z 10063ef0 f   crypt.obj
 0002:00011f60       ?GetBuffer@?$TBuffer@D@baro@@QBEPBDI@Z 10063f60 f i crypt.obj
 0002:00011fc0       ?GetBuffer@?$TBuffer@_W@baro@@QBEPB_WI@Z 10063fc0 f i crypt.obj
 0002:00012030       ?LockBuffer@?$TBuffer@D@baro@@QAEPADXZ 10064030 f i crypt.obj
 0002:00012070       ?LockBuffer@?$TBuffer@E@baro@@QAEPAEXZ 10064070 f i crypt.obj
 0002:000120b0       ?LockBuffer@?$TBuffer@_W@baro@@QAEPA_WXZ 100640b0 f i crypt.obj
 0002:000120f0       ?Reset@?$TBuffer@D@baro@@QAEXPBDI@Z 100640f0 f i crypt.obj
 0002:00012270       ?Reset@?$TBuffer@E@baro@@QAEXPBEI@Z 10064270 f i crypt.obj
 0002:000123f0       ?Reset@?$TBuffer@_W@baro@@QAEXPB_WI@Z 100643f0 f i crypt.obj
 0002:000125a0       ?Set@?$TBuffer@D@baro@@QAE_NID@Z 100645a0 f i crypt.obj
 0002:00012610       ?Set@?$TBuffer@_W@baro@@QAE_NI_W@Z 10064610 f i crypt.obj
 0002:00012680       ?StringToBinaryA@bapi@@YA_NPBDAAV?$TBuffer@E@baro@@@Z 10064680 f   crypt.obj
 0002:00012a40       ?StringToBinaryW@bapi@@YA_NPB_WAAV?$TBuffer@E@baro@@@Z 10064a40 f   crypt.obj
 0002:00012e00       ?__autoclassinit2@?$TBuffer@D@baro@@QAEXI@Z 10064e00 f i crypt.obj
 0002:00012e60       ?__autoclassinit2@?$TBuffer@_W@baro@@QAEXI@Z 10064e60 f i crypt.obj
 0002:00012ec0       ?__autoclassinit2@CryptBuffer@baro@@QAEXI@Z 10064ec0 f i crypt.obj
 0002:00012f20       ?base64_decode@blocal@@YAHPADPAEH@Z 10064f20 f   crypt.obj
 0002:00013100       ?base64_encode@blocal@@YAHPADHPAPAD@Z 10065100 f   crypt.obj
 0002:000134f0       _RtlSecureZeroMemory       100654f0 f i crypt.obj
 0002:00013560       ??$?0AAU?$_Callable_obj@V<lambda_92ae8a6edb3cc5c1e2896be211724754>@@$0A@@std@@@?$_Callable_obj@V<lambda_92ae8a6edb3cc5c1e2896be211724754>@@$0A@@std@@QAE@AAU01@@Z 10065560 f i file.obj
 0002:000135d0       ??$?0U?$_Callable_obj@V<lambda_92ae8a6edb3cc5c1e2896be211724754>@@$0A@@std@@@?$_Callable_obj@V<lambda_92ae8a6edb3cc5c1e2896be211724754>@@$0A@@std@@QAE@$$QAU01@@Z 100655d0 f i file.obj
 0002:00013640       ??$?0V<lambda_92ae8a6edb3cc5c1e2896be211724754>@@@?$_Callable_obj@V<lambda_92ae8a6edb3cc5c1e2896be211724754>@@$0A@@std@@QAE@$$QAV<lambda_92ae8a6edb3cc5c1e2896be211724754>@@@Z 10065640 f i file.obj
 0002:000136b0       ??$?0V<lambda_92ae8a6edb3cc5c1e2896be211724754>@@@?$function@$$A6AXV?$CStringT@_WV?$StrTraitMFC_DLL@_WV?$ChTraitsCRT@_W@ATL@@@@@ATL@@AAV?$vector@V?$CStringT@_WV?$StrTraitMFC_DLL@_WV?$ChTraitsCRT@_W@ATL@@@@@ATL@@V?$allocator@V?$CStringT@_WV?$StrTraitMFC_DLL@_WV?$ChTraitsCRT@_W@ATL@@@@@ATL@@@std@@@std@@@Z@std@@QAE@$$QAV<lambda_92ae8a6edb3cc5c1e2896be211724754>@@@Z 100656b0 f i file.obj
 0002:00013770       ??$?0V?$_Func_class@XV?$CStringT@_WV?$StrTraitMFC_DLL@_WV?$ChTraitsCRT@_W@ATL@@@@@ATL@@AAV?$vector@V?$CStringT@_WV?$StrTraitMFC_DLL@_WV?$ChTraitsCRT@_W@ATL@@@@@ATL@@V?$allocator@V?$CStringT@_WV?$StrTraitMFC_DLL@_WV?$ChTraitsCRT@_W@ATL@@@@@ATL@@@std@@@std@@@std@@@?$allocator@V?$_Func_impl@U?$_Callable_obj@V<lambda_92ae8a6edb3cc5c1e2896be211724754>@@$0A@@std@@V?$allocator@V?$_Func_class@XV?$CStringT@_WV?$StrTraitMFC_DLL@_WV?$ChTraitsCRT@_W@ATL@@@@@ATL@@AAV?$vector@V?$CStringT@_WV?$StrTraitMFC_DLL@_WV?$ChTraitsCRT@_W@ATL@@@@@ATL@@V?$allocator@V?$CStringT@_WV?$StrTraitMFC_DLL@_WV?$ChTraitsCRT@_W@ATL@@@@@ATL@@@std@@@std@@@std@@@2@XV?$CStringT@_WV?$StrTraitMFC_DLL@_WV?$ChTraitsCRT@_W@ATL@@@@@ATL@@AAV?$vector@V?$CStringT@_WV?$StrTraitMFC_DLL@_WV?$ChTraitsCRT@_W@ATL@@@@@ATL@@V?$allocator@V?$CStringT@_WV?$StrTraitMFC_DLL@_WV?$ChTraitsCRT@_W@ATL@@@@@ATL@@@std@@@2@@std@@@std@@QAE@ABV?$allocator@V?$_Func_class@XV?$CStringT@_WV?$StrTraitMFC_DLL@_WV?$ChTraitsCRT@_W@ATL@@@@@ATL@@AAV?$vector@V?$CStringT@_WV?$StrTraitMFC_DLL@_WV?$ChTraitsCRT@_W@ATL@@@@@ATL@@V?$allocator@V?$CStringT@_WV?$StrTraitMFC_DLL@_WV?$ChTraitsCRT@_W@ATL@@@@@ATL@@@std@@@std@@@std@@@1@@Z 10065770 f i file.obj
 0002:000137b0       ??$?8V?$CStringT@_WV?$StrTraitMFC_DLL@_WV?$ChTraitsCRT@_W@ATL@@@@@ATL@@V01@@std@@YA_NABV?$allocator@V?$CStringT@_WV?$StrTraitMFC_DLL@_WV?$ChTraitsCRT@_W@ATL@@@@@ATL@@@0@0@Z 100657b0 f i file.obj
 0002:000137e0       ??$?8V?$_Vector_iterator@V?$_Vector_val@U?$_Simple_types@V?$CStringT@_WV?$StrTraitMFC_DLL@_WV?$ChTraitsCRT@_W@ATL@@@@@ATL@@@std@@@std@@@std@@V01@@std@@YA_NABV?$move_iterator@V?$_Vector_iterator@V?$_Vector_val@U?$_Simple_types@V?$CStringT@_WV?$StrTraitMFC_DLL@_WV?$ChTraitsCRT@_W@ATL@@@@@ATL@@@std@@@std@@@std@@@0@0@Z 100657e0 f i file.obj
 0002:00013830       ??$?9V?$_Vector_iterator@V?$_Vector_val@U?$_Simple_types@V?$CStringT@_WV?$StrTraitMFC_DLL@_WV?$ChTraitsCRT@_W@ATL@@@@@ATL@@@std@@@std@@@std@@V01@@std@@YA_NABV?$move_iterator@V?$_Vector_iterator@V?$_Vector_val@U?$_Simple_types@V?$CStringT@_WV?$StrTraitMFC_DLL@_WV?$ChTraitsCRT@_W@ATL@@@@@ATL@@@std@@@std@@@std@@@0@0@Z 10065830 f i file.obj
 0002:000138b0       ??$?GV?$_Vector_iterator@V?$_Vector_val@U?$_Simple_types@V?$CStringT@_WV?$StrTraitMFC_DLL@_WV?$ChTraitsCRT@_W@ATL@@@@@ATL@@@std@@@std@@@std@@V01@@std@@YAHAAV?$move_iterator@V?$_Vector_iterator@V?$_Vector_val@U?$_Simple_types@V?$CStringT@_WV?$StrTraitMFC_DLL@_WV?$ChTraitsCRT@_W@ATL@@@@@ATL@@@std@@@std@@@std@@@0@ABV10@@Z 100658b0 f i file.obj
 0002:000139e0       ??$?MV?$_Vector_iterator@V?$_Vector_val@U?$_Simple_types@V?$CStringT@_WV?$StrTraitMFC_DLL@_WV?$ChTraitsCRT@_W@ATL@@@@@ATL@@@std@@@std@@@std@@V01@@std@@YA_NABV?$move_iterator@V?$_Vector_iterator@V?$_Vector_val@U?$_Simple_types@V?$CStringT@_WV?$StrTraitMFC_DLL@_WV?$ChTraitsCRT@_W@ATL@@@@@ATL@@@std@@@std@@@std@@@0@0@Z 100659e0 f i file.obj
 0002:00013a30       ??$_Allocate@U_Container_proxy@std@@@std@@YAPAU_Container_proxy@0@IPAU10@@Z 10065a30 f i file.obj
 0002:00013ad0       ??$_Allocate@V?$CStringT@_WV?$StrTraitMFC_DLL@_WV?$ChTraitsCRT@_W@ATL@@@@@ATL@@@std@@YAPAV?$CStringT@_WV?$StrTraitMFC_DLL@_WV?$ChTraitsCRT@_W@ATL@@@@@ATL@@IPAV12@@Z 10065ad0 f i file.obj
 0002:00013b70       ??$_Allocate@V?$_Func_impl@U?$_Callable_obj@V<lambda_92ae8a6edb3cc5c1e2896be211724754>@@$0A@@std@@V?$allocator@V?$_Func_class@XV?$CStringT@_WV?$StrTraitMFC_DLL@_WV?$ChTraitsCRT@_W@ATL@@@@@ATL@@AAV?$vector@V?$CStringT@_WV?$StrTraitMFC_DLL@_WV?$ChTraitsCRT@_W@ATL@@@@@ATL@@V?$allocator@V?$CStringT@_WV?$StrTraitMFC_DLL@_WV?$ChTraitsCRT@_W@ATL@@@@@ATL@@@std@@@std@@@std@@@2@XV?$CStringT@_WV?$StrTraitMFC_DLL@_WV?$ChTraitsCRT@_W@ATL@@@@@ATL@@AAV?$vector@V?$CStringT@_WV?$StrTraitMFC_DLL@_WV?$ChTraitsCRT@_W@ATL@@@@@ATL@@V?$allocator@V?$CStringT@_WV?$StrTraitMFC_DLL@_WV?$ChTraitsCRT@_W@ATL@@@@@ATL@@@std@@@2@@std@@@std@@YAPAV?$_Func_impl@U?$_Callable_obj@V<lambda_92ae8a6edb3cc5c1e2896be211724754>@@$0A@@std@@V?$allocator@V?$_Func_class@XV?$CStringT@_WV?$StrTraitMFC_DLL@_WV?$ChTraitsCRT@_W@ATL@@@@@ATL@@AAV?$vector@V?$CStringT@_WV?$StrTraitMFC_DLL@_WV?$ChTraitsCRT@_W@ATL@@@@@ATL@@V?$allocator@V?$CStringT@_WV?$StrTraitMFC_DLL@_WV?$ChTraitsCRT@_W@ATL@@@@@ATL@@@std@@@std@@@std@@@2@XV?$CStringT@_WV?$StrTraitMFC_DLL@_WV?$ChTraitsCRT@_W@ATL@@@@@ATL@@AAV?$vector@V?$CStringT@_WV?$StrTraitMFC_DLL@_WV?$ChTraitsCRT@_W@ATL@@@@@ATL@@V?$allocator@V?$CStringT@_WV?$StrTraitMFC_DLL@_WV?$ChTraitsCRT@_W@ATL@@@@@ATL@@@std@@@2@@0@IPAV10@@Z 10065b70 f i file.obj
 0002:00013c00       ??$_ApplyX@XV?$CStringT@_WV?$StrTraitMFC_DLL@_WV?$ChTraitsCRT@_W@ATL@@@@@ATL@@AAV?$vector@V?$CStringT@_WV?$StrTraitMFC_DLL@_WV?$ChTraitsCRT@_W@ATL@@@@@ATL@@V?$allocator@V?$CStringT@_WV?$StrTraitMFC_DLL@_WV?$ChTraitsCRT@_W@ATL@@@@@ATL@@@std@@@std@@@?$_Callable_obj@V<lambda_92ae8a6edb3cc5c1e2896be211724754>@@$0A@@std@@QAEX$$QAV?$CStringT@_WV?$StrTraitMFC_DLL@_WV?$ChTraitsCRT@_W@ATL@@@@@ATL@@AAV?$vector@V?$CStringT@_WV?$StrTraitMFC_DLL@_WV?$ChTraitsCRT@_W@ATL@@@@@ATL@@V?$allocator@V?$CStringT@_WV?$StrTraitMFC_DLL@_WV?$ChTraitsCRT@_W@ATL@@@@@ATL@@@std@@@1@@Z 10065c00 f i file.obj
 0002:00013cf0       ??$_Construct@V?$move_iterator@V?$_Vector_iterator@V?$_Vector_val@U?$_Simple_types@V?$CStringT@_WV?$StrTraitMFC_DLL@_WV?$ChTraitsCRT@_W@ATL@@@@@ATL@@@std@@@std@@@std@@@std@@@?$vector@V?$CStringT@_WV?$StrTraitMFC_DLL@_WV?$ChTraitsCRT@_W@ATL@@@@@ATL@@V?$allocator@V?$CStringT@_WV?$StrTraitMFC_DLL@_WV?$ChTraitsCRT@_W@ATL@@@@@ATL@@@std@@@std@@QAEXV?$move_iterator@V?$_Vector_iterator@V?$_Vector_val@U?$_Simple_types@V?$CStringT@_WV?$StrTraitMFC_DLL@_WV?$ChTraitsCRT@_W@ATL@@@@@ATL@@@std@@@std@@@std@@@1@0@Z 10065cf0 f i file.obj
 0002:00013e30       ??$_Construct@V?$move_iterator@V?$_Vector_iterator@V?$_Vector_val@U?$_Simple_types@V?$CStringT@_WV?$StrTraitMFC_DLL@_WV?$ChTraitsCRT@_W@ATL@@@@@ATL@@@std@@@std@@@std@@@std@@@?$vector@V?$CStringT@_WV?$StrTraitMFC_DLL@_WV?$ChTraitsCRT@_W@ATL@@@@@ATL@@V?$allocator@V?$CStringT@_WV?$StrTraitMFC_DLL@_WV?$ChTraitsCRT@_W@ATL@@@@@ATL@@@std@@@std@@QAEXV?$move_iterator@V?$_Vector_iterator@V?$_Vector_val@U?$_Simple_types@V?$CStringT@_WV?$StrTraitMFC_DLL@_WV?$ChTraitsCRT@_W@ATL@@@@@ATL@@@std@@@std@@@std@@@1@0Uforward_iterator_tag@1@@Z 10065e30 f i file.obj
 0002:00014030       ??$_Debug_pointer@V?$CStringT@_WV?$StrTraitMFC_DLL@_WV?$ChTraitsCRT@_W@ATL@@@@@ATL@@@std@@YAXPAV?$CStringT@_WV?$StrTraitMFC_DLL@_WV?$ChTraitsCRT@_W@ATL@@@@@ATL@@PB_WI@Z 10066030 f i file.obj
 0002:000140a0       ??$_Debug_pointer@V?$move_iterator@V?$_Vector_iterator@V?$_Vector_val@U?$_Simple_types@V?$CStringT@_WV?$StrTraitMFC_DLL@_WV?$ChTraitsCRT@_W@ATL@@@@@ATL@@@std@@@std@@@std@@@std@@@std@@YAXAAV?$move_iterator@V?$_Vector_iterator@V?$_Vector_val@U?$_Simple_types@V?$CStringT@_WV?$StrTraitMFC_DLL@_WV?$ChTraitsCRT@_W@ATL@@@@@ATL@@@std@@@std@@@std@@@0@PB_WI@Z 100660a0 f i file.obj
 0002:000140d0       ??$_Debug_range2@PAV?$CStringT@_WV?$StrTraitMFC_DLL@_WV?$ChTraitsCRT@_W@ATL@@@@@ATL@@@std@@YAXPAV?$CStringT@_WV?$StrTraitMFC_DLL@_WV?$ChTraitsCRT@_W@ATL@@@@@ATL@@0PB_WIUrandom_access_iterator_tag@0@@Z 100660d0 f i file.obj
 0002:00014180       ??$_Debug_range2@V?$move_iterator@V?$_Vector_iterator@V?$_Vector_val@U?$_Simple_types@V?$CStringT@_WV?$StrTraitMFC_DLL@_WV?$ChTraitsCRT@_W@ATL@@@@@ATL@@@std@@@std@@@std@@@std@@@std@@YAXV?$move_iterator@V?$_Vector_iterator@V?$_Vector_val@U?$_Simple_types@V?$CStringT@_WV?$StrTraitMFC_DLL@_WV?$ChTraitsCRT@_W@ATL@@@@@ATL@@@std@@@std@@@std@@@0@0PB_WIUrandom_access_iterator_tag@0@@Z 10066180 f i file.obj
 0002:000142b0       ??$_Debug_range@PAV?$CStringT@_WV?$StrTraitMFC_DLL@_WV?$ChTraitsCRT@_W@ATL@@@@@ATL@@@std@@YAXPAV?$CStringT@_WV?$StrTraitMFC_DLL@_WV?$ChTraitsCRT@_W@ATL@@@@@ATL@@0PB_WI@Z 100662b0 f i file.obj
 0002:00014330       ??$_Debug_range@V?$move_iterator@V?$_Vector_iterator@V?$_Vector_val@U?$_Simple_types@V?$CStringT@_WV?$StrTraitMFC_DLL@_WV?$ChTraitsCRT@_W@ATL@@@@@ATL@@@std@@@std@@@std@@@std@@@std@@YAXV?$move_iterator@V?$_Vector_iterator@V?$_Vector_val@U?$_Simple_types@V?$CStringT@_WV?$StrTraitMFC_DLL@_WV?$ChTraitsCRT@_W@ATL@@@@@ATL@@@std@@@std@@@std@@@0@0PB_WI@Z 10066330 f i file.obj
 0002:00014460       ??$_Destroy_range@U?$_Wrap_alloc@V?$allocator@V?$CStringT@_WV?$StrTraitMFC_DLL@_WV?$ChTraitsCRT@_W@ATL@@@@@ATL@@@std@@@std@@@std@@YAXPAV?$CStringT@_WV?$StrTraitMFC_DLL@_WV?$ChTraitsCRT@_W@ATL@@@@@ATL@@0AAU?$_Wrap_alloc@V?$allocator@V?$CStringT@_WV?$StrTraitMFC_DLL@_WV?$ChTraitsCRT@_W@ATL@@@@@ATL@@@std@@@0@@Z 10066460 f i file.obj
 0002:000144e0       ??$_Destroy_range@U?$_Wrap_alloc@V?$allocator@V?$CStringT@_WV?$StrTraitMFC_DLL@_WV?$ChTraitsCRT@_W@ATL@@@@@ATL@@@std@@@std@@@std@@YAXPAV?$CStringT@_WV?$StrTraitMFC_DLL@_WV?$ChTraitsCRT@_W@ATL@@@@@ATL@@0AAU?$_Wrap_alloc@V?$allocator@V?$CStringT@_WV?$StrTraitMFC_DLL@_WV?$ChTraitsCRT@_W@ATL@@@@@ATL@@@std@@@0@U_Nonscalar_ptr_iterator_tag@0@@Z 100664e0 f i file.obj
 0002:00014550       ??$_Distance2@V?$move_iterator@V?$_Vector_iterator@V?$_Vector_val@U?$_Simple_types@V?$CStringT@_WV?$StrTraitMFC_DLL@_WV?$ChTraitsCRT@_W@ATL@@@@@ATL@@@std@@@std@@@std@@@std@@H@std@@YAXV?$move_iterator@V?$_Vector_iterator@V?$_Vector_val@U?$_Simple_types@V?$CStringT@_WV?$StrTraitMFC_DLL@_WV?$ChTraitsCRT@_W@ATL@@@@@ATL@@@std@@@std@@@std@@@0@0AAHUrandom_access_iterator_tag@0@@Z 10066550 f i file.obj
 0002:00014670       ??$_Do_alloc@V?$_Func_impl@U?$_Callable_obj@V<lambda_92ae8a6edb3cc5c1e2896be211724754>@@$0A@@std@@V?$allocator@V?$_Func_class@XV?$CStringT@_WV?$StrTraitMFC_DLL@_WV?$ChTraitsCRT@_W@ATL@@@@@ATL@@AAV?$vector@V?$CStringT@_WV?$StrTraitMFC_DLL@_WV?$ChTraitsCRT@_W@ATL@@@@@ATL@@V?$allocator@V?$CStringT@_WV?$StrTraitMFC_DLL@_WV?$ChTraitsCRT@_W@ATL@@@@@ATL@@@std@@@std@@@std@@@2@XV?$CStringT@_WV?$StrTraitMFC_DLL@_WV?$ChTraitsCRT@_W@ATL@@@@@ATL@@AAV?$vector@V?$CStringT@_WV?$StrTraitMFC_DLL@_WV?$ChTraitsCRT@_W@ATL@@@@@ATL@@V?$allocator@V?$CStringT@_WV?$StrTraitMFC_DLL@_WV?$ChTraitsCRT@_W@ATL@@@@@ATL@@@std@@@2@@std@@V<lambda_92ae8a6edb3cc5c1e2896be211724754>@@V?$allocator@V?$_Func_class@XV?$CStringT@_WV?$StrTraitMFC_DLL@_WV?$ChTraitsCRT@_W@ATL@@@@@ATL@@AAV?$vector@V?$CStringT@_WV?$StrTraitMFC_DLL@_WV?$ChTraitsCRT@_W@ATL@@@@@ATL@@V?$allocator@V?$CStringT@_WV?$StrTraitMFC_DLL@_WV?$ChTraitsCRT@_W@ATL@@@@@ATL@@@std@@@std@@@std@@@2@@?$_Func_class@XV?$CStringT@_WV?$StrTraitMFC_DLL@_WV?$ChTraitsCRT@_W@ATL@@@@@ATL@@AAV?$vector@V?$CStringT@_WV?$StrTraitMFC_DLL@_WV?$ChTraitsCRT@_W@ATL@@@@@ATL@@V?$allocator@V?$CStringT@_WV?$StrTraitMFC_DLL@_WV?$ChTraitsCRT@_W@ATL@@@@@ATL@@@std@@@std@@@std@@AAEX$$QAV<lambda_92ae8a6edb3cc5c1e2896be211724754>@@V?$allocator@V?$_Func_class@XV?$CStringT@_WV?$StrTraitMFC_DLL@_WV?$ChTraitsCRT@_W@ATL@@@@@ATL@@AAV?$vector@V?$CStringT@_WV?$StrTraitMFC_DLL@_WV?$ChTraitsCRT@_W@ATL@@@@@ATL@@V?$allocator@V?$CStringT@_WV?$StrTraitMFC_DLL@_WV?$ChTraitsCRT@_W@ATL@@@@@ATL@@@std@@@std@@@std@@@1@@Z 10066670 f i file.obj
 0002:000148e0       ??$_Equal@V?$_Vector_iterator@V?$_Vector_val@U?$_Simple_types@V?$CStringT@_WV?$StrTraitMFC_DLL@_WV?$ChTraitsCRT@_W@ATL@@@@@ATL@@@std@@@std@@@std@@@?$move_iterator@V?$_Vector_iterator@V?$_Vector_val@U?$_Simple_types@V?$CStringT@_WV?$StrTraitMFC_DLL@_WV?$ChTraitsCRT@_W@ATL@@@@@ATL@@@std@@@std@@@std@@@std@@QBE_NABV01@@Z 100668e0 f i file.obj
 0002:000149d0       ??$_Iter_cat@PAV?$CStringT@_WV?$StrTraitMFC_DLL@_WV?$ChTraitsCRT@_W@ATL@@@@@ATL@@@std@@YA?AUrandom_access_iterator_tag@0@ABQAV?$CStringT@_WV?$StrTraitMFC_DLL@_WV?$ChTraitsCRT@_W@ATL@@@@@ATL@@@Z 100669d0 f i file.obj
 0002:00014a50       ??$_Iter_cat@V?$move_iterator@V?$_Vector_iterator@V?$_Vector_val@U?$_Simple_types@V?$CStringT@_WV?$StrTraitMFC_DLL@_WV?$ChTraitsCRT@_W@ATL@@@@@ATL@@@std@@@std@@@std@@@std@@@std@@YA?AUrandom_access_iterator_tag@0@ABV?$move_iterator@V?$_Vector_iterator@V?$_Vector_val@U?$_Simple_types@V?$CStringT@_WV?$StrTraitMFC_DLL@_WV?$ChTraitsCRT@_W@ATL@@@@@ATL@@@std@@@std@@@std@@@0@@Z 10066a50 f i file.obj
 0002:00014ad0       ??$_Less@V?$_Vector_iterator@V?$_Vector_val@U?$_Simple_types@V?$CStringT@_WV?$StrTraitMFC_DLL@_WV?$ChTraitsCRT@_W@ATL@@@@@ATL@@@std@@@std@@@std@@@?$move_iterator@V?$_Vector_iterator@V?$_Vector_val@U?$_Simple_types@V?$CStringT@_WV?$StrTraitMFC_DLL@_WV?$ChTraitsCRT@_W@ATL@@@@@ATL@@@std@@@std@@@std@@@std@@QBE_NABV01@@Z 10066ad0 f i file.obj
 0002:00014bc0       ??$_Ptr_cat@V?$CStringT@_WV?$StrTraitMFC_DLL@_WV?$ChTraitsCRT@_W@ATL@@@@@ATL@@V12@@std@@YA?AU_Nonscalar_ptr_iterator_tag@0@PAV?$CStringT@_WV?$StrTraitMFC_DLL@_WV?$ChTraitsCRT@_W@ATL@@@@@ATL@@0@Z 10066bc0 f i file.obj
 0002:00014c30       ??$_Ptr_cat@V?$move_iterator@V?$_Vector_iterator@V?$_Vector_val@U?$_Simple_types@V?$CStringT@_WV?$StrTraitMFC_DLL@_WV?$ChTraitsCRT@_W@ATL@@@@@ATL@@@std@@@std@@@std@@@std@@PAV?$CStringT@_WV?$StrTraitMFC_DLL@_WV?$ChTraitsCRT@_W@ATL@@@@@ATL@@@std@@YA?AU_Nonscalar_ptr_iterator_tag@0@AAV?$move_iterator@V?$_Vector_iterator@V?$_Vector_val@U?$_Simple_types@V?$CStringT@_WV?$StrTraitMFC_DLL@_WV?$ChTraitsCRT@_W@ATL@@@@@ATL@@@std@@@std@@@std@@@0@AAPAV?$CStringT@_WV?$StrTraitMFC_DLL@_WV?$ChTraitsCRT@_W@ATL@@@@@ATL@@@Z 10066c30 f i file.obj
 0002:00014ca0       ??$_Rechecked@PAV?$CStringT@_WV?$StrTraitMFC_DLL@_WV?$ChTraitsCRT@_W@ATL@@@@@ATL@@PAV12@@std@@YAAAPAV?$CStringT@_WV?$StrTraitMFC_DLL@_WV?$ChTraitsCRT@_W@ATL@@@@@ATL@@AAPAV12@PAV12@@Z 10066ca0 f i file.obj
 0002:00014ce0       ??$_Reset@V<lambda_92ae8a6edb3cc5c1e2896be211724754>@@@?$_Func_class@XV?$CStringT@_WV?$StrTraitMFC_DLL@_WV?$ChTraitsCRT@_W@ATL@@@@@ATL@@AAV?$vector@V?$CStringT@_WV?$StrTraitMFC_DLL@_WV?$ChTraitsCRT@_W@ATL@@@@@ATL@@V?$allocator@V?$CStringT@_WV?$StrTraitMFC_DLL@_WV?$ChTraitsCRT@_W@ATL@@@@@ATL@@@std@@@std@@@std@@IAEX$$QAV<lambda_92ae8a6edb3cc5c1e2896be211724754>@@@Z 10066ce0 f i file.obj
 0002:00014d50       ??$_Reset_alloc@V<lambda_92ae8a6edb3cc5c1e2896be211724754>@@V?$allocator@V?$_Func_class@XV?$CStringT@_WV?$StrTraitMFC_DLL@_WV?$ChTraitsCRT@_W@ATL@@@@@ATL@@AAV?$vector@V?$CStringT@_WV?$StrTraitMFC_DLL@_WV?$ChTraitsCRT@_W@ATL@@@@@ATL@@V?$allocator@V?$CStringT@_WV?$StrTraitMFC_DLL@_WV?$ChTraitsCRT@_W@ATL@@@@@ATL@@@std@@@std@@@std@@@std@@@?$_Func_class@XV?$CStringT@_WV?$StrTraitMFC_DLL@_WV?$ChTraitsCRT@_W@ATL@@@@@ATL@@AAV?$vector@V?$CStringT@_WV?$StrTraitMFC_DLL@_WV?$ChTraitsCRT@_W@ATL@@@@@ATL@@V?$allocator@V?$CStringT@_WV?$StrTraitMFC_DLL@_WV?$ChTraitsCRT@_W@ATL@@@@@ATL@@@std@@@std@@@std@@IAEX$$QAV<lambda_92ae8a6edb3cc5c1e2896be211724754>@@V?$allocator@V?$_Func_class@XV?$CStringT@_WV?$StrTraitMFC_DLL@_WV?$ChTraitsCRT@_W@ATL@@@@@ATL@@AAV?$vector@V?$CStringT@_WV?$StrTraitMFC_DLL@_WV?$ChTraitsCRT@_W@ATL@@@@@ATL@@V?$allocator@V?$CStringT@_WV?$StrTraitMFC_DLL@_WV?$ChTraitsCRT@_W@ATL@@@@@ATL@@@std@@@std@@@std@@@1@@Z 10066d50 f i file.obj
 0002:00014dc0       ??$_Test_callable@V<lambda_92ae8a6edb3cc5c1e2896be211724754>@@@std@@YA_NAAV<lambda_92ae8a6edb3cc5c1e2896be211724754>@@@Z 10066dc0 f i file.obj
 0002:00014e20       ??$_Test_callable@V<lambda_92ae8a6edb3cc5c1e2896be211724754>@@@std@@YA_NAAV<lambda_92ae8a6edb3cc5c1e2896be211724754>@@U?$integral_constant@_N$0A@@0@@Z 10066e20 f i file.obj
 0002:00014e50       ??$_Ucopy@V?$move_iterator@V?$_Vector_iterator@V?$_Vector_val@U?$_Simple_types@V?$CStringT@_WV?$StrTraitMFC_DLL@_WV?$ChTraitsCRT@_W@ATL@@@@@ATL@@@std@@@std@@@std@@@std@@@?$vector@V?$CStringT@_WV?$StrTraitMFC_DLL@_WV?$ChTraitsCRT@_W@ATL@@@@@ATL@@V?$allocator@V?$CStringT@_WV?$StrTraitMFC_DLL@_WV?$ChTraitsCRT@_W@ATL@@@@@ATL@@@std@@@std@@IAEPAV?$CStringT@_WV?$StrTraitMFC_DLL@_WV?$ChTraitsCRT@_W@ATL@@@@@ATL@@V?$move_iterator@V?$_Vector_iterator@V?$_Vector_val@U?$_Simple_types@V?$CStringT@_WV?$StrTraitMFC_DLL@_WV?$ChTraitsCRT@_W@ATL@@@@@ATL@@@std@@@std@@@std@@@1@0PAV23@@Z 10066e50 f i file.obj
 0002:00014fe0       ??$_Umove@PAV?$CStringT@_WV?$StrTraitMFC_DLL@_WV?$ChTraitsCRT@_W@ATL@@@@@ATL@@@?$vector@V?$CStringT@_WV?$StrTraitMFC_DLL@_WV?$ChTraitsCRT@_W@ATL@@@@@ATL@@V?$allocator@V?$CStringT@_WV?$StrTraitMFC_DLL@_WV?$ChTraitsCRT@_W@ATL@@@@@ATL@@@std@@@std@@IAEPAV?$CStringT@_WV?$StrTraitMFC_DLL@_WV?$ChTraitsCRT@_W@ATL@@@@@ATL@@PAV23@00@Z 10066fe0 f i file.obj
 0002:000150b0       ??$_Unchecked@PAV?$CStringT@_WV?$StrTraitMFC_DLL@_WV?$ChTraitsCRT@_W@ATL@@@@@ATL@@@std@@YAPAV?$CStringT@_WV?$StrTraitMFC_DLL@_WV?$ChTraitsCRT@_W@ATL@@@@@ATL@@PAV12@@Z 100670b0 f i file.obj
 0002:000150f0       ??$_Unchecked@V?$move_iterator@V?$_Vector_iterator@V?$_Vector_val@U?$_Simple_types@V?$CStringT@_WV?$StrTraitMFC_DLL@_WV?$ChTraitsCRT@_W@ATL@@@@@ATL@@@std@@@std@@@std@@@std@@@std@@YA?AV?$move_iterator@V?$_Vector_iterator@V?$_Vector_val@U?$_Simple_types@V?$CStringT@_WV?$StrTraitMFC_DLL@_WV?$ChTraitsCRT@_W@ATL@@@@@ATL@@@std@@@std@@@std@@@0@V10@@Z 100670f0 f i file.obj
 0002:000151b0       ??$_Uninit_copy@V?$move_iterator@V?$_Vector_iterator@V?$_Vector_val@U?$_Simple_types@V?$CStringT@_WV?$StrTraitMFC_DLL@_WV?$ChTraitsCRT@_W@ATL@@@@@ATL@@@std@@@std@@@std@@@std@@PAV?$CStringT@_WV?$StrTraitMFC_DLL@_WV?$ChTraitsCRT@_W@ATL@@@@@ATL@@U?$_Wrap_alloc@V?$allocator@V?$CStringT@_WV?$StrTraitMFC_DLL@_WV?$ChTraitsCRT@_W@ATL@@@@@ATL@@@std@@@2@@std@@YAPAV?$CStringT@_WV?$StrTraitMFC_DLL@_WV?$ChTraitsCRT@_W@ATL@@@@@ATL@@V?$move_iterator@V?$_Vector_iterator@V?$_Vector_val@U?$_Simple_types@V?$CStringT@_WV?$StrTraitMFC_DLL@_WV?$ChTraitsCRT@_W@ATL@@@@@ATL@@@std@@@std@@@std@@@0@0PAV12@AAU?$_Wrap_alloc@V?$allocator@V?$CStringT@_WV?$StrTraitMFC_DLL@_WV?$ChTraitsCRT@_W@ATL@@@@@ATL@@@std@@@0@@Z 100671b0 f i file.obj
 0002:00015300       ??$_Uninit_copy@V?$move_iterator@V?$_Vector_iterator@V?$_Vector_val@U?$_Simple_types@V?$CStringT@_WV?$StrTraitMFC_DLL@_WV?$ChTraitsCRT@_W@ATL@@@@@ATL@@@std@@@std@@@std@@@std@@PAV?$CStringT@_WV?$StrTraitMFC_DLL@_WV?$ChTraitsCRT@_W@ATL@@@@@ATL@@V?$allocator@V?$CStringT@_WV?$StrTraitMFC_DLL@_WV?$ChTraitsCRT@_W@ATL@@@@@ATL@@@2@@std@@YAPAV?$CStringT@_WV?$StrTraitMFC_DLL@_WV?$ChTraitsCRT@_W@ATL@@@@@ATL@@V?$move_iterator@V?$_Vector_iterator@V?$_Vector_val@U?$_Simple_types@V?$CStringT@_WV?$StrTraitMFC_DLL@_WV?$ChTraitsCRT@_W@ATL@@@@@ATL@@@std@@@std@@@std@@@0@0PAV12@AAU?$_Wrap_alloc@V?$allocator@V?$CStringT@_WV?$StrTraitMFC_DLL@_WV?$ChTraitsCRT@_W@ATL@@@@@ATL@@@std@@@0@U_Nonscalar_ptr_iterator_tag@0@@Z 10067300 f i file.obj
 0002:00015510       ??$_Uninit_move@PAV?$CStringT@_WV?$StrTraitMFC_DLL@_WV?$ChTraitsCRT@_W@ATL@@@@@ATL@@PAV12@U?$_Wrap_alloc@V?$allocator@V?$CStringT@_WV?$StrTraitMFC_DLL@_WV?$ChTraitsCRT@_W@ATL@@@@@ATL@@@std@@@std@@@std@@YAPAV?$CStringT@_WV?$StrTraitMFC_DLL@_WV?$ChTraitsCRT@_W@ATL@@@@@ATL@@PAV12@00AAU?$_Wrap_alloc@V?$allocator@V?$CStringT@_WV?$StrTraitMFC_DLL@_WV?$ChTraitsCRT@_W@ATL@@@@@ATL@@@std@@@0@@Z 10067510 f i file.obj
 0002:000155b0       ??$_Uninit_move@PAV?$CStringT@_WV?$StrTraitMFC_DLL@_WV?$ChTraitsCRT@_W@ATL@@@@@ATL@@PAV12@V?$allocator@V?$CStringT@_WV?$StrTraitMFC_DLL@_WV?$ChTraitsCRT@_W@ATL@@@@@ATL@@@std@@V12@@std@@YAPAV?$CStringT@_WV?$StrTraitMFC_DLL@_WV?$ChTraitsCRT@_W@ATL@@@@@ATL@@PAV12@00AAU?$_Wrap_alloc@V?$allocator@V?$CStringT@_WV?$StrTraitMFC_DLL@_WV?$ChTraitsCRT@_W@ATL@@@@@ATL@@@std@@@0@0U_Nonscalar_ptr_iterator_tag@0@@Z 100675b0 f i file.obj
 0002:00015710       ??$_Uninitialized_copy@V?$move_iterator@V?$_Vector_iterator@V?$_Vector_val@U?$_Simple_types@V?$CStringT@_WV?$StrTraitMFC_DLL@_WV?$ChTraitsCRT@_W@ATL@@@@@ATL@@@std@@@std@@@std@@@std@@PAV?$CStringT@_WV?$StrTraitMFC_DLL@_WV?$ChTraitsCRT@_W@ATL@@@@@ATL@@U?$_Wrap_alloc@V?$allocator@V?$CStringT@_WV?$StrTraitMFC_DLL@_WV?$ChTraitsCRT@_W@ATL@@@@@ATL@@@std@@@2@@std@@YAPAV?$CStringT@_WV?$StrTraitMFC_DLL@_WV?$ChTraitsCRT@_W@ATL@@@@@ATL@@V?$move_iterator@V?$_Vector_iterator@V?$_Vector_val@U?$_Simple_types@V?$CStringT@_WV?$StrTraitMFC_DLL@_WV?$ChTraitsCRT@_W@ATL@@@@@ATL@@@std@@@std@@@std@@@0@0PAV12@AAU?$_Wrap_alloc@V?$allocator@V?$CStringT@_WV?$StrTraitMFC_DLL@_WV?$ChTraitsCRT@_W@ATL@@@@@ATL@@@std@@@0@@Z 10067710 f i file.obj
 0002:000158b0       ??$_Uninitialized_move@PAV?$CStringT@_WV?$StrTraitMFC_DLL@_WV?$ChTraitsCRT@_W@ATL@@@@@ATL@@PAV12@U?$_Wrap_alloc@V?$allocator@V?$CStringT@_WV?$StrTraitMFC_DLL@_WV?$ChTraitsCRT@_W@ATL@@@@@ATL@@@std@@@std@@@std@@YAPAV?$CStringT@_WV?$StrTraitMFC_DLL@_WV?$ChTraitsCRT@_W@ATL@@@@@ATL@@PAV12@00AAU?$_Wrap_alloc@V?$allocator@V?$CStringT@_WV?$StrTraitMFC_DLL@_WV?$ChTraitsCRT@_W@ATL@@@@@ATL@@@std@@@0@@Z 100678b0 f i file.obj
 0002:00015950       ??$_Val_type@PAV?$CStringT@_WV?$StrTraitMFC_DLL@_WV?$ChTraitsCRT@_W@ATL@@@@@ATL@@@std@@YAPAV?$CStringT@_WV?$StrTraitMFC_DLL@_WV?$ChTraitsCRT@_W@ATL@@@@@ATL@@PAV12@@Z 10067950 f i file.obj
 0002:00015980       ??$addressof@$$CBV?$CStringT@_WV?$StrTraitMFC_DLL@_WV?$ChTraitsCRT@_W@ATL@@@@@ATL@@@std@@YAPBV?$CStringT@_WV?$StrTraitMFC_DLL@_WV?$ChTraitsCRT@_W@ATL@@@@@ATL@@ABV12@@Z 10067980 f i file.obj
 0002:000159c0       ??$addressof@V?$CStringT@_WV?$StrTraitMFC_DLL@_WV?$ChTraitsCRT@_W@ATL@@@@@ATL@@@std@@YAPAV?$CStringT@_WV?$StrTraitMFC_DLL@_WV?$ChTraitsCRT@_W@ATL@@@@@ATL@@AAV12@@Z 100679c0 f i file.obj
 0002:00015a00       ??$construct@U_Container_proxy@std@@U12@@?$_Wrap_alloc@V?$allocator@U_Container_proxy@std@@@std@@@std@@QAEXPAU_Container_proxy@1@$$QAU21@@Z 10067a00 f i file.obj
 0002:00015a70       ??$construct@U_Container_proxy@std@@U12@@?$allocator@U_Container_proxy@std@@@std@@QAEXPAU_Container_proxy@1@$$QAU21@@Z 10067a70 f i file.obj
 0002:00015b80       ??$construct@U_Container_proxy@std@@U12@@?$allocator_traits@V?$allocator@U_Container_proxy@std@@@std@@@std@@SAXAAV?$allocator@U_Container_proxy@std@@@1@PAU_Container_proxy@1@$$QAU31@@Z 10067b80 f i file.obj
 0002:00015be0       ??$construct@V?$CStringT@_WV?$StrTraitMFC_DLL@_WV?$ChTraitsCRT@_W@ATL@@@@@ATL@@AAV12@@?$_Wrap_alloc@V?$allocator@V?$CStringT@_WV?$StrTraitMFC_DLL@_WV?$ChTraitsCRT@_W@ATL@@@@@ATL@@@std@@@std@@QAEXPAV?$CStringT@_WV?$StrTraitMFC_DLL@_WV?$ChTraitsCRT@_W@ATL@@@@@ATL@@AAV23@@Z 10067be0 f i file.obj
 0002:00015c50       ??$construct@V?$CStringT@_WV?$StrTraitMFC_DLL@_WV?$ChTraitsCRT@_W@ATL@@@@@ATL@@AAV12@@?$allocator@V?$CStringT@_WV?$StrTraitMFC_DLL@_WV?$ChTraitsCRT@_W@ATL@@@@@ATL@@@std@@QAEXPAV?$CStringT@_WV?$StrTraitMFC_DLL@_WV?$ChTraitsCRT@_W@ATL@@@@@ATL@@AAV23@@Z 10067c50 f i file.obj
 0002:00015d60       ??$construct@V?$CStringT@_WV?$StrTraitMFC_DLL@_WV?$ChTraitsCRT@_W@ATL@@@@@ATL@@AAV12@@?$allocator_traits@V?$allocator@V?$CStringT@_WV?$StrTraitMFC_DLL@_WV?$ChTraitsCRT@_W@ATL@@@@@ATL@@@std@@@std@@SAXAAV?$allocator@V?$CStringT@_WV?$StrTraitMFC_DLL@_WV?$ChTraitsCRT@_W@ATL@@@@@ATL@@@1@PAV?$CStringT@_WV?$StrTraitMFC_DLL@_WV?$ChTraitsCRT@_W@ATL@@@@@ATL@@AAV34@@Z 10067d60 f i file.obj
 0002:00015dc0       ??$construct@V?$CStringT@_WV?$StrTraitMFC_DLL@_WV?$ChTraitsCRT@_W@ATL@@@@@ATL@@ABV12@@?$_Wrap_alloc@V?$allocator@V?$CStringT@_WV?$StrTraitMFC_DLL@_WV?$ChTraitsCRT@_W@ATL@@@@@ATL@@@std@@@std@@QAEXPAV?$CStringT@_WV?$StrTraitMFC_DLL@_WV?$ChTraitsCRT@_W@ATL@@@@@ATL@@ABV23@@Z 10067dc0 f i file.obj
 0002:00015e30       ??$construct@V?$CStringT@_WV?$StrTraitMFC_DLL@_WV?$ChTraitsCRT@_W@ATL@@@@@ATL@@ABV12@@?$allocator_traits@V?$allocator@V?$CStringT@_WV?$StrTraitMFC_DLL@_WV?$ChTraitsCRT@_W@ATL@@@@@ATL@@@std@@@std@@SAXAAV?$allocator@V?$CStringT@_WV?$StrTraitMFC_DLL@_WV?$ChTraitsCRT@_W@ATL@@@@@ATL@@@1@PAV?$CStringT@_WV?$StrTraitMFC_DLL@_WV?$ChTraitsCRT@_W@ATL@@@@@ATL@@ABV34@@Z 10067e30 f i file.obj
 0002:00015e90       ??$construct@V?$CStringT@_WV?$StrTraitMFC_DLL@_WV?$ChTraitsCRT@_W@ATL@@@@@ATL@@V12@@?$_Wrap_alloc@V?$allocator@V?$CStringT@_WV?$StrTraitMFC_DLL@_WV?$ChTraitsCRT@_W@ATL@@@@@ATL@@@std@@@std@@QAEXPAV?$CStringT@_WV?$StrTraitMFC_DLL@_WV?$ChTraitsCRT@_W@ATL@@@@@ATL@@$$QAV23@@Z 10067e90 f i file.obj
 0002:00015f00       ??$construct@V?$CStringT@_WV?$StrTraitMFC_DLL@_WV?$ChTraitsCRT@_W@ATL@@@@@ATL@@V12@@?$allocator@V?$CStringT@_WV?$StrTraitMFC_DLL@_WV?$ChTraitsCRT@_W@ATL@@@@@ATL@@@std@@QAEXPAV?$CStringT@_WV?$StrTraitMFC_DLL@_WV?$ChTraitsCRT@_W@ATL@@@@@ATL@@$$QAV23@@Z 10067f00 f i file.obj
 0002:00016010       ??$construct@V?$CStringT@_WV?$StrTraitMFC_DLL@_WV?$ChTraitsCRT@_W@ATL@@@@@ATL@@V12@@?$allocator_traits@V?$allocator@V?$CStringT@_WV?$StrTraitMFC_DLL@_WV?$ChTraitsCRT@_W@ATL@@@@@ATL@@@std@@@std@@SAXAAV?$allocator@V?$CStringT@_WV?$StrTraitMFC_DLL@_WV?$ChTraitsCRT@_W@ATL@@@@@ATL@@@1@PAV?$CStringT@_WV?$StrTraitMFC_DLL@_WV?$ChTraitsCRT@_W@ATL@@@@@ATL@@$$QAV34@@Z 10068010 f i file.obj
 0002:00016070       ??$destroy@U_Container_proxy@std@@@?$_Wrap_alloc@V?$allocator@U_Container_proxy@std@@@std@@@std@@QAEXPAU_Container_proxy@1@@Z 10068070 f i file.obj
 0002:000160d0       ??$destroy@U_Container_proxy@std@@@?$allocator@U_Container_proxy@std@@@std@@QAEXPAU_Container_proxy@1@@Z 100680d0 f i file.obj
 0002:00016110       ??$destroy@U_Container_proxy@std@@@?$allocator_traits@V?$allocator@U_Container_proxy@std@@@std@@@std@@SAXAAV?$allocator@U_Container_proxy@std@@@1@PAU_Container_proxy@1@@Z 10068110 f i file.obj
 0002:00016160       ??$destroy@V?$CStringT@_WV?$StrTraitMFC_DLL@_WV?$ChTraitsCRT@_W@ATL@@@@@ATL@@@?$_Wrap_alloc@V?$allocator@V?$CStringT@_WV?$StrTraitMFC_DLL@_WV?$ChTraitsCRT@_W@ATL@@@@@ATL@@@std@@@std@@QAEXPAV?$CStringT@_WV?$StrTraitMFC_DLL@_WV?$ChTraitsCRT@_W@ATL@@@@@ATL@@@Z 10068160 f i file.obj
 0002:000161c0       ??$destroy@V?$CStringT@_WV?$StrTraitMFC_DLL@_WV?$ChTraitsCRT@_W@ATL@@@@@ATL@@@?$allocator@V?$CStringT@_WV?$StrTraitMFC_DLL@_WV?$ChTraitsCRT@_W@ATL@@@@@ATL@@@std@@QAEXPAV?$CStringT@_WV?$StrTraitMFC_DLL@_WV?$ChTraitsCRT@_W@ATL@@@@@ATL@@@Z 100681c0 f i file.obj
 0002:00016220       ??$destroy@V?$CStringT@_WV?$StrTraitMFC_DLL@_WV?$ChTraitsCRT@_W@ATL@@@@@ATL@@@?$allocator_traits@V?$allocator@V?$CStringT@_WV?$StrTraitMFC_DLL@_WV?$ChTraitsCRT@_W@ATL@@@@@ATL@@@std@@@std@@SAXAAV?$allocator@V?$CStringT@_WV?$StrTraitMFC_DLL@_WV?$ChTraitsCRT@_W@ATL@@@@@ATL@@@1@PAV?$CStringT@_WV?$StrTraitMFC_DLL@_WV?$ChTraitsCRT@_W@ATL@@@@@ATL@@@Z 10068220 f i file.obj
 0002:00016270       ??$destroy@V?$_Func_impl@U?$_Callable_obj@V<lambda_92ae8a6edb3cc5c1e2896be211724754>@@$0A@@std@@V?$allocator@V?$_Func_class@XV?$CStringT@_WV?$StrTraitMFC_DLL@_WV?$ChTraitsCRT@_W@ATL@@@@@ATL@@AAV?$vector@V?$CStringT@_WV?$StrTraitMFC_DLL@_WV?$ChTraitsCRT@_W@ATL@@@@@ATL@@V?$allocator@V?$CStringT@_WV?$StrTraitMFC_DLL@_WV?$ChTraitsCRT@_W@ATL@@@@@ATL@@@std@@@std@@@std@@@2@XV?$CStringT@_WV?$StrTraitMFC_DLL@_WV?$ChTraitsCRT@_W@ATL@@@@@ATL@@AAV?$vector@V?$CStringT@_WV?$StrTraitMFC_DLL@_WV?$ChTraitsCRT@_W@ATL@@@@@ATL@@V?$allocator@V?$CStringT@_WV?$StrTraitMFC_DLL@_WV?$ChTraitsCRT@_W@ATL@@@@@ATL@@@std@@@2@@std@@@?$allocator@V?$_Func_impl@U?$_Callable_obj@V<lambda_92ae8a6edb3cc5c1e2896be211724754>@@$0A@@std@@V?$allocator@V?$_Func_class@XV?$CStringT@_WV?$StrTraitMFC_DLL@_WV?$ChTraitsCRT@_W@ATL@@@@@ATL@@AAV?$vector@V?$CStringT@_WV?$StrTraitMFC_DLL@_WV?$ChTraitsCRT@_W@ATL@@@@@ATL@@V?$allocator@V?$CStringT@_WV?$StrTraitMFC_DLL@_WV?$ChTraitsCRT@_W@ATL@@@@@ATL@@@std@@@std@@@std@@@2@XV?$CStringT@_WV?$StrTraitMFC_DLL@_WV?$ChTraitsCRT@_W@ATL@@@@@ATL@@AAV?$vector@V?$CStringT@_WV?$StrTraitMFC_DLL@_WV?$ChTraitsCRT@_W@ATL@@@@@ATL@@V?$allocator@V?$CStringT@_WV?$StrTraitMFC_DLL@_WV?$ChTraitsCRT@_W@ATL@@@@@ATL@@@std@@@2@@std@@@std@@QAEXPAV?$_Func_impl@U?$_Callable_obj@V<lambda_92ae8a6edb3cc5c1e2896be211724754>@@$0A@@std@@V?$allocator@V?$_Func_class@XV?$CStringT@_WV?$StrTraitMFC_DLL@_WV?$ChTraitsCRT@_W@ATL@@@@@ATL@@AAV?$vector@V?$CStringT@_WV?$StrTraitMFC_DLL@_WV?$ChTraitsCRT@_W@ATL@@@@@ATL@@V?$allocator@V?$CStringT@_WV?$StrTraitMFC_DLL@_WV?$ChTraitsCRT@_W@ATL@@@@@ATL@@@std@@@std@@@std@@@2@XV?$CStringT@_WV?$StrTraitMFC_DLL@_WV?$ChTraitsCRT@_W@ATL@@@@@ATL@@AAV?$vector@V?$CStringT@_WV?$StrTraitMFC_DLL@_WV?$ChTraitsCRT@_W@ATL@@@@@ATL@@V?$allocator@V?$CStringT@_WV?$StrTraitMFC_DLL@_WV?$ChTraitsCRT@_W@ATL@@@@@ATL@@@std@@@2@@1@@Z 10068270 f i file.obj
 0002:000162e0       ??$distance@V?$move_iterator@V?$_Vector_iterator@V?$_Vector_val@U?$_Simple_types@V?$CStringT@_WV?$StrTraitMFC_DLL@_WV?$ChTraitsCRT@_W@ATL@@@@@ATL@@@std@@@std@@@std@@@std@@@std@@YAHV?$move_iterator@V?$_Vector_iterator@V?$_Vector_val@U?$_Simple_types@V?$CStringT@_WV?$StrTraitMFC_DLL@_WV?$ChTraitsCRT@_W@ATL@@@@@ATL@@@std@@@std@@@std@@@0@0@Z 100682e0 f i file.obj
 0002:00016470       ??$forward@AAU?$_Callable_obj@V<lambda_92ae8a6edb3cc5c1e2896be211724754>@@$0A@@std@@@std@@YAAAU?$_Callable_obj@V<lambda_92ae8a6edb3cc5c1e2896be211724754>@@$0A@@0@AAU10@@Z 10068470 f i file.obj
 0002:000164b0       ??$forward@AAV?$CStringT@_WV?$StrTraitMFC_DLL@_WV?$ChTraitsCRT@_W@ATL@@@@@ATL@@@std@@YAAAV?$CStringT@_WV?$StrTraitMFC_DLL@_WV?$ChTraitsCRT@_W@ATL@@@@@ATL@@AAV12@@Z 100684b0 f i file.obj
 0002:000164f0       ??$forward@AAV?$vector@V?$CStringT@_WV?$StrTraitMFC_DLL@_WV?$ChTraitsCRT@_W@ATL@@@@@ATL@@V?$allocator@V?$CStringT@_WV?$StrTraitMFC_DLL@_WV?$ChTraitsCRT@_W@ATL@@@@@ATL@@@std@@@std@@@std@@YAAAV?$vector@V?$CStringT@_WV?$StrTraitMFC_DLL@_WV?$ChTraitsCRT@_W@ATL@@@@@ATL@@V?$allocator@V?$CStringT@_WV?$StrTraitMFC_DLL@_WV?$ChTraitsCRT@_W@ATL@@@@@ATL@@@std@@@0@AAV10@@Z 100684f0 f i file.obj
 0002:00016530       ??$forward@AAVCFile@@@std@@YAAAVCFile@@AAV1@@Z 10068530 f i file.obj
 0002:00016570       ??$forward@ABV?$CStringT@_WV?$StrTraitMFC_DLL@_WV?$ChTraitsCRT@_W@ATL@@@@@ATL@@@std@@YAABV?$CStringT@_WV?$StrTraitMFC_DLL@_WV?$ChTraitsCRT@_W@ATL@@@@@ATL@@ABV12@@Z 10068570 f i file.obj
 0002:000165b0       ??$forward@U?$_Callable_obj@V<lambda_92ae8a6edb3cc5c1e2896be211724754>@@$0A@@std@@@std@@YA$$QAU?$_Callable_obj@V<lambda_92ae8a6edb3cc5c1e2896be211724754>@@$0A@@0@AAU10@@Z 100685b0 f i file.obj
 0002:000165f0       ??$forward@U_Container_proxy@std@@@std@@YA$$QAU_Container_proxy@0@AAU10@@Z 100685f0 f i file.obj
 0002:00016630       ??$forward@V<lambda_92ae8a6edb3cc5c1e2896be211724754>@@@std@@YA$$QAV<lambda_92ae8a6edb3cc5c1e2896be211724754>@@AAV1@@Z 10068630 f i file.obj
 0002:00016670       ??$forward@V?$CStringT@_WV?$StrTraitMFC_DLL@_WV?$ChTraitsCRT@_W@ATL@@@@@ATL@@@std@@YA$$QAV?$CStringT@_WV?$StrTraitMFC_DLL@_WV?$ChTraitsCRT@_W@ATL@@@@@ATL@@AAV12@@Z 10068670 f i file.obj
 0002:000166b0       ??$forward@V?$vector@V?$CStringT@_WV?$StrTraitMFC_DLL@_WV?$ChTraitsCRT@_W@ATL@@@@@ATL@@V?$allocator@V?$CStringT@_WV?$StrTraitMFC_DLL@_WV?$ChTraitsCRT@_W@ATL@@@@@ATL@@@std@@@std@@@std@@YA$$QAV?$vector@V?$CStringT@_WV?$StrTraitMFC_DLL@_WV?$ChTraitsCRT@_W@ATL@@@@@ATL@@V?$allocator@V?$CStringT@_WV?$StrTraitMFC_DLL@_WV?$ChTraitsCRT@_W@ATL@@@@@ATL@@@std@@@0@AAV10@@Z 100686b0 f i file.obj
 0002:000166f0       ??$make_move_iterator@V?$_Vector_iterator@V?$_Vector_val@U?$_Simple_types@V?$CStringT@_WV?$StrTraitMFC_DLL@_WV?$ChTraitsCRT@_W@ATL@@@@@ATL@@@std@@@std@@@std@@@std@@YA?AV?$move_iterator@V?$_Vector_iterator@V?$_Vector_val@U?$_Simple_types@V?$CStringT@_WV?$StrTraitMFC_DLL@_WV?$ChTraitsCRT@_W@ATL@@@@@ATL@@@std@@@std@@@std@@@0@V?$_Vector_iterator@V?$_Vector_val@U?$_Simple_types@V?$CStringT@_WV?$StrTraitMFC_DLL@_WV?$ChTraitsCRT@_W@ATL@@@@@ATL@@@std@@@std@@@0@@Z 100686f0 f i file.obj
 0002:00016810       ??$move@AAV?$CStringT@_WV?$StrTraitMFC_DLL@_WV?$ChTraitsCRT@_W@ATL@@@@@ATL@@@std@@YA$$QAV?$CStringT@_WV?$StrTraitMFC_DLL@_WV?$ChTraitsCRT@_W@ATL@@@@@ATL@@AAV12@@Z 10068810 f i file.obj
 0002:00016850       ??$move@AAV?$_Func_impl@U?$_Callable_obj@V<lambda_92ae8a6edb3cc5c1e2896be211724754>@@$0A@@std@@V?$allocator@V?$_Func_class@XV?$CStringT@_WV?$StrTraitMFC_DLL@_WV?$ChTraitsCRT@_W@ATL@@@@@ATL@@AAV?$vector@V?$CStringT@_WV?$StrTraitMFC_DLL@_WV?$ChTraitsCRT@_W@ATL@@@@@ATL@@V?$allocator@V?$CStringT@_WV?$StrTraitMFC_DLL@_WV?$ChTraitsCRT@_W@ATL@@@@@ATL@@@std@@@std@@@std@@@2@XV?$CStringT@_WV?$StrTraitMFC_DLL@_WV?$ChTraitsCRT@_W@ATL@@@@@ATL@@AAV?$vector@V?$CStringT@_WV?$StrTraitMFC_DLL@_WV?$ChTraitsCRT@_W@ATL@@@@@ATL@@V?$allocator@V?$CStringT@_WV?$StrTraitMFC_DLL@_WV?$ChTraitsCRT@_W@ATL@@@@@ATL@@@std@@@2@@std@@@std@@YA$$QAV?$_Func_impl@U?$_Callable_obj@V<lambda_92ae8a6edb3cc5c1e2896be211724754>@@$0A@@std@@V?$allocator@V?$_Func_class@XV?$CStringT@_WV?$StrTraitMFC_DLL@_WV?$ChTraitsCRT@_W@ATL@@@@@ATL@@AAV?$vector@V?$CStringT@_WV?$StrTraitMFC_DLL@_WV?$ChTraitsCRT@_W@ATL@@@@@ATL@@V?$allocator@V?$CStringT@_WV?$StrTraitMFC_DLL@_WV?$ChTraitsCRT@_W@ATL@@@@@ATL@@@std@@@std@@@std@@@2@XV?$CStringT@_WV?$StrTraitMFC_DLL@_WV?$ChTraitsCRT@_W@ATL@@@@@ATL@@AAV?$vector@V?$CStringT@_WV?$StrTraitMFC_DLL@_WV?$ChTraitsCRT@_W@ATL@@@@@ATL@@V?$allocator@V?$CStringT@_WV?$StrTraitMFC_DLL@_WV?$ChTraitsCRT@_W@ATL@@@@@ATL@@@std@@@2@@0@AAV10@@Z 10068850 f i file.obj
 0002:000168e0       ??0?$_Callable_base@V<lambda_92ae8a6edb3cc5c1e2896be211724754>@@$0A@@std@@QAE@ABV<lambda_92ae8a6edb3cc5c1e2896be211724754>@@@Z 100688e0 f i file.obj
 0002:00016930       ??0?$_Func_base@XV?$CStringT@_WV?$StrTraitMFC_DLL@_WV?$ChTraitsCRT@_W@ATL@@@@@ATL@@AAV?$vector@V?$CStringT@_WV?$StrTraitMFC_DLL@_WV?$ChTraitsCRT@_W@ATL@@@@@ATL@@V?$allocator@V?$CStringT@_WV?$StrTraitMFC_DLL@_WV?$ChTraitsCRT@_W@ATL@@@@@ATL@@@std@@@std@@@std@@QAE@XZ 10068930 f i file.obj
 0002:00016980       ??0?$_Func_class@XV?$CStringT@_WV?$StrTraitMFC_DLL@_WV?$ChTraitsCRT@_W@ATL@@@@@ATL@@AAV?$vector@V?$CStringT@_WV?$StrTraitMFC_DLL@_WV?$ChTraitsCRT@_W@ATL@@@@@ATL@@V?$allocator@V?$CStringT@_WV?$StrTraitMFC_DLL@_WV?$ChTraitsCRT@_W@ATL@@@@@ATL@@@std@@@std@@@std@@QAE@XZ 10068980 f i file.obj
 0002:000169d0       ??0?$_Func_class@_NAAVCFile@@@std@@QAE@XZ 100689d0 f i file.obj
 0002:00016a20       ??0?$_Func_impl@U?$_Callable_obj@V<lambda_92ae8a6edb3cc5c1e2896be211724754>@@$0A@@std@@V?$allocator@V?$_Func_class@XV?$CStringT@_WV?$StrTraitMFC_DLL@_WV?$ChTraitsCRT@_W@ATL@@@@@ATL@@AAV?$vector@V?$CStringT@_WV?$StrTraitMFC_DLL@_WV?$ChTraitsCRT@_W@ATL@@@@@ATL@@V?$allocator@V?$CStringT@_WV?$StrTraitMFC_DLL@_WV?$ChTraitsCRT@_W@ATL@@@@@ATL@@@std@@@std@@@std@@@2@XV?$CStringT@_WV?$StrTraitMFC_DLL@_WV?$ChTraitsCRT@_W@ATL@@@@@ATL@@AAV?$vector@V?$CStringT@_WV?$StrTraitMFC_DLL@_WV?$ChTraitsCRT@_W@ATL@@@@@ATL@@V?$allocator@V?$CStringT@_WV?$StrTraitMFC_DLL@_WV?$ChTraitsCRT@_W@ATL@@@@@ATL@@@std@@@2@@std@@QAE@$$QAV01@@Z 10068a20 f i file.obj
 0002:00016b00       ??0?$_Func_impl@U?$_Callable_obj@V<lambda_92ae8a6edb3cc5c1e2896be211724754>@@$0A@@std@@V?$allocator@V?$_Func_class@XV?$CStringT@_WV?$StrTraitMFC_DLL@_WV?$ChTraitsCRT@_W@ATL@@@@@ATL@@AAV?$vector@V?$CStringT@_WV?$StrTraitMFC_DLL@_WV?$ChTraitsCRT@_W@ATL@@@@@ATL@@V?$allocator@V?$CStringT@_WV?$StrTraitMFC_DLL@_WV?$ChTraitsCRT@_W@ATL@@@@@ATL@@@std@@@std@@@std@@@2@XV?$CStringT@_WV?$StrTraitMFC_DLL@_WV?$ChTraitsCRT@_W@ATL@@@@@ATL@@AAV?$vector@V?$CStringT@_WV?$StrTraitMFC_DLL@_WV?$ChTraitsCRT@_W@ATL@@@@@ATL@@V?$allocator@V?$CStringT@_WV?$StrTraitMFC_DLL@_WV?$ChTraitsCRT@_W@ATL@@@@@ATL@@@std@@@2@@std@@QAE@$$QAV<lambda_92ae8a6edb3cc5c1e2896be211724754>@@ABV?$allocator@V?$_Func_impl@U?$_Callable_obj@V<lambda_92ae8a6edb3cc5c1e2896be211724754>@@$0A@@std@@V?$allocator@V?$_Func_class@XV?$CStringT@_WV?$StrTraitMFC_DLL@_WV?$ChTraitsCRT@_W@ATL@@@@@ATL@@AAV?$vector@V?$CStringT@_WV?$StrTraitMFC_DLL@_WV?$ChTraitsCRT@_W@ATL@@@@@ATL@@V?$allocator@V?$CStringT@_WV?$StrTraitMFC_DLL@_WV?$ChTraitsCRT@_W@ATL@@@@@ATL@@@std@@@std@@@std@@@2@XV?$CStringT@_WV?$StrTraitMFC_DLL@_WV?$ChTraitsCRT@_W@ATL@@@@@ATL@@AAV?$vector@V?$CStringT@_WV?$StrTraitMFC_DLL@_WV?$ChTraitsCRT@_W@ATL@@@@@ATL@@V?$allocator@V?$CStringT@_WV?$StrTraitMFC_DLL@_WV?$ChTraitsCRT@_W@ATL@@@@@ATL@@@std@@@2@@std@@@1@@Z 10068b00 f i file.obj
 0002:00016be0       ??0?$_Func_impl@U?$_Callable_obj@V<lambda_92ae8a6edb3cc5c1e2896be211724754>@@$0A@@std@@V?$allocator@V?$_Func_class@XV?$CStringT@_WV?$StrTraitMFC_DLL@_WV?$ChTraitsCRT@_W@ATL@@@@@ATL@@AAV?$vector@V?$CStringT@_WV?$StrTraitMFC_DLL@_WV?$ChTraitsCRT@_W@ATL@@@@@ATL@@V?$allocator@V?$CStringT@_WV?$StrTraitMFC_DLL@_WV?$ChTraitsCRT@_W@ATL@@@@@ATL@@@std@@@std@@@std@@@2@XV?$CStringT@_WV?$StrTraitMFC_DLL@_WV?$ChTraitsCRT@_W@ATL@@@@@ATL@@AAV?$vector@V?$CStringT@_WV?$StrTraitMFC_DLL@_WV?$ChTraitsCRT@_W@ATL@@@@@ATL@@V?$allocator@V?$CStringT@_WV?$StrTraitMFC_DLL@_WV?$ChTraitsCRT@_W@ATL@@@@@ATL@@@std@@@2@@std@@QAE@AAV01@@Z 10068be0 f i file.obj
 0002:00016cc0       ??0?$_Iterator012@Urandom_access_iterator_tag@std@@V?$CStringT@_WV?$StrTraitMFC_DLL@_WV?$ChTraitsCRT@_W@ATL@@@@@ATL@@HPBV34@ABV34@U_Iterator_base12@2@@std@@QAE@ABU01@@Z 10068cc0 f i file.obj
 0002:00016d20       ??0?$_Iterator012@Urandom_access_iterator_tag@std@@V?$CStringT@_WV?$StrTraitMFC_DLL@_WV?$ChTraitsCRT@_W@ATL@@@@@ATL@@HPBV34@ABV34@U_Iterator_base12@2@@std@@QAE@XZ 10068d20 f i file.obj
 0002:00016d80       ??0?$_Vector_alloc@$0A@U?$_Vec_base_types@V?$CStringT@_WV?$StrTraitMFC_DLL@_WV?$ChTraitsCRT@_W@ATL@@@@@ATL@@V?$allocator@V?$CStringT@_WV?$StrTraitMFC_DLL@_WV?$ChTraitsCRT@_W@ATL@@@@@ATL@@@std@@@std@@@std@@QAE@ABV?$allocator@V?$CStringT@_WV?$StrTraitMFC_DLL@_WV?$ChTraitsCRT@_W@ATL@@@@@ATL@@@1@@Z 10068d80 f i file.obj
 0002:00016e30       ??0?$_Vector_const_iterator@V?$_Vector_val@U?$_Simple_types@V?$CStringT@_WV?$StrTraitMFC_DLL@_WV?$ChTraitsCRT@_W@ATL@@@@@ATL@@@std@@@std@@@std@@QAE@ABV01@@Z 10068e30 f i file.obj
 0002:00016ea0       ??0?$_Vector_const_iterator@V?$_Vector_val@U?$_Simple_types@V?$CStringT@_WV?$StrTraitMFC_DLL@_WV?$ChTraitsCRT@_W@ATL@@@@@ATL@@@std@@@std@@@std@@QAE@PAV?$CStringT@_WV?$StrTraitMFC_DLL@_WV?$ChTraitsCRT@_W@ATL@@@@@ATL@@PBU_Container_base12@1@@Z 10068ea0 f i file.obj
 0002:00016f60       ??0?$_Vector_iterator@V?$_Vector_val@U?$_Simple_types@V?$CStringT@_WV?$StrTraitMFC_DLL@_WV?$ChTraitsCRT@_W@ATL@@@@@ATL@@@std@@@std@@@std@@QAE@ABV01@@Z 10068f60 f i file.obj
 0002:00016fc0       ??0?$_Vector_iterator@V?$_Vector_val@U?$_Simple_types@V?$CStringT@_WV?$StrTraitMFC_DLL@_WV?$ChTraitsCRT@_W@ATL@@@@@ATL@@@std@@@std@@@std@@QAE@PAV?$CStringT@_WV?$StrTraitMFC_DLL@_WV?$ChTraitsCRT@_W@ATL@@@@@ATL@@PBU_Container_base12@1@@Z 10068fc0 f i file.obj
 0002:00017020       ??0?$_Vector_val@U?$_Simple_types@V?$CStringT@_WV?$StrTraitMFC_DLL@_WV?$ChTraitsCRT@_W@ATL@@@@@ATL@@@std@@@std@@QAE@XZ 10069020 f i file.obj
 0002:000170b0       ??0?$_Wrap_alloc@V?$allocator@U_Container_proxy@std@@@std@@@std@@QAE@XZ 100690b0 f i file.obj
 0002:00017110       ??0?$_Wrap_alloc@V?$allocator@V?$CStringT@_WV?$StrTraitMFC_DLL@_WV?$ChTraitsCRT@_W@ATL@@@@@ATL@@@std@@@std@@QAE@XZ 10069110 f i file.obj
 0002:00017170       ??0?$allocator@U_Container_proxy@std@@@std@@QAE@XZ 10069170 f i file.obj
 0002:000171b0       ??0?$allocator@V?$CStringT@_WV?$StrTraitMFC_DLL@_WV?$ChTraitsCRT@_W@ATL@@@@@ATL@@@std@@QAE@ABV01@@Z 100691b0 f i file.obj
 0002:000171f0       ??0?$allocator@V?$CStringT@_WV?$StrTraitMFC_DLL@_WV?$ChTraitsCRT@_W@ATL@@@@@ATL@@@std@@QAE@XZ 100691f0 f i file.obj
 0002:00017230       ??0?$allocator@V?$_Func_class@XV?$CStringT@_WV?$StrTraitMFC_DLL@_WV?$ChTraitsCRT@_W@ATL@@@@@ATL@@AAV?$vector@V?$CStringT@_WV?$StrTraitMFC_DLL@_WV?$ChTraitsCRT@_W@ATL@@@@@ATL@@V?$allocator@V?$CStringT@_WV?$StrTraitMFC_DLL@_WV?$ChTraitsCRT@_W@ATL@@@@@ATL@@@std@@@std@@@std@@@std@@QAE@ABV01@@Z 10069230 f i file.obj
 0002:00017270       ??0?$allocator@V?$_Func_class@XV?$CStringT@_WV?$StrTraitMFC_DLL@_WV?$ChTraitsCRT@_W@ATL@@@@@ATL@@AAV?$vector@V?$CStringT@_WV?$StrTraitMFC_DLL@_WV?$ChTraitsCRT@_W@ATL@@@@@ATL@@V?$allocator@V?$CStringT@_WV?$StrTraitMFC_DLL@_WV?$ChTraitsCRT@_W@ATL@@@@@ATL@@@std@@@std@@@std@@@std@@QAE@XZ 10069270 f i file.obj
 0002:000172b0       ??0?$allocator@V?$_Func_impl@U?$_Callable_obj@V<lambda_92ae8a6edb3cc5c1e2896be211724754>@@$0A@@std@@V?$allocator@V?$_Func_class@XV?$CStringT@_WV?$StrTraitMFC_DLL@_WV?$ChTraitsCRT@_W@ATL@@@@@ATL@@AAV?$vector@V?$CStringT@_WV?$StrTraitMFC_DLL@_WV?$ChTraitsCRT@_W@ATL@@@@@ATL@@V?$allocator@V?$CStringT@_WV?$StrTraitMFC_DLL@_WV?$ChTraitsCRT@_W@ATL@@@@@ATL@@@std@@@std@@@std@@@2@XV?$CStringT@_WV?$StrTraitMFC_DLL@_WV?$ChTraitsCRT@_W@ATL@@@@@ATL@@AAV?$vector@V?$CStringT@_WV?$StrTraitMFC_DLL@_WV?$ChTraitsCRT@_W@ATL@@@@@ATL@@V?$allocator@V?$CStringT@_WV?$StrTraitMFC_DLL@_WV?$ChTraitsCRT@_W@ATL@@@@@ATL@@@std@@@2@@std@@@std@@QAE@ABV01@@Z 100692b0 f i file.obj
 0002:000172f0       ??0?$allocator@V?$_Func_impl@U?$_Callable_obj@V<lambda_92ae8a6edb3cc5c1e2896be211724754>@@$0A@@std@@V?$allocator@V?$_Func_class@XV?$CStringT@_WV?$StrTraitMFC_DLL@_WV?$ChTraitsCRT@_W@ATL@@@@@ATL@@AAV?$vector@V?$CStringT@_WV?$StrTraitMFC_DLL@_WV?$ChTraitsCRT@_W@ATL@@@@@ATL@@V?$allocator@V?$CStringT@_WV?$StrTraitMFC_DLL@_WV?$ChTraitsCRT@_W@ATL@@@@@ATL@@@std@@@std@@@std@@@2@XV?$CStringT@_WV?$StrTraitMFC_DLL@_WV?$ChTraitsCRT@_W@ATL@@@@@ATL@@AAV?$vector@V?$CStringT@_WV?$StrTraitMFC_DLL@_WV?$ChTraitsCRT@_W@ATL@@@@@ATL@@V?$allocator@V?$CStringT@_WV?$StrTraitMFC_DLL@_WV?$ChTraitsCRT@_W@ATL@@@@@ATL@@@std@@@2@@std@@@std@@QAE@XZ 100692f0 f i file.obj
 0002:00017330       ??0?$function@$$A6A_NAAVCFile@@@Z@std@@QAE@AAV01@@Z 10069330 f i file.obj
 0002:000173e0       ??0?$move_iterator@V?$_Vector_iterator@V?$_Vector_val@U?$_Simple_types@V?$CStringT@_WV?$StrTraitMFC_DLL@_WV?$ChTraitsCRT@_W@ATL@@@@@ATL@@@std@@@std@@@std@@@std@@QAE@ABV01@@Z 100693e0 f i file.obj
 0002:00017440       ??0?$move_iterator@V?$_Vector_iterator@V?$_Vector_val@U?$_Simple_types@V?$CStringT@_WV?$StrTraitMFC_DLL@_WV?$ChTraitsCRT@_W@ATL@@@@@ATL@@@std@@@std@@@std@@@std@@QAE@V?$_Vector_iterator@V?$_Vector_val@U?$_Simple_types@V?$CStringT@_WV?$StrTraitMFC_DLL@_WV?$ChTraitsCRT@_W@ATL@@@@@ATL@@@std@@@std@@@1@@Z 10069440 f i file.obj
 0002:000174f0       ??0?$vector@V?$CStringT@_WV?$StrTraitMFC_DLL@_WV?$ChTraitsCRT@_W@ATL@@@@@ATL@@V?$allocator@V?$CStringT@_WV?$StrTraitMFC_DLL@_WV?$ChTraitsCRT@_W@ATL@@@@@ATL@@@std@@@std@@QAE@$$QAV01@@Z 100694f0 f i file.obj
 0002:000175d0       ??0?$vector@V?$CStringT@_WV?$StrTraitMFC_DLL@_WV?$ChTraitsCRT@_W@ATL@@@@@ATL@@V?$allocator@V?$CStringT@_WV?$StrTraitMFC_DLL@_WV?$ChTraitsCRT@_W@ATL@@@@@ATL@@@std@@@std@@QAE@XZ 100695d0 f i file.obj
 0002:00017640       ??0_Container_proxy@std@@QAE@XZ 10069640 f i file.obj
 0002:00017690       ??0_Iterator_base12@std@@QAE@ABU01@@Z 10069690 f i file.obj
 0002:00017710       ??0_Iterator_base12@std@@QAE@XZ 10069710 f i file.obj
 0002:00017760       ??1?$_Func_base@XV?$CStringT@_WV?$StrTraitMFC_DLL@_WV?$ChTraitsCRT@_W@ATL@@@@@ATL@@AAV?$vector@V?$CStringT@_WV?$StrTraitMFC_DLL@_WV?$ChTraitsCRT@_W@ATL@@@@@ATL@@V?$allocator@V?$CStringT@_WV?$StrTraitMFC_DLL@_WV?$ChTraitsCRT@_W@ATL@@@@@ATL@@@std@@@std@@@std@@UAE@XZ 10069760 f i file.obj
 0002:000177a0       ??1?$_Func_class@XV?$CStringT@_WV?$StrTraitMFC_DLL@_WV?$ChTraitsCRT@_W@ATL@@@@@ATL@@AAV?$vector@V?$CStringT@_WV?$StrTraitMFC_DLL@_WV?$ChTraitsCRT@_W@ATL@@@@@ATL@@V?$allocator@V?$CStringT@_WV?$StrTraitMFC_DLL@_WV?$ChTraitsCRT@_W@ATL@@@@@ATL@@@std@@@std@@@std@@QAE@XZ 100697a0 f i file.obj
 0002:000177f0       ??1?$_Func_class@_NAAVCFile@@@std@@QAE@XZ 100697f0 f i file.obj
 0002:00017840       ??1?$_Func_impl@U?$_Callable_obj@V<lambda_92ae8a6edb3cc5c1e2896be211724754>@@$0A@@std@@V?$allocator@V?$_Func_class@XV?$CStringT@_WV?$StrTraitMFC_DLL@_WV?$ChTraitsCRT@_W@ATL@@@@@ATL@@AAV?$vector@V?$CStringT@_WV?$StrTraitMFC_DLL@_WV?$ChTraitsCRT@_W@ATL@@@@@ATL@@V?$allocator@V?$CStringT@_WV?$StrTraitMFC_DLL@_WV?$ChTraitsCRT@_W@ATL@@@@@ATL@@@std@@@std@@@std@@@2@XV?$CStringT@_WV?$StrTraitMFC_DLL@_WV?$ChTraitsCRT@_W@ATL@@@@@ATL@@AAV?$vector@V?$CStringT@_WV?$StrTraitMFC_DLL@_WV?$ChTraitsCRT@_W@ATL@@@@@ATL@@V?$allocator@V?$CStringT@_WV?$StrTraitMFC_DLL@_WV?$ChTraitsCRT@_W@ATL@@@@@ATL@@@std@@@2@@std@@UAE@XZ 10069840 f i file.obj
 0002:000178a0       ??1?$_Iterator012@Urandom_access_iterator_tag@std@@V?$CStringT@_WV?$StrTraitMFC_DLL@_WV?$ChTraitsCRT@_W@ATL@@@@@ATL@@HPBV34@ABV34@U_Iterator_base12@2@@std@@QAE@XZ 100698a0 f i file.obj
 0002:000178f0       ??1?$_Vector_alloc@$0A@U?$_Vec_base_types@V?$CStringT@_WV?$StrTraitMFC_DLL@_WV?$ChTraitsCRT@_W@ATL@@@@@ATL@@V?$allocator@V?$CStringT@_WV?$StrTraitMFC_DLL@_WV?$ChTraitsCRT@_W@ATL@@@@@ATL@@@std@@@std@@@std@@QAE@XZ 100698f0 f i file.obj
 0002:00017950       ??1?$_Vector_const_iterator@V?$_Vector_val@U?$_Simple_types@V?$CStringT@_WV?$StrTraitMFC_DLL@_WV?$ChTraitsCRT@_W@ATL@@@@@ATL@@@std@@@std@@@std@@QAE@XZ 10069950 f i file.obj
 0002:000179a0       ??1?$_Vector_iterator@V?$_Vector_val@U?$_Simple_types@V?$CStringT@_WV?$StrTraitMFC_DLL@_WV?$ChTraitsCRT@_W@ATL@@@@@ATL@@@std@@@std@@@std@@QAE@XZ 100699a0 f i file.obj
 0002:000179f0       ??1?$_Vector_val@U?$_Simple_types@V?$CStringT@_WV?$StrTraitMFC_DLL@_WV?$ChTraitsCRT@_W@ATL@@@@@ATL@@@std@@@std@@QAE@XZ 100699f0 f i file.obj
 0002:00017a50       ??1?$function@$$A6AXV?$CStringT@_WV?$StrTraitMFC_DLL@_WV?$ChTraitsCRT@_W@ATL@@@@@ATL@@AAV?$vector@V?$CStringT@_WV?$StrTraitMFC_DLL@_WV?$ChTraitsCRT@_W@ATL@@@@@ATL@@V?$allocator@V?$CStringT@_WV?$StrTraitMFC_DLL@_WV?$ChTraitsCRT@_W@ATL@@@@@ATL@@@std@@@std@@@Z@std@@QAE@XZ 10069a50 f i file.obj
 0002:00017ab0       ??1?$function@$$A6A_NAAVCFile@@@Z@std@@QAE@XZ 10069ab0 f i file.obj
 0002:00017b10       ??1?$move_iterator@V?$_Vector_iterator@V?$_Vector_val@U?$_Simple_types@V?$CStringT@_WV?$StrTraitMFC_DLL@_WV?$ChTraitsCRT@_W@ATL@@@@@ATL@@@std@@@std@@@std@@@std@@QAE@XZ 10069b10 f i file.obj
 0002:00017b60       ??1?$vector@V?$CStringT@_WV?$StrTraitMFC_DLL@_WV?$ChTraitsCRT@_W@ATL@@@@@ATL@@V?$allocator@V?$CStringT@_WV?$StrTraitMFC_DLL@_WV?$ChTraitsCRT@_W@ATL@@@@@ATL@@@std@@@std@@QAE@XZ 10069b60 f i file.obj
 0002:00017bc0       ??1_Iterator_base12@std@@QAE@XZ 10069bc0 f i file.obj
 0002:00017c90       ??2@YAPAXIPAX@Z            10069c90 f i file.obj
 0002:00017cd0       ??3@YAXPAX0@Z              10069cd0 f i file.obj
 0002:00017d00       ??4?$vector@V?$CStringT@_WV?$StrTraitMFC_DLL@_WV?$ChTraitsCRT@_W@ATL@@@@@ATL@@V?$allocator@V?$CStringT@_WV?$StrTraitMFC_DLL@_WV?$ChTraitsCRT@_W@ATL@@@@@ATL@@@std@@@std@@QAEAAV01@$$QAV01@@Z 10069d00 f i file.obj
 0002:00017da0       ??4_Iterator_base12@std@@QAEAAU01@ABU01@@Z 10069da0 f i file.obj
 0002:00017ef0       ??8?$_Vector_const_iterator@V?$_Vector_val@U?$_Simple_types@V?$CStringT@_WV?$StrTraitMFC_DLL@_WV?$ChTraitsCRT@_W@ATL@@@@@ATL@@@std@@@std@@@std@@QBE_NABV01@@Z 10069ef0 f i file.obj
 0002:00017f80       ??8ATL@@YA_NABV?$CStringT@_WV?$StrTraitMFC_DLL@_WV?$ChTraitsCRT@_W@ATL@@@@@0@0@Z 10069f80 f i file.obj
 0002:00018020       ??A?$vector@V?$CStringT@_WV?$StrTraitMFC_DLL@_WV?$ChTraitsCRT@_W@ATL@@@@@ATL@@V?$allocator@V?$CStringT@_WV?$StrTraitMFC_DLL@_WV?$ChTraitsCRT@_W@ATL@@@@@ATL@@@std@@@std@@QAEAAV?$CStringT@_WV?$StrTraitMFC_DLL@_WV?$ChTraitsCRT@_W@ATL@@@@@ATL@@I@Z 1006a020 f i file.obj
 0002:00018140       ??B?$function@$$A6A_NAAVCFile@@@Z@std@@QBE_NXZ 1006a140 f i file.obj
 0002:000181c0       ??D?$_Vector_const_iterator@V?$_Vector_val@U?$_Simple_types@V?$CStringT@_WV?$StrTraitMFC_DLL@_WV?$ChTraitsCRT@_W@ATL@@@@@ATL@@@std@@@std@@@std@@QBEABV?$CStringT@_WV?$StrTraitMFC_DLL@_WV?$ChTraitsCRT@_W@ATL@@@@@ATL@@XZ 1006a1c0 f i file.obj
 0002:00018300       ??D?$_Vector_iterator@V?$_Vector_val@U?$_Simple_types@V?$CStringT@_WV?$StrTraitMFC_DLL@_WV?$ChTraitsCRT@_W@ATL@@@@@ATL@@@std@@@std@@@std@@QBEAAV?$CStringT@_WV?$StrTraitMFC_DLL@_WV?$ChTraitsCRT@_W@ATL@@@@@ATL@@XZ 1006a300 f i file.obj
 0002:00018350       ??D?$move_iterator@V?$_Vector_iterator@V?$_Vector_val@U?$_Simple_types@V?$CStringT@_WV?$StrTraitMFC_DLL@_WV?$ChTraitsCRT@_W@ATL@@@@@ATL@@@std@@@std@@@std@@@std@@QBE$$QAV?$CStringT@_WV?$StrTraitMFC_DLL@_WV?$ChTraitsCRT@_W@ATL@@@@@ATL@@XZ 1006a350 f i file.obj
 0002:000183b0       ??E?$_Vector_const_iterator@V?$_Vector_val@U?$_Simple_types@V?$CStringT@_WV?$StrTraitMFC_DLL@_WV?$ChTraitsCRT@_W@ATL@@@@@ATL@@@std@@@std@@@std@@QAEAAV01@XZ 1006a3b0 f i file.obj
 0002:000184e0       ??E?$_Vector_iterator@V?$_Vector_val@U?$_Simple_types@V?$CStringT@_WV?$StrTraitMFC_DLL@_WV?$ChTraitsCRT@_W@ATL@@@@@ATL@@@std@@@std@@@std@@QAEAAV01@XZ 1006a4e0 f i file.obj
 0002:00018540       ??E?$move_iterator@V?$_Vector_iterator@V?$_Vector_val@U?$_Simple_types@V?$CStringT@_WV?$StrTraitMFC_DLL@_WV?$ChTraitsCRT@_W@ATL@@@@@ATL@@@std@@@std@@@std@@@std@@QAEAAV01@XZ 1006a540 f i file.obj
 0002:000185a0       ??G?$_Vector_const_iterator@V?$_Vector_val@U?$_Simple_types@V?$CStringT@_WV?$StrTraitMFC_DLL@_WV?$ChTraitsCRT@_W@ATL@@@@@ATL@@@std@@@std@@@std@@QBEHABV01@@Z 1006a5a0 f i file.obj
 0002:00018610       ??G?$_Vector_iterator@V?$_Vector_val@U?$_Simple_types@V?$CStringT@_WV?$StrTraitMFC_DLL@_WV?$ChTraitsCRT@_W@ATL@@@@@ATL@@@std@@@std@@@std@@QBEHABV?$_Vector_const_iterator@V?$_Vector_val@U?$_Simple_types@V?$CStringT@_WV?$StrTraitMFC_DLL@_WV?$ChTraitsCRT@_W@ATL@@@@@ATL@@@std@@@std@@@1@@Z 1006a610 f i file.obj
 0002:00018670       ??HATL@@YA?AV?$CStringT@_WV?$StrTraitMFC_DLL@_WV?$ChTraitsCRT@_W@ATL@@@@@0@ABV10@0@Z 1006a670 f i file.obj
 0002:00018840       ??HATL@@YA?AV?$CStringT@_WV?$StrTraitMFC_DLL@_WV?$ChTraitsCRT@_W@ATL@@@@@0@ABV10@PB_W@Z 1006a840 f i file.obj
 0002:00018a00       ??HATL@@YA?AV?$CStringT@_WV?$StrTraitMFC_DLL@_WV?$ChTraitsCRT@_W@ATL@@@@@0@PB_WABV10@@Z 1006aa00 f i file.obj
 0002:00018bc0       ??M?$_Vector_const_iterator@V?$_Vector_val@U?$_Simple_types@V?$CStringT@_WV?$StrTraitMFC_DLL@_WV?$ChTraitsCRT@_W@ATL@@@@@ATL@@@std@@@std@@@std@@QBE_NABV01@@Z 1006abc0 f i file.obj
 0002:00018f10       ??R?$_Func_class@XV?$CStringT@_WV?$StrTraitMFC_DLL@_WV?$ChTraitsCRT@_W@ATL@@@@@ATL@@AAV?$vector@V?$CStringT@_WV?$StrTraitMFC_DLL@_WV?$ChTraitsCRT@_W@ATL@@@@@ATL@@V?$allocator@V?$CStringT@_WV?$StrTraitMFC_DLL@_WV?$ChTraitsCRT@_W@ATL@@@@@ATL@@@std@@@std@@@std@@QBEXV?$CStringT@_WV?$StrTraitMFC_DLL@_WV?$ChTraitsCRT@_W@ATL@@@@@ATL@@AAV?$vector@V?$CStringT@_WV?$StrTraitMFC_DLL@_WV?$ChTraitsCRT@_W@ATL@@@@@ATL@@V?$allocator@V?$CStringT@_WV?$StrTraitMFC_DLL@_WV?$ChTraitsCRT@_W@ATL@@@@@ATL@@@std@@@1@@Z 1006af10 f i file.obj
 0002:00019020       ??R?$_Func_class@_NAAVCFile@@@std@@QBE_NAAVCFile@@@Z 1006b020 f i file.obj
 0002:000190c0       ??_G?$CStringT@_WV?$StrTraitMFC_DLL@_WV?$ChTraitsCRT@_W@ATL@@@@@ATL@@QAEPAXI@Z 1006b0c0 f i file.obj
 0002:00019140       ??_E?$_Func_base@XV?$CStringT@_WV?$StrTraitMFC_DLL@_WV?$ChTraitsCRT@_W@ATL@@@@@ATL@@AAV?$vector@V?$CStringT@_WV?$StrTraitMFC_DLL@_WV?$ChTraitsCRT@_W@ATL@@@@@ATL@@V?$allocator@V?$CStringT@_WV?$StrTraitMFC_DLL@_WV?$ChTraitsCRT@_W@ATL@@@@@ATL@@@std@@@std@@@std@@UAEPAXI@Z 1006b140 f i file.obj
 0002:00019140       ??_G?$_Func_base@XV?$CStringT@_WV?$StrTraitMFC_DLL@_WV?$ChTraitsCRT@_W@ATL@@@@@ATL@@AAV?$vector@V?$CStringT@_WV?$StrTraitMFC_DLL@_WV?$ChTraitsCRT@_W@ATL@@@@@ATL@@V?$allocator@V?$CStringT@_WV?$StrTraitMFC_DLL@_WV?$ChTraitsCRT@_W@ATL@@@@@ATL@@@std@@@std@@@std@@UAEPAXI@Z 1006b140 f i file.obj
 0002:000191b0       ??_G?$_Func_impl@U?$_Callable_obj@V<lambda_92ae8a6edb3cc5c1e2896be211724754>@@$0A@@std@@V?$allocator@V?$_Func_class@XV?$CStringT@_WV?$StrTraitMFC_DLL@_WV?$ChTraitsCRT@_W@ATL@@@@@ATL@@AAV?$vector@V?$CStringT@_WV?$StrTraitMFC_DLL@_WV?$ChTraitsCRT@_W@ATL@@@@@ATL@@V?$allocator@V?$CStringT@_WV?$StrTraitMFC_DLL@_WV?$ChTraitsCRT@_W@ATL@@@@@ATL@@@std@@@std@@@std@@@2@XV?$CStringT@_WV?$StrTraitMFC_DLL@_WV?$ChTraitsCRT@_W@ATL@@@@@ATL@@AAV?$vector@V?$CStringT@_WV?$StrTraitMFC_DLL@_WV?$ChTraitsCRT@_W@ATL@@@@@ATL@@V?$allocator@V?$CStringT@_WV?$StrTraitMFC_DLL@_WV?$ChTraitsCRT@_W@ATL@@@@@ATL@@@std@@@2@@std@@UAEPAXI@Z 1006b1b0 f i file.obj
 0002:000191b0       ??_E?$_Func_impl@U?$_Callable_obj@V<lambda_92ae8a6edb3cc5c1e2896be211724754>@@$0A@@std@@V?$allocator@V?$_Func_class@XV?$CStringT@_WV?$StrTraitMFC_DLL@_WV?$ChTraitsCRT@_W@ATL@@@@@ATL@@AAV?$vector@V?$CStringT@_WV?$StrTraitMFC_DLL@_WV?$ChTraitsCRT@_W@ATL@@@@@ATL@@V?$allocator@V?$CStringT@_WV?$StrTraitMFC_DLL@_WV?$ChTraitsCRT@_W@ATL@@@@@ATL@@@std@@@std@@@std@@@2@XV?$CStringT@_WV?$StrTraitMFC_DLL@_WV?$ChTraitsCRT@_W@ATL@@@@@ATL@@AAV?$vector@V?$CStringT@_WV?$StrTraitMFC_DLL@_WV?$ChTraitsCRT@_W@ATL@@@@@ATL@@V?$allocator@V?$CStringT@_WV?$StrTraitMFC_DLL@_WV?$ChTraitsCRT@_W@ATL@@@@@ATL@@@std@@@2@@std@@UAEPAXI@Z 1006b1b0 f i file.obj
 0002:00019220       ?CreateFolder@bapi@@YAHV?$CStringT@_WV?$StrTraitMFC_DLL@_WV?$ChTraitsCRT@_W@ATL@@@@@ATL@@@Z 1006b220 f   file.obj
 0002:00019750       ?DeleteFolder@bapi@@YAHV?$CStringT@_WV?$StrTraitMFC_DLL@_WV?$ChTraitsCRT@_W@ATL@@@@@ATL@@H@Z 1006b750 f   file.obj
 0002:00019bb0       ?FileExistAddNumbering@bapi@@YA_NAAV?$CStringT@_WV?$StrTraitMFC_DLL@_WV?$ChTraitsCRT@_W@ATL@@@@@ATL@@@Z 1006bbb0 f   file.obj
 0002:0001a040       ?FindFileList@bapi@@YA?AV?$vector@V?$CStringT@_WV?$StrTraitMFC_DLL@_WV?$ChTraitsCRT@_W@ATL@@@@@ATL@@V?$allocator@V?$CStringT@_WV?$StrTraitMFC_DLL@_WV?$ChTraitsCRT@_W@ATL@@@@@ATL@@@std@@@std@@V?$CStringT@_WV?$StrTraitMFC_DLL@_WV?$ChTraitsCRT@_W@ATL@@@@@ATL@@0@Z 1006c040 f   file.obj
 0002:0001a3c0       ?FindFileList@bapi@@YA?AV?$vector@V?$CStringT@_WV?$StrTraitMFC_DLL@_WV?$ChTraitsCRT@_W@ATL@@@@@ATL@@V?$allocator@V?$CStringT@_WV?$StrTraitMFC_DLL@_WV?$ChTraitsCRT@_W@ATL@@@@@ATL@@@std@@@std@@V?$CStringT@_WV?$StrTraitMFC_DLL@_WV?$ChTraitsCRT@_W@ATL@@@@@ATL@@@Z 1006c3c0 f   file.obj
 0002:0001a5a0       ?FindFileList@bapi@@YA?AV?$vector@V?$CStringT@_WV?$StrTraitMFC_DLL@_WV?$ChTraitsCRT@_W@ATL@@@@@ATL@@V?$allocator@V?$CStringT@_WV?$StrTraitMFC_DLL@_WV?$ChTraitsCRT@_W@ATL@@@@@ATL@@@std@@@std@@V?$CStringT@_WV?$StrTraitMFC_DLL@_WV?$ChTraitsCRT@_W@ATL@@@@@ATL@@V23@@Z 1006c5a0 f   file.obj
 0002:0001aa30       ?FolderExistIsAddNumbering@bapi@@YAXAAV?$CStringT@_WV?$StrTraitMFC_DLL@_WV?$ChTraitsCRT@_W@ATL@@@@@ATL@@@Z 1006ca30 f   file.obj
 0002:0001ac30       ?GetFileSize@bapi@@YANV?$CStringT@_WV?$StrTraitMFC_DLL@_WV?$ChTraitsCRT@_W@ATL@@@@@ATL@@@Z 1006cc30 f   file.obj
 0002:0001ae20       ?GetFileVersion@bapi@@YA_NPB_WAAUtagVS_FIXEDFILEINFO@@@Z 1006ce20 f   file.obj
 0002:0001b090       ?GetInstanceFileVersion@bapi@@YA?AV?$CStringT@_WV?$StrTraitMFC_DLL@_WV?$ChTraitsCRT@_W@ATL@@@@@ATL@@_N@Z 1006d090 f   file.obj
 0002:0001b280       ?GetInstanceFileVersion@bapi@@YA_N_NAAUtagVS_FIXEDFILEINFO@@@Z 1006d280 f   file.obj
 0002:0001b4d0       ?GetInstancePath@bapi@@YA?AV?$CStringT@_WV?$StrTraitMFC_DLL@_WV?$ChTraitsCRT@_W@ATL@@@@@ATL@@_N@Z 1006d4d0 f   file.obj
 0002:0001b750       ?GetPathNameFolder@bapi@@YA_NAAV?$CStringT@_WV?$StrTraitMFC_DLL@_WV?$ChTraitsCRT@_W@ATL@@@@@ATL@@_N00@Z 1006d750 f   file.obj
 0002:0001b9b0       ?IsIncludeExtension@bapi@@YA_NV?$CStringT@_WV?$StrTraitMFC_DLL@_WV?$ChTraitsCRT@_W@ATL@@@@@ATL@@0AAV23@@Z 1006d9b0 f   file.obj
 0002:0001bea0       ?ReadBinaryFile@bapi@@YA_NV?$CStringT@_WV?$StrTraitMFC_DLL@_WV?$ChTraitsCRT@_W@ATL@@@@@ATL@@V?$function@$$A6A_NAAVCFile@@@Z@std@@@Z 1006dea0 f   file.obj
 0002:0001c430       ?WriteBinaryFile@bapi@@YA_NV?$CStringT@_WV?$StrTraitMFC_DLL@_WV?$ChTraitsCRT@_W@ATL@@@@@ATL@@_NV?$function@$$A6A_NAAVCFile@@@Z@std@@@Z 1006e430 f   file.obj
 0002:0001c9d0       ?_Adopt@_Iterator_base12@std@@QAEXPBU_Container_base12@2@@Z 1006e9d0 f i file.obj
 0002:0001cb90       ?_AfxInitManaged@@YAHXZ    1006eb90 f i file.obj
 0002:0001cbc0       ?_Alloc_proxy@?$_Vector_alloc@$0A@U?$_Vec_base_types@V?$CStringT@_WV?$StrTraitMFC_DLL@_WV?$ChTraitsCRT@_W@ATL@@@@@ATL@@V?$allocator@V?$CStringT@_WV?$StrTraitMFC_DLL@_WV?$ChTraitsCRT@_W@ATL@@@@@ATL@@@std@@@std@@@std@@QAEXXZ 1006ebc0 f i file.obj
 0002:0001ccb0       ?_Assign_rv@?$vector@V?$CStringT@_WV?$StrTraitMFC_DLL@_WV?$ChTraitsCRT@_W@ATL@@@@@ATL@@V?$allocator@V?$CStringT@_WV?$StrTraitMFC_DLL@_WV?$ChTraitsCRT@_W@ATL@@@@@ATL@@@std@@@std@@QAEX$$QAV12@@Z 1006ecb0 f i file.obj
 0002:0001cd30       ?_Assign_rv@?$vector@V?$CStringT@_WV?$StrTraitMFC_DLL@_WV?$ChTraitsCRT@_W@ATL@@@@@ATL@@V?$allocator@V?$CStringT@_WV?$StrTraitMFC_DLL@_WV?$ChTraitsCRT@_W@ATL@@@@@ATL@@@std@@@std@@QAEX$$QAV12@U?$integral_constant@_N$00@2@@Z 1006ed30 f i file.obj
 0002:0001cdf0       ?_Assign_rv@?$vector@V?$CStringT@_WV?$StrTraitMFC_DLL@_WV?$ChTraitsCRT@_W@ATL@@@@@ATL@@V?$allocator@V?$CStringT@_WV?$StrTraitMFC_DLL@_WV?$ChTraitsCRT@_W@ATL@@@@@ATL@@@std@@@std@@QAEX$$QAV12@U?$integral_constant@_N$0A@@2@@Z 1006edf0 f i file.obj
 0002:0001cfa0       ?_Buy@?$vector@V?$CStringT@_WV?$StrTraitMFC_DLL@_WV?$ChTraitsCRT@_W@ATL@@@@@ATL@@V?$allocator@V?$CStringT@_WV?$StrTraitMFC_DLL@_WV?$ChTraitsCRT@_W@ATL@@@@@ATL@@@std@@@std@@IAE_NI@Z 1006efa0 f i file.obj
 0002:0001d090       ?_Change_alloc@?$_Vector_alloc@$0A@U?$_Vec_base_types@V?$CStringT@_WV?$StrTraitMFC_DLL@_WV?$ChTraitsCRT@_W@ATL@@@@@ATL@@V?$allocator@V?$CStringT@_WV?$StrTraitMFC_DLL@_WV?$ChTraitsCRT@_W@ATL@@@@@ATL@@@std@@@std@@@std@@QAEXABU?$_Wrap_alloc@V?$allocator@V?$CStringT@_WV?$StrTraitMFC_DLL@_WV?$ChTraitsCRT@_W@ATL@@@@@ATL@@@std@@@2@@Z 1006f090 f i file.obj
 0002:0001d0d0       ?_Clrcont@_Iterator_base12@std@@QAEXXZ 1006f0d0 f i file.obj
 0002:0001d110       ?_Compat@?$_Vector_const_iterator@V?$_Vector_val@U?$_Simple_types@V?$CStringT@_WV?$StrTraitMFC_DLL@_WV?$ChTraitsCRT@_W@ATL@@@@@ATL@@@std@@@std@@@std@@QBEXABV12@@Z 1006f110 f i file.obj
 0002:0001d230       ?_Copy@?$_Func_impl@U?$_Callable_obj@V<lambda_92ae8a6edb3cc5c1e2896be211724754>@@$0A@@std@@V?$allocator@V?$_Func_class@XV?$CStringT@_WV?$StrTraitMFC_DLL@_WV?$ChTraitsCRT@_W@ATL@@@@@ATL@@AAV?$vector@V?$CStringT@_WV?$StrTraitMFC_DLL@_WV?$ChTraitsCRT@_W@ATL@@@@@ATL@@V?$allocator@V?$CStringT@_WV?$StrTraitMFC_DLL@_WV?$ChTraitsCRT@_W@ATL@@@@@ATL@@@std@@@std@@@std@@@2@XV?$CStringT@_WV?$StrTraitMFC_DLL@_WV?$ChTraitsCRT@_W@ATL@@@@@ATL@@AAV?$vector@V?$CStringT@_WV?$StrTraitMFC_DLL@_WV?$ChTraitsCRT@_W@ATL@@@@@ATL@@V?$allocator@V?$CStringT@_WV?$StrTraitMFC_DLL@_WV?$ChTraitsCRT@_W@ATL@@@@@ATL@@@std@@@2@@std@@UAEPAV?$_Func_base@XV?$CStringT@_WV?$StrTraitMFC_DLL@_WV?$ChTraitsCRT@_W@ATL@@@@@ATL@@AAV?$vector@V?$CStringT@_WV?$StrTraitMFC_DLL@_WV?$ChTraitsCRT@_W@ATL@@@@@ATL@@V?$allocator@V?$CStringT@_WV?$StrTraitMFC_DLL@_WV?$ChTraitsCRT@_W@ATL@@@@@ATL@@@std@@@std@@@2@PAX@Z 1006f230 f i file.obj
 0002:0001d340       ?_Delete_this@?$_Func_impl@U?$_Callable_obj@V<lambda_92ae8a6edb3cc5c1e2896be211724754>@@$0A@@std@@V?$allocator@V?$_Func_class@XV?$CStringT@_WV?$StrTraitMFC_DLL@_WV?$ChTraitsCRT@_W@ATL@@@@@ATL@@AAV?$vector@V?$CStringT@_WV?$StrTraitMFC_DLL@_WV?$ChTraitsCRT@_W@ATL@@@@@ATL@@V?$allocator@V?$CStringT@_WV?$StrTraitMFC_DLL@_WV?$ChTraitsCRT@_W@ATL@@@@@ATL@@@std@@@std@@@std@@@2@XV?$CStringT@_WV?$StrTraitMFC_DLL@_WV?$ChTraitsCRT@_W@ATL@@@@@ATL@@AAV?$vector@V?$CStringT@_WV?$StrTraitMFC_DLL@_WV?$ChTraitsCRT@_W@ATL@@@@@ATL@@V?$allocator@V?$CStringT@_WV?$StrTraitMFC_DLL@_WV?$ChTraitsCRT@_W@ATL@@@@@ATL@@@std@@@2@@std@@EAEX_N@Z 1006f340 f i file.obj
 0002:0001d420       ?_Destroy@?$vector@V?$CStringT@_WV?$StrTraitMFC_DLL@_WV?$ChTraitsCRT@_W@ATL@@@@@ATL@@V?$allocator@V?$CStringT@_WV?$StrTraitMFC_DLL@_WV?$ChTraitsCRT@_W@ATL@@@@@ATL@@@std@@@std@@IAEXPAV?$CStringT@_WV?$StrTraitMFC_DLL@_WV?$ChTraitsCRT@_W@ATL@@@@@ATL@@0@Z 1006f420 f i file.obj
 0002:0001d4f0       ?_Do_call@?$_Func_impl@U?$_Callable_obj@V<lambda_92ae8a6edb3cc5c1e2896be211724754>@@$0A@@std@@V?$allocator@V?$_Func_class@XV?$CStringT@_WV?$StrTraitMFC_DLL@_WV?$ChTraitsCRT@_W@ATL@@@@@ATL@@AAV?$vector@V?$CStringT@_WV?$StrTraitMFC_DLL@_WV?$ChTraitsCRT@_W@ATL@@@@@ATL@@V?$allocator@V?$CStringT@_WV?$StrTraitMFC_DLL@_WV?$ChTraitsCRT@_W@ATL@@@@@ATL@@@std@@@std@@@std@@@2@XV?$CStringT@_WV?$StrTraitMFC_DLL@_WV?$ChTraitsCRT@_W@ATL@@@@@ATL@@AAV?$vector@V?$CStringT@_WV?$StrTraitMFC_DLL@_WV?$ChTraitsCRT@_W@ATL@@@@@ATL@@V?$allocator@V?$CStringT@_WV?$StrTraitMFC_DLL@_WV?$ChTraitsCRT@_W@ATL@@@@@ATL@@@std@@@2@@std@@UAEX$$QAV?$CStringT@_WV?$StrTraitMFC_DLL@_WV?$ChTraitsCRT@_W@ATL@@@@@ATL@@AAV?$vector@V?$CStringT@_WV?$StrTraitMFC_DLL@_WV?$ChTraitsCRT@_W@ATL@@@@@ATL@@V?$allocator@V?$CStringT@_WV?$StrTraitMFC_DLL@_WV?$ChTraitsCRT@_W@ATL@@@@@ATL@@@std@@@2@@Z 1006f4f0 f i file.obj
 0002:0001d570       ?_Empty@?$_Func_class@_NAAVCFile@@@std@@QBE_NXZ 1006f570 f i file.obj
 0002:0001d5e0       ?_Free_proxy@?$_Vector_alloc@$0A@U?$_Vec_base_types@V?$CStringT@_WV?$StrTraitMFC_DLL@_WV?$ChTraitsCRT@_W@ATL@@@@@ATL@@V?$allocator@V?$CStringT@_WV?$StrTraitMFC_DLL@_WV?$ChTraitsCRT@_W@ATL@@@@@ATL@@@std@@@std@@@std@@QAEXXZ 1006f5e0 f i file.obj
 0002:0001d6d0       ?_Get@?$_Callable_base@V<lambda_92ae8a6edb3cc5c1e2896be211724754>@@$0A@@std@@QAEAAV<lambda_92ae8a6edb3cc5c1e2896be211724754>@@XZ 1006f6d0 f i file.obj
 0002:0001d710       ?_Get@?$_Callable_base@V<lambda_92ae8a6edb3cc5c1e2896be211724754>@@$0A@@std@@QBEABV<lambda_92ae8a6edb3cc5c1e2896be211724754>@@XZ 1006f710 f i file.obj
 0002:0001d750       ?_Get@?$_Func_impl@U?$_Callable_obj@V<lambda_92ae8a6edb3cc5c1e2896be211724754>@@$0A@@std@@V?$allocator@V?$_Func_class@XV?$CStringT@_WV?$StrTraitMFC_DLL@_WV?$ChTraitsCRT@_W@ATL@@@@@ATL@@AAV?$vector@V?$CStringT@_WV?$StrTraitMFC_DLL@_WV?$ChTraitsCRT@_W@ATL@@@@@ATL@@V?$allocator@V?$CStringT@_WV?$StrTraitMFC_DLL@_WV?$ChTraitsCRT@_W@ATL@@@@@ATL@@@std@@@std@@@std@@@2@XV?$CStringT@_WV?$StrTraitMFC_DLL@_WV?$ChTraitsCRT@_W@ATL@@@@@ATL@@AAV?$vector@V?$CStringT@_WV?$StrTraitMFC_DLL@_WV?$ChTraitsCRT@_W@ATL@@@@@ATL@@V?$allocator@V?$CStringT@_WV?$StrTraitMFC_DLL@_WV?$ChTraitsCRT@_W@ATL@@@@@ATL@@@std@@@2@@std@@EBEPBXXZ 1006f750 f i file.obj
 0002:0001d7b0       ?_Getal@?$_Vector_alloc@$0A@U?$_Vec_base_types@V?$CStringT@_WV?$StrTraitMFC_DLL@_WV?$ChTraitsCRT@_W@ATL@@@@@ATL@@V?$allocator@V?$CStringT@_WV?$StrTraitMFC_DLL@_WV?$ChTraitsCRT@_W@ATL@@@@@ATL@@@std@@@std@@@std@@QBE?AU?$_Wrap_alloc@V?$allocator@V?$CStringT@_WV?$StrTraitMFC_DLL@_WV?$ChTraitsCRT@_W@ATL@@@@@ATL@@@std@@@2@XZ 1006f7b0 f i file.obj
 0002:0001d810       ?_Getcont@_Iterator_base12@std@@QBEPBU_Container_base12@2@XZ 1006f810 f i file.obj
 0002:0001d880       ?_Getpnext@_Iterator_base12@std@@QAEPAPAU12@XZ 1006f880 f i file.obj
 0002:0001d8c0       ?_Grow_to@?$vector@V?$CStringT@_WV?$StrTraitMFC_DLL@_WV?$ChTraitsCRT@_W@ATL@@@@@ATL@@V?$allocator@V?$CStringT@_WV?$StrTraitMFC_DLL@_WV?$ChTraitsCRT@_W@ATL@@@@@ATL@@@std@@@std@@IBEII@Z 1006f8c0 f i file.obj
 0002:0001d970       ?_Inside@?$vector@V?$CStringT@_WV?$StrTraitMFC_DLL@_WV?$ChTraitsCRT@_W@ATL@@@@@ATL@@V?$allocator@V?$CStringT@_WV?$StrTraitMFC_DLL@_WV?$ChTraitsCRT@_W@ATL@@@@@ATL@@@std@@@std@@IBE_NPBV?$CStringT@_WV?$StrTraitMFC_DLL@_WV?$ChTraitsCRT@_W@ATL@@@@@ATL@@@Z 1006f970 f i file.obj
 0002:0001d9f0       ?_Local@?$_Func_class@XV?$CStringT@_WV?$StrTraitMFC_DLL@_WV?$ChTraitsCRT@_W@ATL@@@@@ATL@@AAV?$vector@V?$CStringT@_WV?$StrTraitMFC_DLL@_WV?$ChTraitsCRT@_W@ATL@@@@@ATL@@V?$allocator@V?$CStringT@_WV?$StrTraitMFC_DLL@_WV?$ChTraitsCRT@_W@ATL@@@@@ATL@@@std@@@std@@@std@@ABE_NXZ 1006f9f0 f i file.obj
 0002:0001da60       ?_Local@?$_Func_class@_NAAVCFile@@@std@@ABE_NXZ 1006fa60 f i file.obj
 0002:0001dad0       ?_Move@?$_Func_impl@U?$_Callable_obj@V<lambda_92ae8a6edb3cc5c1e2896be211724754>@@$0A@@std@@V?$allocator@V?$_Func_class@XV?$CStringT@_WV?$StrTraitMFC_DLL@_WV?$ChTraitsCRT@_W@ATL@@@@@ATL@@AAV?$vector@V?$CStringT@_WV?$StrTraitMFC_DLL@_WV?$ChTraitsCRT@_W@ATL@@@@@ATL@@V?$allocator@V?$CStringT@_WV?$StrTraitMFC_DLL@_WV?$ChTraitsCRT@_W@ATL@@@@@ATL@@@std@@@std@@@std@@@2@XV?$CStringT@_WV?$StrTraitMFC_DLL@_WV?$ChTraitsCRT@_W@ATL@@@@@ATL@@AAV?$vector@V?$CStringT@_WV?$StrTraitMFC_DLL@_WV?$ChTraitsCRT@_W@ATL@@@@@ATL@@V?$allocator@V?$CStringT@_WV?$StrTraitMFC_DLL@_WV?$ChTraitsCRT@_W@ATL@@@@@ATL@@@std@@@2@@std@@UAEPAV?$_Func_base@XV?$CStringT@_WV?$StrTraitMFC_DLL@_WV?$ChTraitsCRT@_W@ATL@@@@@ATL@@AAV?$vector@V?$CStringT@_WV?$StrTraitMFC_DLL@_WV?$ChTraitsCRT@_W@ATL@@@@@ATL@@V?$allocator@V?$CStringT@_WV?$StrTraitMFC_DLL@_WV?$ChTraitsCRT@_W@ATL@@@@@ATL@@@std@@@std@@@2@PAX@Z 1006fad0 f i file.obj
 0002:0001dbf0       ?_Orphan_me@_Iterator_base12@std@@QAEXXZ 1006fbf0 f i file.obj
 0002:0001dcc0       ?_Orphan_range@?$vector@V?$CStringT@_WV?$StrTraitMFC_DLL@_WV?$ChTraitsCRT@_W@ATL@@@@@ATL@@V?$allocator@V?$CStringT@_WV?$StrTraitMFC_DLL@_WV?$ChTraitsCRT@_W@ATL@@@@@ATL@@@std@@@std@@IBEXPAV?$CStringT@_WV?$StrTraitMFC_DLL@_WV?$ChTraitsCRT@_W@ATL@@@@@ATL@@0@Z 1006fcc0 f i file.obj
 0002:0001de50       ?_Reallocate@?$vector@V?$CStringT@_WV?$StrTraitMFC_DLL@_WV?$ChTraitsCRT@_W@ATL@@@@@ATL@@V?$allocator@V?$CStringT@_WV?$StrTraitMFC_DLL@_WV?$ChTraitsCRT@_W@ATL@@@@@ATL@@@std@@@std@@IAEXI@Z 1006fe50 f i file.obj
 0002:0001e030       ?_Reserve@?$vector@V?$CStringT@_WV?$StrTraitMFC_DLL@_WV?$ChTraitsCRT@_W@ATL@@@@@ATL@@V?$allocator@V?$CStringT@_WV?$StrTraitMFC_DLL@_WV?$ChTraitsCRT@_W@ATL@@@@@ATL@@@std@@@std@@IAEXI@Z 10070030 f i file.obj
 0002:0001e0e0       ?_Reset@?$_Func_class@_NAAVCFile@@@std@@IAEXABV12@@Z 100700e0 f i file.obj
 0002:0001e1c0       ?_Set@?$_Func_class@XV?$CStringT@_WV?$StrTraitMFC_DLL@_WV?$ChTraitsCRT@_W@ATL@@@@@ATL@@AAV?$vector@V?$CStringT@_WV?$StrTraitMFC_DLL@_WV?$ChTraitsCRT@_W@ATL@@@@@ATL@@V?$allocator@V?$CStringT@_WV?$StrTraitMFC_DLL@_WV?$ChTraitsCRT@_W@ATL@@@@@ATL@@@std@@@std@@@std@@AAEXPAV?$_Func_base@XV?$CStringT@_WV?$StrTraitMFC_DLL@_WV?$ChTraitsCRT@_W@ATL@@@@@ATL@@AAV?$vector@V?$CStringT@_WV?$StrTraitMFC_DLL@_WV?$ChTraitsCRT@_W@ATL@@@@@ATL@@V?$allocator@V?$CStringT@_WV?$StrTraitMFC_DLL@_WV?$ChTraitsCRT@_W@ATL@@@@@ATL@@@std@@@std@@@2@@Z 100701c0 f i file.obj
 0002:0001e210       ?_Set@?$_Func_class@_NAAVCFile@@@std@@AAEXPAV?$_Func_base@_NAAVCFile@@@2@@Z 10070210 f i file.obj
 0002:0001e260       ?_Target_type@?$_Func_impl@U?$_Callable_obj@V<lambda_92ae8a6edb3cc5c1e2896be211724754>@@$0A@@std@@V?$allocator@V?$_Func_class@XV?$CStringT@_WV?$StrTraitMFC_DLL@_WV?$ChTraitsCRT@_W@ATL@@@@@ATL@@AAV?$vector@V?$CStringT@_WV?$StrTraitMFC_DLL@_WV?$ChTraitsCRT@_W@ATL@@@@@ATL@@V?$allocator@V?$CStringT@_WV?$StrTraitMFC_DLL@_WV?$ChTraitsCRT@_W@ATL@@@@@ATL@@@std@@@std@@@std@@@2@XV?$CStringT@_WV?$StrTraitMFC_DLL@_WV?$ChTraitsCRT@_W@ATL@@@@@ATL@@AAV?$vector@V?$CStringT@_WV?$StrTraitMFC_DLL@_WV?$ChTraitsCRT@_W@ATL@@@@@ATL@@V?$allocator@V?$CStringT@_WV?$StrTraitMFC_DLL@_WV?$ChTraitsCRT@_W@ATL@@@@@ATL@@@std@@@2@@std@@UBEABVtype_info@@XZ 10070260 f i file.obj
 0002:0001e2a0       ?_Tidy@?$_Func_class@XV?$CStringT@_WV?$StrTraitMFC_DLL@_WV?$ChTraitsCRT@_W@ATL@@@@@ATL@@AAV?$vector@V?$CStringT@_WV?$StrTraitMFC_DLL@_WV?$ChTraitsCRT@_W@ATL@@@@@ATL@@V?$allocator@V?$CStringT@_WV?$StrTraitMFC_DLL@_WV?$ChTraitsCRT@_W@ATL@@@@@ATL@@@std@@@std@@@std@@IAEXXZ 100702a0 f i file.obj
 0002:0001e350       ?_Tidy@?$_Func_class@_NAAVCFile@@@std@@IAEXXZ 10070350 f i file.obj
 0002:0001e400       ?_Tidy@?$vector@V?$CStringT@_WV?$StrTraitMFC_DLL@_WV?$ChTraitsCRT@_W@ATL@@@@@ATL@@V?$allocator@V?$CStringT@_WV?$StrTraitMFC_DLL@_WV?$ChTraitsCRT@_W@ATL@@@@@ATL@@@std@@@std@@IAEXXZ 10070400 f i file.obj
 0002:0001e4e0       ?_Unused_capacity@?$vector@V?$CStringT@_WV?$StrTraitMFC_DLL@_WV?$ChTraitsCRT@_W@ATL@@@@@ATL@@V?$allocator@V?$CStringT@_WV?$StrTraitMFC_DLL@_WV?$ChTraitsCRT@_W@ATL@@@@@ATL@@@std@@@std@@QBEIXZ 100704e0 f i file.obj
 0002:0001e530       ?_Xlen@?$vector@V?$CStringT@_WV?$StrTraitMFC_DLL@_WV?$ChTraitsCRT@_W@ATL@@@@@ATL@@V?$allocator@V?$CStringT@_WV?$StrTraitMFC_DLL@_WV?$ChTraitsCRT@_W@ATL@@@@@ATL@@@std@@@std@@IBEXXZ 10070530 f i file.obj
 0002:0001e590       ?__autoclassinit2@?$function@$$A6AXV?$CStringT@_WV?$StrTraitMFC_DLL@_WV?$ChTraitsCRT@_W@ATL@@@@@ATL@@AAV?$vector@V?$CStringT@_WV?$StrTraitMFC_DLL@_WV?$ChTraitsCRT@_W@ATL@@@@@ATL@@V?$allocator@V?$CStringT@_WV?$StrTraitMFC_DLL@_WV?$ChTraitsCRT@_W@ATL@@@@@ATL@@@std@@@std@@@Z@std@@QAEXI@Z 10070590 f i file.obj
 0002:0001e5f0       ?__autoclassinit2@?$function@$$A6A_NAAVCFile@@@Z@std@@QAEXI@Z 100705f0 f i file.obj
 0002:0001e650       ?__autoclassinit2@?$vector@V?$CStringT@_WV?$StrTraitMFC_DLL@_WV?$ChTraitsCRT@_W@ATL@@@@@ATL@@V?$allocator@V?$CStringT@_WV?$StrTraitMFC_DLL@_WV?$ChTraitsCRT@_W@ATL@@@@@ATL@@@std@@@std@@QAEXI@Z 10070650 f i file.obj
 0002:0001e6b0       ?__autoclassinit2@CFile@@QAEXI@Z 100706b0 f i file.obj
 0002:0001e710       ?__autoclassinit2@CFileFind@@QAEXI@Z 10070710 f i file.obj
 0002:0001e770       ?allocate@?$_Wrap_alloc@V?$allocator@U_Container_proxy@std@@@std@@@std@@QAEPAU_Container_proxy@2@I@Z 10070770 f i file.obj
 0002:0001e7d0       ?allocate@?$_Wrap_alloc@V?$allocator@V?$CStringT@_WV?$StrTraitMFC_DLL@_WV?$ChTraitsCRT@_W@ATL@@@@@ATL@@@std@@@std@@QAEPAV?$CStringT@_WV?$StrTraitMFC_DLL@_WV?$ChTraitsCRT@_W@ATL@@@@@ATL@@I@Z 100707d0 f i file.obj
 0002:0001e830       ?allocate@?$allocator@U_Container_proxy@std@@@std@@QAEPAU_Container_proxy@2@I@Z 10070830 f i file.obj
 0002:0001e890       ?allocate@?$allocator@V?$CStringT@_WV?$StrTraitMFC_DLL@_WV?$ChTraitsCRT@_W@ATL@@@@@ATL@@@std@@QAEPAV?$CStringT@_WV?$StrTraitMFC_DLL@_WV?$ChTraitsCRT@_W@ATL@@@@@ATL@@I@Z 10070890 f i file.obj
 0002:0001e8f0       ?allocate@?$allocator@V?$_Func_impl@U?$_Callable_obj@V<lambda_92ae8a6edb3cc5c1e2896be211724754>@@$0A@@std@@V?$allocator@V?$_Func_class@XV?$CStringT@_WV?$StrTraitMFC_DLL@_WV?$ChTraitsCRT@_W@ATL@@@@@ATL@@AAV?$vector@V?$CStringT@_WV?$StrTraitMFC_DLL@_WV?$ChTraitsCRT@_W@ATL@@@@@ATL@@V?$allocator@V?$CStringT@_WV?$StrTraitMFC_DLL@_WV?$ChTraitsCRT@_W@ATL@@@@@ATL@@@std@@@std@@@std@@@2@XV?$CStringT@_WV?$StrTraitMFC_DLL@_WV?$ChTraitsCRT@_W@ATL@@@@@ATL@@AAV?$vector@V?$CStringT@_WV?$StrTraitMFC_DLL@_WV?$ChTraitsCRT@_W@ATL@@@@@ATL@@V?$allocator@V?$CStringT@_WV?$StrTraitMFC_DLL@_WV?$ChTraitsCRT@_W@ATL@@@@@ATL@@@std@@@2@@std@@@std@@QAEPAV?$_Func_impl@U?$_Callable_obj@V<lambda_92ae8a6edb3cc5c1e2896be211724754>@@$0A@@std@@V?$allocator@V?$_Func_class@XV?$CStringT@_WV?$StrTraitMFC_DLL@_WV?$ChTraitsCRT@_W@ATL@@@@@ATL@@AAV?$vector@V?$CStringT@_WV?$StrTraitMFC_DLL@_WV?$ChTraitsCRT@_W@ATL@@@@@ATL@@V?$allocator@V?$CStringT@_WV?$StrTraitMFC_DLL@_WV?$ChTraitsCRT@_W@ATL@@@@@ATL@@@std@@@std@@@std@@@2@XV?$CStringT@_WV?$StrTraitMFC_DLL@_WV?$ChTraitsCRT@_W@ATL@@@@@ATL@@AAV?$vector@V?$CStringT@_WV?$StrTraitMFC_DLL@_WV?$ChTraitsCRT@_W@ATL@@@@@ATL@@V?$allocator@V?$CStringT@_WV?$StrTraitMFC_DLL@_WV?$ChTraitsCRT@_W@ATL@@@@@ATL@@@std@@@2@@2@I@Z 100708f0 f i file.obj
 0002:0001e950       ?base@?$move_iterator@V?$_Vector_iterator@V?$_Vector_val@U?$_Simple_types@V?$CStringT@_WV?$StrTraitMFC_DLL@_WV?$ChTraitsCRT@_W@ATL@@@@@ATL@@@std@@@std@@@std@@@std@@QBE?AV?$_Vector_iterator@V?$_Vector_val@U?$_Simple_types@V?$CStringT@_WV?$StrTraitMFC_DLL@_WV?$ChTraitsCRT@_W@ATL@@@@@ATL@@@std@@@std@@@2@XZ 10070950 f i file.obj
 0002:0001e9d0       ?begin@?$vector@V?$CStringT@_WV?$StrTraitMFC_DLL@_WV?$ChTraitsCRT@_W@ATL@@@@@ATL@@V?$allocator@V?$CStringT@_WV?$StrTraitMFC_DLL@_WV?$ChTraitsCRT@_W@ATL@@@@@ATL@@@std@@@std@@QAE?AV?$_Vector_iterator@V?$_Vector_val@U?$_Simple_types@V?$CStringT@_WV?$StrTraitMFC_DLL@_WV?$ChTraitsCRT@_W@ATL@@@@@ATL@@@std@@@std@@@2@XZ 100709d0 f i file.obj
 0002:0001ea40       ?capacity@?$vector@V?$CStringT@_WV?$StrTraitMFC_DLL@_WV?$ChTraitsCRT@_W@ATL@@@@@ATL@@V?$allocator@V?$CStringT@_WV?$StrTraitMFC_DLL@_WV?$ChTraitsCRT@_W@ATL@@@@@ATL@@@std@@@std@@QBEIXZ 10070a40 f i file.obj
 0002:0001ea90       ?construct@?$allocator@V?$CStringT@_WV?$StrTraitMFC_DLL@_WV?$ChTraitsCRT@_W@ATL@@@@@ATL@@@std@@QAEXPAV?$CStringT@_WV?$StrTraitMFC_DLL@_WV?$ChTraitsCRT@_W@ATL@@@@@ATL@@ABV34@@Z 10070a90 f i file.obj
 0002:0001eb90       ?deallocate@?$_Wrap_alloc@V?$allocator@U_Container_proxy@std@@@std@@@std@@QAEXPAU_Container_proxy@2@I@Z 10070b90 f i file.obj
 0002:0001ebf0       ?deallocate@?$_Wrap_alloc@V?$allocator@V?$CStringT@_WV?$StrTraitMFC_DLL@_WV?$ChTraitsCRT@_W@ATL@@@@@ATL@@@std@@@std@@QAEXPAV?$CStringT@_WV?$StrTraitMFC_DLL@_WV?$ChTraitsCRT@_W@ATL@@@@@ATL@@I@Z 10070bf0 f i file.obj
 0002:0001ec50       ?deallocate@?$allocator@U_Container_proxy@std@@@std@@QAEXPAU_Container_proxy@2@I@Z 10070c50 f i file.obj
 0002:0001ecb0       ?deallocate@?$allocator@V?$CStringT@_WV?$StrTraitMFC_DLL@_WV?$ChTraitsCRT@_W@ATL@@@@@ATL@@@std@@QAEXPAV?$CStringT@_WV?$StrTraitMFC_DLL@_WV?$ChTraitsCRT@_W@ATL@@@@@ATL@@I@Z 10070cb0 f i file.obj
 0002:0001ed10       ?deallocate@?$allocator@V?$_Func_impl@U?$_Callable_obj@V<lambda_92ae8a6edb3cc5c1e2896be211724754>@@$0A@@std@@V?$allocator@V?$_Func_class@XV?$CStringT@_WV?$StrTraitMFC_DLL@_WV?$ChTraitsCRT@_W@ATL@@@@@ATL@@AAV?$vector@V?$CStringT@_WV?$StrTraitMFC_DLL@_WV?$ChTraitsCRT@_W@ATL@@@@@ATL@@V?$allocator@V?$CStringT@_WV?$StrTraitMFC_DLL@_WV?$ChTraitsCRT@_W@ATL@@@@@ATL@@@std@@@std@@@std@@@2@XV?$CStringT@_WV?$StrTraitMFC_DLL@_WV?$ChTraitsCRT@_W@ATL@@@@@ATL@@AAV?$vector@V?$CStringT@_WV?$StrTraitMFC_DLL@_WV?$ChTraitsCRT@_W@ATL@@@@@ATL@@V?$allocator@V?$CStringT@_WV?$StrTraitMFC_DLL@_WV?$ChTraitsCRT@_W@ATL@@@@@ATL@@@std@@@2@@std@@@std@@QAEXPAV?$_Func_impl@U?$_Callable_obj@V<lambda_92ae8a6edb3cc5c1e2896be211724754>@@$0A@@std@@V?$allocator@V?$_Func_class@XV?$CStringT@_WV?$StrTraitMFC_DLL@_WV?$ChTraitsCRT@_W@ATL@@@@@ATL@@AAV?$vector@V?$CStringT@_WV?$StrTraitMFC_DLL@_WV?$ChTraitsCRT@_W@ATL@@@@@ATL@@V?$allocator@V?$CStringT@_WV?$StrTraitMFC_DLL@_WV?$ChTraitsCRT@_W@ATL@@@@@ATL@@@std@@@std@@@std@@@2@XV?$CStringT@_WV?$StrTraitMFC_DLL@_WV?$ChTraitsCRT@_W@ATL@@@@@ATL@@AAV?$vector@V?$CStringT@_WV?$StrTraitMFC_DLL@_WV?$ChTraitsCRT@_W@ATL@@@@@ATL@@V?$allocator@V?$CStringT@_WV?$StrTraitMFC_DLL@_WV?$ChTraitsCRT@_W@ATL@@@@@ATL@@@std@@@2@@2@I@Z 10070d10 f i file.obj
 0002:0001ed70       ?end@?$vector@V?$CStringT@_WV?$StrTraitMFC_DLL@_WV?$ChTraitsCRT@_W@ATL@@@@@ATL@@V?$allocator@V?$CStringT@_WV?$StrTraitMFC_DLL@_WV?$ChTraitsCRT@_W@ATL@@@@@ATL@@@std@@@std@@QAE?AV?$_Vector_iterator@V?$_Vector_val@U?$_Simple_types@V?$CStringT@_WV?$StrTraitMFC_DLL@_WV?$ChTraitsCRT@_W@ATL@@@@@ATL@@@std@@@std@@@2@XZ 10070d70 f i file.obj
 0002:0001ede0       ?get_allocator@?$vector@V?$CStringT@_WV?$StrTraitMFC_DLL@_WV?$ChTraitsCRT@_W@ATL@@@@@ATL@@V?$allocator@V?$CStringT@_WV?$StrTraitMFC_DLL@_WV?$ChTraitsCRT@_W@ATL@@@@@ATL@@@std@@@std@@QBE?AV?$allocator@V?$CStringT@_WV?$StrTraitMFC_DLL@_WV?$ChTraitsCRT@_W@ATL@@@@@ATL@@@2@XZ 10070de0 f i file.obj
 0002:0001ee50       ?max_size@?$_Wrap_alloc@V?$allocator@V?$CStringT@_WV?$StrTraitMFC_DLL@_WV?$ChTraitsCRT@_W@ATL@@@@@ATL@@@std@@@std@@QBEIXZ 10070e50 f i file.obj
 0002:0001eeb0       ?max_size@?$allocator@V?$CStringT@_WV?$StrTraitMFC_DLL@_WV?$ChTraitsCRT@_W@ATL@@@@@ATL@@@std@@QBEIXZ 10070eb0 f i file.obj
 0002:0001eef0       ?max_size@?$allocator_traits@V?$allocator@V?$CStringT@_WV?$StrTraitMFC_DLL@_WV?$ChTraitsCRT@_W@ATL@@@@@ATL@@@std@@@std@@SAIABV?$allocator@V?$CStringT@_WV?$StrTraitMFC_DLL@_WV?$ChTraitsCRT@_W@ATL@@@@@ATL@@@2@@Z 10070ef0 f i file.obj
 0002:0001ef40       ?max_size@?$vector@V?$CStringT@_WV?$StrTraitMFC_DLL@_WV?$ChTraitsCRT@_W@ATL@@@@@ATL@@V?$allocator@V?$CStringT@_WV?$StrTraitMFC_DLL@_WV?$ChTraitsCRT@_W@ATL@@@@@ATL@@@std@@@std@@QBEIXZ 10070f40 f i file.obj
 0002:0001efa0       ?push_back@?$vector@V?$CStringT@_WV?$StrTraitMFC_DLL@_WV?$ChTraitsCRT@_W@ATL@@@@@ATL@@V?$allocator@V?$CStringT@_WV?$StrTraitMFC_DLL@_WV?$ChTraitsCRT@_W@ATL@@@@@ATL@@@std@@@std@@QAEX$$QAV?$CStringT@_WV?$StrTraitMFC_DLL@_WV?$ChTraitsCRT@_W@ATL@@@@@ATL@@@Z 10070fa0 f i file.obj
 0002:0001f140       ?push_back@?$vector@V?$CStringT@_WV?$StrTraitMFC_DLL@_WV?$ChTraitsCRT@_W@ATL@@@@@ATL@@V?$allocator@V?$CStringT@_WV?$StrTraitMFC_DLL@_WV?$ChTraitsCRT@_W@ATL@@@@@ATL@@@std@@@std@@QAEXABV?$CStringT@_WV?$StrTraitMFC_DLL@_WV?$ChTraitsCRT@_W@ATL@@@@@ATL@@@Z 10071140 f i file.obj
 0002:0001f2d0       ?size@?$vector@V?$CStringT@_WV?$StrTraitMFC_DLL@_WV?$ChTraitsCRT@_W@ATL@@@@@ATL@@V?$allocator@V?$CStringT@_WV?$StrTraitMFC_DLL@_WV?$ChTraitsCRT@_W@ATL@@@@@ATL@@@std@@@std@@QBEIXZ 100712d0 f i file.obj
 0002:0001f320       ??$?RV?$mersenne_twister_engine@_K$0EA@$0BDI@$0JM@$0BP@$0?EKPNJAKFFGJJOGBH@$0BN@$0FFFFFFFFFFFFFFFF@$0BB@$0HBNGHPPPONKGAAAA@$0CF@$0?IBBCAAAAAAAAA@$0CL@$0FIFBPECNEMJFHPCN@@std@@@?$uniform_int@H@std@@QBEHAAV?$mersenne_twister_engine@_K$0EA@$0BDI@$0JM@$0BP@$0?EKPNJAKFFGJJOGBH@$0BN@$0FFFFFFFFFFFFFFFF@$0BB@$0HBNGHPPPONKGAAAA@$0CF@$0?IBBCAAAAAAAAA@$0CL@$0FIFBPECNEMJFHPCN@@1@@Z 10071320 f i gdi.obj
 0002:0001f390       ??$MakeRandom@H@bapi@@YAHHH@Z 10071390 f i gdi.obj
 0002:0001f530       ??$_Allocate@D@std@@YAPADIPAD@Z 10071530 f i gdi.obj
 0002:0001f5c0       ??$_Debug_pointer@D@std@@YAXPBDPB_WI@Z 100715c0 f i gdi.obj
 0002:0001f630       ??$_Eval@V?$mersenne_twister_engine@_K$0EA@$0BDI@$0JM@$0BP@$0?EKPNJAKFFGJJOGBH@$0BN@$0FFFFFFFFFFFFFFFF@$0BB@$0HBNGHPPPONKGAAAA@$0CF@$0?IBBCAAAAAAAAA@$0CL@$0FIFBPECNEMJFHPCN@@std@@@?$uniform_int@H@std@@ABEHAAV?$mersenne_twister_engine@_K$0EA@$0BDI@$0JM@$0BP@$0?EKPNJAKFFGJJOGBH@$0BN@$0FFFFFFFFFFFFFFFF@$0BB@$0HBNGHPPPONKGAAAA@$0CF@$0?IBBCAAAAAAAAA@$0CL@$0FIFBPECNEMJFHPCN@@1@HH@Z 10071630 f i gdi.obj
 0002:0001f750       ??$addressof@D@std@@YAPADAAD@Z 10071750 f i gdi.obj
 0002:0001f790       ??$construct@PADAAPAD@?$_Wrap_alloc@V?$allocator@D@std@@@std@@QAEXPAPADAAPAD@Z 10071790 f i gdi.obj
 0002:0001f800       ??$construct@PADAAPAD@?$allocator@D@std@@QAEXPAPADAAPAD@Z 10071800 f i gdi.obj
 0002:0001f900       ??$construct@PADAAPAD@?$allocator_traits@V?$allocator@D@std@@@std@@SAXAAV?$allocator@D@1@PAPADAAPAD@Z 10071900 f i gdi.obj
 0002:0001f960       ??$destroy@PAD@?$_Wrap_alloc@V?$allocator@D@std@@@std@@QAEXPAPAD@Z 10071960 f i gdi.obj
 0002:0001f9c0       ??$destroy@PAD@?$allocator@D@std@@QAEXPAPAD@Z 100719c0 f i gdi.obj
 0002:0001fa00       ??$destroy@PAD@?$allocator_traits@V?$allocator@D@std@@@std@@SAXAAV?$allocator@D@1@PAPAD@Z 10071a00 f i gdi.obj
 0002:0001fa50       ??$forward@AAPAD@std@@YAAAPADAAPAD@Z 10071a50 f i gdi.obj
 0002:0001fa90       ??0?$_Rng_from_urng@IV?$mersenne_twister_engine@_K$0EA@$0BDI@$0JM@$0BP@$0?EKPNJAKFFGJJOGBH@$0BN@$0FFFFFFFFFFFFFFFF@$0BB@$0HBNGHPPPONKGAAAA@$0CF@$0?IBBCAAAAAAAAA@$0CL@$0FIFBPECNEMJFHPCN@@std@@@std@@QAE@AAV?$mersenne_twister_engine@_K$0EA@$0BDI@$0JM@$0BP@$0?EKPNJAKFFGJJOGBH@$0BN@$0FFFFFFFFFFFFFFFF@$0BB@$0HBNGHPPPONKGAAAA@$0CF@$0?IBBCAAAAAAAAA@$0CL@$0FIFBPECNEMJFHPCN@@1@@Z 10071a90 f i gdi.obj
 0002:0001fba0       ??0?$_String_alloc@$0A@U?$_String_base_types@DV?$allocator@D@std@@@std@@@std@@QAE@ABV?$allocator@D@1@@Z 10071ba0 f i gdi.obj
 0002:0001fc50       ??0?$_String_val@U?$_Simple_types@D@std@@@std@@QAE@XZ 10071c50 f i gdi.obj
 0002:0001fcd0       ??0?$_Wrap_alloc@V?$allocator@D@std@@@std@@QAE@XZ 10071cd0 f i gdi.obj
 0002:0001fd30       ??0?$allocator@D@std@@QAE@XZ 10071d30 f i gdi.obj
 0002:0001fd70       ??0?$basic_string@DU?$char_traits@D@std@@V?$allocator@D@2@@std@@QAE@PBD@Z 10071d70 f i gdi.obj
 0002:0001fe40       ??0?$mersenne_twister@_K$0EA@$0BDI@$0JM@$0BP@$0?EKPNJAKFFGJJOGBH@$0BN@$0BB@$0HBNGHPPPONKGAAAA@$0CF@$0?IBBCAAAAAAAAA@$0CL@@std@@QAE@K_K0@Z 10071e40 f i gdi.obj
 0002:0001fec0       ??0?$mersenne_twister_engine@_K$0EA@$0BDI@$0JM@$0BP@$0?EKPNJAKFFGJJOGBH@$0BN@$0FFFFFFFFFFFFFFFF@$0BB@$0HBNGHPPPONKGAAAA@$0CF@$0?IBBCAAAAAAAAA@$0CL@$0FIFBPECNEMJFHPCN@@std@@QAE@_K@Z 10071ec0 f i gdi.obj
 0002:0001ff40       ??0?$uniform_int@H@std@@QAE@HH@Z 10071f40 f i gdi.obj
 0002:0001ffa0       ??0?$uniform_int_distribution@H@std@@QAE@HH@Z 10071fa0 f i gdi.obj
 0002:00020000       ??0CSize@@QAE@HH@Z         10072000 f i gdi.obj
 0002:00020050       ??0CSize@@QAE@XZ           10072050 f i gdi.obj
 0002:000200a0       ??0Color@Gdiplus@@QAE@EEEE@Z 100720a0 f i gdi.obj
 0002:00020120       ??0Rect@Gdiplus@@QAE@XZ    10072120 f i gdi.obj
 0002:00020190       ??0param_type@?$uniform_int@H@std@@QAE@HH@Z 10072190 f i gdi.obj
 0002:000201f0       ??0random_device@std@@QAE@ABV?$basic_string@DU?$char_traits@D@std@@V?$allocator@D@2@@1@@Z 100721f0 f i gdi.obj
 0002:00020250       ??1?$_String_alloc@$0A@U?$_String_base_types@DV?$allocator@D@std@@@std@@@std@@QAE@XZ 10072250 f i gdi.obj
 0002:000202b0       ??1?$_String_val@U?$_Simple_types@D@std@@@std@@QAE@XZ 100722b0 f i gdi.obj
 0002:00020310       ??1?$basic_string@DU?$char_traits@D@std@@V?$allocator@D@2@@std@@QAE@XZ 10072310 f i gdi.obj
 0002:00020370       ??R?$_Rng_from_urng@IV?$mersenne_twister_engine@_K$0EA@$0BDI@$0JM@$0BP@$0?EKPNJAKFFGJJOGBH@$0BN@$0FFFFFFFFFFFFFFFF@$0BB@$0HBNGHPPPONKGAAAA@$0CF@$0?IBBCAAAAAAAAA@$0CL@$0FIFBPECNEMJFHPCN@@std@@@std@@QAEII@Z 10072370 f i gdi.obj
 0002:000205c0       ??R?$mersenne_twister@_K$0EA@$0BDI@$0JM@$0BP@$0?EKPNJAKFFGJJOGBH@$0BN@$0BB@$0HBNGHPPPONKGAAAA@$0CF@$0?IBBCAAAAAAAAA@$0CL@@std@@QAE_KXZ 100725c0 f i gdi.obj
 0002:00020720       ??Rrandom_device@std@@QAEIXZ 10072720 f i gdi.obj
 0002:00020780       ?DirectColor@bapi@@YA?AVColor@Gdiplus@@V23@MM@Z 10072780 f   gdi.obj
 0002:00020920       ?DirectColor@bapi@@YAKKM@Z 10072920 f   gdi.obj
 0002:00020a60       ?DrawFrameRect@bapi@@YAXAAVGraphics@Gdiplus@@AAVPen@3@AAVCRect@@@Z 10072a60 f   gdi.obj
 0002:00020c20       ?DrawFrameRect@bapi@@YAXAAVGraphics@Gdiplus@@AAVPen@3@AAVPointF@3@2@Z 10072c20 f   gdi.obj
 0002:00020e00       ?DrawFrameRect@bapi@@YAXAAVGraphics@Gdiplus@@AAVPen@3@AAVRectF@3@@Z 10072e00 f   gdi.obj
 0002:00020fc0       ?DrawFrameRect@bapi@@YAXPAVCDC@@HHHHKH@Z 10072fc0 f   gdi.obj
 0002:00021190       ?DrawFrameRect@bapi@@YAXPAVCDC@@HHHHKK@Z 10073190 f   gdi.obj
 0002:000212b0       ?DrawLine@Graphics@Gdiplus@@QAE?AW4Status@2@PBVPen@2@HHHH@Z 100732b0 f i gdi.obj
 0002:00021330       ?DrawOutsideTabLine@bapi@@YAXPAVCDC@@AAVCRect@@_N@Z 10073330 f   gdi.obj
 0002:00021440       ?DrawOutsideTabLineEx@bapi@@YAXPAVCDC@@AAVCRect@@@Z 10073440 f   gdi.obj
 0002:00021540       ?GetAlpha@Color@Gdiplus@@QBEEXZ 10073540 f i gdi.obj
 0002:00021580       ?GetBitmapBits@bapi@@YA_NAAVCBitmap@@AAV?$TBuffer@E@baro@@@Z 10073580 f   gdi.obj
 0002:00021830       ?GetBitmapBits@bapi@@YA_NQAUHBITMAP__@@AAV?$TBuffer@E@baro@@@Z 10073830 f   gdi.obj
 0002:000218d0       ?GetBlue@Color@Gdiplus@@QBEEXZ 100738d0 f i gdi.obj
 0002:00021910       ?GetBottom@Rect@Gdiplus@@QBEHXZ 10073910 f i gdi.obj
 0002:00021960       ?GetDisplayStringSize@bapi@@YA?AVCSize@@PAVCDC@@PB_W@Z 10073960 f   gdi.obj
 0002:00021af0       ?GetDrawTextSize@bapi@@YA?AVCSize@@PAVCDC@@PB_W@Z 10073af0 f   gdi.obj
 0002:00021d00       ?GetFitStringAddDot@bapi@@YA?AV?$CStringT@_WV?$StrTraitMFC_DLL@_WV?$ChTraitsCRT@_W@ATL@@@@@ATL@@PAVCDC@@PB_WHPAVCSize@@@Z 10073d00 f   gdi.obj
 0002:00022270       ?GetFitStringAddDotReverse@bapi@@YA?AV?$CStringT@_WV?$StrTraitMFC_DLL@_WV?$ChTraitsCRT@_W@ATL@@@@@ATL@@PAVCDC@@V23@HPAVCSize@@@Z 10074270 f   gdi.obj
 0002:00022480       ?GetGreen@Color@Gdiplus@@QBEEXZ 10074480 f i gdi.obj
 0002:000224c0       ?GetLeft@Rect@Gdiplus@@QBEHXZ 100744c0 f i gdi.obj
 0002:00022500       ?GetLength@?$TBuffer@E@baro@@QBEIXZ 10074500 f i gdi.obj
 0002:00022540       ?GetRed@Color@Gdiplus@@QBEEXZ 10074540 f i gdi.obj
 0002:00022580       ?GetRight@Rect@Gdiplus@@QBEHXZ 10074580 f i gdi.obj
 0002:000225d0       ?GetTop@Rect@Gdiplus@@QBEHXZ 100745d0 f i gdi.obj
 0002:00022610       ?Height@CRect@@QBEHXZ      10074610 f i gdi.obj
 0002:00022660       ?IncreaseColor@bapi@@YA?AVColor@Gdiplus@@V23@MM@Z 10074660 f   gdi.obj
 0002:00022810       ?IncreaseColor@bapi@@YAKKM@Z 10074810 f   gdi.obj
 0002:00022960       ?MakeARGB@Color@Gdiplus@@SAKEEEE@Z 10074960 f i gdi.obj
 0002:000229c0       ?MakeRandomColor@bapi@@YA?AVColor@Gdiplus@@XZ 100749c0 f   gdi.obj
 0002:00022a60       ?MakeRandomRGB@bapi@@YAKXZ 10074a60 f   gdi.obj
 0002:00022b00       ?SetCompositingMode@Graphics@Gdiplus@@QAE?AW4Status@2@W4CompositingMode@2@@Z 10074b00 f i gdi.obj
 0002:00022b70       ?SetCompositingQuality@Graphics@Gdiplus@@QAE?AW4Status@2@W4CompositingQuality@2@@Z 10074b70 f i gdi.obj
 0002:00022be0       ?SetGraphics@bapi@@YAXPAVGraphics@Gdiplus@@_N1@Z 10074be0 f   gdi.obj
 0002:00022cc0       ?SetInterpolationMode@Graphics@Gdiplus@@QAE?AW4Status@2@W4InterpolationMode@2@@Z 10074cc0 f i gdi.obj
 0002:00022d30       ?SetSmoothingMode@Graphics@Gdiplus@@QAE?AW4Status@2@W4SmoothingMode@2@@Z 10074d30 f i gdi.obj
 0002:00022da0       ?SetStatus@Graphics@Gdiplus@@IBE?AW4Status@2@W432@@Z 10074da0 f i gdi.obj
 0002:00022e00       ?Width@CRect@@QBEHXZ       10074e00 f i gdi.obj
 0002:00022e50       ?_Adjust@?$uniform_int@H@std@@CAII@Z 10074e50 f i gdi.obj
 0002:00022eb0       ?_Adjust@?$uniform_int@H@std@@CAIIU?$integral_constant@_N$00@2@@Z 10074eb0 f i gdi.obj
 0002:00022f10       ?_Alloc_proxy@?$_String_alloc@$0A@U?$_String_base_types@DV?$allocator@D@std@@@std@@@std@@QAEXXZ 10074f10 f i gdi.obj
 0002:00023000       ?_Copy@?$basic_string@DU?$char_traits@D@std@@V?$allocator@D@2@@std@@QAEXII@Z 10075000 f i gdi.obj
 0002:000232d0       ?_Eos@?$basic_string@DU?$char_traits@D@std@@V?$allocator@D@2@@std@@QAEXI@Z 100752d0 f i gdi.obj
 0002:00023350       ?_Free_proxy@?$_String_alloc@$0A@U?$_String_base_types@DV?$allocator@D@std@@@std@@@std@@QAEXXZ 10075350 f i gdi.obj
 0002:00023440       ?_Get_all_bits@?$_Rng_from_urng@IV?$mersenne_twister_engine@_K$0EA@$0BDI@$0JM@$0BP@$0?EKPNJAKFFGJJOGBH@$0BN@$0FFFFFFFFFFFFFFFF@$0BB@$0HBNGHPPPONKGAAAA@$0CF@$0?IBBCAAAAAAAAA@$0CL@$0FIFBPECNEMJFHPCN@@std@@@std@@QAE_KXZ 10075440 f i gdi.obj
 0002:00023510       ?_Get_bits@?$_Rng_from_urng@IV?$mersenne_twister_engine@_K$0EA@$0BDI@$0JM@$0BP@$0?EKPNJAKFFGJJOGBH@$0BN@$0FFFFFFFFFFFFFFFF@$0BB@$0HBNGHPPPONKGAAAA@$0CF@$0?IBBCAAAAAAAAA@$0CL@$0FIFBPECNEMJFHPCN@@std@@@std@@AAE_KXZ 10075510 f i gdi.obj
 0002:000235c0       ?_Getal@?$_String_alloc@$0A@U?$_String_base_types@DV?$allocator@D@std@@@std@@@std@@QBE?AU?$_Wrap_alloc@V?$allocator@D@std@@@2@XZ 100755c0 f i gdi.obj
 0002:00023620       ?_Grow@?$basic_string@DU?$char_traits@D@std@@V?$allocator@D@2@@std@@QAE_NI_N@Z 10075620 f i gdi.obj
 0002:00023740       ?_Init@param_type@?$uniform_int@H@std@@QAEXHH@Z 10075740 f i gdi.obj
 0002:000237d0       ?_Inside@?$basic_string@DU?$char_traits@D@std@@V?$allocator@D@2@@std@@QAE_NPBD@Z 100757d0 f i gdi.obj
 0002:00023850       ?_Myptr@?$_String_val@U?$_Simple_types@D@std@@@std@@QAEPADXZ 10075850 f i gdi.obj
 0002:000238e0       ?_Myptr@?$_String_val@U?$_Simple_types@D@std@@@std@@QBEPBDXZ 100758e0 f i gdi.obj
 0002:00023970       ?_Refill_lower@?$mersenne_twister@_K$0EA@$0BDI@$0JM@$0BP@$0?EKPNJAKFFGJJOGBH@$0BN@$0BB@$0HBNGHPPPONKGAAAA@$0CF@$0?IBBCAAAAAAAAA@$0CL@@std@@IAEXXZ 10075970 f i gdi.obj
 0002:00023d00       ?_Refill_upper@?$mersenne_twister@_K$0EA@$0BDI@$0JM@$0BP@$0?EKPNJAKFFGJJOGBH@$0BN@$0BB@$0HBNGHPPPONKGAAAA@$0CF@$0?IBBCAAAAAAAAA@$0CL@@std@@IAEXXZ 10075d00 f i gdi.obj
 0002:00023e70       ?_Tidy@?$basic_string@DU?$char_traits@D@std@@V?$allocator@D@2@@std@@QAEX_NI@Z 10075e70 f i gdi.obj
 0002:00023f80       ?_Xlen@?$basic_string@DU?$char_traits@D@std@@V?$allocator@D@2@@std@@QBEXXZ 10075f80 f i gdi.obj
 0002:00023fe0       ?_Xran@?$basic_string@DU?$char_traits@D@std@@V?$allocator@D@2@@std@@QBEXXZ 10075fe0 f i gdi.obj
 0002:00024040       ?__autoclassinit2@CPen@@QAEXI@Z 10076040 f i gdi.obj
 0002:000240a0       ?allocate@?$_Wrap_alloc@V?$allocator@D@std@@@std@@QAEPADI@Z 100760a0 f i gdi.obj
 0002:00024100       ?allocate@?$allocator@D@std@@QAEPADI@Z 10076100 f i gdi.obj
 0002:00024160       ?assign@?$basic_string@DU?$char_traits@D@std@@V?$allocator@D@2@@std@@QAEAAV12@ABV12@II@Z 10076160 f i gdi.obj
 0002:00024270       ?assign@?$basic_string@DU?$char_traits@D@std@@V?$allocator@D@2@@std@@QAEAAV12@PBD@Z 10076270 f i gdi.obj
 0002:00024300       ?assign@?$basic_string@DU?$char_traits@D@std@@V?$allocator@D@2@@std@@QAEAAV12@PBDI@Z 10076300 f i gdi.obj
 0002:00024400       ?assign@?$char_traits@D@std@@SAXAADABD@Z 10076400 f i gdi.obj
 0002:00024440       ?copy@?$char_traits@D@std@@SAPADPADPBDI@Z 10076440 f i gdi.obj
 0002:000244c0       ?deallocate@?$_Wrap_alloc@V?$allocator@D@std@@@std@@QAEXPADI@Z 100764c0 f i gdi.obj
 0002:00024520       ?deallocate@?$allocator@D@std@@QAEXPADI@Z 10076520 f i gdi.obj
 0002:00024580       ?erase@?$basic_string@DU?$char_traits@D@std@@V?$allocator@D@2@@std@@QAEAAV12@I@Z 10076580 f i gdi.obj
 0002:00024600       ?erase@?$basic_string@DU?$char_traits@D@std@@V?$allocator@D@2@@std@@QAEAAV12@II@Z 10076600 f i gdi.obj
 0002:000246e0       ?length@?$char_traits@D@std@@SAIPBD@Z 100766e0 f i gdi.obj
 0002:00024760       ?max@?$mersenne_twister_engine@_K$0EA@$0BDI@$0JM@$0BP@$0?EKPNJAKFFGJJOGBH@$0BN@$0FFFFFFFFFFFFFFFF@$0BB@$0HBNGHPPPONKGAAAA@$0CF@$0?IBBCAAAAAAAAA@$0CL@$0FIFBPECNEMJFHPCN@@std@@SA_KXZ 10076760 f i gdi.obj
 0002:000247a0       ?max_size@?$_Wrap_alloc@V?$allocator@D@std@@@std@@QBEIXZ 100767a0 f i gdi.obj
 0002:00024800       ?max_size@?$allocator@D@std@@QBEIXZ 10076800 f i gdi.obj
 0002:00024840       ?max_size@?$allocator_traits@V?$allocator@D@std@@@std@@SAIABV?$allocator@D@2@@Z 10076840 f i gdi.obj
 0002:00024890       ?max_size@?$basic_string@DU?$char_traits@D@std@@V?$allocator@D@2@@std@@QBEIXZ 10076890 f i gdi.obj
 0002:00024930       ?min@?$mersenne_twister_engine@_K$0EA@$0BDI@$0JM@$0BP@$0?EKPNJAKFFGJJOGBH@$0BN@$0FFFFFFFFFFFFFFFF@$0BB@$0HBNGHPPPONKGAAAA@$0CF@$0?IBBCAAAAAAAAA@$0CL@$0FIFBPECNEMJFHPCN@@std@@SA_KXZ 10076930 f i gdi.obj
 0002:00024970       ?move@?$char_traits@D@std@@SAPADPADPBDI@Z 10076970 f i gdi.obj
 0002:00024a00       ?seed@?$mersenne_twister@_K$0EA@$0BDI@$0JM@$0BP@$0?EKPNJAKFFGJJOGBH@$0BN@$0BB@$0HBNGHPPPONKGAAAA@$0CF@$0?IBBCAAAAAAAAA@$0CL@@std@@QAEXK_K@Z 10076a00 f i gdi.obj
 0002:00024b50       ?size@?$basic_string@DU?$char_traits@D@std@@V?$allocator@D@2@@std@@QBEIXZ 10076b50 f i gdi.obj
 0002:00024b90       ??0Bitmap@Gdiplus@@QAE@PAUHBITMAP__@@PAUHPALETTE__@@@Z 10076b90 f i image.obj
 0002:00024cc0       ??0Graphics@Gdiplus@@QAE@PAUHDC__@@@Z 10076cc0 f i image.obj
 0002:00024d90       ??0Image@Gdiplus@@IAE@PAVGpImage@1@W4Status@1@@Z 10076d90 f i image.obj
 0002:00024e00       ??0Image@Gdiplus@@IAE@XZ   10076e00 f i image.obj
 0002:00024e50       ??0Image@Gdiplus@@QAE@PB_WH@Z 10076e50 f i image.obj
 0002:00024f00       ??0RectF@Gdiplus@@QAE@MMMM@Z 10076f00 f i image.obj
 0002:00024f80       ??1Bitmap@Gdiplus@@UAE@XZ  10076f80 f i image.obj
 0002:00024fd0       ??1Graphics@Gdiplus@@QAE@XZ 10076fd0 f i image.obj
 0002:00025030       ??1Image@Gdiplus@@UAE@XZ   10077030 f i image.obj
 0002:00025090       ??2GdiplusBase@Gdiplus@@SAPAXI@Z 10077090 f i image.obj
 0002:000250e0       ??3GdiplusBase@Gdiplus@@SAXPAX@Z 100770e0 f i image.obj
 0002:00025130       ??_GBitmap@Gdiplus@@UAEPAXI@Z 10077130 f i image.obj
 0002:00025130       ??_EBitmap@Gdiplus@@UAEPAXI@Z 10077130 f i image.obj
 0002:000251a0       ??_GImage@Gdiplus@@UAEPAXI@Z 100771a0 f i image.obj
 0002:000251a0       ??_EImage@Gdiplus@@UAEPAXI@Z 100771a0 f i image.obj
 0002:00025210       ?AddLinkedIconMerge@Icon@bapi@@YA_NAAPAUHICON__@@@Z 10077210 f   image.obj
 0002:00025410       ?Clone@Image@Gdiplus@@UAEPAV12@XZ 10077410 f i image.obj
 0002:00025590       ?CreateImageThumbnail@Image@bapi@@YA_NV?$CStringT@_WV?$StrTraitMFC_DLL@_WV?$ChTraitsCRT@_W@ATL@@@@@ATL@@0AAVCSize@@1@Z 10077590 f   image.obj
 0002:00025bb0       ?DrawImage@Graphics@Gdiplus@@QAE?AW4Status@2@PAVImage@2@ABVRectF@2@MMMMW4Unit@2@PBVImageAttributes@2@P6GHPAX@Z4@Z 10077bb0 f i image.obj
 0002:00025d00       ?FromFile@Image@Gdiplus@@SAPAV12@PB_WH@Z 10077d00 f i image.obj
 0002:00025e00       ?GetAspectResize@Image@bapi@@YA?AVCSize@@V3@0PAVCPoint@@@Z 10077e00 f   image.obj
 0002:00026030       ?GetEncoderCLSID@Image@bapi@@YAHQB_WAAU_GUID@@@Z 10078030 f   image.obj
 0002:00026220       ?GetFileExtensionToIcon@Icon@bapi@@YA_NV?$CStringT@_WV?$StrTraitMFC_DLL@_WV?$ChTraitsCRT@_W@ATL@@@@@ATL@@AAPAUHICON__@@1AA_N@Z 10078220 f   image.obj
 0002:00026990       ?GetFilePathToIcon@Icon@bapi@@YA_NV?$CStringT@_WV?$StrTraitMFC_DLL@_WV?$ChTraitsCRT@_W@ATL@@@@@ATL@@AAPAUHICON__@@1AA_N@Z 10078990 f   image.obj
 0002:00026f70       ?GetHeight@Image@Gdiplus@@QAEIXZ 10078f70 f i image.obj
 0002:00027040       ?GetImageEncoders@Gdiplus@@YA?AW4Status@1@IIPAVImageCodecInfo@1@@Z 10079040 f i image.obj
 0002:000270a0       ?GetImageEncodersSize@Gdiplus@@YA?AW4Status@1@PAI0@Z 100790a0 f i image.obj
 0002:000270f0       ?GetRawFormat@Image@Gdiplus@@QAE?AW4Status@2@PAU_GUID@@@Z 100790f0 f i image.obj
 0002:00027160       ?GetWidth@Image@Gdiplus@@QAEIXZ 10079160 f i image.obj
 0002:00027220       ?ReleaseHDC@Graphics@Gdiplus@@QAEXPAUHDC__@@@Z 10079220 f i image.obj
 0002:00027290       ?RotateFlip@Image@Gdiplus@@QAE?AW4Status@2@W4RotateFlipType@2@@Z 10079290 f i image.obj
 0002:00027300       ?Save@Image@Gdiplus@@QAE?AW4Status@2@PB_WPBU_GUID@@PBVEncoderParameters@2@@Z 10079300 f i image.obj
 0002:00027370       ?SaveAsRotationImage@@YA_NV?$CStringT@_WV?$StrTraitMFC_DLL@_WV?$ChTraitsCRT@_W@ATL@@@@@ATL@@N@Z 10079370 f   image.obj
 0002:00027700       ?SaveImageFile@Image@bapi@@YA?AW4Status@Gdiplus@@PAUHBITMAP__@@PB_W1@Z 10079700 f   image.obj
 0002:00027de0       ?SetNativeGraphics@Graphics@Gdiplus@@IAEXPAVGpGraphics@2@@Z 10079de0 f i image.obj
 0002:00027e30       ?SetNativeImage@Image@Gdiplus@@IAEXPAVGpImage@2@@Z 10079e30 f i image.obj
 0002:00027e80       ?SetStatus@Image@Gdiplus@@IBE?AW4Status@2@W432@@Z 10079e80 f i image.obj
 0002:00027ee0       ?__autoclassinit2@Bitmap@Gdiplus@@QAEXI@Z 10079ee0 f i image.obj
 0002:00027f40       ?__autoclassinit2@CDC@@QAEXI@Z 10079f40 f i image.obj
 0002:00027fa0       ?__autoclassinit2@Graphics@Gdiplus@@QAEXI@Z 10079fa0 f i image.obj
 0002:00028000       ?__autoclassinit2@Image@Gdiplus@@QAEXI@Z 1007a000 f i image.obj
 0002:00028060       _==                        1007a060 f i image.obj
 0002:000280e0       _IsEqualGUID               1007a0e0 f i image.obj
 0002:00028410       ??$_Allocate@VCRect@@@std@@YAPAVCRect@@IPAV1@@Z 1007a410 f i monitor.obj
 0002:000284b0       ??$_Debug_pointer@VCRect@@@std@@YAXPAVCRect@@PB_WI@Z 1007a4b0 f i monitor.obj
 0002:00028520       ??$_Debug_range2@PAVCRect@@@std@@YAXPAVCRect@@0PB_WIUrandom_access_iterator_tag@0@@Z 1007a520 f i monitor.obj
 0002:000285d0       ??$_Debug_range@PAVCRect@@@std@@YAXPAVCRect@@0PB_WI@Z 1007a5d0 f i monitor.obj
 0002:00028650       ??$_Destroy_range@U?$_Wrap_alloc@V?$allocator@VCRect@@@std@@@std@@@std@@YAXPAVCRect@@0AAU?$_Wrap_alloc@V?$allocator@VCRect@@@std@@@0@@Z 1007a650 f i monitor.obj
 0002:000286d0       ??$_Destroy_range@U?$_Wrap_alloc@V?$allocator@VCRect@@@std@@@std@@@std@@YAXPAVCRect@@0AAU?$_Wrap_alloc@V?$allocator@VCRect@@@std@@@0@U_Nonscalar_ptr_iterator_tag@0@@Z 1007a6d0 f i monitor.obj
 0002:00028740       ??$_Iter_cat@PAVCRect@@@std@@YA?AUrandom_access_iterator_tag@0@ABQAVCRect@@@Z 1007a740 f i monitor.obj
 0002:000287c0       ??$_Ptr_cat@VCRect@@V1@@std@@YA?AU_Nonscalar_ptr_iterator_tag@0@PAVCRect@@0@Z 1007a7c0 f i monitor.obj
 0002:00028830       ??$_Rechecked@PAVCRect@@PAV1@@std@@YAAAPAVCRect@@AAPAV1@PAV1@@Z 1007a830 f i monitor.obj
 0002:00028870       ??$_Umove@PAVCRect@@@?$vector@VCRect@@V?$allocator@VCRect@@@std@@@std@@IAEPAVCRect@@PAV2@00@Z 1007a870 f i monitor.obj
 0002:00028940       ??$_Unchecked@PAVCRect@@@std@@YAPAVCRect@@PAV1@@Z 1007a940 f i monitor.obj
 0002:00028980       ??$_Uninit_move@PAVCRect@@PAV1@U?$_Wrap_alloc@V?$allocator@VCRect@@@std@@@std@@@std@@YAPAVCRect@@PAV1@00AAU?$_Wrap_alloc@V?$allocator@VCRect@@@std@@@0@@Z 1007a980 f i monitor.obj
 0002:00028a20       ??$_Uninit_move@PAVCRect@@PAV1@V?$allocator@VCRect@@@std@@V1@@std@@YAPAVCRect@@PAV1@00AAU?$_Wrap_alloc@V?$allocator@VCRect@@@std@@@0@0U_Nonscalar_ptr_iterator_tag@0@@Z 1007aa20 f i monitor.obj
 0002:00028b80       ??$_Uninitialized_move@PAVCRect@@PAV1@U?$_Wrap_alloc@V?$allocator@VCRect@@@std@@@std@@@std@@YAPAVCRect@@PAV1@00AAU?$_Wrap_alloc@V?$allocator@VCRect@@@std@@@0@@Z 1007ab80 f i monitor.obj
 0002:00028c20       ??$_Val_type@PAVCRect@@@std@@YAPAVCRect@@PAV1@@Z 1007ac20 f i monitor.obj
 0002:00028c50       ??$addressof@VCRect@@@std@@YAPAVCRect@@AAV1@@Z 1007ac50 f i monitor.obj
 0002:00028c90       ??$construct@VCRect@@V1@@?$_Wrap_alloc@V?$allocator@VCRect@@@std@@@std@@QAEXPAVCRect@@$$QAV2@@Z 1007ac90 f i monitor.obj
 0002:00028d00       ??$construct@VCRect@@V1@@?$allocator@VCRect@@@std@@QAEXPAVCRect@@$$QAV2@@Z 1007ad00 f i monitor.obj
 0002:00028e10       ??$construct@VCRect@@V1@@?$allocator_traits@V?$allocator@VCRect@@@std@@@std@@SAXAAV?$allocator@VCRect@@@1@PAVCRect@@$$QAV3@@Z 1007ae10 f i monitor.obj
 0002:00028e70       ??$destroy@VCRect@@@?$_Wrap_alloc@V?$allocator@VCRect@@@std@@@std@@QAEXPAVCRect@@@Z 1007ae70 f i monitor.obj
 0002:00028ed0       ??$destroy@VCRect@@@?$allocator@VCRect@@@std@@QAEXPAVCRect@@@Z 1007aed0 f i monitor.obj
 0002:00028f10       ??$destroy@VCRect@@@?$allocator_traits@V?$allocator@VCRect@@@std@@@std@@SAXAAV?$allocator@VCRect@@@1@PAVCRect@@@Z 1007af10 f i monitor.obj
 0002:00028f60       ??$forward@VCRect@@@std@@YA$$QAVCRect@@AAV1@@Z 1007af60 f i monitor.obj
 0002:00028fa0       ??0?$_Wrap_alloc@V?$allocator@VCRect@@@std@@@std@@QAE@XZ 1007afa0 f i monitor.obj
 0002:00029000       ??0?$allocator@VCRect@@@std@@QAE@XZ 1007b000 f i monitor.obj
 0002:00029040       ??0CRect@@QAE@ABUtagRECT@@@Z 1007b040 f i monitor.obj
 0002:000290b0       ??0CRect@@QAE@HHHH@Z       1007b0b0 f i monitor.obj
 0002:00029120       ??0CRect@@QAE@XZ           1007b120 f i monitor.obj
 0002:00029190       ??4CRect@@QAEXABUtagRECT@@@Z 1007b190 f i monitor.obj
 0002:00029240       ?GetCurrentMonitorArea@bapi@@YA?AVCRect@@PAUHWND__@@@Z 1007b240 f   monitor.obj
 0002:00029320       ?GetCurrentMonitorArea@bapi@@YA?AVCRect@@PAUtagRECT@@@Z 1007b320 f   monitor.obj
 0002:00029400       ?GetCurrentWorkArea@bapi@@YA?AVCRect@@PAUHWND__@@@Z 1007b400 f   monitor.obj
 0002:000294e0       ?GetCurrentWorkArea@bapi@@YA?AVCRect@@PAUtagRECT@@@Z 1007b4e0 f   monitor.obj
 0002:000295c0       ?GetMonitorExArea@bapi@@YA?AVCRect@@PAUHWND__@@@Z 1007b5c0 f   monitor.obj
 0002:000296e0       ?GetMonitorExArea@bapi@@YA?AVCRect@@PAUtagRECT@@@Z 1007b6e0 f   monitor.obj
 0002:00029780       ?GetMonitorInfoW@bapi@@YA?AVMonitorInfo@baro@@PAUtagRECT@@@Z 1007b780 f   monitor.obj
 0002:000299b0       ?GetMonitorMaxResolution@bapi@@YA?AVCSize@@XZ 1007b9b0 f   monitor.obj
 0002:00029a40       ?GetMonitorResolution@bapi@@YA?AVCSize@@XZ 1007ba40 f   monitor.obj
 0002:00029ad0       ?GetPrimaryArea@bapi@@YA?AVCRect@@XZ 1007bad0 f   monitor.obj
 0002:00029bc0       ?GetPrimaryWork@bapi@@YA?AVCRect@@XZ 1007bbc0 f   monitor.obj
 0002:00029cb0       ?IsRectInMonitorArea@bapi@@YAXVCRect@@AA_N111@Z 1007bcb0 f   monitor.obj
 0002:00029dc0       ?IsRectInMonitorAreaEx@bapi@@YAXVCRect@@AA_N111@Z 1007bdc0 f   monitor.obj
 0002:00029ed0       ?Size@CRect@@QBE?AVCSize@@XZ 1007bed0 f i monitor.obj
 0002:00029f50       ?_Destroy@?$vector@VCRect@@V?$allocator@VCRect@@@std@@@std@@IAEXPAVCRect@@0@Z 1007bf50 f i monitor.obj
 0002:0002a020       ?_Getal@?$_Vector_alloc@$0A@U?$_Vec_base_types@VCRect@@V?$allocator@VCRect@@@std@@@std@@@std@@QBE?AU?$_Wrap_alloc@V?$allocator@VCRect@@@std@@@2@XZ 1007c020 f i monitor.obj
 0002:0002a080       ?_Grow_to@?$vector@VCRect@@V?$allocator@VCRect@@@std@@@std@@IBEII@Z 1007c080 f i monitor.obj
 0002:0002a130       ?_Inside@?$vector@VCRect@@V?$allocator@VCRect@@@std@@@std@@IBE_NPBVCRect@@@Z 1007c130 f i monitor.obj
 0002:0002a1b0       ?_Orphan_range@?$vector@VCRect@@V?$allocator@VCRect@@@std@@@std@@IBEXPAVCRect@@0@Z 1007c1b0 f i monitor.obj
 0002:0002a340       ?_Reallocate@?$vector@VCRect@@V?$allocator@VCRect@@@std@@@std@@IAEXI@Z 1007c340 f i monitor.obj
 0002:0002a520       ?_Reserve@?$vector@VCRect@@V?$allocator@VCRect@@@std@@@std@@IAEXI@Z 1007c520 f i monitor.obj
 0002:0002a5d0       ?_Unused_capacity@?$vector@VCRect@@V?$allocator@VCRect@@@std@@@std@@QBEIXZ 1007c5d0 f i monitor.obj
 0002:0002a620       ?_Xlen@?$vector@VCRect@@V?$allocator@VCRect@@@std@@@std@@IBEXXZ 1007c620 f i monitor.obj
 0002:0002a680       ?__autoclassinit2@MonitorInfo@baro@@QAEXI@Z 1007c680 f i monitor.obj
 0002:0002a6e0       ?allocate@?$_Wrap_alloc@V?$allocator@VCRect@@@std@@@std@@QAEPAVCRect@@I@Z 1007c6e0 f i monitor.obj
 0002:0002a740       ?allocate@?$allocator@VCRect@@@std@@QAEPAVCRect@@I@Z 1007c740 f i monitor.obj
 0002:0002a7a0       ?capacity@?$vector@VCRect@@V?$allocator@VCRect@@@std@@@std@@QBEIXZ 1007c7a0 f i monitor.obj
 0002:0002a7f0       ?deallocate@?$_Wrap_alloc@V?$allocator@VCRect@@@std@@@std@@QAEXPAVCRect@@I@Z 1007c7f0 f i monitor.obj
 0002:0002a850       ?deallocate@?$allocator@VCRect@@@std@@QAEXPAVCRect@@I@Z 1007c850 f i monitor.obj
 0002:0002a8b0       ?max_size@?$_Wrap_alloc@V?$allocator@VCRect@@@std@@@std@@QBEIXZ 1007c8b0 f i monitor.obj
 0002:0002a910       ?max_size@?$allocator@VCRect@@@std@@QBEIXZ 1007c910 f i monitor.obj
 0002:0002a950       ?max_size@?$allocator_traits@V?$allocator@VCRect@@@std@@@std@@SAIABV?$allocator@VCRect@@@2@@Z 1007c950 f i monitor.obj
 0002:0002a9a0       ?max_size@?$vector@VCRect@@V?$allocator@VCRect@@@std@@@std@@QBEIXZ 1007c9a0 f i monitor.obj
 0002:0002aa00       ?push_back@?$vector@VCRect@@V?$allocator@VCRect@@@std@@@std@@QAEX$$QAVCRect@@@Z 1007ca00 f i monitor.obj
 0002:0002aba0       ?size@?$vector@VCRect@@V?$allocator@VCRect@@@std@@@std@@QBEIXZ 1007cba0 f i monitor.obj
 0002:0002abf0       ?MakeStretchSize@bapi@@YA?AVCSize@@V2@0@Z 1007cbf0 f   numeric.obj
 0002:0002ade0       ?ReadLocalRegistryString@bapi@@YA?AV?$CStringT@_WV?$StrTraitMFC_DLL@_WV?$ChTraitsCRT@_W@ATL@@@@@ATL@@PB_W0V23@@Z 1007cde0 f   registry.obj
 0002:0002aef0       ?ReadRegistryString@bapi@@YA?AV?$CStringT@_WV?$StrTraitMFC_DLL@_WV?$ChTraitsCRT@_W@ATL@@@@@ATL@@PAUHKEY__@@PB_W1V23@@Z 1007cef0 f   registry.obj
 0002:0002b320       ?ReadUserRegistryString@bapi@@YA?AV?$CStringT@_WV?$StrTraitMFC_DLL@_WV?$ChTraitsCRT@_W@ATL@@@@@ATL@@PB_W0V23@@Z 1007d320 f   registry.obj
 0002:0002b430       ?RegistryBool@bapi@@YA_N_NPB_W10@Z 1007d430 f   registry.obj
 0002:0002b5f0       ?RegistryDword@bapi@@YAK_NPB_W1K@Z 1007d5f0 f   registry.obj
 0002:0002b7b0       ?RegistryFloat@bapi@@YAM_NPB_W1MM@Z 1007d7b0 f   registry.obj
 0002:0002b880       ?RegistryHwnd@bapi@@YAPAUHWND__@@_NPB_W1PAU2@@Z 1007d880 f   registry.obj
 0002:0002bbb0       ?RegistryString@bapi@@YA?AV?$CStringT@_WV?$StrTraitMFC_DLL@_WV?$ChTraitsCRT@_W@ATL@@@@@ATL@@_NPB_W11@Z 1007dbb0 f   registry.obj
 0002:0002bfe0       ??$AtlMultiply@I@ATL@@YAJPAIII@Z 1007dfe0 f i string.obj
 0002:0002c060       ??$MakeNumberString@H@bapi@@YA?AV?$CStringT@_WV?$StrTraitMFC_DLL@_WV?$ChTraitsCRT@_W@ATL@@@@@ATL@@H@Z 1007e060 f i string.obj
 0002:0002c580       ??$MakeNumberString@_J@bapi@@YA?AV?$CStringT@_WV?$StrTraitMFC_DLL@_WV?$ChTraitsCRT@_W@ATL@@@@@ATL@@_J@Z 1007e580 f i string.obj
 0002:0002cae0       ??0?$CAtlArray@V?$CAutoPtr@D@ATL@@V?$CAutoPtrElementTraits@D@2@@ATL@@QAE@XZ 1007eae0 f i string.obj
 0002:0002cb50       ??0?$CAtlArray@V?$CAutoPtr@_W@ATL@@V?$CAutoPtrElementTraits@_W@2@@ATL@@QAE@XZ 1007eb50 f i string.obj
 0002:0002cbc0       ??0?$CAutoPtr@D@ATL@@QAE@AAV01@@Z 1007ebc0 f i string.obj
 0002:0002cc20       ??0?$CAutoPtr@D@ATL@@QAE@XZ 1007ec20 f i string.obj
 0002:0002cc70       ??0?$CAutoPtr@_W@ATL@@QAE@AAV01@@Z 1007ec70 f i string.obj
 0002:0002ccd0       ??0?$CAutoPtr@_W@ATL@@QAE@XZ 1007ecd0 f i string.obj
 0002:0002cd20       ??0?$CAutoPtrArray@D@ATL@@QAE@XZ 1007ed20 f i string.obj
 0002:0002cd80       ??0?$CAutoPtrArray@_W@ATL@@QAE@XZ 1007ed80 f i string.obj
 0002:0002cde0       ??0?$CHeapPtr@_WVCCRTAllocator@ATL@@@ATL@@QAE@XZ 1007ede0 f i string.obj
 0002:0002ce40       ??0?$CHeapPtrBase@_WVCCRTAllocator@ATL@@@ATL@@IAE@XZ 1007ee40 f i string.obj
 0002:0002ce90       ??0CTraceFileAndLineInfo@ATL@@QAE@PBDH@Z 1007ee90 f i string.obj
 0002:0002cee0       ??1?$CAtlArray@V?$CAutoPtr@D@ATL@@V?$CAutoPtrElementTraits@D@2@@ATL@@QAE@XZ 1007eee0 f i string.obj
 0002:0002cf70       ??1?$CAtlArray@V?$CAutoPtr@_W@ATL@@V?$CAutoPtrElementTraits@_W@2@@ATL@@QAE@XZ 1007ef70 f i string.obj
 0002:0002d000       ??1?$CAutoPtr@D@ATL@@QAE@XZ 1007f000 f i string.obj
 0002:0002d050       ??1?$CAutoPtr@_W@ATL@@QAE@XZ 1007f050 f i string.obj
 0002:0002d0a0       ??1?$CAutoPtrArray@D@ATL@@QAE@XZ 1007f0a0 f i string.obj
 0002:0002d0f0       ??1?$CAutoPtrArray@_W@ATL@@QAE@XZ 1007f0f0 f i string.obj
 0002:0002d140       ??1?$CHeapPtr@_WVCCRTAllocator@ATL@@@ATL@@QAE@XZ 1007f140 f i string.obj
 0002:0002d190       ??1?$CHeapPtrBase@_WVCCRTAllocator@ATL@@@ATL@@QAE@XZ 1007f190 f i string.obj
 0002:0002d1e0       ??B?$CHeapPtrBase@_WVCCRTAllocator@ATL@@@ATL@@QBEPA_WXZ 1007f1e0 f i string.obj
 0002:0002d220       ??B?$CTraceCategoryEx@$0CAAA@$0A@@ATL@@QAEIXZ 1007f220 f i string.obj
 0002:0002d260       ??RCTraceFileAndLineInfo@ATL@@QBAXHIPB_WZZ 1007f260 f i string.obj
 0002:0002d2e0       ??_G?$CAutoPtr@D@ATL@@QAEPAXI@Z 1007f2e0 f i string.obj
 0002:0002d350       ??_G?$CAutoPtr@_W@ATL@@QAEPAXI@Z 1007f350 f i string.obj
 0002:0002d3c0       ?Add@?$CAtlArray@V?$CAutoPtr@D@ATL@@V?$CAutoPtrElementTraits@D@2@@ATL@@QAEIAAV?$CAutoPtr@D@2@@Z 1007f3c0 f i string.obj
 0002:0002d4c0       ?Add@?$CAtlArray@V?$CAutoPtr@_W@ATL@@V?$CAutoPtrElementTraits@_W@2@@ATL@@QAEIAAV?$CAutoPtr@_W@2@@Z 1007f4c0 f i string.obj
 0002:0002d5c0       ?AfxCrtErrorCheck@@YAHH@Z  1007f5c0 f i string.obj
 0002:0002d6d0       ?Allocate@?$CHeapPtr@_WVCCRTAllocator@ATL@@@ATL@@QAE_NI@Z 1007f6d0 f i string.obj
 0002:0002d7a0       ?Allocate@CCRTAllocator@ATL@@SAPAXI@Z 1007f7a0 f i string.obj
 0002:0002d800       ?AllocateBytes@?$CHeapPtrBase@_WVCCRTAllocator@ATL@@@ATL@@QAE_NI@Z 1007f800 f i string.obj
 0002:0002d8c0       ?AtlThrowImpl@ATL@@YGXJ@Z  1007f8c0 f i string.obj
 0002:0002d970       ?Attach@?$CAutoPtr@D@ATL@@QAEXPAD@Z 1007f970 f i string.obj
 0002:0002da10       ?Attach@?$CAutoPtr@_W@ATL@@QAEXPA_W@Z 1007fa10 f i string.obj
 0002:0002dab0       ?CallDestructors@?$CAtlArray@V?$CAutoPtr@D@ATL@@V?$CAutoPtrElementTraits@D@2@@ATL@@CAXPAV?$CAutoPtr@D@2@I@Z 1007fab0 f i string.obj
 0002:0002db30       ?CallDestructors@?$CAtlArray@V?$CAutoPtr@_W@ATL@@V?$CAutoPtrElementTraits@_W@2@@ATL@@CAXPAV?$CAutoPtr@_W@2@I@Z 1007fb30 f i string.obj
 0002:0002dbb0       ?ConvertA2W@bapi@@YAPB_WPBDIAAV?$CAutoPtrArray@_W@ATL@@@Z 1007fbb0 f   string.obj
 0002:0002df80       ?ConvertW2A@bapi@@YAPBDPB_WIAAV?$CAutoPtrArray@D@ATL@@@Z 1007ff80 f   string.obj
 0002:0002e340       ?Detach@?$CAutoPtr@D@ATL@@QAEPADXZ 10080340 f i string.obj
 0002:0002e390       ?Detach@?$CAutoPtr@_W@ATL@@QAEPA_WXZ 10080390 f i string.obj
 0002:0002e3e0       ?FileSizeToString@bapi@@YA?AV?$CStringT@_WV?$StrTraitMFC_DLL@_WV?$ChTraitsCRT@_W@ATL@@@@@ATL@@N_N@Z 100803e0 f   string.obj
 0002:0002e790       ?FindCharCut@bapi@@YA_NABV?$CStringT@_WV?$StrTraitMFC_DLL@_WV?$ChTraitsCRT@_W@ATL@@@@@ATL@@V23@AAV23@2@Z 10080790 f   string.obj
 0002:0002ea60       ?FindCharCut@bapi@@YA_NABV?$CStringT@_WV?$StrTraitMFC_DLL@_WV?$ChTraitsCRT@_W@ATL@@@@@ATL@@_WAAV23@2@Z 10080a60 f   string.obj
 0002:0002ec60       ?FindCharCutReverse@bapi@@YA_NABV?$CStringT@_WV?$StrTraitMFC_DLL@_WV?$ChTraitsCRT@_W@ATL@@@@@ATL@@_WAAV23@2@Z 10080c60 f   string.obj
 0002:0002ee60       ?Free@?$CAutoPtr@D@ATL@@QAEXXZ 10080e60 f i string.obj
 0002:0002eed0       ?Free@?$CAutoPtr@_W@ATL@@QAEXXZ 10080ed0 f i string.obj
 0002:0002ef40       ?Free@?$CHeapPtrBase@_WVCCRTAllocator@ATL@@@ATL@@QAEXXZ 10080f40 f i string.obj
 0002:0002efb0       ?Free@CCRTAllocator@ATL@@SAXPAX@Z 10080fb0 f i string.obj
 0002:0002f010       ?GetCategoryName@CTrace@ATL@@CAPA_WI@Z 10081010 f i string.obj
 0002:0002f090       ?GetConvertStringA@bapi@@YA?AV?$CStringT@DV?$StrTraitMFC_DLL@DV?$ChTraitsCRT@D@ATL@@@@@ATL@@V?$CStringT@_WV?$StrTraitMFC_DLL@_WV?$ChTraitsCRT@_W@ATL@@@@@3@@Z 10081090 f   string.obj
 0002:0002f2d0       ?GetConvertStringW@bapi@@YA?AV?$CStringT@_WV?$StrTraitMFC_DLL@_WV?$ChTraitsCRT@_W@ATL@@@@@ATL@@V?$CStringT@DV?$StrTraitMFC_DLL@DV?$ChTraitsCRT@D@ATL@@@@@3@@Z 100812d0 f   string.obj
 0002:0002f510       ?GetLocalTime@bapi@@YA?AU_SYSTEMTIME@@XZ 10081510 f   string.obj
 0002:0002f5e0       ?GetLocalTimeMS@bapi@@YANXZ 100815e0 f   string.obj
 0002:0002f6a0       ?GrowBuffer@?$CAtlArray@V?$CAutoPtr@D@ATL@@V?$CAutoPtrElementTraits@D@2@@ATL@@AAE_NI@Z 100816a0 f i string.obj
 0002:0002f910       ?GrowBuffer@?$CAtlArray@V?$CAutoPtr@_W@ATL@@V?$CAutoPtrElementTraits@_W@2@@ATL@@AAE_NI@Z 10081910 f i string.obj
 0002:0002fb80       ?MakeErrorString@bapi@@YA?AV?$CStringT@_WV?$StrTraitMFC_DLL@_WV?$ChTraitsCRT@_W@ATL@@@@@ATL@@KK@Z 10081b80 f   string.obj
 0002:0002fc90       ?MakeExceptionString@bapi@@YA?AV?$CStringT@_WV?$StrTraitMFC_DLL@_WV?$ChTraitsCRT@_W@ATL@@@@@ATL@@PAVCException@@@Z 10081c90 f   string.obj
 0002:0002fe10       ?MakeGdiErrorString@bapi@@YA?AV?$CStringT@_WV?$StrTraitMFC_DLL@_WV?$ChTraitsCRT@_W@ATL@@@@@ATL@@W4Status@Gdiplus@@@Z 10081e10 f   string.obj
 0002:000303e0       ?MakeGuidString@bapi@@YA?AV?$CStringT@_WV?$StrTraitMFC_DLL@_WV?$ChTraitsCRT@_W@ATL@@@@@ATL@@ABU_GUID@@@Z 100823e0 f   string.obj
 0002:00030520       ?MakeGuidString@bapi@@YA?AV?$CStringT@_WV?$StrTraitMFC_DLL@_WV?$ChTraitsCRT@_W@ATL@@@@@ATL@@XZ 10082520 f   string.obj
 0002:00030660       ?MakeLocalTimeString@bapi@@YA?AV?$CStringT@_WV?$StrTraitMFC_DLL@_WV?$ChTraitsCRT@_W@ATL@@@@@ATL@@AAU_SYSTEMTIME@@@Z 10082660 f   string.obj
 0002:00030720       ?MakeLocalTimeString@bapi@@YA?AV?$CStringT@_WV?$StrTraitMFC_DLL@_WV?$ChTraitsCRT@_W@ATL@@@@@ATL@@XZ 10082720 f   string.obj
 0002:00030800       ?MakeNumberString@bapi@@YA?AV?$CStringT@_WV?$StrTraitMFC_DLL@_WV?$ChTraitsCRT@_W@ATL@@@@@ATL@@H@Z 10082800 f   string.obj
 0002:00030880       ?MakeNumberString@bapi@@YA?AV?$CStringT@_WV?$StrTraitMFC_DLL@_WV?$ChTraitsCRT@_W@ATL@@@@@ATL@@M@Z 10082880 f   string.obj
 0002:00030900       ?MakeNumberString@bapi@@YA?AV?$CStringT@_WV?$StrTraitMFC_DLL@_WV?$ChTraitsCRT@_W@ATL@@@@@ATL@@N@Z 10082900 f   string.obj
 0002:00030980       ?MakeString@bapi@@YA?AV?$CStringT@_WV?$StrTraitMFC_DLL@_WV?$ChTraitsCRT@_W@ATL@@@@@ATL@@PB_WZZ 10082980 f   string.obj
 0002:00030bd0       ?RelocateElements@?$CElementTraitsBase@V?$CAutoPtr@D@ATL@@@ATL@@SAXPAV?$CAutoPtr@D@2@0I@Z 10082bd0 f i string.obj
 0002:00030c40       ?RelocateElements@?$CElementTraitsBase@V?$CAutoPtr@_W@ATL@@@ATL@@SAXPAV?$CAutoPtr@_W@2@0I@Z 10082c40 f i string.obj
 0002:00030cb0       ?SystemTimeToJustHourString@bapi@@YA?AV?$CStringT@_WV?$StrTraitMFC_DLL@_WV?$ChTraitsCRT@_W@ATL@@@@@ATL@@ABU_SYSTEMTIME@@@Z 10082cb0 f   string.obj
 0002:00031130       ?SystemTimeToString2@bapi@@YA?AV?$CStringT@_WV?$StrTraitMFC_DLL@_WV?$ChTraitsCRT@_W@ATL@@@@@ATL@@ABU_SYSTEMTIME@@@Z 10083130 f   string.obj
 0002:00031340       ?SystemTimeToString@bapi@@YA?AV?$CStringT@_WV?$StrTraitMFC_DLL@_WV?$ChTraitsCRT@_W@ATL@@@@@ATL@@ABU_SYSTEMTIME@@@Z 10083340 f   string.obj
 0002:000316a0       ?SystemTimeToStringEx@bapi@@YA?AV?$CStringT@_WV?$StrTraitMFC_DLL@_WV?$ChTraitsCRT@_W@ATL@@@@@ATL@@ABU_SYSTEMTIME@@_N@Z 100836a0 f   string.obj
 0002:00031c70       ?SystemTimeToVariantTimeMS@bapi@@YANU_SYSTEMTIME@@@Z 10083c70 f   string.obj
 0002:00031d80       ?SystemtimeToDayString@bapi@@YA?AV?$CStringT@_WV?$StrTraitMFC_DLL@_WV?$ChTraitsCRT@_W@ATL@@@@@ATL@@ABU_SYSTEMTIME@@@Z 10083d80 f   string.obj
 0002:00032010       ?SystemtimeToFullString@bapi@@YA?AV?$CStringT@_WV?$StrTraitMFC_DLL@_WV?$ChTraitsCRT@_W@ATL@@@@@ATL@@ABU_SYSTEMTIME@@@Z 10084010 f   string.obj
 0002:000320d0       ?SystemtimeToMonthString@bapi@@YA?AV?$CStringT@_WV?$StrTraitMFC_DLL@_WV?$ChTraitsCRT@_W@ATL@@@@@ATL@@ABU_SYSTEMTIME@@@Z 100840d0 f   string.obj
 0002:000324a0       ?TraceV@CTrace@ATL@@CAXPBDHIIPB_W@Z 100844a0 f i string.obj
 0002:00032840       ?TraceV@CTrace@ATL@@SAXPBDHIIPB_WPAD@Z 10084840 f i string.obj
 0002:00032a30       ?VariantTimeToSystemTimeMS@bapi@@YA?AU_SYSTEMTIME@@N@Z 10084a30 f   string.obj
 0002:00032c70       ?__autoclassinit2@?$CAutoPtr@D@ATL@@QAEXI@Z 10084c70 f i string.obj
 0002:00032cd0       ?__autoclassinit2@?$CAutoPtr@_W@ATL@@QAEXI@Z 10084cd0 f i string.obj
 0002:00032d30       ?__autoclassinit2@?$CAutoPtrArray@D@ATL@@QAEXI@Z 10084d30 f i string.obj
 0002:00032d90       ?__autoclassinit2@?$CAutoPtrArray@_W@ATL@@QAEXI@Z 10084d90 f i string.obj
 0002:00032df0       ?__autoclassinit2@?$CHeapPtr@_WVCCRTAllocator@ATL@@@ATL@@QAEXI@Z 10084df0 f i string.obj
 0002:00032e50       ?abs@@YA_J_J@Z             10084e50 f i string.obj
 0002:00032eb0       ?memmove_s@Checked@ATL@@YAXPAXIPBXI@Z 10084eb0 f i string.obj
 0002:00032f30       _HRESULT_FROM_WIN32        10084f30 f i string.obj
 0002:00032fa0       ?GetBuildVersion@bapi@@YAHAAK@Z 10084fa0 f   system.obj
 0002:00033190       ?GetEncoderCLSID@bapi@@YAHQB_WAAU_GUID@@@Z 10085190 f   system.obj
 0002:000333b0       ?GetInstance@?$TSingleton@$$CBVSystemInfo@baro@@@baro@@SAABVSystemInfo@2@XZ 100853b0 f i system.obj
 0002:000334a0       ?GetLanAdapterList@bapi@@YA_NAAV?$vector@V?$CStringT@_WV?$StrTraitMFC_DLL@_WV?$ChTraitsCRT@_W@ATL@@@@@ATL@@V?$allocator@V?$CStringT@_WV?$StrTraitMFC_DLL@_WV?$ChTraitsCRT@_W@ATL@@@@@ATL@@@std@@@std@@00@Z 100854a0 f   system.obj
 0002:00033990       ?GetPcName@bapi@@YA?AV?$CStringT@_WV?$StrTraitMFC_DLL@_WV?$ChTraitsCRT@_W@ATL@@@@@ATL@@XZ 10085990 f   system.obj
 0002:00033ae0       ?GetUserNameW@bapi@@YA?AV?$CStringT@_WV?$StrTraitMFC_DLL@_WV?$ChTraitsCRT@_W@ATL@@@@@ATL@@_N@Z 10085ae0 f   system.obj
 0002:00033d80       ?GetWinVersion@bapi@@YAHAAK0@Z 10085d80 f   system.obj
 0002:00033f70       ?GetWinVersion@bapi@@YAHAAU_OSVERSIONINFOEXW@@@Z 10085f70 f   system.obj
 0002:000340c0       ?IsSupportAutoMouseTracking@bapi@@YA_NXZ 100860c0 f   system.obj
 0002:00034120       ?__autoclassinit2@SystemInfo@baro@@QAEXI@Z 10086120 f i system.obj
 0002:00034180       ?clear@?$vector@V?$CStringT@_WV?$StrTraitMFC_DLL@_WV?$ChTraitsCRT@_W@ATL@@@@@ATL@@V?$allocator@V?$CStringT@_WV?$StrTraitMFC_DLL@_WV?$ChTraitsCRT@_W@ATL@@@@@ATL@@@std@@@std@@QAEXXZ 10086180 f i system.obj
 0002:00034270       ?CompareDate@bapi@@YAHABU_SYSTEMTIME@@0@Z 10086270 f   time.obj
 0002:00034450       ?CompareToday@bapi@@YAHABU_SYSTEMTIME@@@Z 10086450 f   time.obj
 0002:00034510       ?GetDateEqualPos@bapi@@YA?AW4SystemtimePos@baro@@ABU_SYSTEMTIME@@0@Z 10086510 f   time.obj
 0002:00034600       ?GetTodayEqualPos@bapi@@YA?AW4SystemtimePos@baro@@ABU_SYSTEMTIME@@@Z 10086600 f   time.obj
 0002:000346c0       ??0CPoint@@QAE@XZ          100866c0 f i window.obj
 0002:00034710       ?GetCursorWindow@bapi@@YAPAVCWnd@@XZ 10086710 f   window.obj
 0002:00034800       ?GetSystemTrayPosition@bapi@@YA_NAAVCPoint@@@Z 10086800 f   window.obj
 0002:00034970       ??0?$TBuffer@E@baro@@QAE@XZ 10086970 f i A256B64.obj
 0002:00034a00       ??0A256B64@baro@@QAE@PBE0KK@Z 10086a00 f   A256B64.obj
 0002:00034aa0       ??0A256B64@baro@@QAE@V?$CStringT@DV?$StrTraitMFC_DLL@DV?$ChTraitsCRT@D@ATL@@@@@ATL@@KK@Z 10086aa0 f   A256B64.obj
 0002:00034bb0       ??0A256B64@baro@@QAE@V?$CStringT@_WV?$StrTraitMFC_DLL@_WV?$ChTraitsCRT@_W@ATL@@@@@ATL@@KK@Z 10086bb0 f   A256B64.obj
 0002:00034ce0       ??1?$TBuffer@E@baro@@UAE@XZ 10086ce0 f i A256B64.obj
 0002:00034d60       ??1A256B64@baro@@QAE@XZ    10086d60 f   A256B64.obj
 0002:00034f10       ??_E?$TBuffer@E@baro@@UAEPAXI@Z 10086f10 f i A256B64.obj
 0002:00034fd0       ?DecryptA@A256B64@baro@@QBEIPBDAAV?$CStringT@DV?$StrTraitMFC_DLL@DV?$ChTraitsCRT@D@ATL@@@@@ATL@@@Z 10086fd0 f   A256B64.obj
 0002:00035270       ?EncryptA@A256B64@baro@@QBEIPBDAAV?$CStringT@DV?$StrTraitMFC_DLL@DV?$ChTraitsCRT@D@ATL@@@@@ATL@@@Z 10087270 f   A256B64.obj
 0002:00035510       ?GetBuffer@?$TBuffer@E@baro@@QBEPBEI@Z 10087510 f i A256B64.obj
 0002:00035570       ?Initialize@A256B64@baro@@QAE_NPBE0KK@Z 10087570 f   A256B64.obj
 0002:00035850       ?Initialize@A256B64@baro@@QAE_NV?$CStringT@DV?$StrTraitMFC_DLL@DV?$ChTraitsCRT@D@ATL@@@@@ATL@@KK@Z 10087850 f   A256B64.obj
 0002:00035a10       ?Release@A256B64@baro@@AAEXXZ 10087a10 f   A256B64.obj
 0002:00035ac0       ?Update@?$TBuffer@E@baro@@QAEIIPBEI@Z 10087ac0 f i A256B64.obj
 0002:00035ce0       ?__autoclassinit2@?$TBuffer@E@baro@@QAEXI@Z 10087ce0 f i A256B64.obj
 0002:00035d40       ??0CheckPointer@baro@@IAE@XZ 10087d40 f i CryptBuffer.obj
 0002:00035dc0       ??0CryptBuffer@baro@@QAE@AAV01@@Z 10087dc0 f   CryptBuffer.obj
 0002:00035eb0       ??0CryptBuffer@baro@@QAE@I@Z 10087eb0 f   CryptBuffer.obj
 0002:00035fa0       ??0CryptBuffer@baro@@QAE@PBD@Z 10087fa0 f   CryptBuffer.obj
 0002:00036090       ??0CryptBuffer@baro@@QAE@PBXI@Z 10088090 f   CryptBuffer.obj
 0002:00036180       ??0CryptBuffer@baro@@QAE@PB_W@Z 10088180 f   CryptBuffer.obj
 0002:00036270       ??1CheckPointer@baro@@MAE@XZ 10088270 f i CryptBuffer.obj
 0002:00036300       ??1CryptBuffer@baro@@UAE@XZ 10088300 f   CryptBuffer.obj
 0002:000363c0       ??4CryptBuffer@baro@@QAEAAV01@ABV01@@Z 100883c0 f   CryptBuffer.obj
 0002:00036440       ??_ECheckPointer@baro@@MAEPAXI@Z 10088440 f i CryptBuffer.obj
 0002:00036500       ??_ECryptBuffer@baro@@UAEPAXI@Z 10088500 f i CryptBuffer.obj
 0002:000365c0       ??_GCryptBuffer@baro@@UAEPAXI@Z 100885c0 f i CryptBuffer.obj
 0002:00036630       ?ANSItoUTF8@CryptBuffer@baro@@QAE_NXZ 10088630 f   CryptBuffer.obj
 0002:00036910       ?CheckLastError@CryptBuffer@baro@@AAEXPAK@Z 10088910 f   CryptBuffer.obj
 0002:00036a60       ?CryptDecrypt@CryptBuffer@baro@@QAE_NKKPAK@Z 10088a60 f   CryptBuffer.obj
 0002:00036c60       ?CryptDecrypt@CryptBuffer@baro@@QAE_NVCryptHandle@2@PAK@Z 10088c60 f   CryptBuffer.obj
 0002:00036d20       ?CryptEncrypt@CryptBuffer@baro@@QAE_NKKPAK@Z 10088d20 f   CryptBuffer.obj
 0002:00036fc0       ?CryptEncrypt@CryptBuffer@baro@@QAE_NVCryptHandle@2@PAK@Z 10088fc0 f   CryptBuffer.obj
 0002:00037080       ?DecryptBase64A@CryptBuffer@baro@@QAE_NXZ 10089080 f   CryptBuffer.obj
 0002:00037490       ?Delete@CryptBuffer@baro@@QAEXXZ 10089490 f   CryptBuffer.obj
 0002:00037520       ?EncryptBase64A@CryptBuffer@baro@@QAE_NXZ 10089520 f   CryptBuffer.obj
 0002:00037930       ?GetBuffer@CryptBuffer@baro@@QAEPBEXZ 10089930 f   CryptBuffer.obj
 0002:00037970       ?GetLength@CryptBuffer@baro@@QAEIXZ 10089970 f   CryptBuffer.obj
 0002:000379b0       ?GetStrBuffer@CryptBuffer@baro@@QAEPBDXZ 100899b0 f   CryptBuffer.obj
 0002:00037a10       ?IsValid@CryptBuffer@baro@@QAE_NXZ 10089a10 f   CryptBuffer.obj
 0002:00037a70       ?Print@CryptBuffer@baro@@QAEXXZ 10089a70 f   CryptBuffer.obj
 0002:00037c60       ?ReAllocate@CryptBuffer@baro@@QAE_NI@Z 10089c60 f   CryptBuffer.obj
 0002:00037d50       ?UTF8toANSI@CryptBuffer@baro@@QAE_NXZ 10089d50 f   CryptBuffer.obj
 0002:00038030       ?Update@CryptBuffer@baro@@QAE_NIPBXI@Z 1008a030 f   CryptBuffer.obj
 0002:000380d0       ?UpdateA@CryptBuffer@baro@@QAE_NIPBD@Z 1008a0d0 f   CryptBuffer.obj
 0002:00038180       ?UpdateW@CryptBuffer@baro@@QAE_NIPB_W@Z 1008a180 f   CryptBuffer.obj
 0002:00038310       ??$?0_N@?$_Ref_count_obj@VCryptHandle@baro@@@std@@QAE@$$QA_N@Z 1008a310 f i CryptFactory.obj
 0002:00038440       ??$_Move@AAPAVCryptHandle@baro@@@std@@YA$$QAPAVCryptHandle@baro@@AAPAV12@@Z 1008a440 f i CryptFactory.obj
 0002:00038480       ??$_Move@AAPAV_Ref_count_base@std@@@std@@YA$$QAPAV_Ref_count_base@0@AAPAV10@@Z 1008a480 f i CryptFactory.obj
 0002:000384c0       ??$_Resetp0@VCryptHandle@baro@@@?$shared_ptr@VCryptHandle@baro@@@std@@QAEXPAVCryptHandle@baro@@PAV_Ref_count_base@1@@Z 1008a4c0 f i CryptFactory.obj
 0002:00038530       ??$forward@V?$_Ptr_base@VCryptHandle@baro@@@std@@@std@@YA$$QAV?$_Ptr_base@VCryptHandle@baro@@@0@AAV10@@Z 1008a530 f i CryptFactory.obj
 0002:00038570       ??$forward@V?$shared_ptr@VCryptHandle@baro@@@std@@@std@@YA$$QAV?$shared_ptr@VCryptHandle@baro@@@0@AAV10@@Z 1008a570 f i CryptFactory.obj
 0002:000385b0       ??$forward@_N@std@@YA$$QA_NAA_N@Z 1008a5b0 f i CryptFactory.obj
 0002:000385f0       ??$make_shared@VCryptHandle@baro@@_N@std@@YA?AV?$shared_ptr@VCryptHandle@baro@@@0@$$QA_N@Z 1008a5f0 f i CryptFactory.obj
 0002:000387b0       ??$swap@PAVCryptHandle@baro@@@std@@YAXAAPAVCryptHandle@baro@@0@Z 1008a7b0 f i CryptFactory.obj
 0002:00038890       ??$swap@PAV_Ref_count_base@std@@@std@@YAXAAPAV_Ref_count_base@0@0@Z 1008a890 f i CryptFactory.obj
 0002:00038970       ??0?$TBuffer@E@baro@@QAE@ABV01@@Z 1008a970 f i CryptFactory.obj
 0002:00038a00       ??0?$_Ptr_base@VCryptHandle@baro@@@std@@QAE@$$QAV01@@Z 1008aa00 f i CryptFactory.obj
 0002:00038a80       ??0?$_Ptr_base@VCryptHandle@baro@@@std@@QAE@XZ 1008aa80 f i CryptFactory.obj
 0002:00038ad0       ??0?$shared_ptr@VCryptHandle@baro@@@std@@QAE@$$QAV01@@Z 1008aad0 f i CryptFactory.obj
 0002:00038b40       ??0?$shared_ptr@VCryptHandle@baro@@@std@@QAE@$$T@Z 1008ab40 f i CryptFactory.obj
 0002:00038ba0       ??0?$shared_ptr@VCryptHandle@baro@@@std@@QAE@XZ 1008aba0 f i CryptFactory.obj
 0002:00038c00       ??0CryptHandle@baro@@QAE@ABV01@@Z 1008ac00 f   CryptFactory.obj
 0002:00038c80       ??0CryptHandle@baro@@QAE@_N@Z 1008ac80 f   CryptFactory.obj
 0002:00038d10       ??0_Ref_count_base@std@@IAE@XZ 1008ad10 f i CryptFactory.obj
 0002:00038d90       ??1?$_Ref_count_obj@VCryptHandle@baro@@@std@@UAE@XZ 1008ad90 f i CryptFactory.obj
 0002:00038de0       ??1?$shared_ptr@VCryptHandle@baro@@@std@@QAE@XZ 1008ade0 f i CryptFactory.obj
 0002:00038e30       ??1CryptHandle@baro@@QAE@XZ 1008ae30 f   CryptFactory.obj
 0002:00038ea0       ??1_Ref_count_base@std@@UAE@XZ 1008aea0 f i CryptFactory.obj
 0002:00038ee0       ??4?$TBuffer@E@baro@@QAEAAV01@ABV01@@Z 1008aee0 f i CryptFactory.obj
 0002:00038f50       ??4CryptHandle@baro@@QAEAAV01@ABV01@@Z 1008af50 f   CryptFactory.obj
 0002:00038fe0       ??C?$shared_ptr@VCryptHandle@baro@@@std@@QBEPAVCryptHandle@baro@@XZ 1008afe0 f i CryptFactory.obj
 0002:000392d0       ??_G?$_Ref_count_obj@VCryptHandle@baro@@@std@@UAEPAXI@Z 1008b2d0 f i CryptFactory.obj
 0002:000392d0       ??_E?$_Ref_count_obj@VCryptHandle@baro@@@std@@UAEPAXI@Z 1008b2d0 f i CryptFactory.obj
 0002:00039340       ??_GCryptHandle@baro@@QAEPAXI@Z 1008b340 f i CryptFactory.obj
 0002:000393b0       ??_E_Ref_count_base@std@@UAEPAXI@Z 1008b3b0 f i CryptFactory.obj
 0002:000393b0       ??_G_Ref_count_base@std@@UAEPAXI@Z 1008b3b0 f i CryptFactory.obj
 0002:00039420       ?CreateAES256@CryptFactory@baro@@YA?AV?$shared_ptr@VCryptHandle@baro@@@std@@PBE0KK@Z 1008b420 f   CryptFactory.obj
 0002:00039930       ?CreateAES256@CryptFactory@baro@@YA?AV?$shared_ptr@VCryptHandle@baro@@@std@@V?$CStringT@DV?$StrTraitMFC_DLL@DV?$ChTraitsCRT@D@ATL@@@@@ATL@@_NKK@Z 1008b930 f   CryptFactory.obj
 0002:00039b40       ?CreateAES256@CryptFactory@baro@@YA?AV?$shared_ptr@VCryptHandle@baro@@@std@@V?$CStringT@_WV?$StrTraitMFC_DLL@_WV?$ChTraitsCRT@_W@ATL@@@@@ATL@@_NKK@Z 1008bb40 f   CryptFactory.obj
 0002:00039c70       ?CreateHash@CryptFactory@baro@@YA?AV?$TBuffer@E@2@IABV32@@Z 1008bc70 f   CryptFactory.obj
 0002:00039d00       ?CreateHash@CryptFactory@baro@@YA?AV?$TBuffer@E@2@IPBEI@Z 1008bd00 f   CryptFactory.obj
 0002:0003a270       ?DecryptWithBase64A@CryptFactory@baro@@YAIPBVCryptHandle@2@PBDAAV?$CStringT@DV?$StrTraitMFC_DLL@DV?$ChTraitsCRT@D@ATL@@@@@ATL@@@Z 1008c270 f   CryptFactory.obj
 0002:0003a560       ?EncryptWidhBase64A@CryptFactory@baro@@YAIPBVCryptHandle@2@PBDAAV?$CStringT@DV?$StrTraitMFC_DLL@DV?$ChTraitsCRT@D@ATL@@@@@ATL@@@Z 1008c560 f   CryptFactory.obj
 0002:0003a850       ?IsValid@CryptHandle@baro@@QBE_NXZ 1008c850 f   CryptFactory.obj
 0002:0003a8c0       ?Release@CryptHandle@baro@@QAEXXZ 1008c8c0 f   CryptFactory.obj
 0002:0003a9c0       ?_Assign_rv@?$_Ptr_base@VCryptHandle@baro@@@std@@QAEX$$QAV12@@Z 1008c9c0 f i CryptFactory.obj
 0002:0003aa20       ?_Decref@?$_Ptr_base@VCryptHandle@baro@@@std@@QAEXXZ 1008ca20 f i CryptFactory.obj
 0002:0003aa80       ?_Decref@_Ref_count_base@std@@QAEXXZ 1008ca80 f i CryptFactory.obj
 0002:0003ab00       ?_Decwref@_Ref_count_base@std@@QAEXXZ 1008cb00 f i CryptFactory.obj
 0002:0003ab80       ?_Delete_this@?$_Ref_count_obj@VCryptHandle@baro@@@std@@EAEXXZ 1008cb80 f i CryptFactory.obj
 0002:0003ac30       ?_Destroy@?$_Ref_count_obj@VCryptHandle@baro@@@std@@EAEXXZ 1008cc30 f i CryptFactory.obj
 0002:0003ac90       ?_Enable_shared@std@@YAXPDX0@Z 1008cc90 f i CryptFactory.obj
 0002:0003acc0       ?_Get@?$_Ptr_base@VCryptHandle@baro@@@std@@QBEPAVCryptHandle@baro@@XZ 1008ccc0 f i CryptFactory.obj
 0002:0003ad00       ?_Get_deleter@_Ref_count_base@std@@UBEPAXABVtype_info@@@Z 1008cd00 f i CryptFactory.obj
 0002:0003ad40       ?_Getptr@?$_Ref_count_obj@VCryptHandle@baro@@@std@@QBEPAVCryptHandle@baro@@XZ 1008cd40 f i CryptFactory.obj
 0002:0003ad80       ?_Init_atomic_counter@std@@YAXAAKK@Z 1008cd80 f i CryptFactory.obj
 0002:0003adc0       ?_Reset0@?$_Ptr_base@VCryptHandle@baro@@@std@@QAEXPAVCryptHandle@baro@@PAV_Ref_count_base@2@@Z 1008cdc0 f i CryptFactory.obj
 0002:0003ae40       ?_Swap@?$_Ptr_base@VCryptHandle@baro@@@std@@QAEXAAV12@@Z 1008ce40 f i CryptFactory.obj
 0002:0003aec0       ?__autoclassinit2@?$shared_ptr@VCryptHandle@baro@@@std@@QAEXI@Z 1008cec0 f i CryptFactory.obj
 0002:0003af20       ??$?0AAV?$CStringT@_WV?$StrTraitMFC_DLL@_WV?$ChTraitsCRT@_W@ATL@@@@@ATL@@AAV?$vector@V?$CStringT@_WV?$StrTraitMFC_DLL@_WV?$ChTraitsCRT@_W@ATL@@@@@ATL@@V?$allocator@V?$CStringT@_WV?$StrTraitMFC_DLL@_WV?$ChTraitsCRT@_W@ATL@@@@@ATL@@@std@@@std@@X@?$pair@V?$CStringT@_WV?$StrTraitMFC_DLL@_WV?$ChTraitsCRT@_W@ATL@@@@@ATL@@V?$vector@V?$CStringT@_WV?$StrTraitMFC_DLL@_WV?$ChTraitsCRT@_W@ATL@@@@@ATL@@V?$allocator@V?$CStringT@_WV?$StrTraitMFC_DLL@_WV?$ChTraitsCRT@_W@ATL@@@@@ATL@@@std@@@std@@@std@@QAE@AAV?$CStringT@_WV?$StrTraitMFC_DLL@_WV?$ChTraitsCRT@_W@ATL@@@@@ATL@@AAV?$vector@V?$CStringT@_WV?$StrTraitMFC_DLL@_WV?$ChTraitsCRT@_W@ATL@@@@@ATL@@V?$allocator@V?$CStringT@_WV?$StrTraitMFC_DLL@_WV?$ChTraitsCRT@_W@ATL@@@@@ATL@@@std@@@1@@Z 1008cf20 f i Sqlite.obj
 0002:0003b000       ??$?0AAV?$_Tree_iterator@V?$_Tree_val@U?$_Tree_simple_types@U?$pair@$$CBV?$CStringT@_WV?$StrTraitMFC_DLL@_WV?$ChTraitsCRT@_W@ATL@@@@@ATL@@V?$vector@V?$CStringT@_WV?$StrTraitMFC_DLL@_WV?$ChTraitsCRT@_W@ATL@@@@@ATL@@V?$allocator@V?$CStringT@_WV?$StrTraitMFC_DLL@_WV?$ChTraitsCRT@_W@ATL@@@@@ATL@@@std@@@std@@@std@@@std@@@std@@@std@@_NX@?$pair@V?$_Tree_iterator@V?$_Tree_val@U?$_Tree_simple_types@U?$pair@$$CBV?$CStringT@_WV?$StrTraitMFC_DLL@_WV?$ChTraitsCRT@_W@ATL@@@@@ATL@@V?$vector@V?$CStringT@_WV?$StrTraitMFC_DLL@_WV?$ChTraitsCRT@_W@ATL@@@@@ATL@@V?$allocator@V?$CStringT@_WV?$StrTraitMFC_DLL@_WV?$ChTraitsCRT@_W@ATL@@@@@ATL@@@std@@@std@@@std@@@std@@@std@@@std@@_N@std@@QAE@AAV?$_Tree_iterator@V?$_Tree_val@U?$_Tree_simple_types@U?$pair@$$CBV?$CStringT@_WV?$StrTraitMFC_DLL@_WV?$ChTraitsCRT@_W@ATL@@@@@ATL@@V?$vector@V?$CStringT@_WV?$StrTraitMFC_DLL@_WV?$ChTraitsCRT@_W@ATL@@@@@ATL@@V?$allocator@V?$CStringT@_WV?$StrTraitMFC_DLL@_WV?$ChTraitsCRT@_W@ATL@@@@@ATL@@@std@@@std@@@std@@@std@@@std@@@1@$$QA_N@Z 1008d000 f i Sqlite.obj
 0002:0003b0d0       ??$?0V?$CStringT@_WV?$StrTraitMFC_DLL@_WV?$ChTraitsCRT@_W@ATL@@@@@ATL@@V?$vector@V?$CStringT@_WV?$StrTraitMFC_DLL@_WV?$ChTraitsCRT@_W@ATL@@@@@ATL@@V?$allocator@V?$CStringT@_WV?$StrTraitMFC_DLL@_WV?$ChTraitsCRT@_W@ATL@@@@@ATL@@@std@@@std@@X@?$pair@$$CBV?$CStringT@_WV?$StrTraitMFC_DLL@_WV?$ChTraitsCRT@_W@ATL@@@@@ATL@@V?$vector@V?$CStringT@_WV?$StrTraitMFC_DLL@_WV?$ChTraitsCRT@_W@ATL@@@@@ATL@@V?$allocator@V?$CStringT@_WV?$StrTraitMFC_DLL@_WV?$ChTraitsCRT@_W@ATL@@@@@ATL@@@std@@@std@@@std@@QAE@$$QAU?$pair@V?$CStringT@_WV?$StrTraitMFC_DLL@_WV?$ChTraitsCRT@_W@ATL@@@@@ATL@@V?$vector@V?$CStringT@_WV?$StrTraitMFC_DLL@_WV?$ChTraitsCRT@_W@ATL@@@@@ATL@@V?$allocator@V?$CStringT@_WV?$StrTraitMFC_DLL@_WV?$ChTraitsCRT@_W@ATL@@@@@ATL@@@std@@@std@@@1@@Z 1008d0d0 f i Sqlite.obj
 0002:0003b1b0       ??$?0V?$_Tree_iterator@V?$_Tree_val@U?$_Tree_simple_types@U?$pair@$$CBV?$CStringT@_WV?$StrTraitMFC_DLL@_WV?$ChTraitsCRT@_W@ATL@@@@@ATL@@V?$vector@V?$CStringT@_WV?$StrTraitMFC_DLL@_WV?$ChTraitsCRT@_W@ATL@@@@@ATL@@V?$allocator@V?$CStringT@_WV?$StrTraitMFC_DLL@_WV?$ChTraitsCRT@_W@ATL@@@@@ATL@@@std@@@std@@@std@@@std@@@std@@@std@@_NX@?$pair@V?$_Tree_iterator@V?$_Tree_val@U?$_Tree_simple_types@U?$pair@$$CBV?$CStringT@_WV?$StrTraitMFC_DLL@_WV?$ChTraitsCRT@_W@ATL@@@@@ATL@@V?$vector@V?$CStringT@_WV?$StrTraitMFC_DLL@_WV?$ChTraitsCRT@_W@ATL@@@@@ATL@@V?$allocator@V?$CStringT@_WV?$StrTraitMFC_DLL@_WV?$ChTraitsCRT@_W@ATL@@@@@ATL@@@std@@@std@@@std@@@std@@@std@@@std@@_N@std@@QAE@$$QAV?$_Tree_iterator@V?$_Tree_val@U?$_Tree_simple_types@U?$pair@$$CBV?$CStringT@_WV?$StrTraitMFC_DLL@_WV?$ChTraitsCRT@_W@ATL@@@@@ATL@@V?$vector@V?$CStringT@_WV?$StrTraitMFC_DLL@_WV?$ChTraitsCRT@_W@ATL@@@@@ATL@@V?$allocator@V?$CStringT@_WV?$StrTraitMFC_DLL@_WV?$ChTraitsCRT@_W@ATL@@@@@ATL@@@std@@@std@@@std@@@std@@@std@@@1@$$QA_N@Z 1008d1b0 f i Sqlite.obj
 0002:0003b280       ??$?8$$A6A_NAAVSqliteQueryResult@baro@@@Z@std@@YA_NABV?$function@$$A6A_NAAVSqliteQueryResult@baro@@@Z@0@$$T@Z 1008d280 f i Sqlite.obj
 0002:0003b300       ??$Query@VCppSqlite3Query@@@Sqlite@baro@@AAE_NPB_WAAVCppSqlite3Query@@@Z 1008d300 f i Sqlite.obj
 0002:0003b550       ??$_Allocate@U?$_Tree_node@U?$pair@$$CBV?$CStringT@_WV?$StrTraitMFC_DLL@_WV?$ChTraitsCRT@_W@ATL@@@@@ATL@@V?$vector@V?$CStringT@_WV?$StrTraitMFC_DLL@_WV?$ChTraitsCRT@_W@ATL@@@@@ATL@@V?$allocator@V?$CStringT@_WV?$StrTraitMFC_DLL@_WV?$ChTraitsCRT@_W@ATL@@@@@ATL@@@std@@@std@@@std@@PAX@std@@@std@@YAPAU?$_Tree_node@U?$pair@$$CBV?$CStringT@_WV?$StrTraitMFC_DLL@_WV?$ChTraitsCRT@_W@ATL@@@@@ATL@@V?$vector@V?$CStringT@_WV?$StrTraitMFC_DLL@_WV?$ChTraitsCRT@_W@ATL@@@@@ATL@@V?$allocator@V?$CStringT@_WV?$StrTraitMFC_DLL@_WV?$ChTraitsCRT@_W@ATL@@@@@ATL@@@std@@@std@@@std@@PAX@0@IPAU10@@Z 1008d550 f i Sqlite.obj
 0002:0003b5e0       ??$_Buynode@U?$pair@V?$CStringT@_WV?$StrTraitMFC_DLL@_WV?$ChTraitsCRT@_W@ATL@@@@@ATL@@V?$vector@V?$CStringT@_WV?$StrTraitMFC_DLL@_WV?$ChTraitsCRT@_W@ATL@@@@@ATL@@V?$allocator@V?$CStringT@_WV?$StrTraitMFC_DLL@_WV?$ChTraitsCRT@_W@ATL@@@@@ATL@@@std@@@std@@@std@@@?$_Tree_buy@U?$pair@$$CBV?$CStringT@_WV?$StrTraitMFC_DLL@_WV?$ChTraitsCRT@_W@ATL@@@@@ATL@@V?$vector@V?$CStringT@_WV?$StrTraitMFC_DLL@_WV?$ChTraitsCRT@_W@ATL@@@@@ATL@@V?$allocator@V?$CStringT@_WV?$StrTraitMFC_DLL@_WV?$ChTraitsCRT@_W@ATL@@@@@ATL@@@std@@@std@@@std@@V?$allocator@U?$pair@$$CBV?$CStringT@_WV?$StrTraitMFC_DLL@_WV?$ChTraitsCRT@_W@ATL@@@@@ATL@@V?$vector@V?$CStringT@_WV?$StrTraitMFC_DLL@_WV?$ChTraitsCRT@_W@ATL@@@@@ATL@@V?$allocator@V?$CStringT@_WV?$StrTraitMFC_DLL@_WV?$ChTraitsCRT@_W@ATL@@@@@ATL@@@std@@@std@@@std@@@2@@std@@QAEPAU?$_Tree_node@U?$pair@$$CBV?$CStringT@_WV?$StrTraitMFC_DLL@_WV?$ChTraitsCRT@_W@ATL@@@@@ATL@@V?$vector@V?$CStringT@_WV?$StrTraitMFC_DLL@_WV?$ChTraitsCRT@_W@ATL@@@@@ATL@@V?$allocator@V?$CStringT@_WV?$StrTraitMFC_DLL@_WV?$ChTraitsCRT@_W@ATL@@@@@ATL@@@std@@@std@@@std@@PAX@1@$$QAU?$pair@V?$CStringT@_WV?$StrTraitMFC_DLL@_WV?$ChTraitsCRT@_W@ATL@@@@@ATL@@V?$vector@V?$CStringT@_WV?$StrTraitMFC_DLL@_WV?$ChTraitsCRT@_W@ATL@@@@@ATL@@V?$allocator@V?$CStringT@_WV?$StrTraitMFC_DLL@_WV?$ChTraitsCRT@_W@ATL@@@@@ATL@@@std@@@std@@@1@@Z 1008d5e0 f i Sqlite.obj
 0002:0003b750       ??$_Buynode_if_nil@AAU?$pair@$$CBV?$CStringT@_WV?$StrTraitMFC_DLL@_WV?$ChTraitsCRT@_W@ATL@@@@@ATL@@V?$vector@V?$CStringT@_WV?$StrTraitMFC_DLL@_WV?$ChTraitsCRT@_W@ATL@@@@@ATL@@V?$allocator@V?$CStringT@_WV?$StrTraitMFC_DLL@_WV?$ChTraitsCRT@_W@ATL@@@@@ATL@@@std@@@std@@@std@@@?$_Tree@V?$_Tmap_traits@V?$CStringT@_WV?$StrTraitMFC_DLL@_WV?$ChTraitsCRT@_W@ATL@@@@@ATL@@V?$vector@V?$CStringT@_WV?$StrTraitMFC_DLL@_WV?$ChTraitsCRT@_W@ATL@@@@@ATL@@V?$allocator@V?$CStringT@_WV?$StrTraitMFC_DLL@_WV?$ChTraitsCRT@_W@ATL@@@@@ATL@@@std@@@std@@U?$less@V?$CStringT@_WV?$StrTraitMFC_DLL@_WV?$ChTraitsCRT@_W@ATL@@@@@ATL@@@4@V?$allocator@U?$pair@$$CBV?$CStringT@_WV?$StrTraitMFC_DLL@_WV?$ChTraitsCRT@_W@ATL@@@@@ATL@@V?$vector@V?$CStringT@_WV?$StrTraitMFC_DLL@_WV?$ChTraitsCRT@_W@ATL@@@@@ATL@@V?$allocator@V?$CStringT@_WV?$StrTraitMFC_DLL@_WV?$ChTraitsCRT@_W@ATL@@@@@ATL@@@std@@@std@@@std@@@4@$0A@@std@@@std@@IAEPAU?$_Tree_node@U?$pair@$$CBV?$CStringT@_WV?$StrTraitMFC_DLL@_WV?$ChTraitsCRT@_W@ATL@@@@@ATL@@V?$vector@V?$CStringT@_WV?$StrTraitMFC_DLL@_WV?$ChTraitsCRT@_W@ATL@@@@@ATL@@V?$allocator@V?$CStringT@_WV?$StrTraitMFC_DLL@_WV?$ChTraitsCRT@_W@ATL@@@@@ATL@@@std@@@std@@@std@@PAX@1@PAU21@AAU?$pair@$$CBV?$CStringT@_WV?$StrTraitMFC_DLL@_WV?$ChTraitsCRT@_W@ATL@@@@@ATL@@V?$vector@V?$CStringT@_WV?$StrTraitMFC_DLL@_WV?$ChTraitsCRT@_W@ATL@@@@@ATL@@V?$allocator@V?$CStringT@_WV?$StrTraitMFC_DLL@_WV?$ChTraitsCRT@_W@ATL@@@@@ATL@@@std@@@std@@@1@@Z 1008d750 f i Sqlite.obj
 0002:0003b790       ??$_Debug_lt_pred@U?$less@V?$CStringT@_WV?$StrTraitMFC_DLL@_WV?$ChTraitsCRT@_W@ATL@@@@@ATL@@@std@@ABV?$CStringT@_WV?$StrTraitMFC_DLL@_WV?$ChTraitsCRT@_W@ATL@@@@@ATL@@ABV34@@std@@YA_NU?$less@V?$CStringT@_WV?$StrTraitMFC_DLL@_WV?$ChTraitsCRT@_W@ATL@@@@@ATL@@@0@ABV?$CStringT@_WV?$StrTraitMFC_DLL@_WV?$ChTraitsCRT@_W@ATL@@@@@ATL@@1PB_WI@Z 1008d790 f i Sqlite.obj
 0002:0003b870       ??$_Debug_pointer@V?$CStringT@_WV?$StrTraitMFC_DLL@_WV?$ChTraitsCRT@_W@ATL@@@@@ATL@@@std@@YAXPBV?$CStringT@_WV?$StrTraitMFC_DLL@_WV?$ChTraitsCRT@_W@ATL@@@@@ATL@@PB_WI@Z 1008d870 f i Sqlite.obj
 0002:0003b8e0       ??$_Debug_range2@PBV?$CStringT@_WV?$StrTraitMFC_DLL@_WV?$ChTraitsCRT@_W@ATL@@@@@ATL@@@std@@YAXPBV?$CStringT@_WV?$StrTraitMFC_DLL@_WV?$ChTraitsCRT@_W@ATL@@@@@ATL@@0PB_WIUrandom_access_iterator_tag@0@@Z 1008d8e0 f i Sqlite.obj
 0002:0003b990       ??$_Debug_range@PBV?$CStringT@_WV?$StrTraitMFC_DLL@_WV?$ChTraitsCRT@_W@ATL@@@@@ATL@@@std@@YAXPBV?$CStringT@_WV?$StrTraitMFC_DLL@_WV?$ChTraitsCRT@_W@ATL@@@@@ATL@@0PB_WI@Z 1008d990 f i Sqlite.obj
 0002:0003ba10       ??$_Insert_at@AAU?$pair@$$CBV?$CStringT@_WV?$StrTraitMFC_DLL@_WV?$ChTraitsCRT@_W@ATL@@@@@ATL@@V?$vector@V?$CStringT@_WV?$StrTraitMFC_DLL@_WV?$ChTraitsCRT@_W@ATL@@@@@ATL@@V?$allocator@V?$CStringT@_WV?$StrTraitMFC_DLL@_WV?$ChTraitsCRT@_W@ATL@@@@@ATL@@@std@@@std@@@std@@PAU?$_Tree_node@U?$pair@$$CBV?$CStringT@_WV?$StrTraitMFC_DLL@_WV?$ChTraitsCRT@_W@ATL@@@@@ATL@@V?$vector@V?$CStringT@_WV?$StrTraitMFC_DLL@_WV?$ChTraitsCRT@_W@ATL@@@@@ATL@@V?$allocator@V?$CStringT@_WV?$StrTraitMFC_DLL@_WV?$ChTraitsCRT@_W@ATL@@@@@ATL@@@std@@@std@@@std@@PAX@2@@?$_Tree@V?$_Tmap_traits@V?$CStringT@_WV?$StrTraitMFC_DLL@_WV?$ChTraitsCRT@_W@ATL@@@@@ATL@@V?$vector@V?$CStringT@_WV?$StrTraitMFC_DLL@_WV?$ChTraitsCRT@_W@ATL@@@@@ATL@@V?$allocator@V?$CStringT@_WV?$StrTraitMFC_DLL@_WV?$ChTraitsCRT@_W@ATL@@@@@ATL@@@std@@@std@@U?$less@V?$CStringT@_WV?$StrTraitMFC_DLL@_WV?$ChTraitsCRT@_W@ATL@@@@@ATL@@@4@V?$allocator@U?$pair@$$CBV?$CStringT@_WV?$StrTraitMFC_DLL@_WV?$ChTraitsCRT@_W@ATL@@@@@ATL@@V?$vector@V?$CStringT@_WV?$StrTraitMFC_DLL@_WV?$ChTraitsCRT@_W@ATL@@@@@ATL@@V?$allocator@V?$CStringT@_WV?$StrTraitMFC_DLL@_WV?$ChTraitsCRT@_W@ATL@@@@@ATL@@@std@@@std@@@std@@@4@$0A@@std@@@std@@IAE?AV?$_Tree_iterator@V?$_Tree_val@U?$_Tree_simple_types@U?$pair@$$CBV?$CStringT@_WV?$StrTraitMFC_DLL@_WV?$ChTraitsCRT@_W@ATL@@@@@ATL@@V?$vector@V?$CStringT@_WV?$StrTraitMFC_DLL@_WV?$ChTraitsCRT@_W@ATL@@@@@ATL@@V?$allocator@V?$CStringT@_WV?$StrTraitMFC_DLL@_WV?$ChTraitsCRT@_W@ATL@@@@@ATL@@@std@@@std@@@std@@@std@@@std@@@1@_NPAU?$_Tree_node@U?$pair@$$CBV?$CStringT@_WV?$StrTraitMFC_DLL@_WV?$ChTraitsCRT@_W@ATL@@@@@ATL@@V?$vector@V?$CStringT@_WV?$StrTraitMFC_DLL@_WV?$ChTraitsCRT@_W@ATL@@@@@ATL@@V?$allocator@V?$CStringT@_WV?$StrTraitMFC_DLL@_WV?$ChTraitsCRT@_W@ATL@@@@@ATL@@@std@@@std@@@std@@PAX@1@AAU?$pair@$$CBV?$CStringT@_WV?$StrTraitMFC_DLL@_WV?$ChTraitsCRT@_W@ATL@@@@@ATL@@V?$vector@V?$CStringT@_WV?$StrTraitMFC_DLL@_WV?$ChTraitsCRT@_W@ATL@@@@@ATL@@V?$allocator@V?$CStringT@_WV?$StrTraitMFC_DLL@_WV?$ChTraitsCRT@_W@ATL@@@@@ATL@@@std@@@std@@@1@1@Z 1008da10 f i Sqlite.obj
 0002:0003bfa0       ??$_Insert_nohint@AAU?$pair@$$CBV?$CStringT@_WV?$StrTraitMFC_DLL@_WV?$ChTraitsCRT@_W@ATL@@@@@ATL@@V?$vector@V?$CStringT@_WV?$StrTraitMFC_DLL@_WV?$ChTraitsCRT@_W@ATL@@@@@ATL@@V?$allocator@V?$CStringT@_WV?$StrTraitMFC_DLL@_WV?$ChTraitsCRT@_W@ATL@@@@@ATL@@@std@@@std@@@std@@PAU?$_Tree_node@U?$pair@$$CBV?$CStringT@_WV?$StrTraitMFC_DLL@_WV?$ChTraitsCRT@_W@ATL@@@@@ATL@@V?$vector@V?$CStringT@_WV?$StrTraitMFC_DLL@_WV?$ChTraitsCRT@_W@ATL@@@@@ATL@@V?$allocator@V?$CStringT@_WV?$StrTraitMFC_DLL@_WV?$ChTraitsCRT@_W@ATL@@@@@ATL@@@std@@@std@@@std@@PAX@2@@?$_Tree@V?$_Tmap_traits@V?$CStringT@_WV?$StrTraitMFC_DLL@_WV?$ChTraitsCRT@_W@ATL@@@@@ATL@@V?$vector@V?$CStringT@_WV?$StrTraitMFC_DLL@_WV?$ChTraitsCRT@_W@ATL@@@@@ATL@@V?$allocator@V?$CStringT@_WV?$StrTraitMFC_DLL@_WV?$ChTraitsCRT@_W@ATL@@@@@ATL@@@std@@@std@@U?$less@V?$CStringT@_WV?$StrTraitMFC_DLL@_WV?$ChTraitsCRT@_W@ATL@@@@@ATL@@@4@V?$allocator@U?$pair@$$CBV?$CStringT@_WV?$StrTraitMFC_DLL@_WV?$ChTraitsCRT@_W@ATL@@@@@ATL@@V?$vector@V?$CStringT@_WV?$StrTraitMFC_DLL@_WV?$ChTraitsCRT@_W@ATL@@@@@ATL@@V?$allocator@V?$CStringT@_WV?$StrTraitMFC_DLL@_WV?$ChTraitsCRT@_W@ATL@@@@@ATL@@@std@@@std@@@std@@@4@$0A@@std@@@std@@IAE?AU?$pair@V?$_Tree_iterator@V?$_Tree_val@U?$_Tree_simple_types@U?$pair@$$CBV?$CStringT@_WV?$StrTraitMFC_DLL@_WV?$ChTraitsCRT@_W@ATL@@@@@ATL@@V?$vector@V?$CStringT@_WV?$StrTraitMFC_DLL@_WV?$ChTraitsCRT@_W@ATL@@@@@ATL@@V?$allocator@V?$CStringT@_WV?$StrTraitMFC_DLL@_WV?$ChTraitsCRT@_W@ATL@@@@@ATL@@@std@@@std@@@std@@@std@@@std@@@std@@_N@1@_NAAU?$pair@$$CBV?$CStringT@_WV?$StrTraitMFC_DLL@_WV?$ChTraitsCRT@_W@ATL@@@@@ATL@@V?$vector@V?$CStringT@_WV?$StrTraitMFC_DLL@_WV?$ChTraitsCRT@_W@ATL@@@@@ATL@@V?$allocator@V?$CStringT@_WV?$StrTraitMFC_DLL@_WV?$ChTraitsCRT@_W@ATL@@@@@ATL@@@std@@@std@@@1@PAU?$_Tree_node@U?$pair@$$CBV?$CStringT@_WV?$StrTraitMFC_DLL@_WV?$ChTraitsCRT@_W@ATL@@@@@ATL@@V?$vector@V?$CStringT@_WV?$StrTraitMFC_DLL@_WV?$ChTraitsCRT@_W@ATL@@@@@ATL@@V?$allocator@V?$CStringT@_WV?$StrTraitMFC_DLL@_WV?$ChTraitsCRT@_W@ATL@@@@@ATL@@@std@@@std@@@std@@PAX@1@@Z 1008dfa0 f i Sqlite.obj
 0002:0003c700       ??$_Iter_cat@PBV?$CStringT@_WV?$StrTraitMFC_DLL@_WV?$ChTraitsCRT@_W@ATL@@@@@ATL@@@std@@YA?AUrandom_access_iterator_tag@0@ABQBV?$CStringT@_WV?$StrTraitMFC_DLL@_WV?$ChTraitsCRT@_W@ATL@@@@@ATL@@@Z 1008e700 f i Sqlite.obj
 0002:0003c780       ??$_Kfn@$$CBV?$CStringT@_WV?$StrTraitMFC_DLL@_WV?$ChTraitsCRT@_W@ATL@@@@@ATL@@V?$vector@V?$CStringT@_WV?$StrTraitMFC_DLL@_WV?$ChTraitsCRT@_W@ATL@@@@@ATL@@V?$allocator@V?$CStringT@_WV?$StrTraitMFC_DLL@_WV?$ChTraitsCRT@_W@ATL@@@@@ATL@@@std@@@std@@@?$_Tmap_traits@V?$CStringT@_WV?$StrTraitMFC_DLL@_WV?$ChTraitsCRT@_W@ATL@@@@@ATL@@V?$vector@V?$CStringT@_WV?$StrTraitMFC_DLL@_WV?$ChTraitsCRT@_W@ATL@@@@@ATL@@V?$allocator@V?$CStringT@_WV?$StrTraitMFC_DLL@_WV?$ChTraitsCRT@_W@ATL@@@@@ATL@@@std@@@std@@U?$less@V?$CStringT@_WV?$StrTraitMFC_DLL@_WV?$ChTraitsCRT@_W@ATL@@@@@ATL@@@4@V?$allocator@U?$pair@$$CBV?$CStringT@_WV?$StrTraitMFC_DLL@_WV?$ChTraitsCRT@_W@ATL@@@@@ATL@@V?$vector@V?$CStringT@_WV?$StrTraitMFC_DLL@_WV?$ChTraitsCRT@_W@ATL@@@@@ATL@@V?$allocator@V?$CStringT@_WV?$StrTraitMFC_DLL@_WV?$ChTraitsCRT@_W@ATL@@@@@ATL@@@std@@@std@@@std@@@4@$0A@@std@@SAABV?$CStringT@_WV?$StrTraitMFC_DLL@_WV?$ChTraitsCRT@_W@ATL@@@@@ATL@@ABU?$pair@$$CBV?$CStringT@_WV?$StrTraitMFC_DLL@_WV?$ChTraitsCRT@_W@ATL@@@@@ATL@@V?$vector@V?$CStringT@_WV?$StrTraitMFC_DLL@_WV?$ChTraitsCRT@_W@ATL@@@@@ATL@@V?$allocator@V?$CStringT@_WV?$StrTraitMFC_DLL@_WV?$ChTraitsCRT@_W@ATL@@@@@ATL@@@std@@@std@@@1@@Z 1008e780 f i Sqlite.obj
 0002:0003c7c0       ??$_Ptr_cat@V?$CStringT@_WV?$StrTraitMFC_DLL@_WV?$ChTraitsCRT@_W@ATL@@@@@ATL@@V12@@std@@YA?AU_Nonscalar_ptr_iterator_tag@0@PBV?$CStringT@_WV?$StrTraitMFC_DLL@_WV?$ChTraitsCRT@_W@ATL@@@@@ATL@@PAV23@@Z 1008e7c0 f i Sqlite.obj
 0002:0003c830       ??$_Ucopy@V?$_Vector_const_iterator@V?$_Vector_val@U?$_Simple_types@V?$CStringT@_WV?$StrTraitMFC_DLL@_WV?$ChTraitsCRT@_W@ATL@@@@@ATL@@@std@@@std@@@std@@@?$vector@V?$CStringT@_WV?$StrTraitMFC_DLL@_WV?$ChTraitsCRT@_W@ATL@@@@@ATL@@V?$allocator@V?$CStringT@_WV?$StrTraitMFC_DLL@_WV?$ChTraitsCRT@_W@ATL@@@@@ATL@@@std@@@std@@IAEPAV?$CStringT@_WV?$StrTraitMFC_DLL@_WV?$ChTraitsCRT@_W@ATL@@@@@ATL@@V?$_Vector_const_iterator@V?$_Vector_val@U?$_Simple_types@V?$CStringT@_WV?$StrTraitMFC_DLL@_WV?$ChTraitsCRT@_W@ATL@@@@@ATL@@@std@@@std@@@1@0PAV23@@Z 1008e830 f i Sqlite.obj
 0002:0003c9c0       ??$_Unchecked@V?$_Vector_val@U?$_Simple_types@V?$CStringT@_WV?$StrTraitMFC_DLL@_WV?$ChTraitsCRT@_W@ATL@@@@@ATL@@@std@@@std@@@std@@YAPBV?$CStringT@_WV?$StrTraitMFC_DLL@_WV?$ChTraitsCRT@_W@ATL@@@@@ATL@@V?$_Vector_const_iterator@V?$_Vector_val@U?$_Simple_types@V?$CStringT@_WV?$StrTraitMFC_DLL@_WV?$ChTraitsCRT@_W@ATL@@@@@ATL@@@std@@@std@@@0@@Z 1008e9c0 f i Sqlite.obj
 0002:0003ca70       ??$_Uninit_copy@PBV?$CStringT@_WV?$StrTraitMFC_DLL@_WV?$ChTraitsCRT@_W@ATL@@@@@ATL@@PAV12@U?$_Wrap_alloc@V?$allocator@V?$CStringT@_WV?$StrTraitMFC_DLL@_WV?$ChTraitsCRT@_W@ATL@@@@@ATL@@@std@@@std@@@std@@YAPAV?$CStringT@_WV?$StrTraitMFC_DLL@_WV?$ChTraitsCRT@_W@ATL@@@@@ATL@@PBV12@0PAV12@AAU?$_Wrap_alloc@V?$allocator@V?$CStringT@_WV?$StrTraitMFC_DLL@_WV?$ChTraitsCRT@_W@ATL@@@@@ATL@@@std@@@0@@Z 1008ea70 f i Sqlite.obj
 0002:0003cb00       ??$_Uninit_copy@PBV?$CStringT@_WV?$StrTraitMFC_DLL@_WV?$ChTraitsCRT@_W@ATL@@@@@ATL@@PAV12@V?$allocator@V?$CStringT@_WV?$StrTraitMFC_DLL@_WV?$ChTraitsCRT@_W@ATL@@@@@ATL@@@std@@@std@@YAPAV?$CStringT@_WV?$StrTraitMFC_DLL@_WV?$ChTraitsCRT@_W@ATL@@@@@ATL@@PBV12@0PAV12@AAU?$_Wrap_alloc@V?$allocator@V?$CStringT@_WV?$StrTraitMFC_DLL@_WV?$ChTraitsCRT@_W@ATL@@@@@ATL@@@std@@@0@U_Nonscalar_ptr_iterator_tag@0@@Z 1008eb00 f i Sqlite.obj
 0002:0003cc60       ??$_Uninitialized_copy@V?$_Vector_const_iterator@V?$_Vector_val@U?$_Simple_types@V?$CStringT@_WV?$StrTraitMFC_DLL@_WV?$ChTraitsCRT@_W@ATL@@@@@ATL@@@std@@@std@@@std@@PAV?$CStringT@_WV?$StrTraitMFC_DLL@_WV?$ChTraitsCRT@_W@ATL@@@@@ATL@@U?$_Wrap_alloc@V?$allocator@V?$CStringT@_WV?$StrTraitMFC_DLL@_WV?$ChTraitsCRT@_W@ATL@@@@@ATL@@@std@@@2@@std@@YAPAV?$CStringT@_WV?$StrTraitMFC_DLL@_WV?$ChTraitsCRT@_W@ATL@@@@@ATL@@V?$_Vector_const_iterator@V?$_Vector_val@U?$_Simple_types@V?$CStringT@_WV?$StrTraitMFC_DLL@_WV?$ChTraitsCRT@_W@ATL@@@@@ATL@@@std@@@std@@@0@0PAV12@AAU?$_Wrap_alloc@V?$allocator@V?$CStringT@_WV?$StrTraitMFC_DLL@_WV?$ChTraitsCRT@_W@ATL@@@@@ATL@@@std@@@0@@Z 1008ec60 f i Sqlite.obj
 0002:0003cdd0       ??$addressof@PAU?$_Tree_node@U?$pair@$$CBV?$CStringT@_WV?$StrTraitMFC_DLL@_WV?$ChTraitsCRT@_W@ATL@@@@@ATL@@V?$vector@V?$CStringT@_WV?$StrTraitMFC_DLL@_WV?$ChTraitsCRT@_W@ATL@@@@@ATL@@V?$allocator@V?$CStringT@_WV?$StrTraitMFC_DLL@_WV?$ChTraitsCRT@_W@ATL@@@@@ATL@@@std@@@std@@@std@@PAX@std@@@std@@YAPAPAU?$_Tree_node@U?$pair@$$CBV?$CStringT@_WV?$StrTraitMFC_DLL@_WV?$ChTraitsCRT@_W@ATL@@@@@ATL@@V?$vector@V?$CStringT@_WV?$StrTraitMFC_DLL@_WV?$ChTraitsCRT@_W@ATL@@@@@ATL@@V?$allocator@V?$CStringT@_WV?$StrTraitMFC_DLL@_WV?$ChTraitsCRT@_W@ATL@@@@@ATL@@@std@@@std@@@std@@PAX@0@AAPAU10@@Z 1008edd0 f i Sqlite.obj
 0002:0003ce10       ??$addressof@U?$pair@$$CBV?$CStringT@_WV?$StrTraitMFC_DLL@_WV?$ChTraitsCRT@_W@ATL@@@@@ATL@@V?$vector@V?$CStringT@_WV?$StrTraitMFC_DLL@_WV?$ChTraitsCRT@_W@ATL@@@@@ATL@@V?$allocator@V?$CStringT@_WV?$StrTraitMFC_DLL@_WV?$ChTraitsCRT@_W@ATL@@@@@ATL@@@std@@@std@@@std@@@std@@YAPAU?$pair@$$CBV?$CStringT@_WV?$StrTraitMFC_DLL@_WV?$ChTraitsCRT@_W@ATL@@@@@ATL@@V?$vector@V?$CStringT@_WV?$StrTraitMFC_DLL@_WV?$ChTraitsCRT@_W@ATL@@@@@ATL@@V?$allocator@V?$CStringT@_WV?$StrTraitMFC_DLL@_WV?$ChTraitsCRT@_W@ATL@@@@@ATL@@@std@@@std@@@0@AAU10@@Z 1008ee10 f i Sqlite.obj
 0002:0003ce50       ??$construct@PAU?$_Tree_node@U?$pair@$$CBV?$CStringT@_WV?$StrTraitMFC_DLL@_WV?$ChTraitsCRT@_W@ATL@@@@@ATL@@V?$vector@V?$CStringT@_WV?$StrTraitMFC_DLL@_WV?$ChTraitsCRT@_W@ATL@@@@@ATL@@V?$allocator@V?$CStringT@_WV?$StrTraitMFC_DLL@_WV?$ChTraitsCRT@_W@ATL@@@@@ATL@@@std@@@std@@@std@@PAX@std@@AAPAU12@@?$_Wrap_alloc@V?$allocator@U?$_Tree_node@U?$pair@$$CBV?$CStringT@_WV?$StrTraitMFC_DLL@_WV?$ChTraitsCRT@_W@ATL@@@@@ATL@@V?$vector@V?$CStringT@_WV?$StrTraitMFC_DLL@_WV?$ChTraitsCRT@_W@ATL@@@@@ATL@@V?$allocator@V?$CStringT@_WV?$StrTraitMFC_DLL@_WV?$ChTraitsCRT@_W@ATL@@@@@ATL@@@std@@@std@@@std@@PAX@std@@@std@@@std@@QAEXPAPAU?$_Tree_node@U?$pair@$$CBV?$CStringT@_WV?$StrTraitMFC_DLL@_WV?$ChTraitsCRT@_W@ATL@@@@@ATL@@V?$vector@V?$CStringT@_WV?$StrTraitMFC_DLL@_WV?$ChTraitsCRT@_W@ATL@@@@@ATL@@V?$allocator@V?$CStringT@_WV?$StrTraitMFC_DLL@_WV?$ChTraitsCRT@_W@ATL@@@@@ATL@@@std@@@std@@@std@@PAX@1@AAPAU21@@Z 1008ee50 f i Sqlite.obj
 0002:0003cec0       ??$construct@PAU?$_Tree_node@U?$pair@$$CBV?$CStringT@_WV?$StrTraitMFC_DLL@_WV?$ChTraitsCRT@_W@ATL@@@@@ATL@@V?$vector@V?$CStringT@_WV?$StrTraitMFC_DLL@_WV?$ChTraitsCRT@_W@ATL@@@@@ATL@@V?$allocator@V?$CStringT@_WV?$StrTraitMFC_DLL@_WV?$ChTraitsCRT@_W@ATL@@@@@ATL@@@std@@@std@@@std@@PAX@std@@AAPAU12@@?$allocator@U?$_Tree_node@U?$pair@$$CBV?$CStringT@_WV?$StrTraitMFC_DLL@_WV?$ChTraitsCRT@_W@ATL@@@@@ATL@@V?$vector@V?$CStringT@_WV?$StrTraitMFC_DLL@_WV?$ChTraitsCRT@_W@ATL@@@@@ATL@@V?$allocator@V?$CStringT@_WV?$StrTraitMFC_DLL@_WV?$ChTraitsCRT@_W@ATL@@@@@ATL@@@std@@@std@@@std@@PAX@std@@@std@@QAEXPAPAU?$_Tree_node@U?$pair@$$CBV?$CStringT@_WV?$StrTraitMFC_DLL@_WV?$ChTraitsCRT@_W@ATL@@@@@ATL@@V?$vector@V?$CStringT@_WV?$StrTraitMFC_DLL@_WV?$ChTraitsCRT@_W@ATL@@@@@ATL@@V?$allocator@V?$CStringT@_WV?$StrTraitMFC_DLL@_WV?$ChTraitsCRT@_W@ATL@@@@@ATL@@@std@@@std@@@std@@PAX@1@AAPAU21@@Z 1008eec0 f i Sqlite.obj
 0002:0003cfc0       ??$construct@PAU?$_Tree_node@U?$pair@$$CBV?$CStringT@_WV?$StrTraitMFC_DLL@_WV?$ChTraitsCRT@_W@ATL@@@@@ATL@@V?$vector@V?$CStringT@_WV?$StrTraitMFC_DLL@_WV?$ChTraitsCRT@_W@ATL@@@@@ATL@@V?$allocator@V?$CStringT@_WV?$StrTraitMFC_DLL@_WV?$ChTraitsCRT@_W@ATL@@@@@ATL@@@std@@@std@@@std@@PAX@std@@AAPAU12@@?$allocator_traits@V?$allocator@U?$_Tree_node@U?$pair@$$CBV?$CStringT@_WV?$StrTraitMFC_DLL@_WV?$ChTraitsCRT@_W@ATL@@@@@ATL@@V?$vector@V?$CStringT@_WV?$StrTraitMFC_DLL@_WV?$ChTraitsCRT@_W@ATL@@@@@ATL@@V?$allocator@V?$CStringT@_WV?$StrTraitMFC_DLL@_WV?$ChTraitsCRT@_W@ATL@@@@@ATL@@@std@@@std@@@std@@PAX@std@@@std@@@std@@SAXAAV?$allocator@U?$_Tree_node@U?$pair@$$CBV?$CStringT@_WV?$StrTraitMFC_DLL@_WV?$ChTraitsCRT@_W@ATL@@@@@ATL@@V?$vector@V?$CStringT@_WV?$StrTraitMFC_DLL@_WV?$ChTraitsCRT@_W@ATL@@@@@ATL@@V?$allocator@V?$CStringT@_WV?$StrTraitMFC_DLL@_WV?$ChTraitsCRT@_W@ATL@@@@@ATL@@@std@@@std@@@std@@PAX@std@@@1@PAPAU?$_Tree_node@U?$pair@$$CBV?$CStringT@_WV?$StrTraitMFC_DLL@_WV?$ChTraitsCRT@_W@ATL@@@@@ATL@@V?$vector@V?$CStringT@_WV?$StrTraitMFC_DLL@_WV?$ChTraitsCRT@_W@ATL@@@@@ATL@@V?$allocator@V?$CStringT@_WV?$StrTraitMFC_DLL@_WV?$ChTraitsCRT@_W@ATL@@@@@ATL@@@std@@@std@@@std@@PAX@1@AAPAU31@@Z 1008efc0 f i Sqlite.obj
 0002:0003d020       ??$construct@U?$pair@$$CBV?$CStringT@_WV?$StrTraitMFC_DLL@_WV?$ChTraitsCRT@_W@ATL@@@@@ATL@@V?$vector@V?$CStringT@_WV?$StrTraitMFC_DLL@_WV?$ChTraitsCRT@_W@ATL@@@@@ATL@@V?$allocator@V?$CStringT@_WV?$StrTraitMFC_DLL@_WV?$ChTraitsCRT@_W@ATL@@@@@ATL@@@std@@@std@@@std@@U?$pair@V?$CStringT@_WV?$StrTraitMFC_DLL@_WV?$ChTraitsCRT@_W@ATL@@@@@ATL@@V?$vector@V?$CStringT@_WV?$StrTraitMFC_DLL@_WV?$ChTraitsCRT@_W@ATL@@@@@ATL@@V?$allocator@V?$CStringT@_WV?$StrTraitMFC_DLL@_WV?$ChTraitsCRT@_W@ATL@@@@@ATL@@@std@@@std@@@2@@?$_Wrap_alloc@V?$allocator@U?$_Tree_node@U?$pair@$$CBV?$CStringT@_WV?$StrTraitMFC_DLL@_WV?$ChTraitsCRT@_W@ATL@@@@@ATL@@V?$vector@V?$CStringT@_WV?$StrTraitMFC_DLL@_WV?$ChTraitsCRT@_W@ATL@@@@@ATL@@V?$allocator@V?$CStringT@_WV?$StrTraitMFC_DLL@_WV?$ChTraitsCRT@_W@ATL@@@@@ATL@@@std@@@std@@@std@@PAX@std@@@std@@@std@@QAEXPAU?$pair@$$CBV?$CStringT@_WV?$StrTraitMFC_DLL@_WV?$ChTraitsCRT@_W@ATL@@@@@ATL@@V?$vector@V?$CStringT@_WV?$StrTraitMFC_DLL@_WV?$ChTraitsCRT@_W@ATL@@@@@ATL@@V?$allocator@V?$CStringT@_WV?$StrTraitMFC_DLL@_WV?$ChTraitsCRT@_W@ATL@@@@@ATL@@@std@@@std@@@1@$$QAU?$pair@V?$CStringT@_WV?$StrTraitMFC_DLL@_WV?$ChTraitsCRT@_W@ATL@@@@@ATL@@V?$vector@V?$CStringT@_WV?$StrTraitMFC_DLL@_WV?$ChTraitsCRT@_W@ATL@@@@@ATL@@V?$allocator@V?$CStringT@_WV?$StrTraitMFC_DLL@_WV?$ChTraitsCRT@_W@ATL@@@@@ATL@@@std@@@std@@@1@@Z 1008f020 f i Sqlite.obj
 0002:0003d090       ??$construct@U?$pair@$$CBV?$CStringT@_WV?$StrTraitMFC_DLL@_WV?$ChTraitsCRT@_W@ATL@@@@@ATL@@V?$vector@V?$CStringT@_WV?$StrTraitMFC_DLL@_WV?$ChTraitsCRT@_W@ATL@@@@@ATL@@V?$allocator@V?$CStringT@_WV?$StrTraitMFC_DLL@_WV?$ChTraitsCRT@_W@ATL@@@@@ATL@@@std@@@std@@@std@@U?$pair@V?$CStringT@_WV?$StrTraitMFC_DLL@_WV?$ChTraitsCRT@_W@ATL@@@@@ATL@@V?$vector@V?$CStringT@_WV?$StrTraitMFC_DLL@_WV?$ChTraitsCRT@_W@ATL@@@@@ATL@@V?$allocator@V?$CStringT@_WV?$StrTraitMFC_DLL@_WV?$ChTraitsCRT@_W@ATL@@@@@ATL@@@std@@@std@@@2@@?$allocator@U?$_Tree_node@U?$pair@$$CBV?$CStringT@_WV?$StrTraitMFC_DLL@_WV?$ChTraitsCRT@_W@ATL@@@@@ATL@@V?$vector@V?$CStringT@_WV?$StrTraitMFC_DLL@_WV?$ChTraitsCRT@_W@ATL@@@@@ATL@@V?$allocator@V?$CStringT@_WV?$StrTraitMFC_DLL@_WV?$ChTraitsCRT@_W@ATL@@@@@ATL@@@std@@@std@@@std@@PAX@std@@@std@@QAEXPAU?$pair@$$CBV?$CStringT@_WV?$StrTraitMFC_DLL@_WV?$ChTraitsCRT@_W@ATL@@@@@ATL@@V?$vector@V?$CStringT@_WV?$StrTraitMFC_DLL@_WV?$ChTraitsCRT@_W@ATL@@@@@ATL@@V?$allocator@V?$CStringT@_WV?$StrTraitMFC_DLL@_WV?$ChTraitsCRT@_W@ATL@@@@@ATL@@@std@@@std@@@1@$$QAU?$pair@V?$CStringT@_WV?$StrTraitMFC_DLL@_WV?$ChTraitsCRT@_W@ATL@@@@@ATL@@V?$vector@V?$CStringT@_WV?$StrTraitMFC_DLL@_WV?$ChTraitsCRT@_W@ATL@@@@@ATL@@V?$allocator@V?$CStringT@_WV?$StrTraitMFC_DLL@_WV?$ChTraitsCRT@_W@ATL@@@@@ATL@@@std@@@std@@@1@@Z 1008f090 f i Sqlite.obj
 0002:0003d190       ??$construct@U?$pair@$$CBV?$CStringT@_WV?$StrTraitMFC_DLL@_WV?$ChTraitsCRT@_W@ATL@@@@@ATL@@V?$vector@V?$CStringT@_WV?$StrTraitMFC_DLL@_WV?$ChTraitsCRT@_W@ATL@@@@@ATL@@V?$allocator@V?$CStringT@_WV?$StrTraitMFC_DLL@_WV?$ChTraitsCRT@_W@ATL@@@@@ATL@@@std@@@std@@@std@@U?$pair@V?$CStringT@_WV?$StrTraitMFC_DLL@_WV?$ChTraitsCRT@_W@ATL@@@@@ATL@@V?$vector@V?$CStringT@_WV?$StrTraitMFC_DLL@_WV?$ChTraitsCRT@_W@ATL@@@@@ATL@@V?$allocator@V?$CStringT@_WV?$StrTraitMFC_DLL@_WV?$ChTraitsCRT@_W@ATL@@@@@ATL@@@std@@@std@@@2@@?$allocator_traits@V?$allocator@U?$_Tree_node@U?$pair@$$CBV?$CStringT@_WV?$StrTraitMFC_DLL@_WV?$ChTraitsCRT@_W@ATL@@@@@ATL@@V?$vector@V?$CStringT@_WV?$StrTraitMFC_DLL@_WV?$ChTraitsCRT@_W@ATL@@@@@ATL@@V?$allocator@V?$CStringT@_WV?$StrTraitMFC_DLL@_WV?$ChTraitsCRT@_W@ATL@@@@@ATL@@@std@@@std@@@std@@PAX@std@@@std@@@std@@SAXAAV?$allocator@U?$_Tree_node@U?$pair@$$CBV?$CStringT@_WV?$StrTraitMFC_DLL@_WV?$ChTraitsCRT@_W@ATL@@@@@ATL@@V?$vector@V?$CStringT@_WV?$StrTraitMFC_DLL@_WV?$ChTraitsCRT@_W@ATL@@@@@ATL@@V?$allocator@V?$CStringT@_WV?$StrTraitMFC_DLL@_WV?$ChTraitsCRT@_W@ATL@@@@@ATL@@@std@@@std@@@std@@PAX@std@@@1@PAU?$pair@$$CBV?$CStringT@_WV?$StrTraitMFC_DLL@_WV?$ChTraitsCRT@_W@ATL@@@@@ATL@@V?$vector@V?$CStringT@_WV?$StrTraitMFC_DLL@_WV?$ChTraitsCRT@_W@ATL@@@@@ATL@@V?$allocator@V?$CStringT@_WV?$StrTraitMFC_DLL@_WV?$ChTraitsCRT@_W@ATL@@@@@ATL@@@std@@@std@@@1@$$QAU?$pair@V?$CStringT@_WV?$StrTraitMFC_DLL@_WV?$ChTraitsCRT@_W@ATL@@@@@ATL@@V?$vector@V?$CStringT@_WV?$StrTraitMFC_DLL@_WV?$ChTraitsCRT@_W@ATL@@@@@ATL@@V?$allocator@V?$CStringT@_WV?$StrTraitMFC_DLL@_WV?$ChTraitsCRT@_W@ATL@@@@@ATL@@@std@@@std@@@1@@Z 1008f190 f i Sqlite.obj
 0002:0003d1f0       ??$destroy@PAU?$_Tree_node@U?$pair@$$CBV?$CStringT@_WV?$StrTraitMFC_DLL@_WV?$ChTraitsCRT@_W@ATL@@@@@ATL@@V?$vector@V?$CStringT@_WV?$StrTraitMFC_DLL@_WV?$ChTraitsCRT@_W@ATL@@@@@ATL@@V?$allocator@V?$CStringT@_WV?$StrTraitMFC_DLL@_WV?$ChTraitsCRT@_W@ATL@@@@@ATL@@@std@@@std@@@std@@PAX@std@@@?$_Wrap_alloc@V?$allocator@U?$_Tree_node@U?$pair@$$CBV?$CStringT@_WV?$StrTraitMFC_DLL@_WV?$ChTraitsCRT@_W@ATL@@@@@ATL@@V?$vector@V?$CStringT@_WV?$StrTraitMFC_DLL@_WV?$ChTraitsCRT@_W@ATL@@@@@ATL@@V?$allocator@V?$CStringT@_WV?$StrTraitMFC_DLL@_WV?$ChTraitsCRT@_W@ATL@@@@@ATL@@@std@@@std@@@std@@PAX@std@@@std@@@std@@QAEXPAPAU?$_Tree_node@U?$pair@$$CBV?$CStringT@_WV?$StrTraitMFC_DLL@_WV?$ChTraitsCRT@_W@ATL@@@@@ATL@@V?$vector@V?$CStringT@_WV?$StrTraitMFC_DLL@_WV?$ChTraitsCRT@_W@ATL@@@@@ATL@@V?$allocator@V?$CStringT@_WV?$StrTraitMFC_DLL@_WV?$ChTraitsCRT@_W@ATL@@@@@ATL@@@std@@@std@@@std@@PAX@1@@Z 1008f1f0 f i Sqlite.obj
 0002:0003d250       ??$destroy@PAU?$_Tree_node@U?$pair@$$CBV?$CStringT@_WV?$StrTraitMFC_DLL@_WV?$ChTraitsCRT@_W@ATL@@@@@ATL@@V?$vector@V?$CStringT@_WV?$StrTraitMFC_DLL@_WV?$ChTraitsCRT@_W@ATL@@@@@ATL@@V?$allocator@V?$CStringT@_WV?$StrTraitMFC_DLL@_WV?$ChTraitsCRT@_W@ATL@@@@@ATL@@@std@@@std@@@std@@PAX@std@@@?$allocator@U?$_Tree_node@U?$pair@$$CBV?$CStringT@_WV?$StrTraitMFC_DLL@_WV?$ChTraitsCRT@_W@ATL@@@@@ATL@@V?$vector@V?$CStringT@_WV?$StrTraitMFC_DLL@_WV?$ChTraitsCRT@_W@ATL@@@@@ATL@@V?$allocator@V?$CStringT@_WV?$StrTraitMFC_DLL@_WV?$ChTraitsCRT@_W@ATL@@@@@ATL@@@std@@@std@@@std@@PAX@std@@@std@@QAEXPAPAU?$_Tree_node@U?$pair@$$CBV?$CStringT@_WV?$StrTraitMFC_DLL@_WV?$ChTraitsCRT@_W@ATL@@@@@ATL@@V?$vector@V?$CStringT@_WV?$StrTraitMFC_DLL@_WV?$ChTraitsCRT@_W@ATL@@@@@ATL@@V?$allocator@V?$CStringT@_WV?$StrTraitMFC_DLL@_WV?$ChTraitsCRT@_W@ATL@@@@@ATL@@@std@@@std@@@std@@PAX@1@@Z 1008f250 f i Sqlite.obj
 0002:0003d290       ??$destroy@PAU?$_Tree_node@U?$pair@$$CBV?$CStringT@_WV?$StrTraitMFC_DLL@_WV?$ChTraitsCRT@_W@ATL@@@@@ATL@@V?$vector@V?$CStringT@_WV?$StrTraitMFC_DLL@_WV?$ChTraitsCRT@_W@ATL@@@@@ATL@@V?$allocator@V?$CStringT@_WV?$StrTraitMFC_DLL@_WV?$ChTraitsCRT@_W@ATL@@@@@ATL@@@std@@@std@@@std@@PAX@std@@@?$allocator_traits@V?$allocator@U?$_Tree_node@U?$pair@$$CBV?$CStringT@_WV?$StrTraitMFC_DLL@_WV?$ChTraitsCRT@_W@ATL@@@@@ATL@@V?$vector@V?$CStringT@_WV?$StrTraitMFC_DLL@_WV?$ChTraitsCRT@_W@ATL@@@@@ATL@@V?$allocator@V?$CStringT@_WV?$StrTraitMFC_DLL@_WV?$ChTraitsCRT@_W@ATL@@@@@ATL@@@std@@@std@@@std@@PAX@std@@@std@@@std@@SAXAAV?$allocator@U?$_Tree_node@U?$pair@$$CBV?$CStringT@_WV?$StrTraitMFC_DLL@_WV?$ChTraitsCRT@_W@ATL@@@@@ATL@@V?$vector@V?$CStringT@_WV?$StrTraitMFC_DLL@_WV?$ChTraitsCRT@_W@ATL@@@@@ATL@@V?$allocator@V?$CStringT@_WV?$StrTraitMFC_DLL@_WV?$ChTraitsCRT@_W@ATL@@@@@ATL@@@std@@@std@@@std@@PAX@std@@@1@PAPAU?$_Tree_node@U?$pair@$$CBV?$CStringT@_WV?$StrTraitMFC_DLL@_WV?$ChTraitsCRT@_W@ATL@@@@@ATL@@V?$vector@V?$CStringT@_WV?$StrTraitMFC_DLL@_WV?$ChTraitsCRT@_W@ATL@@@@@ATL@@V?$allocator@V?$CStringT@_WV?$StrTraitMFC_DLL@_WV?$ChTraitsCRT@_W@ATL@@@@@ATL@@@std@@@std@@@std@@PAX@1@@Z 1008f290 f i Sqlite.obj
 0002:0003d2e0       ??$destroy@U?$pair@$$CBV?$CStringT@_WV?$StrTraitMFC_DLL@_WV?$ChTraitsCRT@_W@ATL@@@@@ATL@@V?$vector@V?$CStringT@_WV?$StrTraitMFC_DLL@_WV?$ChTraitsCRT@_W@ATL@@@@@ATL@@V?$allocator@V?$CStringT@_WV?$StrTraitMFC_DLL@_WV?$ChTraitsCRT@_W@ATL@@@@@ATL@@@std@@@std@@@std@@@?$_Wrap_alloc@V?$allocator@U?$_Tree_node@U?$pair@$$CBV?$CStringT@_WV?$StrTraitMFC_DLL@_WV?$ChTraitsCRT@_W@ATL@@@@@ATL@@V?$vector@V?$CStringT@_WV?$StrTraitMFC_DLL@_WV?$ChTraitsCRT@_W@ATL@@@@@ATL@@V?$allocator@V?$CStringT@_WV?$StrTraitMFC_DLL@_WV?$ChTraitsCRT@_W@ATL@@@@@ATL@@@std@@@std@@@std@@PAX@std@@@std@@@std@@QAEXPAU?$pair@$$CBV?$CStringT@_WV?$StrTraitMFC_DLL@_WV?$ChTraitsCRT@_W@ATL@@@@@ATL@@V?$vector@V?$CStringT@_WV?$StrTraitMFC_DLL@_WV?$ChTraitsCRT@_W@ATL@@@@@ATL@@V?$allocator@V?$CStringT@_WV?$StrTraitMFC_DLL@_WV?$ChTraitsCRT@_W@ATL@@@@@ATL@@@std@@@std@@@1@@Z 1008f2e0 f i Sqlite.obj
 0002:0003d340       ??$destroy@U?$pair@$$CBV?$CStringT@_WV?$StrTraitMFC_DLL@_WV?$ChTraitsCRT@_W@ATL@@@@@ATL@@V?$vector@V?$CStringT@_WV?$StrTraitMFC_DLL@_WV?$ChTraitsCRT@_W@ATL@@@@@ATL@@V?$allocator@V?$CStringT@_WV?$StrTraitMFC_DLL@_WV?$ChTraitsCRT@_W@ATL@@@@@ATL@@@std@@@std@@@std@@@?$allocator@U?$_Tree_node@U?$pair@$$CBV?$CStringT@_WV?$StrTraitMFC_DLL@_WV?$ChTraitsCRT@_W@ATL@@@@@ATL@@V?$vector@V?$CStringT@_WV?$StrTraitMFC_DLL@_WV?$ChTraitsCRT@_W@ATL@@@@@ATL@@V?$allocator@V?$CStringT@_WV?$StrTraitMFC_DLL@_WV?$ChTraitsCRT@_W@ATL@@@@@ATL@@@std@@@std@@@std@@PAX@std@@@std@@QAEXPAU?$pair@$$CBV?$CStringT@_WV?$StrTraitMFC_DLL@_WV?$ChTraitsCRT@_W@ATL@@@@@ATL@@V?$vector@V?$CStringT@_WV?$StrTraitMFC_DLL@_WV?$ChTraitsCRT@_W@ATL@@@@@ATL@@V?$allocator@V?$CStringT@_WV?$StrTraitMFC_DLL@_WV?$ChTraitsCRT@_W@ATL@@@@@ATL@@@std@@@std@@@1@@Z 1008f340 f i Sqlite.obj
 0002:0003d3a0       ??$destroy@U?$pair@$$CBV?$CStringT@_WV?$StrTraitMFC_DLL@_WV?$ChTraitsCRT@_W@ATL@@@@@ATL@@V?$vector@V?$CStringT@_WV?$StrTraitMFC_DLL@_WV?$ChTraitsCRT@_W@ATL@@@@@ATL@@V?$allocator@V?$CStringT@_WV?$StrTraitMFC_DLL@_WV?$ChTraitsCRT@_W@ATL@@@@@ATL@@@std@@@std@@@std@@@?$allocator_traits@V?$allocator@U?$_Tree_node@U?$pair@$$CBV?$CStringT@_WV?$StrTraitMFC_DLL@_WV?$ChTraitsCRT@_W@ATL@@@@@ATL@@V?$vector@V?$CStringT@_WV?$StrTraitMFC_DLL@_WV?$ChTraitsCRT@_W@ATL@@@@@ATL@@V?$allocator@V?$CStringT@_WV?$StrTraitMFC_DLL@_WV?$ChTraitsCRT@_W@ATL@@@@@ATL@@@std@@@std@@@std@@PAX@std@@@std@@@std@@SAXAAV?$allocator@U?$_Tree_node@U?$pair@$$CBV?$CStringT@_WV?$StrTraitMFC_DLL@_WV?$ChTraitsCRT@_W@ATL@@@@@ATL@@V?$vector@V?$CStringT@_WV?$StrTraitMFC_DLL@_WV?$ChTraitsCRT@_W@ATL@@@@@ATL@@V?$allocator@V?$CStringT@_WV?$StrTraitMFC_DLL@_WV?$ChTraitsCRT@_W@ATL@@@@@ATL@@@std@@@std@@@std@@PAX@std@@@1@PAU?$pair@$$CBV?$CStringT@_WV?$StrTraitMFC_DLL@_WV?$ChTraitsCRT@_W@ATL@@@@@ATL@@V?$vector@V?$CStringT@_WV?$StrTraitMFC_DLL@_WV?$ChTraitsCRT@_W@ATL@@@@@ATL@@V?$allocator@V?$CStringT@_WV?$StrTraitMFC_DLL@_WV?$ChTraitsCRT@_W@ATL@@@@@ATL@@@std@@@std@@@1@@Z 1008f3a0 f i Sqlite.obj
 0002:0003d3f0       ??$forward@AAPAU?$_Tree_node@U?$pair@$$CBV?$CStringT@_WV?$StrTraitMFC_DLL@_WV?$ChTraitsCRT@_W@ATL@@@@@ATL@@V?$vector@V?$CStringT@_WV?$StrTraitMFC_DLL@_WV?$ChTraitsCRT@_W@ATL@@@@@ATL@@V?$allocator@V?$CStringT@_WV?$StrTraitMFC_DLL@_WV?$ChTraitsCRT@_W@ATL@@@@@ATL@@@std@@@std@@@std@@PAX@std@@@std@@YAAAPAU?$_Tree_node@U?$pair@$$CBV?$CStringT@_WV?$StrTraitMFC_DLL@_WV?$ChTraitsCRT@_W@ATL@@@@@ATL@@V?$vector@V?$CStringT@_WV?$StrTraitMFC_DLL@_WV?$ChTraitsCRT@_W@ATL@@@@@ATL@@V?$allocator@V?$CStringT@_WV?$StrTraitMFC_DLL@_WV?$ChTraitsCRT@_W@ATL@@@@@ATL@@@std@@@std@@@std@@PAX@0@AAPAU10@@Z 1008f3f0 f i Sqlite.obj
 0002:0003d430       ??$forward@AAU?$pair@$$CBV?$CStringT@_WV?$StrTraitMFC_DLL@_WV?$ChTraitsCRT@_W@ATL@@@@@ATL@@V?$vector@V?$CStringT@_WV?$StrTraitMFC_DLL@_WV?$ChTraitsCRT@_W@ATL@@@@@ATL@@V?$allocator@V?$CStringT@_WV?$StrTraitMFC_DLL@_WV?$ChTraitsCRT@_W@ATL@@@@@ATL@@@std@@@std@@@std@@@std@@YAAAU?$pair@$$CBV?$CStringT@_WV?$StrTraitMFC_DLL@_WV?$ChTraitsCRT@_W@ATL@@@@@ATL@@V?$vector@V?$CStringT@_WV?$StrTraitMFC_DLL@_WV?$ChTraitsCRT@_W@ATL@@@@@ATL@@V?$allocator@V?$CStringT@_WV?$StrTraitMFC_DLL@_WV?$ChTraitsCRT@_W@ATL@@@@@ATL@@@std@@@std@@@0@AAU10@@Z 1008f430 f i Sqlite.obj
 0002:0003d470       ??$forward@AAV?$_Tree_iterator@V?$_Tree_val@U?$_Tree_simple_types@U?$pair@$$CBV?$CStringT@_WV?$StrTraitMFC_DLL@_WV?$ChTraitsCRT@_W@ATL@@@@@ATL@@V?$vector@V?$CStringT@_WV?$StrTraitMFC_DLL@_WV?$ChTraitsCRT@_W@ATL@@@@@ATL@@V?$allocator@V?$CStringT@_WV?$StrTraitMFC_DLL@_WV?$ChTraitsCRT@_W@ATL@@@@@ATL@@@std@@@std@@@std@@@std@@@std@@@std@@@std@@YAAAV?$_Tree_iterator@V?$_Tree_val@U?$_Tree_simple_types@U?$pair@$$CBV?$CStringT@_WV?$StrTraitMFC_DLL@_WV?$ChTraitsCRT@_W@ATL@@@@@ATL@@V?$vector@V?$CStringT@_WV?$StrTraitMFC_DLL@_WV?$ChTraitsCRT@_W@ATL@@@@@ATL@@V?$allocator@V?$CStringT@_WV?$StrTraitMFC_DLL@_WV?$ChTraitsCRT@_W@ATL@@@@@ATL@@@std@@@std@@@std@@@std@@@std@@@0@AAV10@@Z 1008f470 f i Sqlite.obj
 0002:0003d4b0       ??$forward@AAVSqliteQueryResult@baro@@@std@@YAAAVSqliteQueryResult@baro@@AAV12@@Z 1008f4b0 f i Sqlite.obj
 0002:0003d4f0       ??$forward@U?$pair@V?$CStringT@_WV?$StrTraitMFC_DLL@_WV?$ChTraitsCRT@_W@ATL@@@@@ATL@@V?$vector@V?$CStringT@_WV?$StrTraitMFC_DLL@_WV?$ChTraitsCRT@_W@ATL@@@@@ATL@@V?$allocator@V?$CStringT@_WV?$StrTraitMFC_DLL@_WV?$ChTraitsCRT@_W@ATL@@@@@ATL@@@std@@@std@@@std@@@std@@YA$$QAU?$pair@V?$CStringT@_WV?$StrTraitMFC_DLL@_WV?$ChTraitsCRT@_W@ATL@@@@@ATL@@V?$vector@V?$CStringT@_WV?$StrTraitMFC_DLL@_WV?$ChTraitsCRT@_W@ATL@@@@@ATL@@V?$allocator@V?$CStringT@_WV?$StrTraitMFC_DLL@_WV?$ChTraitsCRT@_W@ATL@@@@@ATL@@@std@@@std@@@0@AAU10@@Z 1008f4f0 f i Sqlite.obj
 0002:0003d530       ??$forward@V?$_Tree_iterator@V?$_Tree_val@U?$_Tree_simple_types@U?$pair@$$CBV?$CStringT@_WV?$StrTraitMFC_DLL@_WV?$ChTraitsCRT@_W@ATL@@@@@ATL@@V?$vector@V?$CStringT@_WV?$StrTraitMFC_DLL@_WV?$ChTraitsCRT@_W@ATL@@@@@ATL@@V?$allocator@V?$CStringT@_WV?$StrTraitMFC_DLL@_WV?$ChTraitsCRT@_W@ATL@@@@@ATL@@@std@@@std@@@std@@@std@@@std@@@std@@@std@@YA$$QAV?$_Tree_iterator@V?$_Tree_val@U?$_Tree_simple_types@U?$pair@$$CBV?$CStringT@_WV?$StrTraitMFC_DLL@_WV?$ChTraitsCRT@_W@ATL@@@@@ATL@@V?$vector@V?$CStringT@_WV?$StrTraitMFC_DLL@_WV?$ChTraitsCRT@_W@ATL@@@@@ATL@@V?$allocator@V?$CStringT@_WV?$StrTraitMFC_DLL@_WV?$ChTraitsCRT@_W@ATL@@@@@ATL@@@std@@@std@@@std@@@std@@@std@@@0@AAV10@@Z 1008f530 f i Sqlite.obj
 0002:0003d570       ??$insert@U?$pair@V?$CStringT@_WV?$StrTraitMFC_DLL@_WV?$ChTraitsCRT@_W@ATL@@@@@ATL@@V?$vector@V?$CStringT@_WV?$StrTraitMFC_DLL@_WV?$ChTraitsCRT@_W@ATL@@@@@ATL@@V?$allocator@V?$CStringT@_WV?$StrTraitMFC_DLL@_WV?$ChTraitsCRT@_W@ATL@@@@@ATL@@@std@@@std@@@std@@@?$_Tree@V?$_Tmap_traits@V?$CStringT@_WV?$StrTraitMFC_DLL@_WV?$ChTraitsCRT@_W@ATL@@@@@ATL@@V?$vector@V?$CStringT@_WV?$StrTraitMFC_DLL@_WV?$ChTraitsCRT@_W@ATL@@@@@ATL@@V?$allocator@V?$CStringT@_WV?$StrTraitMFC_DLL@_WV?$ChTraitsCRT@_W@ATL@@@@@ATL@@@std@@@std@@U?$less@V?$CStringT@_WV?$StrTraitMFC_DLL@_WV?$ChTraitsCRT@_W@ATL@@@@@ATL@@@4@V?$allocator@U?$pair@$$CBV?$CStringT@_WV?$StrTraitMFC_DLL@_WV?$ChTraitsCRT@_W@ATL@@@@@ATL@@V?$vector@V?$CStringT@_WV?$StrTraitMFC_DLL@_WV?$ChTraitsCRT@_W@ATL@@@@@ATL@@V?$allocator@V?$CStringT@_WV?$StrTraitMFC_DLL@_WV?$ChTraitsCRT@_W@ATL@@@@@ATL@@@std@@@std@@@std@@@4@$0A@@std@@@std@@QAE?AU?$pair@V?$_Tree_iterator@V?$_Tree_val@U?$_Tree_simple_types@U?$pair@$$CBV?$CStringT@_WV?$StrTraitMFC_DLL@_WV?$ChTraitsCRT@_W@ATL@@@@@ATL@@V?$vector@V?$CStringT@_WV?$StrTraitMFC_DLL@_WV?$ChTraitsCRT@_W@ATL@@@@@ATL@@V?$allocator@V?$CStringT@_WV?$StrTraitMFC_DLL@_WV?$ChTraitsCRT@_W@ATL@@@@@ATL@@@std@@@std@@@std@@@std@@@std@@@std@@_N@1@$$QAU?$pair@V?$CStringT@_WV?$StrTraitMFC_DLL@_WV?$ChTraitsCRT@_W@ATL@@@@@ATL@@V?$vector@V?$CStringT@_WV?$StrTraitMFC_DLL@_WV?$ChTraitsCRT@_W@ATL@@@@@ATL@@V?$allocator@V?$CStringT@_WV?$StrTraitMFC_DLL@_WV?$ChTraitsCRT@_W@ATL@@@@@ATL@@@std@@@std@@@1@@Z 1008f570 f i Sqlite.obj
 0002:0003d620       ??$make_pair@AAV?$CStringT@_WV?$StrTraitMFC_DLL@_WV?$ChTraitsCRT@_W@ATL@@@@@ATL@@AAV?$vector@V?$CStringT@_WV?$StrTraitMFC_DLL@_WV?$ChTraitsCRT@_W@ATL@@@@@ATL@@V?$allocator@V?$CStringT@_WV?$StrTraitMFC_DLL@_WV?$ChTraitsCRT@_W@ATL@@@@@ATL@@@std@@@std@@@std@@YA?AU?$pair@V?$CStringT@_WV?$StrTraitMFC_DLL@_WV?$ChTraitsCRT@_W@ATL@@@@@ATL@@V?$vector@V?$CStringT@_WV?$StrTraitMFC_DLL@_WV?$ChTraitsCRT@_W@ATL@@@@@ATL@@V?$allocator@V?$CStringT@_WV?$StrTraitMFC_DLL@_WV?$ChTraitsCRT@_W@ATL@@@@@ATL@@@std@@@std@@@0@AAV?$CStringT@_WV?$StrTraitMFC_DLL@_WV?$ChTraitsCRT@_W@ATL@@@@@ATL@@AAV?$vector@V?$CStringT@_WV?$StrTraitMFC_DLL@_WV?$ChTraitsCRT@_W@ATL@@@@@ATL@@V?$allocator@V?$CStringT@_WV?$StrTraitMFC_DLL@_WV?$ChTraitsCRT@_W@ATL@@@@@ATL@@@std@@@0@@Z 1008f620 f i Sqlite.obj
 0002:0003d6b0       ??0?$_Iterator012@Ubidirectional_iterator_tag@std@@U?$pair@$$CBV?$CStringT@_WV?$StrTraitMFC_DLL@_WV?$ChTraitsCRT@_W@ATL@@@@@ATL@@V?$vector@V?$CStringT@_WV?$StrTraitMFC_DLL@_WV?$ChTraitsCRT@_W@ATL@@@@@ATL@@V?$allocator@V?$CStringT@_WV?$StrTraitMFC_DLL@_WV?$ChTraitsCRT@_W@ATL@@@@@ATL@@@std@@@std@@@2@HPBU32@ABU32@U_Iterator_base12@2@@std@@QAE@ABU01@@Z 1008f6b0 f i Sqlite.obj
 0002:0003d710       ??0?$_Iterator012@Ubidirectional_iterator_tag@std@@U?$pair@$$CBV?$CStringT@_WV?$StrTraitMFC_DLL@_WV?$ChTraitsCRT@_W@ATL@@@@@ATL@@V?$vector@V?$CStringT@_WV?$StrTraitMFC_DLL@_WV?$ChTraitsCRT@_W@ATL@@@@@ATL@@V?$allocator@V?$CStringT@_WV?$StrTraitMFC_DLL@_WV?$ChTraitsCRT@_W@ATL@@@@@ATL@@@std@@@std@@@2@HPBU32@ABU32@U_Iterator_base12@2@@std@@QAE@XZ 1008f710 f i Sqlite.obj
 0002:0003d770       ??0?$_Tree_const_iterator@V?$_Tree_val@U?$_Tree_simple_types@U?$pair@$$CBV?$CStringT@_WV?$StrTraitMFC_DLL@_WV?$ChTraitsCRT@_W@ATL@@@@@ATL@@V?$vector@V?$CStringT@_WV?$StrTraitMFC_DLL@_WV?$ChTraitsCRT@_W@ATL@@@@@ATL@@V?$allocator@V?$CStringT@_WV?$StrTraitMFC_DLL@_WV?$ChTraitsCRT@_W@ATL@@@@@ATL@@@std@@@std@@@std@@@std@@@std@@@std@@QAE@ABV01@@Z 1008f770 f i Sqlite.obj
 0002:0003d7d0       ??0?$_Tree_const_iterator@V?$_Tree_val@U?$_Tree_simple_types@U?$pair@$$CBV?$CStringT@_WV?$StrTraitMFC_DLL@_WV?$ChTraitsCRT@_W@ATL@@@@@ATL@@V?$vector@V?$CStringT@_WV?$StrTraitMFC_DLL@_WV?$ChTraitsCRT@_W@ATL@@@@@ATL@@V?$allocator@V?$CStringT@_WV?$StrTraitMFC_DLL@_WV?$ChTraitsCRT@_W@ATL@@@@@ATL@@@std@@@std@@@std@@@std@@@std@@@std@@QAE@PAU?$_Tree_node@U?$pair@$$CBV?$CStringT@_WV?$StrTraitMFC_DLL@_WV?$ChTraitsCRT@_W@ATL@@@@@ATL@@V?$vector@V?$CStringT@_WV?$StrTraitMFC_DLL@_WV?$ChTraitsCRT@_W@ATL@@@@@ATL@@V?$allocator@V?$CStringT@_WV?$StrTraitMFC_DLL@_WV?$ChTraitsCRT@_W@ATL@@@@@ATL@@@std@@@std@@@std@@PAX@1@PBV?$_Tree_val@U?$_Tree_simple_types@U?$pair@$$CBV?$CStringT@_WV?$StrTraitMFC_DLL@_WV?$ChTraitsCRT@_W@ATL@@@@@ATL@@V?$vector@V?$CStringT@_WV?$StrTraitMFC_DLL@_WV?$ChTraitsCRT@_W@ATL@@@@@ATL@@V?$allocator@V?$CStringT@_WV?$StrTraitMFC_DLL@_WV?$ChTraitsCRT@_W@ATL@@@@@ATL@@@std@@@std@@@std@@@std@@@1@@Z 1008f7d0 f i Sqlite.obj
 0002:0003d830       ??0?$_Tree_iterator@V?$_Tree_val@U?$_Tree_simple_types@U?$pair@$$CBV?$CStringT@_WV?$StrTraitMFC_DLL@_WV?$ChTraitsCRT@_W@ATL@@@@@ATL@@V?$vector@V?$CStringT@_WV?$StrTraitMFC_DLL@_WV?$ChTraitsCRT@_W@ATL@@@@@ATL@@V?$allocator@V?$CStringT@_WV?$StrTraitMFC_DLL@_WV?$ChTraitsCRT@_W@ATL@@@@@ATL@@@std@@@std@@@std@@@std@@@std@@@std@@QAE@ABV01@@Z 1008f830 f i Sqlite.obj
 0002:0003d890       ??0?$_Tree_iterator@V?$_Tree_val@U?$_Tree_simple_types@U?$pair@$$CBV?$CStringT@_WV?$StrTraitMFC_DLL@_WV?$ChTraitsCRT@_W@ATL@@@@@ATL@@V?$vector@V?$CStringT@_WV?$StrTraitMFC_DLL@_WV?$ChTraitsCRT@_W@ATL@@@@@ATL@@V?$allocator@V?$CStringT@_WV?$StrTraitMFC_DLL@_WV?$ChTraitsCRT@_W@ATL@@@@@ATL@@@std@@@std@@@std@@@std@@@std@@@std@@QAE@PAU?$_Tree_node@U?$pair@$$CBV?$CStringT@_WV?$StrTraitMFC_DLL@_WV?$ChTraitsCRT@_W@ATL@@@@@ATL@@V?$vector@V?$CStringT@_WV?$StrTraitMFC_DLL@_WV?$ChTraitsCRT@_W@ATL@@@@@ATL@@V?$allocator@V?$CStringT@_WV?$StrTraitMFC_DLL@_WV?$ChTraitsCRT@_W@ATL@@@@@ATL@@@std@@@std@@@std@@PAX@1@PBV?$_Tree_val@U?$_Tree_simple_types@U?$pair@$$CBV?$CStringT@_WV?$StrTraitMFC_DLL@_WV?$ChTraitsCRT@_W@ATL@@@@@ATL@@V?$vector@V?$CStringT@_WV?$StrTraitMFC_DLL@_WV?$ChTraitsCRT@_W@ATL@@@@@ATL@@V?$allocator@V?$CStringT@_WV?$StrTraitMFC_DLL@_WV?$ChTraitsCRT@_W@ATL@@@@@ATL@@@std@@@std@@@std@@@std@@@1@@Z 1008f890 f i Sqlite.obj
 0002:0003d8f0       ??0?$_Tree_unchecked_const_iterator@V?$_Tree_val@U?$_Tree_simple_types@U?$pair@$$CBV?$CStringT@_WV?$StrTraitMFC_DLL@_WV?$ChTraitsCRT@_W@ATL@@@@@ATL@@V?$vector@V?$CStringT@_WV?$StrTraitMFC_DLL@_WV?$ChTraitsCRT@_W@ATL@@@@@ATL@@V?$allocator@V?$CStringT@_WV?$StrTraitMFC_DLL@_WV?$ChTraitsCRT@_W@ATL@@@@@ATL@@@std@@@std@@@std@@@std@@@std@@U_Iterator_base12@2@@std@@QAE@ABV01@@Z 1008f8f0 f i Sqlite.obj
 0002:0003d960       ??0?$_Tree_unchecked_const_iterator@V?$_Tree_val@U?$_Tree_simple_types@U?$pair@$$CBV?$CStringT@_WV?$StrTraitMFC_DLL@_WV?$ChTraitsCRT@_W@ATL@@@@@ATL@@V?$vector@V?$CStringT@_WV?$StrTraitMFC_DLL@_WV?$ChTraitsCRT@_W@ATL@@@@@ATL@@V?$allocator@V?$CStringT@_WV?$StrTraitMFC_DLL@_WV?$ChTraitsCRT@_W@ATL@@@@@ATL@@@std@@@std@@@std@@@std@@@std@@U_Iterator_base12@2@@std@@QAE@PAU?$_Tree_node@U?$pair@$$CBV?$CStringT@_WV?$StrTraitMFC_DLL@_WV?$ChTraitsCRT@_W@ATL@@@@@ATL@@V?$vector@V?$CStringT@_WV?$StrTraitMFC_DLL@_WV?$ChTraitsCRT@_W@ATL@@@@@ATL@@V?$allocator@V?$CStringT@_WV?$StrTraitMFC_DLL@_WV?$ChTraitsCRT@_W@ATL@@@@@ATL@@@std@@@std@@@std@@PAX@1@PBV?$_Tree_val@U?$_Tree_simple_types@U?$pair@$$CBV?$CStringT@_WV?$StrTraitMFC_DLL@_WV?$ChTraitsCRT@_W@ATL@@@@@ATL@@V?$vector@V?$CStringT@_WV?$StrTraitMFC_DLL@_WV?$ChTraitsCRT@_W@ATL@@@@@ATL@@V?$allocator@V?$CStringT@_WV?$StrTraitMFC_DLL@_WV?$ChTraitsCRT@_W@ATL@@@@@ATL@@@std@@@std@@@std@@@std@@@1@@Z 1008f960 f i Sqlite.obj
 0002:0003da20       ??0?$_Wrap_alloc@V?$allocator@U?$_Tree_node@U?$pair@$$CBV?$CStringT@_WV?$StrTraitMFC_DLL@_WV?$ChTraitsCRT@_W@ATL@@@@@ATL@@V?$vector@V?$CStringT@_WV?$StrTraitMFC_DLL@_WV?$ChTraitsCRT@_W@ATL@@@@@ATL@@V?$allocator@V?$CStringT@_WV?$StrTraitMFC_DLL@_WV?$ChTraitsCRT@_W@ATL@@@@@ATL@@@std@@@std@@@std@@PAX@std@@@std@@@std@@QAE@XZ 1008fa20 f i Sqlite.obj
 0002:0003da80       ??0?$_Wrap_alloc@V?$allocator@V?$CStringT@_WV?$StrTraitMFC_DLL@_WV?$ChTraitsCRT@_W@ATL@@@@@ATL@@@std@@@std@@QAE@ABV?$allocator@V?$CStringT@_WV?$StrTraitMFC_DLL@_WV?$ChTraitsCRT@_W@ATL@@@@@ATL@@@1@@Z 1008fa80 f i Sqlite.obj
 0002:0003dae0       ??0?$allocator@U?$_Tree_node@U?$pair@$$CBV?$CStringT@_WV?$StrTraitMFC_DLL@_WV?$ChTraitsCRT@_W@ATL@@@@@ATL@@V?$vector@V?$CStringT@_WV?$StrTraitMFC_DLL@_WV?$ChTraitsCRT@_W@ATL@@@@@ATL@@V?$allocator@V?$CStringT@_WV?$StrTraitMFC_DLL@_WV?$ChTraitsCRT@_W@ATL@@@@@ATL@@@std@@@std@@@std@@PAX@std@@@std@@QAE@XZ 1008fae0 f i Sqlite.obj
 0002:0003db20       ??0?$vector@V?$CStringT@_WV?$StrTraitMFC_DLL@_WV?$ChTraitsCRT@_W@ATL@@@@@ATL@@V?$allocator@V?$CStringT@_WV?$StrTraitMFC_DLL@_WV?$ChTraitsCRT@_W@ATL@@@@@ATL@@@std@@@std@@QAE@ABV01@@Z 1008fb20 f i Sqlite.obj
 0002:0003dcb0       ??0Sqlite@baro@@QAE@XZ     1008fcb0 f   Sqlite.obj
 0002:0003ddc0       ??1?$_Func_class@_NAAVSqliteQueryResult@baro@@@std@@QAE@XZ 1008fdc0 f i Sqlite.obj
 0002:0003de10       ??1?$_Iterator012@Ubidirectional_iterator_tag@std@@U?$pair@$$CBV?$CStringT@_WV?$StrTraitMFC_DLL@_WV?$ChTraitsCRT@_W@ATL@@@@@ATL@@V?$vector@V?$CStringT@_WV?$StrTraitMFC_DLL@_WV?$ChTraitsCRT@_W@ATL@@@@@ATL@@V?$allocator@V?$CStringT@_WV?$StrTraitMFC_DLL@_WV?$ChTraitsCRT@_W@ATL@@@@@ATL@@@std@@@std@@@2@HPBU32@ABU32@U_Iterator_base12@2@@std@@QAE@XZ 1008fe10 f i Sqlite.obj
 0002:0003de60       ??1?$_Tree_const_iterator@V?$_Tree_val@U?$_Tree_simple_types@U?$pair@$$CBV?$CStringT@_WV?$StrTraitMFC_DLL@_WV?$ChTraitsCRT@_W@ATL@@@@@ATL@@V?$vector@V?$CStringT@_WV?$StrTraitMFC_DLL@_WV?$ChTraitsCRT@_W@ATL@@@@@ATL@@V?$allocator@V?$CStringT@_WV?$StrTraitMFC_DLL@_WV?$ChTraitsCRT@_W@ATL@@@@@ATL@@@std@@@std@@@std@@@std@@@std@@@std@@QAE@XZ 1008fe60 f i Sqlite.obj
 0002:0003deb0       ??1?$_Tree_iterator@V?$_Tree_val@U?$_Tree_simple_types@U?$pair@$$CBV?$CStringT@_WV?$StrTraitMFC_DLL@_WV?$ChTraitsCRT@_W@ATL@@@@@ATL@@V?$vector@V?$CStringT@_WV?$StrTraitMFC_DLL@_WV?$ChTraitsCRT@_W@ATL@@@@@ATL@@V?$allocator@V?$CStringT@_WV?$StrTraitMFC_DLL@_WV?$ChTraitsCRT@_W@ATL@@@@@ATL@@@std@@@std@@@std@@@std@@@std@@@std@@QAE@XZ 1008feb0 f i Sqlite.obj
 0002:0003df00       ??1?$_Tree_unchecked_const_iterator@V?$_Tree_val@U?$_Tree_simple_types@U?$pair@$$CBV?$CStringT@_WV?$StrTraitMFC_DLL@_WV?$ChTraitsCRT@_W@ATL@@@@@ATL@@V?$vector@V?$CStringT@_WV?$StrTraitMFC_DLL@_WV?$ChTraitsCRT@_W@ATL@@@@@ATL@@V?$allocator@V?$CStringT@_WV?$StrTraitMFC_DLL@_WV?$ChTraitsCRT@_W@ATL@@@@@ATL@@@std@@@std@@@std@@@std@@@std@@U_Iterator_base12@2@@std@@QAE@XZ 1008ff00 f i Sqlite.obj
 0002:0003df50       ??1?$function@$$A6A_NAAVSqliteQueryResult@baro@@@Z@std@@QAE@XZ 1008ff50 f i Sqlite.obj
 0002:0003dfb0       ??1?$pair@$$CBV?$CStringT@_WV?$StrTraitMFC_DLL@_WV?$ChTraitsCRT@_W@ATL@@@@@ATL@@V?$vector@V?$CStringT@_WV?$StrTraitMFC_DLL@_WV?$ChTraitsCRT@_W@ATL@@@@@ATL@@V?$allocator@V?$CStringT@_WV?$StrTraitMFC_DLL@_WV?$ChTraitsCRT@_W@ATL@@@@@ATL@@@std@@@std@@@std@@QAE@XZ 1008ffb0 f i Sqlite.obj
 0002:0003e020       ??1?$pair@V?$CStringT@_WV?$StrTraitMFC_DLL@_WV?$ChTraitsCRT@_W@ATL@@@@@ATL@@V?$vector@V?$CStringT@_WV?$StrTraitMFC_DLL@_WV?$ChTraitsCRT@_W@ATL@@@@@ATL@@V?$allocator@V?$CStringT@_WV?$StrTraitMFC_DLL@_WV?$ChTraitsCRT@_W@ATL@@@@@ATL@@@std@@@std@@@std@@QAE@XZ 10090020 f i Sqlite.obj
 0002:0003e090       ??1?$pair@V?$_Tree_iterator@V?$_Tree_val@U?$_Tree_simple_types@U?$pair@$$CBV?$CStringT@_WV?$StrTraitMFC_DLL@_WV?$ChTraitsCRT@_W@ATL@@@@@ATL@@V?$vector@V?$CStringT@_WV?$StrTraitMFC_DLL@_WV?$ChTraitsCRT@_W@ATL@@@@@ATL@@V?$allocator@V?$CStringT@_WV?$StrTraitMFC_DLL@_WV?$ChTraitsCRT@_W@ATL@@@@@ATL@@@std@@@std@@@std@@@std@@@std@@@std@@_N@std@@QAE@XZ 10090090 f i Sqlite.obj
 0002:0003e0e0       ??1Sqlite@baro@@QAE@XZ     100900e0 f   Sqlite.obj
 0002:0003e1a0       ??8?$_Tree_const_iterator@V?$_Tree_val@U?$_Tree_simple_types@U?$pair@$$CBV?$CStringT@_WV?$StrTraitMFC_DLL@_WV?$ChTraitsCRT@_W@ATL@@@@@ATL@@V?$vector@V?$CStringT@_WV?$StrTraitMFC_DLL@_WV?$ChTraitsCRT@_W@ATL@@@@@ATL@@V?$allocator@V?$CStringT@_WV?$StrTraitMFC_DLL@_WV?$ChTraitsCRT@_W@ATL@@@@@ATL@@@std@@@std@@@std@@@std@@@std@@@std@@QBE_NABV01@@Z 100901a0 f i Sqlite.obj
 0002:0003e300       ??B?$function@$$A6A_NAAVSqliteQueryResult@baro@@@Z@std@@QBE_NXZ 10090300 f i Sqlite.obj
 0002:0003e380       ??F?$_Tree_const_iterator@V?$_Tree_val@U?$_Tree_simple_types@U?$pair@$$CBV?$CStringT@_WV?$StrTraitMFC_DLL@_WV?$ChTraitsCRT@_W@ATL@@@@@ATL@@V?$vector@V?$CStringT@_WV?$StrTraitMFC_DLL@_WV?$ChTraitsCRT@_W@ATL@@@@@ATL@@V?$allocator@V?$CStringT@_WV?$StrTraitMFC_DLL@_WV?$ChTraitsCRT@_W@ATL@@@@@ATL@@@std@@@std@@@std@@@std@@@std@@@std@@QAEAAV01@XZ 10090380 f i Sqlite.obj
 0002:0003e560       ??F?$_Tree_iterator@V?$_Tree_val@U?$_Tree_simple_types@U?$pair@$$CBV?$CStringT@_WV?$StrTraitMFC_DLL@_WV?$ChTraitsCRT@_W@ATL@@@@@ATL@@V?$vector@V?$CStringT@_WV?$StrTraitMFC_DLL@_WV?$ChTraitsCRT@_W@ATL@@@@@ATL@@V?$allocator@V?$CStringT@_WV?$StrTraitMFC_DLL@_WV?$ChTraitsCRT@_W@ATL@@@@@ATL@@@std@@@std@@@std@@@std@@@std@@@std@@QAEAAV01@XZ 10090560 f i Sqlite.obj
 0002:0003e5c0       ??F?$_Tree_unchecked_const_iterator@V?$_Tree_val@U?$_Tree_simple_types@U?$pair@$$CBV?$CStringT@_WV?$StrTraitMFC_DLL@_WV?$ChTraitsCRT@_W@ATL@@@@@ATL@@V?$vector@V?$CStringT@_WV?$StrTraitMFC_DLL@_WV?$ChTraitsCRT@_W@ATL@@@@@ATL@@V?$allocator@V?$CStringT@_WV?$StrTraitMFC_DLL@_WV?$ChTraitsCRT@_W@ATL@@@@@ATL@@@std@@@std@@@std@@@std@@@std@@U_Iterator_base12@2@@std@@QAEAAV01@XZ 100905c0 f i Sqlite.obj
 0002:0003e720       ??MATL@@YA_NABV?$CStringT@_WV?$StrTraitMFC_DLL@_WV?$ChTraitsCRT@_W@ATL@@@@@0@0@Z 10090720 f i Sqlite.obj
 0002:0003e7c0       ??R?$_Func_class@_NAAVSqliteQueryResult@baro@@@std@@QBE_NAAVSqliteQueryResult@baro@@@Z 100907c0 f i Sqlite.obj
 0002:0003e860       ??R?$less@V?$CStringT@_WV?$StrTraitMFC_DLL@_WV?$ChTraitsCRT@_W@ATL@@@@@ATL@@@std@@QBE_NABV?$CStringT@_WV?$StrTraitMFC_DLL@_WV?$ChTraitsCRT@_W@ATL@@@@@ATL@@0@Z 10090860 f i Sqlite.obj
 0002:0003e8c0       ??_G?$pair@$$CBV?$CStringT@_WV?$StrTraitMFC_DLL@_WV?$ChTraitsCRT@_W@ATL@@@@@ATL@@V?$vector@V?$CStringT@_WV?$StrTraitMFC_DLL@_WV?$ChTraitsCRT@_W@ATL@@@@@ATL@@V?$allocator@V?$CStringT@_WV?$StrTraitMFC_DLL@_WV?$ChTraitsCRT@_W@ATL@@@@@ATL@@@std@@@std@@@std@@QAEPAXI@Z 100908c0 f i Sqlite.obj
 0002:0003e930       ?BeginTransaction@Sqlite@baro@@QAE_NXZ 10090930 f   Sqlite.obj
 0002:0003eb20       ?Close@Sqlite@baro@@QAE_NXZ 10090b20 f   Sqlite.obj
 0002:0003ed30       ?CommitTransaction@Sqlite@baro@@QAE_NXZ 10090d30 f   Sqlite.obj
 0002:0003ef20       ?CreateTable@Sqlite@baro@@QAE_NV?$CStringT@_WV?$StrTraitMFC_DLL@_WV?$ChTraitsCRT@_W@ATL@@@@@ATL@@AAV?$vector@V?$CStringT@_WV?$StrTraitMFC_DLL@_WV?$ChTraitsCRT@_W@ATL@@@@@ATL@@V?$allocator@V?$CStringT@_WV?$StrTraitMFC_DLL@_WV?$ChTraitsCRT@_W@ATL@@@@@ATL@@@std@@@std@@@Z 10090f20 f   Sqlite.obj
 0002:0003f330       ?DML@Sqlite@baro@@AAE_NPB_WAAH@Z 10091330 f   Sqlite.obj
 0002:0003f590       ?DeleteField@Sqlite@baro@@QAE_NV?$CStringT@_WV?$StrTraitMFC_DLL@_WV?$ChTraitsCRT@_W@ATL@@@@@ATL@@0@Z 10091590 f   Sqlite.obj
 0002:0003f8c0       ?DeleteRow@Sqlite@baro@@QAE_NV?$CStringT@_WV?$StrTraitMFC_DLL@_WV?$ChTraitsCRT@_W@ATL@@@@@ATL@@0@Z 100918c0 f   Sqlite.obj
 0002:0003fbc0       ?DeleteTable@Sqlite@baro@@QAE_NV?$CStringT@_WV?$StrTraitMFC_DLL@_WV?$ChTraitsCRT@_W@ATL@@@@@ATL@@@Z 10091bc0 f   Sqlite.obj
 0002:0003fe40       ?ErrorParam@Sqlite@baro@@AAE_NXZ 10091e40 f   Sqlite.obj
 0002:0003fe90       ?GetLastError@Sqlite@baro@@QAEKXZ 10091e90 f   Sqlite.obj
 0002:0003fed0       ?GetLastErrorMessage@Sqlite@baro@@QAE?AV?$CStringT@_WV?$StrTraitMFC_DLL@_WV?$ChTraitsCRT@_W@ATL@@@@@ATL@@XZ 10091ed0 f   Sqlite.obj
 0002:0003ffb0       ?GetSqliteInterface@@YAPAVCppSqlite3DB@@PAX@Z 10091fb0 f   Sqlite.obj
 0002:0003fff0       ?GetTableInfo@Sqlite@baro@@QAE_NV?$CStringT@_WV?$StrTraitMFC_DLL@_WV?$ChTraitsCRT@_W@ATL@@@@@ATL@@AAV?$vector@V?$CStringT@_WV?$StrTraitMFC_DLL@_WV?$ChTraitsCRT@_W@ATL@@@@@ATL@@V?$allocator@V?$CStringT@_WV?$StrTraitMFC_DLL@_WV?$ChTraitsCRT@_W@ATL@@@@@ATL@@@std@@@std@@AAH@Z 10091ff0 f   Sqlite.obj
 0002:00040560       ?InsertField@Sqlite@baro@@QAE_NV?$CStringT@_WV?$StrTraitMFC_DLL@_WV?$ChTraitsCRT@_W@ATL@@@@@ATL@@0@Z 10092560 f   Sqlite.obj
 0002:00040890       ?InsertRow@Sqlite@baro@@QAE_NV?$CStringT@_WV?$StrTraitMFC_DLL@_WV?$ChTraitsCRT@_W@ATL@@@@@ATL@@AAV?$vector@V?$CStringT@_WV?$StrTraitMFC_DLL@_WV?$ChTraitsCRT@_W@ATL@@@@@ATL@@V?$allocator@V?$CStringT@_WV?$StrTraitMFC_DLL@_WV?$ChTraitsCRT@_W@ATL@@@@@ATL@@@std@@@std@@1_N@Z 10092890 f   Sqlite.obj
 0002:00040de0       ?MakeString@Sqlite@baro@@QAE?AV?$CStringT@_WV?$StrTraitMFC_DLL@_WV?$ChTraitsCRT@_W@ATL@@@@@ATL@@AAV?$vector@V?$CStringT@_WV?$StrTraitMFC_DLL@_WV?$ChTraitsCRT@_W@ATL@@@@@ATL@@V?$allocator@V?$CStringT@_WV?$StrTraitMFC_DLL@_WV?$ChTraitsCRT@_W@ATL@@@@@ATL@@@std@@@std@@V34@@Z 10092de0 f   Sqlite.obj
 0002:00041030       ?Open@Sqlite@baro@@QAE_NV?$CStringT@_WV?$StrTraitMFC_DLL@_WV?$ChTraitsCRT@_W@ATL@@@@@ATL@@@Z 10093030 f   Sqlite.obj
 0002:000412e0       ?QueryDirect@Sqlite@baro@@QAE_NPB_WV?$function@$$A6A_NAAVSqliteQueryResult@baro@@@Z@std@@@Z 100932e0 f   Sqlite.obj
 0002:00041510       ?RollbackTransaction@Sqlite@baro@@QAE_NXZ 10093510 f   Sqlite.obj
 0002:00041700       ?Select@Sqlite@baro@@QAE_NV?$CStringT@_WV?$StrTraitMFC_DLL@_WV?$ChTraitsCRT@_W@ATL@@@@@ATL@@AAV?$map@V?$CStringT@_WV?$StrTraitMFC_DLL@_WV?$ChTraitsCRT@_W@ATL@@@@@ATL@@V?$vector@V?$CStringT@_WV?$StrTraitMFC_DLL@_WV?$ChTraitsCRT@_W@ATL@@@@@ATL@@V?$allocator@V?$CStringT@_WV?$StrTraitMFC_DLL@_WV?$ChTraitsCRT@_W@ATL@@@@@ATL@@@std@@@std@@U?$less@V?$CStringT@_WV?$StrTraitMFC_DLL@_WV?$ChTraitsCRT@_W@ATL@@@@@ATL@@@4@V?$allocator@U?$pair@$$CBV?$CStringT@_WV?$StrTraitMFC_DLL@_WV?$ChTraitsCRT@_W@ATL@@@@@ATL@@V?$vector@V?$CStringT@_WV?$StrTraitMFC_DLL@_WV?$ChTraitsCRT@_W@ATL@@@@@ATL@@V?$allocator@V?$CStringT@_WV?$StrTraitMFC_DLL@_WV?$ChTraitsCRT@_W@ATL@@@@@ATL@@@std@@@std@@@std@@@4@@std@@00@Z 10093700 f   Sqlite.obj
 0002:00041e10       ?Update@Sqlite@baro@@QAE_NV?$CStringT@_WV?$StrTraitMFC_DLL@_WV?$ChTraitsCRT@_W@ATL@@@@@ATL@@00@Z 10093e10 f   Sqlite.obj
 0002:00042220       ?_Buynode0@?$_Tree_buy@U?$pair@$$CBV?$CStringT@_WV?$StrTraitMFC_DLL@_WV?$ChTraitsCRT@_W@ATL@@@@@ATL@@V?$vector@V?$CStringT@_WV?$StrTraitMFC_DLL@_WV?$ChTraitsCRT@_W@ATL@@@@@ATL@@V?$allocator@V?$CStringT@_WV?$StrTraitMFC_DLL@_WV?$ChTraitsCRT@_W@ATL@@@@@ATL@@@std@@@std@@@std@@V?$allocator@U?$pair@$$CBV?$CStringT@_WV?$StrTraitMFC_DLL@_WV?$ChTraitsCRT@_W@ATL@@@@@ATL@@V?$vector@V?$CStringT@_WV?$StrTraitMFC_DLL@_WV?$ChTraitsCRT@_W@ATL@@@@@ATL@@V?$allocator@V?$CStringT@_WV?$StrTraitMFC_DLL@_WV?$ChTraitsCRT@_W@ATL@@@@@ATL@@@std@@@std@@@std@@@2@@std@@QAEPAU?$_Tree_node@U?$pair@$$CBV?$CStringT@_WV?$StrTraitMFC_DLL@_WV?$ChTraitsCRT@_W@ATL@@@@@ATL@@V?$vector@V?$CStringT@_WV?$StrTraitMFC_DLL@_WV?$ChTraitsCRT@_W@ATL@@@@@ATL@@V?$allocator@V?$CStringT@_WV?$StrTraitMFC_DLL@_WV?$ChTraitsCRT@_W@ATL@@@@@ATL@@@std@@@std@@@std@@PAX@2@XZ 10094220 f i Sqlite.obj
 0002:00042430       ?_Color@?$_Tree_val@U?$_Tree_simple_types@U?$pair@$$CBV?$CStringT@_WV?$StrTraitMFC_DLL@_WV?$ChTraitsCRT@_W@ATL@@@@@ATL@@V?$vector@V?$CStringT@_WV?$StrTraitMFC_DLL@_WV?$ChTraitsCRT@_W@ATL@@@@@ATL@@V?$allocator@V?$CStringT@_WV?$StrTraitMFC_DLL@_WV?$ChTraitsCRT@_W@ATL@@@@@ATL@@@std@@@std@@@std@@@std@@@std@@SAAADPAU?$_Tree_node@U?$pair@$$CBV?$CStringT@_WV?$StrTraitMFC_DLL@_WV?$ChTraitsCRT@_W@ATL@@@@@ATL@@V?$vector@V?$CStringT@_WV?$StrTraitMFC_DLL@_WV?$ChTraitsCRT@_W@ATL@@@@@ATL@@V?$allocator@V?$CStringT@_WV?$StrTraitMFC_DLL@_WV?$ChTraitsCRT@_W@ATL@@@@@ATL@@@std@@@std@@@std@@PAX@2@@Z 10094430 f i Sqlite.obj
 0002:00042470       ?_Destroy_if_not_nil@?$_Tree@V?$_Tmap_traits@V?$CStringT@_WV?$StrTraitMFC_DLL@_WV?$ChTraitsCRT@_W@ATL@@@@@ATL@@V?$vector@V?$CStringT@_WV?$StrTraitMFC_DLL@_WV?$ChTraitsCRT@_W@ATL@@@@@ATL@@V?$allocator@V?$CStringT@_WV?$StrTraitMFC_DLL@_WV?$ChTraitsCRT@_W@ATL@@@@@ATL@@@std@@@std@@U?$less@V?$CStringT@_WV?$StrTraitMFC_DLL@_WV?$ChTraitsCRT@_W@ATL@@@@@ATL@@@4@V?$allocator@U?$pair@$$CBV?$CStringT@_WV?$StrTraitMFC_DLL@_WV?$ChTraitsCRT@_W@ATL@@@@@ATL@@V?$vector@V?$CStringT@_WV?$StrTraitMFC_DLL@_WV?$ChTraitsCRT@_W@ATL@@@@@ATL@@V?$allocator@V?$CStringT@_WV?$StrTraitMFC_DLL@_WV?$ChTraitsCRT@_W@ATL@@@@@ATL@@@std@@@std@@@std@@@4@$0A@@std@@@std@@IAEXPAU?$_Tree_node@U?$pair@$$CBV?$CStringT@_WV?$StrTraitMFC_DLL@_WV?$ChTraitsCRT@_W@ATL@@@@@ATL@@V?$vector@V?$CStringT@_WV?$StrTraitMFC_DLL@_WV?$ChTraitsCRT@_W@ATL@@@@@ATL@@V?$allocator@V?$CStringT@_WV?$StrTraitMFC_DLL@_WV?$ChTraitsCRT@_W@ATL@@@@@ATL@@@std@@@std@@@std@@PAX@2@@Z 10094470 f i Sqlite.obj
 0002:00042520       ?_Empty@?$_Func_class@_NAAVSqliteQueryResult@baro@@@std@@QBE_NXZ 10094520 f i Sqlite.obj
 0002:00042590       ?_Erase@?$_Tree@V?$_Tmap_traits@V?$CStringT@_WV?$StrTraitMFC_DLL@_WV?$ChTraitsCRT@_W@ATL@@@@@ATL@@V?$vector@V?$CStringT@_WV?$StrTraitMFC_DLL@_WV?$ChTraitsCRT@_W@ATL@@@@@ATL@@V?$allocator@V?$CStringT@_WV?$StrTraitMFC_DLL@_WV?$ChTraitsCRT@_W@ATL@@@@@ATL@@@std@@@std@@U?$less@V?$CStringT@_WV?$StrTraitMFC_DLL@_WV?$ChTraitsCRT@_W@ATL@@@@@ATL@@@4@V?$allocator@U?$pair@$$CBV?$CStringT@_WV?$StrTraitMFC_DLL@_WV?$ChTraitsCRT@_W@ATL@@@@@ATL@@V?$vector@V?$CStringT@_WV?$StrTraitMFC_DLL@_WV?$ChTraitsCRT@_W@ATL@@@@@ATL@@V?$allocator@V?$CStringT@_WV?$StrTraitMFC_DLL@_WV?$ChTraitsCRT@_W@ATL@@@@@ATL@@@std@@@std@@@std@@@4@$0A@@std@@@std@@IAEXPAU?$_Tree_node@U?$pair@$$CBV?$CStringT@_WV?$StrTraitMFC_DLL@_WV?$ChTraitsCRT@_W@ATL@@@@@ATL@@V?$vector@V?$CStringT@_WV?$StrTraitMFC_DLL@_WV?$ChTraitsCRT@_W@ATL@@@@@ATL@@V?$allocator@V?$CStringT@_WV?$StrTraitMFC_DLL@_WV?$ChTraitsCRT@_W@ATL@@@@@ATL@@@std@@@std@@@std@@PAX@2@@Z 10094590 f i Sqlite.obj
 0002:000426a0       ?_Freenode0@?$_Tree_buy@U?$pair@$$CBV?$CStringT@_WV?$StrTraitMFC_DLL@_WV?$ChTraitsCRT@_W@ATL@@@@@ATL@@V?$vector@V?$CStringT@_WV?$StrTraitMFC_DLL@_WV?$ChTraitsCRT@_W@ATL@@@@@ATL@@V?$allocator@V?$CStringT@_WV?$StrTraitMFC_DLL@_WV?$ChTraitsCRT@_W@ATL@@@@@ATL@@@std@@@std@@@std@@V?$allocator@U?$pair@$$CBV?$CStringT@_WV?$StrTraitMFC_DLL@_WV?$ChTraitsCRT@_W@ATL@@@@@ATL@@V?$vector@V?$CStringT@_WV?$StrTraitMFC_DLL@_WV?$ChTraitsCRT@_W@ATL@@@@@ATL@@V?$allocator@V?$CStringT@_WV?$StrTraitMFC_DLL@_WV?$ChTraitsCRT@_W@ATL@@@@@ATL@@@std@@@std@@@std@@@2@@std@@QAEXPAU?$_Tree_node@U?$pair@$$CBV?$CStringT@_WV?$StrTraitMFC_DLL@_WV?$ChTraitsCRT@_W@ATL@@@@@ATL@@V?$vector@V?$CStringT@_WV?$StrTraitMFC_DLL@_WV?$ChTraitsCRT@_W@ATL@@@@@ATL@@V?$allocator@V?$CStringT@_WV?$StrTraitMFC_DLL@_WV?$ChTraitsCRT@_W@ATL@@@@@ATL@@@std@@@std@@@std@@PAX@2@@Z 100946a0 f i Sqlite.obj
 0002:000427b0       ?_Getal@?$_Tree_alloc@$0A@U?$_Tree_base_types@U?$pair@$$CBV?$CStringT@_WV?$StrTraitMFC_DLL@_WV?$ChTraitsCRT@_W@ATL@@@@@ATL@@V?$vector@V?$CStringT@_WV?$StrTraitMFC_DLL@_WV?$ChTraitsCRT@_W@ATL@@@@@ATL@@V?$allocator@V?$CStringT@_WV?$StrTraitMFC_DLL@_WV?$ChTraitsCRT@_W@ATL@@@@@ATL@@@std@@@std@@@std@@V?$allocator@U?$pair@$$CBV?$CStringT@_WV?$StrTraitMFC_DLL@_WV?$ChTraitsCRT@_W@ATL@@@@@ATL@@V?$vector@V?$CStringT@_WV?$StrTraitMFC_DLL@_WV?$ChTraitsCRT@_W@ATL@@@@@ATL@@V?$allocator@V?$CStringT@_WV?$StrTraitMFC_DLL@_WV?$ChTraitsCRT@_W@ATL@@@@@ATL@@@std@@@std@@@std@@@2@@std@@@std@@QBE?AU?$_Wrap_alloc@V?$allocator@U?$_Tree_node@U?$pair@$$CBV?$CStringT@_WV?$StrTraitMFC_DLL@_WV?$ChTraitsCRT@_W@ATL@@@@@ATL@@V?$vector@V?$CStringT@_WV?$StrTraitMFC_DLL@_WV?$ChTraitsCRT@_W@ATL@@@@@ATL@@V?$allocator@V?$CStringT@_WV?$StrTraitMFC_DLL@_WV?$ChTraitsCRT@_W@ATL@@@@@ATL@@@std@@@std@@@std@@PAX@std@@@std@@@2@XZ 100947b0 f i Sqlite.obj
 0002:00042810       ?_Getcomp@?$_Tree_comp@$0A@V?$_Tmap_traits@V?$CStringT@_WV?$StrTraitMFC_DLL@_WV?$ChTraitsCRT@_W@ATL@@@@@ATL@@V?$vector@V?$CStringT@_WV?$StrTraitMFC_DLL@_WV?$ChTraitsCRT@_W@ATL@@@@@ATL@@V?$allocator@V?$CStringT@_WV?$StrTraitMFC_DLL@_WV?$ChTraitsCRT@_W@ATL@@@@@ATL@@@std@@@std@@U?$less@V?$CStringT@_WV?$StrTraitMFC_DLL@_WV?$ChTraitsCRT@_W@ATL@@@@@ATL@@@4@V?$allocator@U?$pair@$$CBV?$CStringT@_WV?$StrTraitMFC_DLL@_WV?$ChTraitsCRT@_W@ATL@@@@@ATL@@V?$vector@V?$CStringT@_WV?$StrTraitMFC_DLL@_WV?$ChTraitsCRT@_W@ATL@@@@@ATL@@V?$allocator@V?$CStringT@_WV?$StrTraitMFC_DLL@_WV?$ChTraitsCRT@_W@ATL@@@@@ATL@@@std@@@std@@@std@@@4@$0A@@std@@@std@@QBE?AU?$less@V?$CStringT@_WV?$StrTraitMFC_DLL@_WV?$ChTraitsCRT@_W@ATL@@@@@ATL@@@2@XZ 10094810 f i Sqlite.obj
 0002:00042850       ?_Isnil@?$_Tree_val@U?$_Tree_simple_types@U?$pair@$$CBV?$CStringT@_WV?$StrTraitMFC_DLL@_WV?$ChTraitsCRT@_W@ATL@@@@@ATL@@V?$vector@V?$CStringT@_WV?$StrTraitMFC_DLL@_WV?$ChTraitsCRT@_W@ATL@@@@@ATL@@V?$allocator@V?$CStringT@_WV?$StrTraitMFC_DLL@_WV?$ChTraitsCRT@_W@ATL@@@@@ATL@@@std@@@std@@@std@@@std@@@std@@SAAADPAU?$_Tree_node@U?$pair@$$CBV?$CStringT@_WV?$StrTraitMFC_DLL@_WV?$ChTraitsCRT@_W@ATL@@@@@ATL@@V?$vector@V?$CStringT@_WV?$StrTraitMFC_DLL@_WV?$ChTraitsCRT@_W@ATL@@@@@ATL@@V?$allocator@V?$CStringT@_WV?$StrTraitMFC_DLL@_WV?$ChTraitsCRT@_W@ATL@@@@@ATL@@@std@@@std@@@std@@PAX@2@@Z 10094850 f i Sqlite.obj
 0002:00042890       ?_Key@?$_Tree@V?$_Tmap_traits@V?$CStringT@_WV?$StrTraitMFC_DLL@_WV?$ChTraitsCRT@_W@ATL@@@@@ATL@@V?$vector@V?$CStringT@_WV?$StrTraitMFC_DLL@_WV?$ChTraitsCRT@_W@ATL@@@@@ATL@@V?$allocator@V?$CStringT@_WV?$StrTraitMFC_DLL@_WV?$ChTraitsCRT@_W@ATL@@@@@ATL@@@std@@@std@@U?$less@V?$CStringT@_WV?$StrTraitMFC_DLL@_WV?$ChTraitsCRT@_W@ATL@@@@@ATL@@@4@V?$allocator@U?$pair@$$CBV?$CStringT@_WV?$StrTraitMFC_DLL@_WV?$ChTraitsCRT@_W@ATL@@@@@ATL@@V?$vector@V?$CStringT@_WV?$StrTraitMFC_DLL@_WV?$ChTraitsCRT@_W@ATL@@@@@ATL@@V?$allocator@V?$CStringT@_WV?$StrTraitMFC_DLL@_WV?$ChTraitsCRT@_W@ATL@@@@@ATL@@@std@@@std@@@std@@@4@$0A@@std@@@std@@IBEABV?$CStringT@_WV?$StrTraitMFC_DLL@_WV?$ChTraitsCRT@_W@ATL@@@@@ATL@@PAU?$_Tree_node@U?$pair@$$CBV?$CStringT@_WV?$StrTraitMFC_DLL@_WV?$ChTraitsCRT@_W@ATL@@@@@ATL@@V?$vector@V?$CStringT@_WV?$StrTraitMFC_DLL@_WV?$ChTraitsCRT@_W@ATL@@@@@ATL@@V?$allocator@V?$CStringT@_WV?$StrTraitMFC_DLL@_WV?$ChTraitsCRT@_W@ATL@@@@@ATL@@@std@@@std@@@std@@PAX@2@@Z 10094890 f i Sqlite.obj
 0002:00042900       ?_Kfn@?$_Tree@V?$_Tmap_traits@V?$CStringT@_WV?$StrTraitMFC_DLL@_WV?$ChTraitsCRT@_W@ATL@@@@@ATL@@V?$vector@V?$CStringT@_WV?$StrTraitMFC_DLL@_WV?$ChTraitsCRT@_W@ATL@@@@@ATL@@V?$allocator@V?$CStringT@_WV?$StrTraitMFC_DLL@_WV?$ChTraitsCRT@_W@ATL@@@@@ATL@@@std@@@std@@U?$less@V?$CStringT@_WV?$StrTraitMFC_DLL@_WV?$ChTraitsCRT@_W@ATL@@@@@ATL@@@4@V?$allocator@U?$pair@$$CBV?$CStringT@_WV?$StrTraitMFC_DLL@_WV?$ChTraitsCRT@_W@ATL@@@@@ATL@@V?$vector@V?$CStringT@_WV?$StrTraitMFC_DLL@_WV?$ChTraitsCRT@_W@ATL@@@@@ATL@@V?$allocator@V?$CStringT@_WV?$StrTraitMFC_DLL@_WV?$ChTraitsCRT@_W@ATL@@@@@ATL@@@std@@@std@@@std@@@4@$0A@@std@@@std@@IBEABV?$CStringT@_WV?$StrTraitMFC_DLL@_WV?$ChTraitsCRT@_W@ATL@@@@@ATL@@ABU?$pair@$$CBV?$CStringT@_WV?$StrTraitMFC_DLL@_WV?$ChTraitsCRT@_W@ATL@@@@@ATL@@V?$vector@V?$CStringT@_WV?$StrTraitMFC_DLL@_WV?$ChTraitsCRT@_W@ATL@@@@@ATL@@V?$allocator@V?$CStringT@_WV?$StrTraitMFC_DLL@_WV?$ChTraitsCRT@_W@ATL@@@@@ATL@@@std@@@std@@@2@@Z 10094900 f i Sqlite.obj
 0002:00042960       ?_Left@?$_Tree_val@U?$_Tree_simple_types@U?$pair@$$CBV?$CStringT@_WV?$StrTraitMFC_DLL@_WV?$ChTraitsCRT@_W@ATL@@@@@ATL@@V?$vector@V?$CStringT@_WV?$StrTraitMFC_DLL@_WV?$ChTraitsCRT@_W@ATL@@@@@ATL@@V?$allocator@V?$CStringT@_WV?$StrTraitMFC_DLL@_WV?$ChTraitsCRT@_W@ATL@@@@@ATL@@@std@@@std@@@std@@@std@@@std@@SAAAPAU?$_Tree_node@U?$pair@$$CBV?$CStringT@_WV?$StrTraitMFC_DLL@_WV?$ChTraitsCRT@_W@ATL@@@@@ATL@@V?$vector@V?$CStringT@_WV?$StrTraitMFC_DLL@_WV?$ChTraitsCRT@_W@ATL@@@@@ATL@@V?$allocator@V?$CStringT@_WV?$StrTraitMFC_DLL@_WV?$ChTraitsCRT@_W@ATL@@@@@ATL@@@std@@@std@@@std@@PAX@2@PAU32@@Z 10094960 f i Sqlite.obj
 0002:000429a0       ?_Lmost@?$_Tree@V?$_Tmap_traits@V?$CStringT@_WV?$StrTraitMFC_DLL@_WV?$ChTraitsCRT@_W@ATL@@@@@ATL@@V?$vector@V?$CStringT@_WV?$StrTraitMFC_DLL@_WV?$ChTraitsCRT@_W@ATL@@@@@ATL@@V?$allocator@V?$CStringT@_WV?$StrTraitMFC_DLL@_WV?$ChTraitsCRT@_W@ATL@@@@@ATL@@@std@@@std@@U?$less@V?$CStringT@_WV?$StrTraitMFC_DLL@_WV?$ChTraitsCRT@_W@ATL@@@@@ATL@@@4@V?$allocator@U?$pair@$$CBV?$CStringT@_WV?$StrTraitMFC_DLL@_WV?$ChTraitsCRT@_W@ATL@@@@@ATL@@V?$vector@V?$CStringT@_WV?$StrTraitMFC_DLL@_WV?$ChTraitsCRT@_W@ATL@@@@@ATL@@V?$allocator@V?$CStringT@_WV?$StrTraitMFC_DLL@_WV?$ChTraitsCRT@_W@ATL@@@@@ATL@@@std@@@std@@@std@@@4@$0A@@std@@@std@@IBEAAPAU?$_Tree_node@U?$pair@$$CBV?$CStringT@_WV?$StrTraitMFC_DLL@_WV?$ChTraitsCRT@_W@ATL@@@@@ATL@@V?$vector@V?$CStringT@_WV?$StrTraitMFC_DLL@_WV?$ChTraitsCRT@_W@ATL@@@@@ATL@@V?$allocator@V?$CStringT@_WV?$StrTraitMFC_DLL@_WV?$ChTraitsCRT@_W@ATL@@@@@ATL@@@std@@@std@@@std@@PAX@2@XZ 100949a0 f i Sqlite.obj
 0002:00042a00       ?_Local@?$_Func_class@_NAAVSqliteQueryResult@baro@@@std@@ABE_NXZ 10094a00 f i Sqlite.obj
 0002:00042a70       ?_Lrotate@?$_Tree@V?$_Tmap_traits@V?$CStringT@_WV?$StrTraitMFC_DLL@_WV?$ChTraitsCRT@_W@ATL@@@@@ATL@@V?$vector@V?$CStringT@_WV?$StrTraitMFC_DLL@_WV?$ChTraitsCRT@_W@ATL@@@@@ATL@@V?$allocator@V?$CStringT@_WV?$StrTraitMFC_DLL@_WV?$ChTraitsCRT@_W@ATL@@@@@ATL@@@std@@@std@@U?$less@V?$CStringT@_WV?$StrTraitMFC_DLL@_WV?$ChTraitsCRT@_W@ATL@@@@@ATL@@@4@V?$allocator@U?$pair@$$CBV?$CStringT@_WV?$StrTraitMFC_DLL@_WV?$ChTraitsCRT@_W@ATL@@@@@ATL@@V?$vector@V?$CStringT@_WV?$StrTraitMFC_DLL@_WV?$ChTraitsCRT@_W@ATL@@@@@ATL@@V?$allocator@V?$CStringT@_WV?$StrTraitMFC_DLL@_WV?$ChTraitsCRT@_W@ATL@@@@@ATL@@@std@@@std@@@std@@@4@$0A@@std@@@std@@IAEXPAU?$_Tree_node@U?$pair@$$CBV?$CStringT@_WV?$StrTraitMFC_DLL@_WV?$ChTraitsCRT@_W@ATL@@@@@ATL@@V?$vector@V?$CStringT@_WV?$StrTraitMFC_DLL@_WV?$ChTraitsCRT@_W@ATL@@@@@ATL@@V?$allocator@V?$CStringT@_WV?$StrTraitMFC_DLL@_WV?$ChTraitsCRT@_W@ATL@@@@@ATL@@@std@@@std@@@std@@PAX@2@@Z 10094a70 f i Sqlite.obj
 0002:00042c20       ?_Max@?$_Tree_val@U?$_Tree_simple_types@U?$pair@$$CBV?$CStringT@_WV?$StrTraitMFC_DLL@_WV?$ChTraitsCRT@_W@ATL@@@@@ATL@@V?$vector@V?$CStringT@_WV?$StrTraitMFC_DLL@_WV?$ChTraitsCRT@_W@ATL@@@@@ATL@@V?$allocator@V?$CStringT@_WV?$StrTraitMFC_DLL@_WV?$ChTraitsCRT@_W@ATL@@@@@ATL@@@std@@@std@@@std@@@std@@@std@@SAPAU?$_Tree_node@U?$pair@$$CBV?$CStringT@_WV?$StrTraitMFC_DLL@_WV?$ChTraitsCRT@_W@ATL@@@@@ATL@@V?$vector@V?$CStringT@_WV?$StrTraitMFC_DLL@_WV?$ChTraitsCRT@_W@ATL@@@@@ATL@@V?$allocator@V?$CStringT@_WV?$StrTraitMFC_DLL@_WV?$ChTraitsCRT@_W@ATL@@@@@ATL@@@std@@@std@@@std@@PAX@2@PAU32@@Z 10094c20 f i Sqlite.obj
 0002:00042ca0       ?_Mynode@?$_Tree_unchecked_const_iterator@V?$_Tree_val@U?$_Tree_simple_types@U?$pair@$$CBV?$CStringT@_WV?$StrTraitMFC_DLL@_WV?$ChTraitsCRT@_W@ATL@@@@@ATL@@V?$vector@V?$CStringT@_WV?$StrTraitMFC_DLL@_WV?$ChTraitsCRT@_W@ATL@@@@@ATL@@V?$allocator@V?$CStringT@_WV?$StrTraitMFC_DLL@_WV?$ChTraitsCRT@_W@ATL@@@@@ATL@@@std@@@std@@@std@@@std@@@std@@U_Iterator_base12@2@@std@@QBEPAU?$_Tree_node@U?$pair@$$CBV?$CStringT@_WV?$StrTraitMFC_DLL@_WV?$ChTraitsCRT@_W@ATL@@@@@ATL@@V?$vector@V?$CStringT@_WV?$StrTraitMFC_DLL@_WV?$ChTraitsCRT@_W@ATL@@@@@ATL@@V?$allocator@V?$CStringT@_WV?$StrTraitMFC_DLL@_WV?$ChTraitsCRT@_W@ATL@@@@@ATL@@@std@@@std@@@std@@PAX@2@XZ 10094ca0 f i Sqlite.obj
 0002:00042ce0       ?_Myval@?$_Tree_val@U?$_Tree_simple_types@U?$pair@$$CBV?$CStringT@_WV?$StrTraitMFC_DLL@_WV?$ChTraitsCRT@_W@ATL@@@@@ATL@@V?$vector@V?$CStringT@_WV?$StrTraitMFC_DLL@_WV?$ChTraitsCRT@_W@ATL@@@@@ATL@@V?$allocator@V?$CStringT@_WV?$StrTraitMFC_DLL@_WV?$ChTraitsCRT@_W@ATL@@@@@ATL@@@std@@@std@@@std@@@std@@@std@@SAAAU?$pair@$$CBV?$CStringT@_WV?$StrTraitMFC_DLL@_WV?$ChTraitsCRT@_W@ATL@@@@@ATL@@V?$vector@V?$CStringT@_WV?$StrTraitMFC_DLL@_WV?$ChTraitsCRT@_W@ATL@@@@@ATL@@V?$allocator@V?$CStringT@_WV?$StrTraitMFC_DLL@_WV?$ChTraitsCRT@_W@ATL@@@@@ATL@@@std@@@std@@@2@PAU?$_Tree_node@U?$pair@$$CBV?$CStringT@_WV?$StrTraitMFC_DLL@_WV?$ChTraitsCRT@_W@ATL@@@@@ATL@@V?$vector@V?$CStringT@_WV?$StrTraitMFC_DLL@_WV?$ChTraitsCRT@_W@ATL@@@@@ATL@@V?$allocator@V?$CStringT@_WV?$StrTraitMFC_DLL@_WV?$ChTraitsCRT@_W@ATL@@@@@ATL@@@std@@@std@@@std@@PAX@2@@Z 10094ce0 f i Sqlite.obj
 0002:00042d20       ?_Orphan_ptr@?$_Tree@V?$_Tmap_traits@V?$CStringT@_WV?$StrTraitMFC_DLL@_WV?$ChTraitsCRT@_W@ATL@@@@@ATL@@V?$vector@V?$CStringT@_WV?$StrTraitMFC_DLL@_WV?$ChTraitsCRT@_W@ATL@@@@@ATL@@V?$allocator@V?$CStringT@_WV?$StrTraitMFC_DLL@_WV?$ChTraitsCRT@_W@ATL@@@@@ATL@@@std@@@std@@U?$less@V?$CStringT@_WV?$StrTraitMFC_DLL@_WV?$ChTraitsCRT@_W@ATL@@@@@ATL@@@4@V?$allocator@U?$pair@$$CBV?$CStringT@_WV?$StrTraitMFC_DLL@_WV?$ChTraitsCRT@_W@ATL@@@@@ATL@@V?$vector@V?$CStringT@_WV?$StrTraitMFC_DLL@_WV?$ChTraitsCRT@_W@ATL@@@@@ATL@@V?$allocator@V?$CStringT@_WV?$StrTraitMFC_DLL@_WV?$ChTraitsCRT@_W@ATL@@@@@ATL@@@std@@@std@@@std@@@4@$0A@@std@@@std@@IBEXAAV12@PAU?$_Tree_node@U?$pair@$$CBV?$CStringT@_WV?$StrTraitMFC_DLL@_WV?$ChTraitsCRT@_W@ATL@@@@@ATL@@V?$vector@V?$CStringT@_WV?$StrTraitMFC_DLL@_WV?$ChTraitsCRT@_W@ATL@@@@@ATL@@V?$allocator@V?$CStringT@_WV?$StrTraitMFC_DLL@_WV?$ChTraitsCRT@_W@ATL@@@@@ATL@@@std@@@std@@@std@@PAX@2@@Z 10094d20 f i Sqlite.obj
 0002:00042ec0       ?_Parent@?$_Tree_val@U?$_Tree_simple_types@U?$pair@$$CBV?$CStringT@_WV?$StrTraitMFC_DLL@_WV?$ChTraitsCRT@_W@ATL@@@@@ATL@@V?$vector@V?$CStringT@_WV?$StrTraitMFC_DLL@_WV?$ChTraitsCRT@_W@ATL@@@@@ATL@@V?$allocator@V?$CStringT@_WV?$StrTraitMFC_DLL@_WV?$ChTraitsCRT@_W@ATL@@@@@ATL@@@std@@@std@@@std@@@std@@@std@@SAAAPAU?$_Tree_node@U?$pair@$$CBV?$CStringT@_WV?$StrTraitMFC_DLL@_WV?$ChTraitsCRT@_W@ATL@@@@@ATL@@V?$vector@V?$CStringT@_WV?$StrTraitMFC_DLL@_WV?$ChTraitsCRT@_W@ATL@@@@@ATL@@V?$allocator@V?$CStringT@_WV?$StrTraitMFC_DLL@_WV?$ChTraitsCRT@_W@ATL@@@@@ATL@@@std@@@std@@@std@@PAX@2@PAU32@@Z 10094ec0 f i Sqlite.obj
 0002:00042f00       ?_Right@?$_Tree_val@U?$_Tree_simple_types@U?$pair@$$CBV?$CStringT@_WV?$StrTraitMFC_DLL@_WV?$ChTraitsCRT@_W@ATL@@@@@ATL@@V?$vector@V?$CStringT@_WV?$StrTraitMFC_DLL@_WV?$ChTraitsCRT@_W@ATL@@@@@ATL@@V?$allocator@V?$CStringT@_WV?$StrTraitMFC_DLL@_WV?$ChTraitsCRT@_W@ATL@@@@@ATL@@@std@@@std@@@std@@@std@@@std@@SAAAPAU?$_Tree_node@U?$pair@$$CBV?$CStringT@_WV?$StrTraitMFC_DLL@_WV?$ChTraitsCRT@_W@ATL@@@@@ATL@@V?$vector@V?$CStringT@_WV?$StrTraitMFC_DLL@_WV?$ChTraitsCRT@_W@ATL@@@@@ATL@@V?$allocator@V?$CStringT@_WV?$StrTraitMFC_DLL@_WV?$ChTraitsCRT@_W@ATL@@@@@ATL@@@std@@@std@@@std@@PAX@2@PAU32@@Z 10094f00 f i Sqlite.obj
 0002:00042f40       ?_Rmost@?$_Tree@V?$_Tmap_traits@V?$CStringT@_WV?$StrTraitMFC_DLL@_WV?$ChTraitsCRT@_W@ATL@@@@@ATL@@V?$vector@V?$CStringT@_WV?$StrTraitMFC_DLL@_WV?$ChTraitsCRT@_W@ATL@@@@@ATL@@V?$allocator@V?$CStringT@_WV?$StrTraitMFC_DLL@_WV?$ChTraitsCRT@_W@ATL@@@@@ATL@@@std@@@std@@U?$less@V?$CStringT@_WV?$StrTraitMFC_DLL@_WV?$ChTraitsCRT@_W@ATL@@@@@ATL@@@4@V?$allocator@U?$pair@$$CBV?$CStringT@_WV?$StrTraitMFC_DLL@_WV?$ChTraitsCRT@_W@ATL@@@@@ATL@@V?$vector@V?$CStringT@_WV?$StrTraitMFC_DLL@_WV?$ChTraitsCRT@_W@ATL@@@@@ATL@@V?$allocator@V?$CStringT@_WV?$StrTraitMFC_DLL@_WV?$ChTraitsCRT@_W@ATL@@@@@ATL@@@std@@@std@@@std@@@4@$0A@@std@@@std@@IBEAAPAU?$_Tree_node@U?$pair@$$CBV?$CStringT@_WV?$StrTraitMFC_DLL@_WV?$ChTraitsCRT@_W@ATL@@@@@ATL@@V?$vector@V?$CStringT@_WV?$StrTraitMFC_DLL@_WV?$ChTraitsCRT@_W@ATL@@@@@ATL@@V?$allocator@V?$CStringT@_WV?$StrTraitMFC_DLL@_WV?$ChTraitsCRT@_W@ATL@@@@@ATL@@@std@@@std@@@std@@PAX@2@XZ 10094f40 f i Sqlite.obj
 0002:00042fa0       ?_Root@?$_Tree@V?$_Tmap_traits@V?$CStringT@_WV?$StrTraitMFC_DLL@_WV?$ChTraitsCRT@_W@ATL@@@@@ATL@@V?$vector@V?$CStringT@_WV?$StrTraitMFC_DLL@_WV?$ChTraitsCRT@_W@ATL@@@@@ATL@@V?$allocator@V?$CStringT@_WV?$StrTraitMFC_DLL@_WV?$ChTraitsCRT@_W@ATL@@@@@ATL@@@std@@@std@@U?$less@V?$CStringT@_WV?$StrTraitMFC_DLL@_WV?$ChTraitsCRT@_W@ATL@@@@@ATL@@@4@V?$allocator@U?$pair@$$CBV?$CStringT@_WV?$StrTraitMFC_DLL@_WV?$ChTraitsCRT@_W@ATL@@@@@ATL@@V?$vector@V?$CStringT@_WV?$StrTraitMFC_DLL@_WV?$ChTraitsCRT@_W@ATL@@@@@ATL@@V?$allocator@V?$CStringT@_WV?$StrTraitMFC_DLL@_WV?$ChTraitsCRT@_W@ATL@@@@@ATL@@@std@@@std@@@std@@@4@$0A@@std@@@std@@IBEAAPAU?$_Tree_node@U?$pair@$$CBV?$CStringT@_WV?$StrTraitMFC_DLL@_WV?$ChTraitsCRT@_W@ATL@@@@@ATL@@V?$vector@V?$CStringT@_WV?$StrTraitMFC_DLL@_WV?$ChTraitsCRT@_W@ATL@@@@@ATL@@V?$allocator@V?$CStringT@_WV?$StrTraitMFC_DLL@_WV?$ChTraitsCRT@_W@ATL@@@@@ATL@@@std@@@std@@@std@@PAX@2@XZ 10094fa0 f i Sqlite.obj
 0002:00043000       ?_Rrotate@?$_Tree@V?$_Tmap_traits@V?$CStringT@_WV?$StrTraitMFC_DLL@_WV?$ChTraitsCRT@_W@ATL@@@@@ATL@@V?$vector@V?$CStringT@_WV?$StrTraitMFC_DLL@_WV?$ChTraitsCRT@_W@ATL@@@@@ATL@@V?$allocator@V?$CStringT@_WV?$StrTraitMFC_DLL@_WV?$ChTraitsCRT@_W@ATL@@@@@ATL@@@std@@@std@@U?$less@V?$CStringT@_WV?$StrTraitMFC_DLL@_WV?$ChTraitsCRT@_W@ATL@@@@@ATL@@@4@V?$allocator@U?$pair@$$CBV?$CStringT@_WV?$StrTraitMFC_DLL@_WV?$ChTraitsCRT@_W@ATL@@@@@ATL@@V?$vector@V?$CStringT@_WV?$StrTraitMFC_DLL@_WV?$ChTraitsCRT@_W@ATL@@@@@ATL@@V?$allocator@V?$CStringT@_WV?$StrTraitMFC_DLL@_WV?$ChTraitsCRT@_W@ATL@@@@@ATL@@@std@@@std@@@std@@@4@$0A@@std@@@std@@IAEXPAU?$_Tree_node@U?$pair@$$CBV?$CStringT@_WV?$StrTraitMFC_DLL@_WV?$ChTraitsCRT@_W@ATL@@@@@ATL@@V?$vector@V?$CStringT@_WV?$StrTraitMFC_DLL@_WV?$ChTraitsCRT@_W@ATL@@@@@ATL@@V?$allocator@V?$CStringT@_WV?$StrTraitMFC_DLL@_WV?$ChTraitsCRT@_W@ATL@@@@@ATL@@@std@@@std@@@std@@PAX@2@@Z 10095000 f i Sqlite.obj
 0002:000431b0       ?_Tidy@?$_Func_class@_NAAVSqliteQueryResult@baro@@@std@@IAEXXZ 100951b0 f i Sqlite.obj
 0002:00043260       ?_Unchecked@?$_Vector_const_iterator@V?$_Vector_val@U?$_Simple_types@V?$CStringT@_WV?$StrTraitMFC_DLL@_WV?$ChTraitsCRT@_W@ATL@@@@@ATL@@@std@@@std@@@std@@QBEPBV?$CStringT@_WV?$StrTraitMFC_DLL@_WV?$ChTraitsCRT@_W@ATL@@@@@ATL@@XZ 10095260 f i Sqlite.obj
 0002:000432a0       ?__autoclassinit2@?$_Tree_iterator@V?$_Tree_val@U?$_Tree_simple_types@U?$pair@$$CBV?$CStringT@_WV?$StrTraitMFC_DLL@_WV?$ChTraitsCRT@_W@ATL@@@@@ATL@@V?$vector@V?$CStringT@_WV?$StrTraitMFC_DLL@_WV?$ChTraitsCRT@_W@ATL@@@@@ATL@@V?$allocator@V?$CStringT@_WV?$StrTraitMFC_DLL@_WV?$ChTraitsCRT@_W@ATL@@@@@ATL@@@std@@@std@@@std@@@std@@@std@@@std@@QAEXI@Z 100952a0 f i Sqlite.obj
 0002:00043300       ?__autoclassinit2@CppSqlite3DB@@QAEXI@Z 10095300 f i Sqlite.obj
 0002:00043360       ?__autoclassinit2@SqliteQueryResult@baro@@QAEXI@Z 10095360 f i Sqlite.obj
 0002:000433c0       ?allocate@?$_Wrap_alloc@V?$allocator@U?$_Tree_node@U?$pair@$$CBV?$CStringT@_WV?$StrTraitMFC_DLL@_WV?$ChTraitsCRT@_W@ATL@@@@@ATL@@V?$vector@V?$CStringT@_WV?$StrTraitMFC_DLL@_WV?$ChTraitsCRT@_W@ATL@@@@@ATL@@V?$allocator@V?$CStringT@_WV?$StrTraitMFC_DLL@_WV?$ChTraitsCRT@_W@ATL@@@@@ATL@@@std@@@std@@@std@@PAX@std@@@std@@@std@@QAEPAU?$_Tree_node@U?$pair@$$CBV?$CStringT@_WV?$StrTraitMFC_DLL@_WV?$ChTraitsCRT@_W@ATL@@@@@ATL@@V?$vector@V?$CStringT@_WV?$StrTraitMFC_DLL@_WV?$ChTraitsCRT@_W@ATL@@@@@ATL@@V?$allocator@V?$CStringT@_WV?$StrTraitMFC_DLL@_WV?$ChTraitsCRT@_W@ATL@@@@@ATL@@@std@@@std@@@std@@PAX@2@I@Z 100953c0 f i Sqlite.obj
 0002:00043420       ?allocate@?$allocator@U?$_Tree_node@U?$pair@$$CBV?$CStringT@_WV?$StrTraitMFC_DLL@_WV?$ChTraitsCRT@_W@ATL@@@@@ATL@@V?$vector@V?$CStringT@_WV?$StrTraitMFC_DLL@_WV?$ChTraitsCRT@_W@ATL@@@@@ATL@@V?$allocator@V?$CStringT@_WV?$StrTraitMFC_DLL@_WV?$ChTraitsCRT@_W@ATL@@@@@ATL@@@std@@@std@@@std@@PAX@std@@@std@@QAEPAU?$_Tree_node@U?$pair@$$CBV?$CStringT@_WV?$StrTraitMFC_DLL@_WV?$ChTraitsCRT@_W@ATL@@@@@ATL@@V?$vector@V?$CStringT@_WV?$StrTraitMFC_DLL@_WV?$ChTraitsCRT@_W@ATL@@@@@ATL@@V?$allocator@V?$CStringT@_WV?$StrTraitMFC_DLL@_WV?$ChTraitsCRT@_W@ATL@@@@@ATL@@@std@@@std@@@std@@PAX@2@I@Z 10095420 f i Sqlite.obj
 0002:00043480       ?begin@?$_Tree@V?$_Tmap_traits@V?$CStringT@_WV?$StrTraitMFC_DLL@_WV?$ChTraitsCRT@_W@ATL@@@@@ATL@@V?$vector@V?$CStringT@_WV?$StrTraitMFC_DLL@_WV?$ChTraitsCRT@_W@ATL@@@@@ATL@@V?$allocator@V?$CStringT@_WV?$StrTraitMFC_DLL@_WV?$ChTraitsCRT@_W@ATL@@@@@ATL@@@std@@@std@@U?$less@V?$CStringT@_WV?$StrTraitMFC_DLL@_WV?$ChTraitsCRT@_W@ATL@@@@@ATL@@@4@V?$allocator@U?$pair@$$CBV?$CStringT@_WV?$StrTraitMFC_DLL@_WV?$ChTraitsCRT@_W@ATL@@@@@ATL@@V?$vector@V?$CStringT@_WV?$StrTraitMFC_DLL@_WV?$ChTraitsCRT@_W@ATL@@@@@ATL@@V?$allocator@V?$CStringT@_WV?$StrTraitMFC_DLL@_WV?$ChTraitsCRT@_W@ATL@@@@@ATL@@@std@@@std@@@std@@@4@$0A@@std@@@std@@QAE?AV?$_Tree_iterator@V?$_Tree_val@U?$_Tree_simple_types@U?$pair@$$CBV?$CStringT@_WV?$StrTraitMFC_DLL@_WV?$ChTraitsCRT@_W@ATL@@@@@ATL@@V?$vector@V?$CStringT@_WV?$StrTraitMFC_DLL@_WV?$ChTraitsCRT@_W@ATL@@@@@ATL@@V?$allocator@V?$CStringT@_WV?$StrTraitMFC_DLL@_WV?$ChTraitsCRT@_W@ATL@@@@@ATL@@@std@@@std@@@std@@@std@@@std@@@2@XZ 10095480 f i Sqlite.obj
 0002:000434f0       ?begin@?$vector@V?$CStringT@_WV?$StrTraitMFC_DLL@_WV?$ChTraitsCRT@_W@ATL@@@@@ATL@@V?$allocator@V?$CStringT@_WV?$StrTraitMFC_DLL@_WV?$ChTraitsCRT@_W@ATL@@@@@ATL@@@std@@@std@@QBE?AV?$_Vector_const_iterator@V?$_Vector_val@U?$_Simple_types@V?$CStringT@_WV?$StrTraitMFC_DLL@_WV?$ChTraitsCRT@_W@ATL@@@@@ATL@@@std@@@std@@@2@XZ 100954f0 f i Sqlite.obj
 0002:00043560       ?clear@?$_Tree@V?$_Tmap_traits@V?$CStringT@_WV?$StrTraitMFC_DLL@_WV?$ChTraitsCRT@_W@ATL@@@@@ATL@@V?$vector@V?$CStringT@_WV?$StrTraitMFC_DLL@_WV?$ChTraitsCRT@_W@ATL@@@@@ATL@@V?$allocator@V?$CStringT@_WV?$StrTraitMFC_DLL@_WV?$ChTraitsCRT@_W@ATL@@@@@ATL@@@std@@@std@@U?$less@V?$CStringT@_WV?$StrTraitMFC_DLL@_WV?$ChTraitsCRT@_W@ATL@@@@@ATL@@@4@V?$allocator@U?$pair@$$CBV?$CStringT@_WV?$StrTraitMFC_DLL@_WV?$ChTraitsCRT@_W@ATL@@@@@ATL@@V?$vector@V?$CStringT@_WV?$StrTraitMFC_DLL@_WV?$ChTraitsCRT@_W@ATL@@@@@ATL@@V?$allocator@V?$CStringT@_WV?$StrTraitMFC_DLL@_WV?$ChTraitsCRT@_W@ATL@@@@@ATL@@@std@@@std@@@std@@@4@$0A@@std@@@std@@QAEXXZ 10095560 f i Sqlite.obj
 0002:00043620       ?deallocate@?$_Wrap_alloc@V?$allocator@U?$_Tree_node@U?$pair@$$CBV?$CStringT@_WV?$StrTraitMFC_DLL@_WV?$ChTraitsCRT@_W@ATL@@@@@ATL@@V?$vector@V?$CStringT@_WV?$StrTraitMFC_DLL@_WV?$ChTraitsCRT@_W@ATL@@@@@ATL@@V?$allocator@V?$CStringT@_WV?$StrTraitMFC_DLL@_WV?$ChTraitsCRT@_W@ATL@@@@@ATL@@@std@@@std@@@std@@PAX@std@@@std@@@std@@QAEXPAU?$_Tree_node@U?$pair@$$CBV?$CStringT@_WV?$StrTraitMFC_DLL@_WV?$ChTraitsCRT@_W@ATL@@@@@ATL@@V?$vector@V?$CStringT@_WV?$StrTraitMFC_DLL@_WV?$ChTraitsCRT@_W@ATL@@@@@ATL@@V?$allocator@V?$CStringT@_WV?$StrTraitMFC_DLL@_WV?$ChTraitsCRT@_W@ATL@@@@@ATL@@@std@@@std@@@std@@PAX@2@I@Z 10095620 f i Sqlite.obj
 0002:00043680       ?deallocate@?$allocator@U?$_Tree_node@U?$pair@$$CBV?$CStringT@_WV?$StrTraitMFC_DLL@_WV?$ChTraitsCRT@_W@ATL@@@@@ATL@@V?$vector@V?$CStringT@_WV?$StrTraitMFC_DLL@_WV?$ChTraitsCRT@_W@ATL@@@@@ATL@@V?$allocator@V?$CStringT@_WV?$StrTraitMFC_DLL@_WV?$ChTraitsCRT@_W@ATL@@@@@ATL@@@std@@@std@@@std@@PAX@std@@@std@@QAEXPAU?$_Tree_node@U?$pair@$$CBV?$CStringT@_WV?$StrTraitMFC_DLL@_WV?$ChTraitsCRT@_W@ATL@@@@@ATL@@V?$vector@V?$CStringT@_WV?$StrTraitMFC_DLL@_WV?$ChTraitsCRT@_W@ATL@@@@@ATL@@V?$allocator@V?$CStringT@_WV?$StrTraitMFC_DLL@_WV?$ChTraitsCRT@_W@ATL@@@@@ATL@@@std@@@std@@@std@@PAX@2@I@Z 10095680 f i Sqlite.obj
 0002:000436e0       ?end@?$vector@V?$CStringT@_WV?$StrTraitMFC_DLL@_WV?$ChTraitsCRT@_W@ATL@@@@@ATL@@V?$allocator@V?$CStringT@_WV?$StrTraitMFC_DLL@_WV?$ChTraitsCRT@_W@ATL@@@@@ATL@@@std@@@std@@QBE?AV?$_Vector_const_iterator@V?$_Vector_val@U?$_Simple_types@V?$CStringT@_WV?$StrTraitMFC_DLL@_WV?$ChTraitsCRT@_W@ATL@@@@@ATL@@@std@@@std@@@2@XZ 100956e0 f i Sqlite.obj
 0002:00043750       ?errorCode@CppSqlite3Exception@@QAE?BHXZ 10095750 f i Sqlite.obj
 0002:00043790       ?errorMessage@CppSqlite3Exception@@QAEPB_WXZ 10095790 f i Sqlite.obj
 0002:000437d0       ?max_size@?$_Tree@V?$_Tmap_traits@V?$CStringT@_WV?$StrTraitMFC_DLL@_WV?$ChTraitsCRT@_W@ATL@@@@@ATL@@V?$vector@V?$CStringT@_WV?$StrTraitMFC_DLL@_WV?$ChTraitsCRT@_W@ATL@@@@@ATL@@V?$allocator@V?$CStringT@_WV?$StrTraitMFC_DLL@_WV?$ChTraitsCRT@_W@ATL@@@@@ATL@@@std@@@std@@U?$less@V?$CStringT@_WV?$StrTraitMFC_DLL@_WV?$ChTraitsCRT@_W@ATL@@@@@ATL@@@4@V?$allocator@U?$pair@$$CBV?$CStringT@_WV?$StrTraitMFC_DLL@_WV?$ChTraitsCRT@_W@ATL@@@@@ATL@@V?$vector@V?$CStringT@_WV?$StrTraitMFC_DLL@_WV?$ChTraitsCRT@_W@ATL@@@@@ATL@@V?$allocator@V?$CStringT@_WV?$StrTraitMFC_DLL@_WV?$ChTraitsCRT@_W@ATL@@@@@ATL@@@std@@@std@@@std@@@4@$0A@@std@@@std@@QBEIXZ 100957d0 f i Sqlite.obj
 0002:00043830       ?max_size@?$_Wrap_alloc@V?$allocator@U?$_Tree_node@U?$pair@$$CBV?$CStringT@_WV?$StrTraitMFC_DLL@_WV?$ChTraitsCRT@_W@ATL@@@@@ATL@@V?$vector@V?$CStringT@_WV?$StrTraitMFC_DLL@_WV?$ChTraitsCRT@_W@ATL@@@@@ATL@@V?$allocator@V?$CStringT@_WV?$StrTraitMFC_DLL@_WV?$ChTraitsCRT@_W@ATL@@@@@ATL@@@std@@@std@@@std@@PAX@std@@@std@@@std@@QBEIXZ 10095830 f i Sqlite.obj
 0002:00043890       ?max_size@?$allocator@U?$_Tree_node@U?$pair@$$CBV?$CStringT@_WV?$StrTraitMFC_DLL@_WV?$ChTraitsCRT@_W@ATL@@@@@ATL@@V?$vector@V?$CStringT@_WV?$StrTraitMFC_DLL@_WV?$ChTraitsCRT@_W@ATL@@@@@ATL@@V?$allocator@V?$CStringT@_WV?$StrTraitMFC_DLL@_WV?$ChTraitsCRT@_W@ATL@@@@@ATL@@@std@@@std@@@std@@PAX@std@@@std@@QBEIXZ 10095890 f i Sqlite.obj
 0002:000438d0       ?max_size@?$allocator_traits@V?$allocator@U?$_Tree_node@U?$pair@$$CBV?$CStringT@_WV?$StrTraitMFC_DLL@_WV?$ChTraitsCRT@_W@ATL@@@@@ATL@@V?$vector@V?$CStringT@_WV?$StrTraitMFC_DLL@_WV?$ChTraitsCRT@_W@ATL@@@@@ATL@@V?$allocator@V?$CStringT@_WV?$StrTraitMFC_DLL@_WV?$ChTraitsCRT@_W@ATL@@@@@ATL@@@std@@@std@@@std@@PAX@std@@@std@@@std@@SAIABV?$allocator@U?$_Tree_node@U?$pair@$$CBV?$CStringT@_WV?$StrTraitMFC_DLL@_WV?$ChTraitsCRT@_W@ATL@@@@@ATL@@V?$vector@V?$CStringT@_WV?$StrTraitMFC_DLL@_WV?$ChTraitsCRT@_W@ATL@@@@@ATL@@V?$allocator@V?$CStringT@_WV?$StrTraitMFC_DLL@_WV?$ChTraitsCRT@_W@ATL@@@@@ATL@@@std@@@std@@@std@@PAX@std@@@2@@Z 100958d0 f i Sqlite.obj
 0002:00043920       ?select_on_container_copy_construction@?$_Wrap_alloc@V?$allocator@V?$CStringT@_WV?$StrTraitMFC_DLL@_WV?$ChTraitsCRT@_W@ATL@@@@@ATL@@@std@@@std@@QBE?AU12@XZ 10095920 f i Sqlite.obj
 0002:00043990       ?select_on_container_copy_construction@?$allocator@V?$CStringT@_WV?$StrTraitMFC_DLL@_WV?$ChTraitsCRT@_W@ATL@@@@@ATL@@@std@@QBE?AV12@XZ 10095990 f i Sqlite.obj
 0002:000439f0       ?select_on_container_copy_construction@?$allocator_traits@V?$allocator@V?$CStringT@_WV?$StrTraitMFC_DLL@_WV?$ChTraitsCRT@_W@ATL@@@@@ATL@@@std@@@std@@SA?AV?$allocator@V?$CStringT@_WV?$StrTraitMFC_DLL@_WV?$ChTraitsCRT@_W@ATL@@@@@ATL@@@2@ABV32@@Z 100959f0 f i Sqlite.obj
 0002:00043a50       ??0SqliteQueryResult@baro@@AAE@PAX@Z 10095a50 f   SqliteQueryResult.obj
 0002:00043ad0       ??1SqliteQueryResult@baro@@AAE@XZ 10095ad0 f   SqliteQueryResult.obj
 0002:00043b10       ?eof@SqliteQueryResult@baro@@QAE_NXZ 10095b10 f   SqliteQueryResult.obj
 0002:00043b70       ?fieldDataType@SqliteQueryResult@baro@@QAEHH@Z 10095b70 f   SqliteQueryResult.obj
 0002:00043bd0       ?fieldDeclType@SqliteQueryResult@baro@@QAEPB_WH@Z 10095bd0 f   SqliteQueryResult.obj
 0002:00043c30       ?fieldIndex@SqliteQueryResult@baro@@QAEHPB_W@Z 10095c30 f   SqliteQueryResult.obj
 0002:00043c90       ?fieldIsNull@SqliteQueryResult@baro@@QAE_NH@Z 10095c90 f   SqliteQueryResult.obj
 0002:00043cf0       ?fieldIsNull@SqliteQueryResult@baro@@QAE_NPB_W@Z 10095cf0 f   SqliteQueryResult.obj
 0002:00043d50       ?fieldName@SqliteQueryResult@baro@@QAEPB_WH@Z 10095d50 f   SqliteQueryResult.obj
 0002:00043db0       ?fieldValue@SqliteQueryResult@baro@@QAEPB_WH@Z 10095db0 f   SqliteQueryResult.obj
 0002:00043e10       ?fieldValue@SqliteQueryResult@baro@@QAEPB_WPB_W@Z 10095e10 f   SqliteQueryResult.obj
 0002:00043e70       ?finalize@SqliteQueryResult@baro@@QAEXXZ 10095e70 f   SqliteQueryResult.obj
 0002:00043ed0       ?getBlobField@SqliteQueryResult@baro@@QAEPBEHAAH@Z 10095ed0 f   SqliteQueryResult.obj
 0002:00043f30       ?getBlobField@SqliteQueryResult@baro@@QAEPBEPB_WAAH@Z 10095f30 f   SqliteQueryResult.obj
 0002:00043f90       ?getFloatField@SqliteQueryResult@baro@@QAENHN@Z 10095f90 f   SqliteQueryResult.obj
 0002:00044000       ?getFloatField@SqliteQueryResult@baro@@QAENPB_WN@Z 10096000 f   SqliteQueryResult.obj
 0002:00044070       ?getIntField@SqliteQueryResult@baro@@QAEHHH@Z 10096070 f   SqliteQueryResult.obj
 0002:000440d0       ?getIntField@SqliteQueryResult@baro@@QAEHPB_WH@Z 100960d0 f   SqliteQueryResult.obj
 0002:00044130       ?getStringField@SqliteQueryResult@baro@@QAEPB_WHPB_W@Z 10096130 f   SqliteQueryResult.obj
 0002:00044190       ?getStringField@SqliteQueryResult@baro@@QAEPB_WPB_W0@Z 10096190 f   SqliteQueryResult.obj
 0002:000441f0       ?nextRow@SqliteQueryResult@baro@@QAEXXZ 100961f0 f   SqliteQueryResult.obj
 0002:00044250       ?numFields@SqliteQueryResult@baro@@QAEHXZ 10096250 f   SqliteQueryResult.obj
 0002:000442b0       ?_GetBaseClass@MsgThread@baro@@KGPAUCRuntimeClass@@XZ 100962b0 f   MsgThread.obj
 0002:00044300       ?CreateObject@MsgThread@baro@@SGPAVCObject@@XZ 10096300 f   MsgThread.obj
 0002:00044400       ??0MsgProcedure@helper@baro@@QAE@_N@Z 10096400 f   MsgThread.obj
 0002:000444d0       ??0MsgThread@baro@@IAE@XZ  100964d0 f   MsgThread.obj
 0002:000445b0       ??1MsgProcedure@helper@baro@@UAE@XZ 100965b0 f   MsgThread.obj
 0002:00044640       ??1MsgThread@baro@@UAE@XZ  10096640 f   MsgThread.obj
 0002:00044730       ??_EMsgProcedure@helper@baro@@UAEPAXI@Z 10096730 f i MsgThread.obj
 0002:000447f0       ??_EMsgThread@baro@@UAEPAXI@Z 100967f0 f i MsgThread.obj
 0002:000447f0       ??_GMsgThread@baro@@UAEPAXI@Z 100967f0 f i MsgThread.obj
 0002:00044860       ?AssertValid@MsgProcedure@helper@baro@@CA_NPAV123@PAUHWND__@@@Z 10096860 f   MsgThread.obj
 0002:00044990       ?CreateInstance@MsgProcedure@helper@baro@@QAE_NH@Z 10096990 f   MsgThread.obj
 0002:00044e90       ?ExitInstance@MsgThread@baro@@UAEHXZ 10096e90 f   MsgThread.obj
 0002:00044f30       ?GetMessageMap@MsgThread@baro@@MBEPBUAFX_MSGMAP@@XZ 10096f30 f   MsgThread.obj
 0002:00044f80       ?GetProcHwnd@MsgThread@baro@@QAEPAUHWND__@@XZ 10096f80 f   MsgThread.obj
 0002:00044fc0       ?GetRuntimeClass@MsgThread@baro@@UBEPAUCRuntimeClass@@XZ 10096fc0 f   MsgThread.obj
 0002:00045000       ?GetThisClass@MsgThread@baro@@SGPAUCRuntimeClass@@XZ 10097000 f   MsgThread.obj
 0002:00045040       ?GetThisMessageMap@MsgThread@baro@@KGPBUAFX_MSGMAP@@XZ 10097040 f   MsgThread.obj
 0002:00045080       ?GetThreadHandle@MsgProcedure@helper@baro@@QAEPAXXZ 10097080 f   MsgThread.obj
 0002:000450c0       ?GetThreadID@MsgProcedure@helper@baro@@QAEKXZ 100970c0 f   MsgThread.obj
 0002:00045150       ?GetWindowHwnd@MsgProcedure@helper@baro@@QAEPAUHWND__@@XZ 10097150 f   MsgThread.obj
 0002:00045190       ?InitInstance@MsgThread@baro@@UAEHXZ 10097190 f   MsgThread.obj
 0002:000452d0       ?IsInitialize@MsgThread@baro@@QAE_NXZ 100972d0 f   MsgThread.obj
 0002:00045310       ?OnCreateInstance@MsgProcedure@helper@baro@@EAEXXZ 10097310 f i MsgThread.obj
 0002:00045350       ?OnDisposalMessage@MsgProcedure@helper@baro@@EAEXAAUtagMSG@@@Z 10097350 f i MsgThread.obj
 0002:00045390       ?OnIdle@MsgThread@baro@@UAEHJ@Z 10097390 f   MsgThread.obj
 0002:000453d0       ?OnPreDestoryProcWindow@MsgProcedure@helper@baro@@EAEXXZ 100973d0 f i MsgThread.obj
 0002:00045410       ?OnReleaseInstance@MsgProcedure@helper@baro@@EAEXXZ 10097410 f i MsgThread.obj
 0002:00045450       ?PostThreadMessageW@MsgProcedure@helper@baro@@QAEHIIJ@Z 10097450 f   MsgThread.obj
 0002:000454f0       ?PostWndMessage@MsgProcedure@helper@baro@@QAEHIIJ@Z 100974f0 f   MsgThread.obj
 0002:000455a0       ?ReleaseInstance@MsgProcedure@helper@baro@@QAEXXZ 100975a0 f   MsgThread.obj
 0002:00045ae0       ?SendWndMessage@MsgProcedure@helper@baro@@QAEJIIJ@Z 10097ae0 f   MsgThread.obj
 0002:00045ba0       ?UpdateNetState@MsgProcedure@helper@baro@@QAE_NXZ 10097ba0 f   MsgThread.obj
 0002:00045ef0       ?WndProc@MsgProcedure@helper@baro@@CGJPAUHWND__@@IIJ@Z 10097ef0 f   MsgThread.obj
 0002:000460f0       ?__autoclassinit2@AutoLock@baro@@QAEXI@Z 100980f0 f i MsgThread.obj
 0002:00046150       ?__autoclassinit2@MsgThread@baro@@QAEXI@Z 10098150 f i MsgThread.obj
 0002:000461b0       ??$?0AAU?$_Callable_obj@V<lambda_8cdfe22e261dd2f2e11bbbe8ad79dd69>@@$0A@@std@@@?$_Callable_obj@V<lambda_8cdfe22e261dd2f2e11bbbe8ad79dd69>@@$0A@@std@@QAE@AAU01@@Z 100981b0 f i Stream.obj
 0002:00046230       ??$?0AAU?$_Callable_obj@V<lambda_a244cdd0ad76413c27f4c49d64c8d042>@@$0A@@std@@@?$_Callable_obj@V<lambda_a244cdd0ad76413c27f4c49d64c8d042>@@$0A@@std@@QAE@AAU01@@Z 10098230 f i Stream.obj
 0002:000462b0       ??$?0AAU?$_Callable_obj@V<lambda_bbe7db543262a53344bc92964eb41292>@@$0A@@std@@@?$_Callable_obj@V<lambda_bbe7db543262a53344bc92964eb41292>@@$0A@@std@@QAE@AAU01@@Z 100982b0 f i Stream.obj
 0002:00046320       ??$?0U?$_Callable_obj@V<lambda_8cdfe22e261dd2f2e11bbbe8ad79dd69>@@$0A@@std@@@?$_Callable_obj@V<lambda_8cdfe22e261dd2f2e11bbbe8ad79dd69>@@$0A@@std@@QAE@$$QAU01@@Z 10098320 f i Stream.obj
 0002:000463a0       ??$?0U?$_Callable_obj@V<lambda_a244cdd0ad76413c27f4c49d64c8d042>@@$0A@@std@@@?$_Callable_obj@V<lambda_a244cdd0ad76413c27f4c49d64c8d042>@@$0A@@std@@QAE@$$QAU01@@Z 100983a0 f i Stream.obj
 0002:00046420       ??$?0U?$_Callable_obj@V<lambda_bbe7db543262a53344bc92964eb41292>@@$0A@@std@@@?$_Callable_obj@V<lambda_bbe7db543262a53344bc92964eb41292>@@$0A@@std@@QAE@$$QAU01@@Z 10098420 f i Stream.obj
 0002:00046490       ??$?0V<lambda_8cdfe22e261dd2f2e11bbbe8ad79dd69>@@@?$_Callable_obj@V<lambda_8cdfe22e261dd2f2e11bbbe8ad79dd69>@@$0A@@std@@QAE@$$QAV<lambda_8cdfe22e261dd2f2e11bbbe8ad79dd69>@@@Z 10098490 f i Stream.obj
 0002:00046500       ??$?0V<lambda_8cdfe22e261dd2f2e11bbbe8ad79dd69>@@@?$function@$$A6A_NAAVCFile@@@Z@std@@QAE@$$QAV<lambda_8cdfe22e261dd2f2e11bbbe8ad79dd69>@@@Z 10098500 f i Stream.obj
 0002:000465c0       ??$?0V<lambda_a244cdd0ad76413c27f4c49d64c8d042>@@@?$_Callable_obj@V<lambda_a244cdd0ad76413c27f4c49d64c8d042>@@$0A@@std@@QAE@$$QAV<lambda_a244cdd0ad76413c27f4c49d64c8d042>@@@Z 100985c0 f i Stream.obj
 0002:00046630       ??$?0V<lambda_a244cdd0ad76413c27f4c49d64c8d042>@@@?$function@$$A6A_NAAVCFile@@@Z@std@@QAE@$$QAV<lambda_a244cdd0ad76413c27f4c49d64c8d042>@@@Z 10098630 f i Stream.obj
 0002:000466f0       ??$?0V<lambda_bbe7db543262a53344bc92964eb41292>@@@?$_Callable_obj@V<lambda_bbe7db543262a53344bc92964eb41292>@@$0A@@std@@QAE@$$QAV<lambda_bbe7db543262a53344bc92964eb41292>@@@Z 100986f0 f i Stream.obj
 0002:00046760       ??$?0V<lambda_bbe7db543262a53344bc92964eb41292>@@@?$function@$$A6A_NAAVCFile@@@Z@std@@QAE@$$QAV<lambda_bbe7db543262a53344bc92964eb41292>@@@Z 10098760 f i Stream.obj
 0002:00046820       ??$?0V?$_Func_class@_NAAVCFile@@@std@@@?$allocator@V?$_Func_impl@U?$_Callable_obj@V<lambda_8cdfe22e261dd2f2e11bbbe8ad79dd69>@@$0A@@std@@V?$allocator@V?$_Func_class@_NAAVCFile@@@std@@@2@_NAAVCFile@@@std@@@std@@QAE@ABV?$allocator@V?$_Func_class@_NAAVCFile@@@std@@@1@@Z 10098820 f i Stream.obj
 0002:00046860       ??$?0V?$_Func_class@_NAAVCFile@@@std@@@?$allocator@V?$_Func_impl@U?$_Callable_obj@V<lambda_a244cdd0ad76413c27f4c49d64c8d042>@@$0A@@std@@V?$allocator@V?$_Func_class@_NAAVCFile@@@std@@@2@_NAAVCFile@@@std@@@std@@QAE@ABV?$allocator@V?$_Func_class@_NAAVCFile@@@std@@@1@@Z 10098860 f i Stream.obj
 0002:000468a0       ??$?0V?$_Func_class@_NAAVCFile@@@std@@@?$allocator@V?$_Func_impl@U?$_Callable_obj@V<lambda_bbe7db543262a53344bc92964eb41292>@@$0A@@std@@V?$allocator@V?$_Func_class@_NAAVCFile@@@std@@@2@_NAAVCFile@@@std@@@std@@QAE@ABV?$allocator@V?$_Func_class@_NAAVCFile@@@std@@@1@@Z 100988a0 f i Stream.obj
 0002:000468e0       ??$_Allocate@V?$_Func_impl@U?$_Callable_obj@V<lambda_8cdfe22e261dd2f2e11bbbe8ad79dd69>@@$0A@@std@@V?$allocator@V?$_Func_class@_NAAVCFile@@@std@@@2@_NAAVCFile@@@std@@@std@@YAPAV?$_Func_impl@U?$_Callable_obj@V<lambda_8cdfe22e261dd2f2e11bbbe8ad79dd69>@@$0A@@std@@V?$allocator@V?$_Func_class@_NAAVCFile@@@std@@@2@_NAAVCFile@@@0@IPAV10@@Z 100988e0 f i Stream.obj
 0002:00046970       ??$_Allocate@V?$_Func_impl@U?$_Callable_obj@V<lambda_a244cdd0ad76413c27f4c49d64c8d042>@@$0A@@std@@V?$allocator@V?$_Func_class@_NAAVCFile@@@std@@@2@_NAAVCFile@@@std@@@std@@YAPAV?$_Func_impl@U?$_Callable_obj@V<lambda_a244cdd0ad76413c27f4c49d64c8d042>@@$0A@@std@@V?$allocator@V?$_Func_class@_NAAVCFile@@@std@@@2@_NAAVCFile@@@0@IPAV10@@Z 10098970 f i Stream.obj
 0002:00046a00       ??$_Allocate@V?$_Func_impl@U?$_Callable_obj@V<lambda_bbe7db543262a53344bc92964eb41292>@@$0A@@std@@V?$allocator@V?$_Func_class@_NAAVCFile@@@std@@@2@_NAAVCFile@@@std@@@std@@YAPAV?$_Func_impl@U?$_Callable_obj@V<lambda_bbe7db543262a53344bc92964eb41292>@@$0A@@std@@V?$allocator@V?$_Func_class@_NAAVCFile@@@std@@@2@_NAAVCFile@@@0@IPAV10@@Z 10098a00 f i Stream.obj
 0002:00046aa0       ??$_ApplyX@_NAAVCFile@@@?$_Callable_obj@V<lambda_8cdfe22e261dd2f2e11bbbe8ad79dd69>@@$0A@@std@@QAE_NAAVCFile@@@Z 10098aa0 f i Stream.obj
 0002:00046b10       ??$_ApplyX@_NAAVCFile@@@?$_Callable_obj@V<lambda_a244cdd0ad76413c27f4c49d64c8d042>@@$0A@@std@@QAE_NAAVCFile@@@Z 10098b10 f i Stream.obj
 0002:00046b80       ??$_ApplyX@_NAAVCFile@@@?$_Callable_obj@V<lambda_bbe7db543262a53344bc92964eb41292>@@$0A@@std@@QAE_NAAVCFile@@@Z 10098b80 f i Stream.obj
 0002:00046bf0       ??$_Do_alloc@V?$_Func_impl@U?$_Callable_obj@V<lambda_8cdfe22e261dd2f2e11bbbe8ad79dd69>@@$0A@@std@@V?$allocator@V?$_Func_class@_NAAVCFile@@@std@@@2@_NAAVCFile@@@std@@V<lambda_8cdfe22e261dd2f2e11bbbe8ad79dd69>@@V?$allocator@V?$_Func_class@_NAAVCFile@@@std@@@2@@?$_Func_class@_NAAVCFile@@@std@@AAEX$$QAV<lambda_8cdfe22e261dd2f2e11bbbe8ad79dd69>@@V?$allocator@V?$_Func_class@_NAAVCFile@@@std@@@1@@Z 10098bf0 f i Stream.obj
 0002:00046e60       ??$_Do_alloc@V?$_Func_impl@U?$_Callable_obj@V<lambda_a244cdd0ad76413c27f4c49d64c8d042>@@$0A@@std@@V?$allocator@V?$_Func_class@_NAAVCFile@@@std@@@2@_NAAVCFile@@@std@@V<lambda_a244cdd0ad76413c27f4c49d64c8d042>@@V?$allocator@V?$_Func_class@_NAAVCFile@@@std@@@2@@?$_Func_class@_NAAVCFile@@@std@@AAEX$$QAV<lambda_a244cdd0ad76413c27f4c49d64c8d042>@@V?$allocator@V?$_Func_class@_NAAVCFile@@@std@@@1@@Z 10098e60 f i Stream.obj
 0002:000470d0       ??$_Do_alloc@V?$_Func_impl@U?$_Callable_obj@V<lambda_bbe7db543262a53344bc92964eb41292>@@$0A@@std@@V?$allocator@V?$_Func_class@_NAAVCFile@@@std@@@2@_NAAVCFile@@@std@@V<lambda_bbe7db543262a53344bc92964eb41292>@@V?$allocator@V?$_Func_class@_NAAVCFile@@@std@@@2@@?$_Func_class@_NAAVCFile@@@std@@AAEX$$QAV<lambda_bbe7db543262a53344bc92964eb41292>@@V?$allocator@V?$_Func_class@_NAAVCFile@@@std@@@1@@Z 100990d0 f i Stream.obj
 0002:00047340       ??$_Reset@V<lambda_8cdfe22e261dd2f2e11bbbe8ad79dd69>@@@?$_Func_class@_NAAVCFile@@@std@@IAEX$$QAV<lambda_8cdfe22e261dd2f2e11bbbe8ad79dd69>@@@Z 10099340 f i Stream.obj
 0002:000473b0       ??$_Reset@V<lambda_a244cdd0ad76413c27f4c49d64c8d042>@@@?$_Func_class@_NAAVCFile@@@std@@IAEX$$QAV<lambda_a244cdd0ad76413c27f4c49d64c8d042>@@@Z 100993b0 f i Stream.obj
 0002:00047420       ??$_Reset@V<lambda_bbe7db543262a53344bc92964eb41292>@@@?$_Func_class@_NAAVCFile@@@std@@IAEX$$QAV<lambda_bbe7db543262a53344bc92964eb41292>@@@Z 10099420 f i Stream.obj
 0002:00047490       ??$_Reset@VCryptHandle@baro@@@?$_Ptr_base@VCryptHandle@baro@@@std@@QAEXABV01@@Z 10099490 f i Stream.obj
 0002:00047500       ??$_Reset_alloc@V<lambda_8cdfe22e261dd2f2e11bbbe8ad79dd69>@@V?$allocator@V?$_Func_class@_NAAVCFile@@@std@@@std@@@?$_Func_class@_NAAVCFile@@@std@@IAEX$$QAV<lambda_8cdfe22e261dd2f2e11bbbe8ad79dd69>@@V?$allocator@V?$_Func_class@_NAAVCFile@@@std@@@1@@Z 10099500 f i Stream.obj
 0002:00047570       ??$_Reset_alloc@V<lambda_a244cdd0ad76413c27f4c49d64c8d042>@@V?$allocator@V?$_Func_class@_NAAVCFile@@@std@@@std@@@?$_Func_class@_NAAVCFile@@@std@@IAEX$$QAV<lambda_a244cdd0ad76413c27f4c49d64c8d042>@@V?$allocator@V?$_Func_class@_NAAVCFile@@@std@@@1@@Z 10099570 f i Stream.obj
 0002:000475e0       ??$_Reset_alloc@V<lambda_bbe7db543262a53344bc92964eb41292>@@V?$allocator@V?$_Func_class@_NAAVCFile@@@std@@@std@@@?$_Func_class@_NAAVCFile@@@std@@IAEX$$QAV<lambda_bbe7db543262a53344bc92964eb41292>@@V?$allocator@V?$_Func_class@_NAAVCFile@@@std@@@1@@Z 100995e0 f i Stream.obj
 0002:00047650       ??$_Test_callable@V<lambda_8cdfe22e261dd2f2e11bbbe8ad79dd69>@@@std@@YA_NAAV<lambda_8cdfe22e261dd2f2e11bbbe8ad79dd69>@@@Z 10099650 f i Stream.obj
 0002:000476b0       ??$_Test_callable@V<lambda_8cdfe22e261dd2f2e11bbbe8ad79dd69>@@@std@@YA_NAAV<lambda_8cdfe22e261dd2f2e11bbbe8ad79dd69>@@U?$integral_constant@_N$0A@@0@@Z 100996b0 f i Stream.obj
 0002:000476e0       ??$_Test_callable@V<lambda_a244cdd0ad76413c27f4c49d64c8d042>@@@std@@YA_NAAV<lambda_a244cdd0ad76413c27f4c49d64c8d042>@@@Z 100996e0 f i Stream.obj
 0002:00047740       ??$_Test_callable@V<lambda_a244cdd0ad76413c27f4c49d64c8d042>@@@std@@YA_NAAV<lambda_a244cdd0ad76413c27f4c49d64c8d042>@@U?$integral_constant@_N$0A@@0@@Z 10099740 f i Stream.obj
 0002:00047770       ??$_Test_callable@V<lambda_bbe7db543262a53344bc92964eb41292>@@@std@@YA_NAAV<lambda_bbe7db543262a53344bc92964eb41292>@@@Z 10099770 f i Stream.obj
 0002:000477d0       ??$_Test_callable@V<lambda_bbe7db543262a53344bc92964eb41292>@@@std@@YA_NAAV<lambda_bbe7db543262a53344bc92964eb41292>@@U?$integral_constant@_N$0A@@0@@Z 100997d0 f i Stream.obj
 0002:00047800       ??$destroy@V?$_Func_impl@U?$_Callable_obj@V<lambda_8cdfe22e261dd2f2e11bbbe8ad79dd69>@@$0A@@std@@V?$allocator@V?$_Func_class@_NAAVCFile@@@std@@@2@_NAAVCFile@@@std@@@?$allocator@V?$_Func_impl@U?$_Callable_obj@V<lambda_8cdfe22e261dd2f2e11bbbe8ad79dd69>@@$0A@@std@@V?$allocator@V?$_Func_class@_NAAVCFile@@@std@@@2@_NAAVCFile@@@std@@@std@@QAEXPAV?$_Func_impl@U?$_Callable_obj@V<lambda_8cdfe22e261dd2f2e11bbbe8ad79dd69>@@$0A@@std@@V?$allocator@V?$_Func_class@_NAAVCFile@@@std@@@2@_NAAVCFile@@@1@@Z 10099800 f i Stream.obj
 0002:00047870       ??$destroy@V?$_Func_impl@U?$_Callable_obj@V<lambda_a244cdd0ad76413c27f4c49d64c8d042>@@$0A@@std@@V?$allocator@V?$_Func_class@_NAAVCFile@@@std@@@2@_NAAVCFile@@@std@@@?$allocator@V?$_Func_impl@U?$_Callable_obj@V<lambda_a244cdd0ad76413c27f4c49d64c8d042>@@$0A@@std@@V?$allocator@V?$_Func_class@_NAAVCFile@@@std@@@2@_NAAVCFile@@@std@@@std@@QAEXPAV?$_Func_impl@U?$_Callable_obj@V<lambda_a244cdd0ad76413c27f4c49d64c8d042>@@$0A@@std@@V?$allocator@V?$_Func_class@_NAAVCFile@@@std@@@2@_NAAVCFile@@@1@@Z 10099870 f i Stream.obj
 0002:000478e0       ??$destroy@V?$_Func_impl@U?$_Callable_obj@V<lambda_bbe7db543262a53344bc92964eb41292>@@$0A@@std@@V?$allocator@V?$_Func_class@_NAAVCFile@@@std@@@2@_NAAVCFile@@@std@@@?$allocator@V?$_Func_impl@U?$_Callable_obj@V<lambda_bbe7db543262a53344bc92964eb41292>@@$0A@@std@@V?$allocator@V?$_Func_class@_NAAVCFile@@@std@@@2@_NAAVCFile@@@std@@@std@@QAEXPAV?$_Func_impl@U?$_Callable_obj@V<lambda_bbe7db543262a53344bc92964eb41292>@@$0A@@std@@V?$allocator@V?$_Func_class@_NAAVCFile@@@std@@@2@_NAAVCFile@@@1@@Z 100998e0 f i Stream.obj
 0002:00047950       ??$forward@AAU?$_Callable_obj@V<lambda_8cdfe22e261dd2f2e11bbbe8ad79dd69>@@$0A@@std@@@std@@YAAAU?$_Callable_obj@V<lambda_8cdfe22e261dd2f2e11bbbe8ad79dd69>@@$0A@@0@AAU10@@Z 10099950 f i Stream.obj
 0002:00047990       ??$forward@AAU?$_Callable_obj@V<lambda_a244cdd0ad76413c27f4c49d64c8d042>@@$0A@@std@@@std@@YAAAU?$_Callable_obj@V<lambda_a244cdd0ad76413c27f4c49d64c8d042>@@$0A@@0@AAU10@@Z 10099990 f i Stream.obj
 0002:000479d0       ??$forward@AAU?$_Callable_obj@V<lambda_bbe7db543262a53344bc92964eb41292>@@$0A@@std@@@std@@YAAAU?$_Callable_obj@V<lambda_bbe7db543262a53344bc92964eb41292>@@$0A@@0@AAU10@@Z 100999d0 f i Stream.obj
 0002:00047a10       ??$forward@U?$_Callable_obj@V<lambda_8cdfe22e261dd2f2e11bbbe8ad79dd69>@@$0A@@std@@@std@@YA$$QAU?$_Callable_obj@V<lambda_8cdfe22e261dd2f2e11bbbe8ad79dd69>@@$0A@@0@AAU10@@Z 10099a10 f i Stream.obj
 0002:00047a50       ??$forward@U?$_Callable_obj@V<lambda_a244cdd0ad76413c27f4c49d64c8d042>@@$0A@@std@@@std@@YA$$QAU?$_Callable_obj@V<lambda_a244cdd0ad76413c27f4c49d64c8d042>@@$0A@@0@AAU10@@Z 10099a50 f i Stream.obj
 0002:00047a90       ??$forward@U?$_Callable_obj@V<lambda_bbe7db543262a53344bc92964eb41292>@@$0A@@std@@@std@@YA$$QAU?$_Callable_obj@V<lambda_bbe7db543262a53344bc92964eb41292>@@$0A@@0@AAU10@@Z 10099a90 f i Stream.obj
 0002:00047ad0       ??$forward@V<lambda_8cdfe22e261dd2f2e11bbbe8ad79dd69>@@@std@@YA$$QAV<lambda_8cdfe22e261dd2f2e11bbbe8ad79dd69>@@AAV1@@Z 10099ad0 f i Stream.obj
 0002:00047b10       ??$forward@V<lambda_a244cdd0ad76413c27f4c49d64c8d042>@@@std@@YA$$QAV<lambda_a244cdd0ad76413c27f4c49d64c8d042>@@AAV1@@Z 10099b10 f i Stream.obj
 0002:00047b50       ??$forward@V<lambda_bbe7db543262a53344bc92964eb41292>@@@std@@YA$$QAV<lambda_bbe7db543262a53344bc92964eb41292>@@AAV1@@Z 10099b50 f i Stream.obj
 0002:00047b90       ??$move@AAV?$_Func_impl@U?$_Callable_obj@V<lambda_8cdfe22e261dd2f2e11bbbe8ad79dd69>@@$0A@@std@@V?$allocator@V?$_Func_class@_NAAVCFile@@@std@@@2@_NAAVCFile@@@std@@@std@@YA$$QAV?$_Func_impl@U?$_Callable_obj@V<lambda_8cdfe22e261dd2f2e11bbbe8ad79dd69>@@$0A@@std@@V?$allocator@V?$_Func_class@_NAAVCFile@@@std@@@2@_NAAVCFile@@@0@AAV10@@Z 10099b90 f i Stream.obj
 0002:00047bd0       ??$move@AAV?$_Func_impl@U?$_Callable_obj@V<lambda_a244cdd0ad76413c27f4c49d64c8d042>@@$0A@@std@@V?$allocator@V?$_Func_class@_NAAVCFile@@@std@@@2@_NAAVCFile@@@std@@@std@@YA$$QAV?$_Func_impl@U?$_Callable_obj@V<lambda_a244cdd0ad76413c27f4c49d64c8d042>@@$0A@@std@@V?$allocator@V?$_Func_class@_NAAVCFile@@@std@@@2@_NAAVCFile@@@0@AAV10@@Z 10099bd0 f i Stream.obj
 0002:00047c10       ??$move@AAV?$_Func_impl@U?$_Callable_obj@V<lambda_bbe7db543262a53344bc92964eb41292>@@$0A@@std@@V?$allocator@V?$_Func_class@_NAAVCFile@@@std@@@2@_NAAVCFile@@@std@@@std@@YA$$QAV?$_Func_impl@U?$_Callable_obj@V<lambda_bbe7db543262a53344bc92964eb41292>@@$0A@@std@@V?$allocator@V?$_Func_class@_NAAVCFile@@@std@@@2@_NAAVCFile@@@0@AAV10@@Z 10099c10 f i Stream.obj
 0002:00047e10       ??0?$TBuffer@E@baro@@QAE@I@Z 10099e10 f i Stream.obj
 0002:00047ea0       ??0?$TBuffer@_W@baro@@QAE@XZ 10099ea0 f i Stream.obj
 0002:00047f30       ??0?$_Callable_base@V<lambda_8cdfe22e261dd2f2e11bbbe8ad79dd69>@@$0A@@std@@QAE@ABV<lambda_8cdfe22e261dd2f2e11bbbe8ad79dd69>@@@Z 10099f30 f i Stream.obj
 0002:00047f90       ??0?$_Callable_base@V<lambda_a244cdd0ad76413c27f4c49d64c8d042>@@$0A@@std@@QAE@ABV<lambda_a244cdd0ad76413c27f4c49d64c8d042>@@@Z 10099f90 f i Stream.obj
 0002:00047ff0       ??0?$_Callable_base@V<lambda_bbe7db543262a53344bc92964eb41292>@@$0A@@std@@QAE@ABV<lambda_bbe7db543262a53344bc92964eb41292>@@@Z 10099ff0 f i Stream.obj
 0002:00048040       ??0?$_Func_base@_NAAVCFile@@@std@@QAE@XZ 1009a040 f i Stream.obj
 0002:00048090       ??0?$_Func_impl@U?$_Callable_obj@V<lambda_8cdfe22e261dd2f2e11bbbe8ad79dd69>@@$0A@@std@@V?$allocator@V?$_Func_class@_NAAVCFile@@@std@@@2@_NAAVCFile@@@std@@QAE@$$QAV01@@Z 1009a090 f i Stream.obj
 0002:00048170       ??0?$_Func_impl@U?$_Callable_obj@V<lambda_8cdfe22e261dd2f2e11bbbe8ad79dd69>@@$0A@@std@@V?$allocator@V?$_Func_class@_NAAVCFile@@@std@@@2@_NAAVCFile@@@std@@QAE@$$QAV<lambda_8cdfe22e261dd2f2e11bbbe8ad79dd69>@@ABV?$allocator@V?$_Func_impl@U?$_Callable_obj@V<lambda_8cdfe22e261dd2f2e11bbbe8ad79dd69>@@$0A@@std@@V?$allocator@V?$_Func_class@_NAAVCFile@@@std@@@2@_NAAVCFile@@@std@@@1@@Z 1009a170 f i Stream.obj
 0002:00048250       ??0?$_Func_impl@U?$_Callable_obj@V<lambda_8cdfe22e261dd2f2e11bbbe8ad79dd69>@@$0A@@std@@V?$allocator@V?$_Func_class@_NAAVCFile@@@std@@@2@_NAAVCFile@@@std@@QAE@AAV01@@Z 1009a250 f i Stream.obj
 0002:00048330       ??0?$_Func_impl@U?$_Callable_obj@V<lambda_a244cdd0ad76413c27f4c49d64c8d042>@@$0A@@std@@V?$allocator@V?$_Func_class@_NAAVCFile@@@std@@@2@_NAAVCFile@@@std@@QAE@$$QAV01@@Z 1009a330 f i Stream.obj
 0002:00048410       ??0?$_Func_impl@U?$_Callable_obj@V<lambda_a244cdd0ad76413c27f4c49d64c8d042>@@$0A@@std@@V?$allocator@V?$_Func_class@_NAAVCFile@@@std@@@2@_NAAVCFile@@@std@@QAE@$$QAV<lambda_a244cdd0ad76413c27f4c49d64c8d042>@@ABV?$allocator@V?$_Func_impl@U?$_Callable_obj@V<lambda_a244cdd0ad76413c27f4c49d64c8d042>@@$0A@@std@@V?$allocator@V?$_Func_class@_NAAVCFile@@@std@@@2@_NAAVCFile@@@std@@@1@@Z 1009a410 f i Stream.obj
 0002:000484f0       ??0?$_Func_impl@U?$_Callable_obj@V<lambda_a244cdd0ad76413c27f4c49d64c8d042>@@$0A@@std@@V?$allocator@V?$_Func_class@_NAAVCFile@@@std@@@2@_NAAVCFile@@@std@@QAE@AAV01@@Z 1009a4f0 f i Stream.obj
 0002:000485d0       ??0?$_Func_impl@U?$_Callable_obj@V<lambda_bbe7db543262a53344bc92964eb41292>@@$0A@@std@@V?$allocator@V?$_Func_class@_NAAVCFile@@@std@@@2@_NAAVCFile@@@std@@QAE@$$QAV01@@Z 1009a5d0 f i Stream.obj
 0002:000486b0       ??0?$_Func_impl@U?$_Callable_obj@V<lambda_bbe7db543262a53344bc92964eb41292>@@$0A@@std@@V?$allocator@V?$_Func_class@_NAAVCFile@@@std@@@2@_NAAVCFile@@@std@@QAE@$$QAV<lambda_bbe7db543262a53344bc92964eb41292>@@ABV?$allocator@V?$_Func_impl@U?$_Callable_obj@V<lambda_bbe7db543262a53344bc92964eb41292>@@$0A@@std@@V?$allocator@V?$_Func_class@_NAAVCFile@@@std@@@2@_NAAVCFile@@@std@@@1@@Z 1009a6b0 f i Stream.obj
 0002:00048790       ??0?$_Func_impl@U?$_Callable_obj@V<lambda_bbe7db543262a53344bc92964eb41292>@@$0A@@std@@V?$allocator@V?$_Func_class@_NAAVCFile@@@std@@@2@_NAAVCFile@@@std@@QAE@AAV01@@Z 1009a790 f i Stream.obj
 0002:00048870       ??0?$allocator@V?$_Func_class@_NAAVCFile@@@std@@@std@@QAE@ABV01@@Z 1009a870 f i Stream.obj
 0002:000488b0       ??0?$allocator@V?$_Func_class@_NAAVCFile@@@std@@@std@@QAE@XZ 1009a8b0 f i Stream.obj
 0002:000488f0       ??0?$allocator@V?$_Func_impl@U?$_Callable_obj@V<lambda_8cdfe22e261dd2f2e11bbbe8ad79dd69>@@$0A@@std@@V?$allocator@V?$_Func_class@_NAAVCFile@@@std@@@2@_NAAVCFile@@@std@@@std@@QAE@ABV01@@Z 1009a8f0 f i Stream.obj
 0002:00048930       ??0?$allocator@V?$_Func_impl@U?$_Callable_obj@V<lambda_8cdfe22e261dd2f2e11bbbe8ad79dd69>@@$0A@@std@@V?$allocator@V?$_Func_class@_NAAVCFile@@@std@@@2@_NAAVCFile@@@std@@@std@@QAE@XZ 1009a930 f i Stream.obj
 0002:00048970       ??0?$allocator@V?$_Func_impl@U?$_Callable_obj@V<lambda_a244cdd0ad76413c27f4c49d64c8d042>@@$0A@@std@@V?$allocator@V?$_Func_class@_NAAVCFile@@@std@@@2@_NAAVCFile@@@std@@@std@@QAE@ABV01@@Z 1009a970 f i Stream.obj
 0002:000489b0       ??0?$allocator@V?$_Func_impl@U?$_Callable_obj@V<lambda_a244cdd0ad76413c27f4c49d64c8d042>@@$0A@@std@@V?$allocator@V?$_Func_class@_NAAVCFile@@@std@@@2@_NAAVCFile@@@std@@@std@@QAE@XZ 1009a9b0 f i Stream.obj
 0002:000489f0       ??0?$allocator@V?$_Func_impl@U?$_Callable_obj@V<lambda_bbe7db543262a53344bc92964eb41292>@@$0A@@std@@V?$allocator@V?$_Func_class@_NAAVCFile@@@std@@@2@_NAAVCFile@@@std@@@std@@QAE@ABV01@@Z 1009a9f0 f i Stream.obj
 0002:00048a30       ??0?$allocator@V?$_Func_impl@U?$_Callable_obj@V<lambda_bbe7db543262a53344bc92964eb41292>@@$0A@@std@@V?$allocator@V?$_Func_class@_NAAVCFile@@@std@@@2@_NAAVCFile@@@std@@@std@@QAE@XZ 1009aa30 f i Stream.obj
 0002:00048a70       ??0?$shared_ptr@VCryptHandle@baro@@@std@@QAE@ABV01@@Z 1009aa70 f i Stream.obj
 0002:00048ae0       ??0Stream@baro@@QAE@AAVStreamHeader@1@@Z 1009aae0 f   Stream.obj
 0002:00048c40       ??0Stream@baro@@QAE@U_GUID@@MK@Z 1009ac40 f   Stream.obj
 0002:00048dd0       ??0Stream@baro@@QAE@XZ     1009add0 f   Stream.obj
 0002:00048ec0       ??0StreamHeader@baro@@QAE@ABV01@@Z 1009aec0 f i Stream.obj
 0002:00048f30       ??0StreamHeader@baro@@QAE@U_GUID@@MK@Z 1009af30 f i Stream.obj
 0002:00049000       ??1?$_Func_base@_NAAVCFile@@@std@@UAE@XZ 1009b000 f i Stream.obj
 0002:00049040       ??1?$_Func_impl@U?$_Callable_obj@V<lambda_8cdfe22e261dd2f2e11bbbe8ad79dd69>@@$0A@@std@@V?$allocator@V?$_Func_class@_NAAVCFile@@@std@@@2@_NAAVCFile@@@std@@UAE@XZ 1009b040 f i Stream.obj
 0002:000490a0       ??1?$_Func_impl@U?$_Callable_obj@V<lambda_a244cdd0ad76413c27f4c49d64c8d042>@@$0A@@std@@V?$allocator@V?$_Func_class@_NAAVCFile@@@std@@@2@_NAAVCFile@@@std@@UAE@XZ 1009b0a0 f i Stream.obj
 0002:00049100       ??1?$_Func_impl@U?$_Callable_obj@V<lambda_bbe7db543262a53344bc92964eb41292>@@$0A@@std@@V?$allocator@V?$_Func_class@_NAAVCFile@@@std@@@2@_NAAVCFile@@@std@@UAE@XZ 1009b100 f i Stream.obj
 0002:00049160       ??1Stream@baro@@UAE@XZ     1009b160 f   Stream.obj
 0002:00049290       ??1StreamHeader@baro@@QAE@XZ 1009b290 f i Stream.obj
 0002:000492f0       ??4StreamHeader@baro@@QAEAAV01@ABV01@@Z 1009b2f0 f i Stream.obj
 0002:000493b0       ??B?$shared_ptr@VCryptHandle@baro@@@std@@QBE_NXZ 1009b3b0 f i Stream.obj
 0002:00049a10       ??_EStream@baro@@UAEPAXI@Z 1009ba10 f i Stream.obj
 0002:00049ad0       ??_G?$_Func_base@_NAAVCFile@@@std@@UAEPAXI@Z 1009bad0 f i Stream.obj
 0002:00049ad0       ??_E?$_Func_base@_NAAVCFile@@@std@@UAEPAXI@Z 1009bad0 f i Stream.obj
 0002:00049b40       ??_G?$_Func_impl@U?$_Callable_obj@V<lambda_8cdfe22e261dd2f2e11bbbe8ad79dd69>@@$0A@@std@@V?$allocator@V?$_Func_class@_NAAVCFile@@@std@@@2@_NAAVCFile@@@std@@UAEPAXI@Z 1009bb40 f i Stream.obj
 0002:00049b40       ??_E?$_Func_impl@U?$_Callable_obj@V<lambda_8cdfe22e261dd2f2e11bbbe8ad79dd69>@@$0A@@std@@V?$allocator@V?$_Func_class@_NAAVCFile@@@std@@@2@_NAAVCFile@@@std@@UAEPAXI@Z 1009bb40 f i Stream.obj
 0002:00049bb0       ??_G?$_Func_impl@U?$_Callable_obj@V<lambda_a244cdd0ad76413c27f4c49d64c8d042>@@$0A@@std@@V?$allocator@V?$_Func_class@_NAAVCFile@@@std@@@2@_NAAVCFile@@@std@@UAEPAXI@Z 1009bbb0 f i Stream.obj
 0002:00049bb0       ??_E?$_Func_impl@U?$_Callable_obj@V<lambda_a244cdd0ad76413c27f4c49d64c8d042>@@$0A@@std@@V?$allocator@V?$_Func_class@_NAAVCFile@@@std@@@2@_NAAVCFile@@@std@@UAEPAXI@Z 1009bbb0 f i Stream.obj
 0002:00049c20       ??_E?$_Func_impl@U?$_Callable_obj@V<lambda_bbe7db543262a53344bc92964eb41292>@@$0A@@std@@V?$allocator@V?$_Func_class@_NAAVCFile@@@std@@@2@_NAAVCFile@@@std@@UAEPAXI@Z 1009bc20 f i Stream.obj
 0002:00049c20       ??_G?$_Func_impl@U?$_Callable_obj@V<lambda_bbe7db543262a53344bc92964eb41292>@@$0A@@std@@V?$allocator@V?$_Func_class@_NAAVCFile@@@std@@@2@_NAAVCFile@@@std@@UAEPAXI@Z 1009bc20 f i Stream.obj
 0002:00049c90       ??_GStreamHeader@baro@@QAEPAXI@Z 1009bc90 f i Stream.obj
 0002:00049d00       ?AddPair@Stream@baro@@AAE?AW4StreamResult@2@PBXI@Z 1009bd00 f   Stream.obj
 0002:00049df0       ?Append@?$TBuffer@E@baro@@QAEIPBEI@Z 1009bdf0 f i Stream.obj
 0002:00049e60       ?Decrypt@Stream@baro@@QAE_NABVCryptHandle@2@@Z 1009be60 f   Stream.obj
 0002:0004a130       ?Decrypt@Stream@baro@@QAE_NV?$shared_ptr@VCryptHandle@baro@@@std@@@Z 1009c130 f   Stream.obj
 0002:0004a2e0       ?Encrypt@Stream@baro@@QAE_NABVCryptHandle@2@@Z 1009c2e0 f   Stream.obj
 0002:0004a5b0       ?Encrypt@Stream@baro@@QAE_NV?$shared_ptr@VCryptHandle@baro@@@std@@@Z 1009c5b0 f   Stream.obj
 0002:0004a760       ?Export@Stream@baro@@QAE_NAAV?$CStringT@_WV?$StrTraitMFC_DLL@_WV?$ChTraitsCRT@_W@ATL@@@@@ATL@@_N@Z 1009c760 f   Stream.obj
 0002:0004a8e0       ?Get@Stream@baro@@ABE?AW4StreamResult@2@IAAV?$CStringT@_WV?$StrTraitMFC_DLL@_WV?$ChTraitsCRT@_W@ATL@@@@@ATL@@PAI@Z 1009c8e0 f   Stream.obj
 0002:0004ad00       ?Get@Stream@baro@@ABE?AW4StreamResult@2@IPAXIPAI@Z 1009cd00 f   Stream.obj
 0002:0004b000       ?GetBuffer@Stream@baro@@QAEPBEI@Z 1009d000 f   Stream.obj
 0002:0004b060       ?GetFilePath@Stream@baro@@QBE?AV?$CStringT@_WV?$StrTraitMFC_DLL@_WV?$ChTraitsCRT@_W@ATL@@@@@ATL@@XZ 1009d060 f   Stream.obj
 0002:0004b140       ?GetInitHeaderPtr@Stream@baro@@QBEPBVStreamHeader@2@XZ 1009d140 f   Stream.obj
 0002:0004b180       ?GetLastError@Stream@baro@@QAE?AW4StreamResult@2@XZ 1009d180 f   Stream.obj
 0002:0004b1c0       ?GetLastErrorString@Stream@baro@@QAE?AV?$CStringT@_WV?$StrTraitMFC_DLL@_WV?$ChTraitsCRT@_W@ATL@@@@@ATL@@XZ 1009d1c0 f   Stream.obj
 0002:0004b250       ?GetLength@?$TBuffer@_W@baro@@QBEIXZ 1009d250 f i Stream.obj
 0002:0004b290       ?GetLength@Stream@baro@@QAEIXZ 1009d290 f   Stream.obj
 0002:0004b2e0       ?Import@Stream@baro@@QAE_NAAV?$CStringT@_WV?$StrTraitMFC_DLL@_WV?$ChTraitsCRT@_W@ATL@@@@@ATL@@_NAAVStreamHeader@2@@Z 1009d2e0 f   Stream.obj
 0002:0004b660       ?MakeBuffer@Stream@baro@@SA?AV?$TBuffer@E@2@V?$CStringT@_WV?$StrTraitMFC_DLL@_WV?$ChTraitsCRT@_W@ATL@@@@@ATL@@@Z 1009d660 f   Stream.obj
 0002:0004b7f0       ?MakeString@Stream@baro@@SA?AV?$CStringT@_WV?$StrTraitMFC_DLL@_WV?$ChTraitsCRT@_W@ATL@@@@@ATL@@AAV?$TBuffer@E@2@@Z 1009d7f0 f   Stream.obj
 0002:0004b930       ?Read@?$TBuffer@E@baro@@QBEIIAAV12@I@Z 1009d930 f i Stream.obj
 0002:0004b9c0       ?Read@?$TBuffer@E@baro@@QBEIIPAXI@Z 1009d9c0 f i Stream.obj
 0002:0004bb20       ?ReadBody@Stream@baro@@QAE_NAAV?$CStringT@_WV?$StrTraitMFC_DLL@_WV?$ChTraitsCRT@_W@ATL@@@@@ATL@@@Z 1009db20 f   Stream.obj
 0002:0004bc60       ?ReadBody@Stream@baro@@SA?AW4StreamResult@2@ABV?$CStringT@_WV?$StrTraitMFC_DLL@_WV?$ChTraitsCRT@_W@ATL@@@@@ATL@@_NAAV?$TBuffer@E@2@I@Z 1009dc60 f   Stream.obj
 0002:0004be30       ?ReadHeader@Stream@baro@@SA?AW4StreamResult@2@ABV?$CStringT@_WV?$StrTraitMFC_DLL@_WV?$ChTraitsCRT@_W@ATL@@@@@ATL@@AAVStreamHeader@2@I@Z 1009de30 f   Stream.obj
 0002:0004c000       ?Reset@Stream@baro@@QAEXXZ 1009e000 f   Stream.obj
 0002:0004c060       ?SetResult@Stream@baro@@AAE_NW4StreamResult@2@@Z 1009e060 f   Stream.obj
 0002:0004c0d0       ?_Copy@?$_Func_impl@U?$_Callable_obj@V<lambda_8cdfe22e261dd2f2e11bbbe8ad79dd69>@@$0A@@std@@V?$allocator@V?$_Func_class@_NAAVCFile@@@std@@@2@_NAAVCFile@@@std@@UAEPAV?$_Func_base@_NAAVCFile@@@2@PAX@Z 1009e0d0 f i Stream.obj
 0002:0004c1e0       ?_Copy@?$_Func_impl@U?$_Callable_obj@V<lambda_a244cdd0ad76413c27f4c49d64c8d042>@@$0A@@std@@V?$allocator@V?$_Func_class@_NAAVCFile@@@std@@@2@_NAAVCFile@@@std@@UAEPAV?$_Func_base@_NAAVCFile@@@2@PAX@Z 1009e1e0 f i Stream.obj
 0002:0004c2f0       ?_Copy@?$_Func_impl@U?$_Callable_obj@V<lambda_bbe7db543262a53344bc92964eb41292>@@$0A@@std@@V?$allocator@V?$_Func_class@_NAAVCFile@@@std@@@2@_NAAVCFile@@@std@@UAEPAV?$_Func_base@_NAAVCFile@@@2@PAX@Z 1009e2f0 f i Stream.obj
 0002:0004c400       ?_Delete_this@?$_Func_impl@U?$_Callable_obj@V<lambda_8cdfe22e261dd2f2e11bbbe8ad79dd69>@@$0A@@std@@V?$allocator@V?$_Func_class@_NAAVCFile@@@std@@@2@_NAAVCFile@@@std@@EAEX_N@Z 1009e400 f i Stream.obj
 0002:0004c4e0       ?_Delete_this@?$_Func_impl@U?$_Callable_obj@V<lambda_a244cdd0ad76413c27f4c49d64c8d042>@@$0A@@std@@V?$allocator@V?$_Func_class@_NAAVCFile@@@std@@@2@_NAAVCFile@@@std@@EAEX_N@Z 1009e4e0 f i Stream.obj
 0002:0004c5c0       ?_Delete_this@?$_Func_impl@U?$_Callable_obj@V<lambda_bbe7db543262a53344bc92964eb41292>@@$0A@@std@@V?$allocator@V?$_Func_class@_NAAVCFile@@@std@@@2@_NAAVCFile@@@std@@EAEX_N@Z 1009e5c0 f i Stream.obj
 0002:0004c6a0       ?_Do_call@?$_Func_impl@U?$_Callable_obj@V<lambda_8cdfe22e261dd2f2e11bbbe8ad79dd69>@@$0A@@std@@V?$allocator@V?$_Func_class@_NAAVCFile@@@std@@@2@_NAAVCFile@@@std@@UAE_NAAVCFile@@@Z 1009e6a0 f i Stream.obj
 0002:0004c710       ?_Do_call@?$_Func_impl@U?$_Callable_obj@V<lambda_a244cdd0ad76413c27f4c49d64c8d042>@@$0A@@std@@V?$allocator@V?$_Func_class@_NAAVCFile@@@std@@@2@_NAAVCFile@@@std@@UAE_NAAVCFile@@@Z 1009e710 f i Stream.obj
 0002:0004c780       ?_Do_call@?$_Func_impl@U?$_Callable_obj@V<lambda_bbe7db543262a53344bc92964eb41292>@@$0A@@std@@V?$allocator@V?$_Func_class@_NAAVCFile@@@std@@@2@_NAAVCFile@@@std@@UAE_NAAVCFile@@@Z 1009e780 f i Stream.obj
 0002:0004c7f0       ?_Get@?$_Callable_base@V<lambda_8cdfe22e261dd2f2e11bbbe8ad79dd69>@@$0A@@std@@QAEAAV<lambda_8cdfe22e261dd2f2e11bbbe8ad79dd69>@@XZ 1009e7f0 f i Stream.obj
 0002:0004c830       ?_Get@?$_Callable_base@V<lambda_8cdfe22e261dd2f2e11bbbe8ad79dd69>@@$0A@@std@@QBEABV<lambda_8cdfe22e261dd2f2e11bbbe8ad79dd69>@@XZ 1009e830 f i Stream.obj
 0002:0004c870       ?_Get@?$_Callable_base@V<lambda_a244cdd0ad76413c27f4c49d64c8d042>@@$0A@@std@@QAEAAV<lambda_a244cdd0ad76413c27f4c49d64c8d042>@@XZ 1009e870 f i Stream.obj
 0002:0004c8b0       ?_Get@?$_Callable_base@V<lambda_a244cdd0ad76413c27f4c49d64c8d042>@@$0A@@std@@QBEABV<lambda_a244cdd0ad76413c27f4c49d64c8d042>@@XZ 1009e8b0 f i Stream.obj
 0002:0004c8f0       ?_Get@?$_Callable_base@V<lambda_bbe7db543262a53344bc92964eb41292>@@$0A@@std@@QAEAAV<lambda_bbe7db543262a53344bc92964eb41292>@@XZ 1009e8f0 f i Stream.obj
 0002:0004c930       ?_Get@?$_Callable_base@V<lambda_bbe7db543262a53344bc92964eb41292>@@$0A@@std@@QBEABV<lambda_bbe7db543262a53344bc92964eb41292>@@XZ 1009e930 f i Stream.obj
 0002:0004c970       ?_Get@?$_Func_impl@U?$_Callable_obj@V<lambda_8cdfe22e261dd2f2e11bbbe8ad79dd69>@@$0A@@std@@V?$allocator@V?$_Func_class@_NAAVCFile@@@std@@@2@_NAAVCFile@@@std@@EBEPBXXZ 1009e970 f i Stream.obj
 0002:0004c9d0       ?_Get@?$_Func_impl@U?$_Callable_obj@V<lambda_a244cdd0ad76413c27f4c49d64c8d042>@@$0A@@std@@V?$allocator@V?$_Func_class@_NAAVCFile@@@std@@@2@_NAAVCFile@@@std@@EBEPBXXZ 1009e9d0 f i Stream.obj
 0002:0004ca30       ?_Get@?$_Func_impl@U?$_Callable_obj@V<lambda_bbe7db543262a53344bc92964eb41292>@@$0A@@std@@V?$allocator@V?$_Func_class@_NAAVCFile@@@std@@@2@_NAAVCFile@@@std@@EBEPBXXZ 1009ea30 f i Stream.obj
 0002:0004ca90       ?_Incref@_Ref_count_base@std@@QAEXXZ 1009ea90 f i Stream.obj
 0002:0004cae0       ?_Move@?$_Func_impl@U?$_Callable_obj@V<lambda_8cdfe22e261dd2f2e11bbbe8ad79dd69>@@$0A@@std@@V?$allocator@V?$_Func_class@_NAAVCFile@@@std@@@2@_NAAVCFile@@@std@@UAEPAV?$_Func_base@_NAAVCFile@@@2@PAX@Z 1009eae0 f i Stream.obj
 0002:0004cc00       ?_Move@?$_Func_impl@U?$_Callable_obj@V<lambda_a244cdd0ad76413c27f4c49d64c8d042>@@$0A@@std@@V?$allocator@V?$_Func_class@_NAAVCFile@@@std@@@2@_NAAVCFile@@@std@@UAEPAV?$_Func_base@_NAAVCFile@@@2@PAX@Z 1009ec00 f i Stream.obj
 0002:0004cd20       ?_Move@?$_Func_impl@U?$_Callable_obj@V<lambda_bbe7db543262a53344bc92964eb41292>@@$0A@@std@@V?$allocator@V?$_Func_class@_NAAVCFile@@@std@@@2@_NAAVCFile@@@std@@UAEPAV?$_Func_base@_NAAVCFile@@@2@PAX@Z 1009ed20 f i Stream.obj
 0002:0004ce40       ?_Reset@?$_Ptr_base@VCryptHandle@baro@@@std@@QAEXPAVCryptHandle@baro@@PAV_Ref_count_base@2@@Z 1009ee40 f i Stream.obj
 0002:0004ceb0       ?_Target_type@?$_Func_impl@U?$_Callable_obj@V<lambda_8cdfe22e261dd2f2e11bbbe8ad79dd69>@@$0A@@std@@V?$allocator@V?$_Func_class@_NAAVCFile@@@std@@@2@_NAAVCFile@@@std@@UBEABVtype_info@@XZ 1009eeb0 f i Stream.obj
 0002:0004cef0       ?_Target_type@?$_Func_impl@U?$_Callable_obj@V<lambda_a244cdd0ad76413c27f4c49d64c8d042>@@$0A@@std@@V?$allocator@V?$_Func_class@_NAAVCFile@@@std@@@2@_NAAVCFile@@@std@@UBEABVtype_info@@XZ 1009eef0 f i Stream.obj
 0002:0004cf30       ?_Target_type@?$_Func_impl@U?$_Callable_obj@V<lambda_bbe7db543262a53344bc92964eb41292>@@$0A@@std@@V?$allocator@V?$_Func_class@_NAAVCFile@@@std@@@2@_NAAVCFile@@@std@@UBEABVtype_info@@XZ 1009ef30 f i Stream.obj
 0002:0004cf70       ?allocate@?$allocator@V?$_Func_impl@U?$_Callable_obj@V<lambda_8cdfe22e261dd2f2e11bbbe8ad79dd69>@@$0A@@std@@V?$allocator@V?$_Func_class@_NAAVCFile@@@std@@@2@_NAAVCFile@@@std@@@std@@QAEPAV?$_Func_impl@U?$_Callable_obj@V<lambda_8cdfe22e261dd2f2e11bbbe8ad79dd69>@@$0A@@std@@V?$allocator@V?$_Func_class@_NAAVCFile@@@std@@@2@_NAAVCFile@@@2@I@Z 1009ef70 f i Stream.obj
 0002:0004cfd0       ?allocate@?$allocator@V?$_Func_impl@U?$_Callable_obj@V<lambda_a244cdd0ad76413c27f4c49d64c8d042>@@$0A@@std@@V?$allocator@V?$_Func_class@_NAAVCFile@@@std@@@2@_NAAVCFile@@@std@@@std@@QAEPAV?$_Func_impl@U?$_Callable_obj@V<lambda_a244cdd0ad76413c27f4c49d64c8d042>@@$0A@@std@@V?$allocator@V?$_Func_class@_NAAVCFile@@@std@@@2@_NAAVCFile@@@2@I@Z 1009efd0 f i Stream.obj
 0002:0004d030       ?allocate@?$allocator@V?$_Func_impl@U?$_Callable_obj@V<lambda_bbe7db543262a53344bc92964eb41292>@@$0A@@std@@V?$allocator@V?$_Func_class@_NAAVCFile@@@std@@@2@_NAAVCFile@@@std@@@std@@QAEPAV?$_Func_impl@U?$_Callable_obj@V<lambda_bbe7db543262a53344bc92964eb41292>@@$0A@@std@@V?$allocator@V?$_Func_class@_NAAVCFile@@@std@@@2@_NAAVCFile@@@2@I@Z 1009f030 f i Stream.obj
 0002:0004d090       ?deallocate@?$allocator@V?$_Func_impl@U?$_Callable_obj@V<lambda_8cdfe22e261dd2f2e11bbbe8ad79dd69>@@$0A@@std@@V?$allocator@V?$_Func_class@_NAAVCFile@@@std@@@2@_NAAVCFile@@@std@@@std@@QAEXPAV?$_Func_impl@U?$_Callable_obj@V<lambda_8cdfe22e261dd2f2e11bbbe8ad79dd69>@@$0A@@std@@V?$allocator@V?$_Func_class@_NAAVCFile@@@std@@@2@_NAAVCFile@@@2@I@Z 1009f090 f i Stream.obj
 0002:0004d0f0       ?deallocate@?$allocator@V?$_Func_impl@U?$_Callable_obj@V<lambda_a244cdd0ad76413c27f4c49d64c8d042>@@$0A@@std@@V?$allocator@V?$_Func_class@_NAAVCFile@@@std@@@2@_NAAVCFile@@@std@@@std@@QAEXPAV?$_Func_impl@U?$_Callable_obj@V<lambda_a244cdd0ad76413c27f4c49d64c8d042>@@$0A@@std@@V?$allocator@V?$_Func_class@_NAAVCFile@@@std@@@2@_NAAVCFile@@@2@I@Z 1009f0f0 f i Stream.obj
 0002:0004d150       ?deallocate@?$allocator@V?$_Func_impl@U?$_Callable_obj@V<lambda_bbe7db543262a53344bc92964eb41292>@@$0A@@std@@V?$allocator@V?$_Func_class@_NAAVCFile@@@std@@@2@_NAAVCFile@@@std@@@std@@QAEXPAV?$_Func_impl@U?$_Callable_obj@V<lambda_bbe7db543262a53344bc92964eb41292>@@$0A@@std@@V?$allocator@V?$_Func_class@_NAAVCFile@@@std@@@2@_NAAVCFile@@@2@I@Z 1009f150 f i Stream.obj
 0002:0004d1b0       ?get@?$shared_ptr@VCryptHandle@baro@@@std@@QBEPAVCryptHandle@baro@@XZ 1009f1b0 f i Stream.obj
 0002:0004d200       _!=                        1009f200 f i Stream.obj
 0002:0004d280       ??0AutoLock@baro@@QAE@AAU_RTL_CRITICAL_SECTION@@V?$CStringT@_WV?$StrTraitMFC_DLL@_WV?$ChTraitsCRT@_W@ATL@@@@@ATL@@@Z 1009f280 f   AutoLock.obj
 0002:0004d380       ??0AutoLock@baro@@QAE@AAVCriticalSection@1@V?$CStringT@_WV?$StrTraitMFC_DLL@_WV?$ChTraitsCRT@_W@ATL@@@@@ATL@@@Z 1009f380 f   AutoLock.obj
 0002:0004d480       ??1AutoLock@baro@@QAE@XZ   1009f480 f   AutoLock.obj
 0002:0004d580       ?Initialize@AutoLock@baro@@AAEXV?$CStringT@_WV?$StrTraitMFC_DLL@_WV?$ChTraitsCRT@_W@ATL@@@@@ATL@@@Z 1009f580 f   AutoLock.obj
 0002:0004d7e0       ??$?0AAV?$CStringT@_WV?$StrTraitMFC_DLL@_WV?$ChTraitsCRT@_W@ATL@@@@@ATL@@U?$pair@HH@std@@X@?$pair@V?$CStringT@_WV?$StrTraitMFC_DLL@_WV?$ChTraitsCRT@_W@ATL@@@@@ATL@@U?$pair@HH@std@@@std@@QAE@AAV?$CStringT@_WV?$StrTraitMFC_DLL@_WV?$ChTraitsCRT@_W@ATL@@@@@ATL@@$$QAU?$pair@HH@1@@Z 1009f7e0 f i Logger.obj
 0002:0004d8c0       ??$?0AAV?$_Tree_iterator@V?$_Tree_val@U?$_Tree_simple_types@U?$pair@$$CBV?$CStringT@_WV?$StrTraitMFC_DLL@_WV?$ChTraitsCRT@_W@ATL@@@@@ATL@@U?$pair@II@std@@@std@@@std@@@std@@@std@@_NX@?$pair@V?$_Tree_iterator@V?$_Tree_val@U?$_Tree_simple_types@U?$pair@$$CBV?$CStringT@_WV?$StrTraitMFC_DLL@_WV?$ChTraitsCRT@_W@ATL@@@@@ATL@@U?$pair@II@std@@@std@@@std@@@std@@@std@@_N@std@@QAE@AAV?$_Tree_iterator@V?$_Tree_val@U?$_Tree_simple_types@U?$pair@$$CBV?$CStringT@_WV?$StrTraitMFC_DLL@_WV?$ChTraitsCRT@_W@ATL@@@@@ATL@@U?$pair@II@std@@@std@@@std@@@std@@@1@$$QA_N@Z 1009f8c0 f i Logger.obj
 0002:0004d990       ??$?0HHX@?$pair@HH@std@@QAE@$$QAH0@Z 1009f990 f i Logger.obj
 0002:0004da10       ??$?0HHX@?$pair@HH@std@@QAE@$$QAU01@@Z 1009fa10 f i Logger.obj
 0002:0004da90       ??$?0HHX@?$pair@II@std@@QAE@$$QAU?$pair@HH@1@@Z 1009fa90 f i Logger.obj
 0002:0004db10       ??$?0U?$_Tree_node@U?$pair@$$CBV?$CStringT@_WV?$StrTraitMFC_DLL@_WV?$ChTraitsCRT@_W@ATL@@@@@ATL@@U?$pair@II@std@@@std@@PAX@std@@@?$allocator@U_Container_proxy@std@@@std@@QAE@ABV?$allocator@U?$_Tree_node@U?$pair@$$CBV?$CStringT@_WV?$StrTraitMFC_DLL@_WV?$ChTraitsCRT@_W@ATL@@@@@ATL@@U?$pair@II@std@@@std@@PAX@std@@@1@@Z 1009fb10 f i Logger.obj
 0002:0004db50       ??$?0U?$_Wrap_alloc@V?$allocator@U?$_Tree_node@U?$pair@$$CBV?$CStringT@_WV?$StrTraitMFC_DLL@_WV?$ChTraitsCRT@_W@ATL@@@@@ATL@@U?$pair@II@std@@@std@@PAX@std@@@std@@@std@@@?$_Wrap_alloc@V?$allocator@U_Container_proxy@std@@@std@@@std@@QAE@ABU?$_Wrap_alloc@V?$allocator@U?$_Tree_node@U?$pair@$$CBV?$CStringT@_WV?$StrTraitMFC_DLL@_WV?$ChTraitsCRT@_W@ATL@@@@@ATL@@U?$pair@II@std@@@std@@PAX@std@@@std@@@1@@Z 1009fb50 f i Logger.obj
 0002:0004dbb0       ??$?0V?$CStringT@_WV?$StrTraitMFC_DLL@_WV?$ChTraitsCRT@_W@ATL@@@@@ATL@@U?$pair@HH@std@@X@?$pair@$$CBV?$CStringT@_WV?$StrTraitMFC_DLL@_WV?$ChTraitsCRT@_W@ATL@@@@@ATL@@U?$pair@II@std@@@std@@QAE@$$QAU?$pair@V?$CStringT@_WV?$StrTraitMFC_DLL@_WV?$ChTraitsCRT@_W@ATL@@@@@ATL@@U?$pair@HH@std@@@1@@Z 1009fbb0 f i Logger.obj
 0002:0004dc90       ??$?0V?$_Tree_iterator@V?$_Tree_val@U?$_Tree_simple_types@U?$pair@$$CBV?$CStringT@_WV?$StrTraitMFC_DLL@_WV?$ChTraitsCRT@_W@ATL@@@@@ATL@@U?$pair@II@std@@@std@@@std@@@std@@@std@@_NX@?$pair@V?$_Tree_iterator@V?$_Tree_val@U?$_Tree_simple_types@U?$pair@$$CBV?$CStringT@_WV?$StrTraitMFC_DLL@_WV?$ChTraitsCRT@_W@ATL@@@@@ATL@@U?$pair@II@std@@@std@@@std@@@std@@@std@@_N@std@@QAE@$$QAV?$_Tree_iterator@V?$_Tree_val@U?$_Tree_simple_types@U?$pair@$$CBV?$CStringT@_WV?$StrTraitMFC_DLL@_WV?$ChTraitsCRT@_W@ATL@@@@@ATL@@U?$pair@II@std@@@std@@@std@@@std@@@1@$$QA_N@Z 1009fc90 f i Logger.obj
 0002:0004dd60       ??$_Allocate@U?$_Tree_node@U?$pair@$$CBV?$CStringT@_WV?$StrTraitMFC_DLL@_WV?$ChTraitsCRT@_W@ATL@@@@@ATL@@U?$pair@II@std@@@std@@PAX@std@@@std@@YAPAU?$_Tree_node@U?$pair@$$CBV?$CStringT@_WV?$StrTraitMFC_DLL@_WV?$ChTraitsCRT@_W@ATL@@@@@ATL@@U?$pair@II@std@@@std@@PAX@0@IPAU10@@Z 1009fd60 f i Logger.obj
 0002:0004ddf0       ??$_Buynode@U?$pair@V?$CStringT@_WV?$StrTraitMFC_DLL@_WV?$ChTraitsCRT@_W@ATL@@@@@ATL@@U?$pair@HH@std@@@std@@@?$_Tree_buy@U?$pair@$$CBV?$CStringT@_WV?$StrTraitMFC_DLL@_WV?$ChTraitsCRT@_W@ATL@@@@@ATL@@U?$pair@II@std@@@std@@V?$allocator@U?$pair@$$CBV?$CStringT@_WV?$StrTraitMFC_DLL@_WV?$ChTraitsCRT@_W@ATL@@@@@ATL@@U?$pair@II@std@@@std@@@2@@std@@QAEPAU?$_Tree_node@U?$pair@$$CBV?$CStringT@_WV?$StrTraitMFC_DLL@_WV?$ChTraitsCRT@_W@ATL@@@@@ATL@@U?$pair@II@std@@@std@@PAX@1@$$QAU?$pair@V?$CStringT@_WV?$StrTraitMFC_DLL@_WV?$ChTraitsCRT@_W@ATL@@@@@ATL@@U?$pair@HH@std@@@1@@Z 1009fdf0 f i Logger.obj
 0002:0004df60       ??$_Buynode_if_nil@AAU?$pair@$$CBV?$CStringT@_WV?$StrTraitMFC_DLL@_WV?$ChTraitsCRT@_W@ATL@@@@@ATL@@U?$pair@II@std@@@std@@@?$_Tree@V?$_Tmap_traits@V?$CStringT@_WV?$StrTraitMFC_DLL@_WV?$ChTraitsCRT@_W@ATL@@@@@ATL@@U?$pair@II@std@@U?$less@V?$CStringT@_WV?$StrTraitMFC_DLL@_WV?$ChTraitsCRT@_W@ATL@@@@@ATL@@@4@V?$allocator@U?$pair@$$CBV?$CStringT@_WV?$StrTraitMFC_DLL@_WV?$ChTraitsCRT@_W@ATL@@@@@ATL@@U?$pair@II@std@@@std@@@4@$0A@@std@@@std@@IAEPAU?$_Tree_node@U?$pair@$$CBV?$CStringT@_WV?$StrTraitMFC_DLL@_WV?$ChTraitsCRT@_W@ATL@@@@@ATL@@U?$pair@II@std@@@std@@PAX@1@PAU21@AAU?$pair@$$CBV?$CStringT@_WV?$StrTraitMFC_DLL@_WV?$ChTraitsCRT@_W@ATL@@@@@ATL@@U?$pair@II@std@@@1@@Z 1009ff60 f i Logger.obj
 0002:0004dfa0       ??$_Insert_at@AAU?$pair@$$CBV?$CStringT@_WV?$StrTraitMFC_DLL@_WV?$ChTraitsCRT@_W@ATL@@@@@ATL@@U?$pair@II@std@@@std@@PAU?$_Tree_node@U?$pair@$$CBV?$CStringT@_WV?$StrTraitMFC_DLL@_WV?$ChTraitsCRT@_W@ATL@@@@@ATL@@U?$pair@II@std@@@std@@PAX@2@@?$_Tree@V?$_Tmap_traits@V?$CStringT@_WV?$StrTraitMFC_DLL@_WV?$ChTraitsCRT@_W@ATL@@@@@ATL@@U?$pair@II@std@@U?$less@V?$CStringT@_WV?$StrTraitMFC_DLL@_WV?$ChTraitsCRT@_W@ATL@@@@@ATL@@@4@V?$allocator@U?$pair@$$CBV?$CStringT@_WV?$StrTraitMFC_DLL@_WV?$ChTraitsCRT@_W@ATL@@@@@ATL@@U?$pair@II@std@@@std@@@4@$0A@@std@@@std@@IAE?AV?$_Tree_iterator@V?$_Tree_val@U?$_Tree_simple_types@U?$pair@$$CBV?$CStringT@_WV?$StrTraitMFC_DLL@_WV?$ChTraitsCRT@_W@ATL@@@@@ATL@@U?$pair@II@std@@@std@@@std@@@std@@@1@_NPAU?$_Tree_node@U?$pair@$$CBV?$CStringT@_WV?$StrTraitMFC_DLL@_WV?$ChTraitsCRT@_W@ATL@@@@@ATL@@U?$pair@II@std@@@std@@PAX@1@AAU?$pair@$$CBV?$CStringT@_WV?$StrTraitMFC_DLL@_WV?$ChTraitsCRT@_W@ATL@@@@@ATL@@U?$pair@II@std@@@1@1@Z 1009ffa0 f i Logger.obj
 0002:0004e530       ??$_Insert_nohint@AAU?$pair@$$CBV?$CStringT@_WV?$StrTraitMFC_DLL@_WV?$ChTraitsCRT@_W@ATL@@@@@ATL@@U?$pair@II@std@@@std@@PAU?$_Tree_node@U?$pair@$$CBV?$CStringT@_WV?$StrTraitMFC_DLL@_WV?$ChTraitsCRT@_W@ATL@@@@@ATL@@U?$pair@II@std@@@std@@PAX@2@@?$_Tree@V?$_Tmap_traits@V?$CStringT@_WV?$StrTraitMFC_DLL@_WV?$ChTraitsCRT@_W@ATL@@@@@ATL@@U?$pair@II@std@@U?$less@V?$CStringT@_WV?$StrTraitMFC_DLL@_WV?$ChTraitsCRT@_W@ATL@@@@@ATL@@@4@V?$allocator@U?$pair@$$CBV?$CStringT@_WV?$StrTraitMFC_DLL@_WV?$ChTraitsCRT@_W@ATL@@@@@ATL@@U?$pair@II@std@@@std@@@4@$0A@@std@@@std@@IAE?AU?$pair@V?$_Tree_iterator@V?$_Tree_val@U?$_Tree_simple_types@U?$pair@$$CBV?$CStringT@_WV?$StrTraitMFC_DLL@_WV?$ChTraitsCRT@_W@ATL@@@@@ATL@@U?$pair@II@std@@@std@@@std@@@std@@@std@@_N@1@_NAAU?$pair@$$CBV?$CStringT@_WV?$StrTraitMFC_DLL@_WV?$ChTraitsCRT@_W@ATL@@@@@ATL@@U?$pair@II@std@@@1@PAU?$_Tree_node@U?$pair@$$CBV?$CStringT@_WV?$StrTraitMFC_DLL@_WV?$ChTraitsCRT@_W@ATL@@@@@ATL@@U?$pair@II@std@@@std@@PAX@1@@Z 100a0530 f i Logger.obj
 0002:0004ec90       ??$_Kfn@$$CBV?$CStringT@_WV?$StrTraitMFC_DLL@_WV?$ChTraitsCRT@_W@ATL@@@@@ATL@@U?$pair@II@std@@@?$_Tmap_traits@V?$CStringT@_WV?$StrTraitMFC_DLL@_WV?$ChTraitsCRT@_W@ATL@@@@@ATL@@U?$pair@II@std@@U?$less@V?$CStringT@_WV?$StrTraitMFC_DLL@_WV?$ChTraitsCRT@_W@ATL@@@@@ATL@@@4@V?$allocator@U?$pair@$$CBV?$CStringT@_WV?$StrTraitMFC_DLL@_WV?$ChTraitsCRT@_W@ATL@@@@@ATL@@U?$pair@II@std@@@std@@@4@$0A@@std@@SAABV?$CStringT@_WV?$StrTraitMFC_DLL@_WV?$ChTraitsCRT@_W@ATL@@@@@ATL@@ABU?$pair@$$CBV?$CStringT@_WV?$StrTraitMFC_DLL@_WV?$ChTraitsCRT@_W@ATL@@@@@ATL@@U?$pair@II@std@@@1@@Z 100a0c90 f i Logger.obj
 0002:0004ecd0       ??$_Move@AAD@std@@YA$$QADAAD@Z 100a0cd0 f i Logger.obj
 0002:0004ed10       ??$addressof@PAU?$_Tree_node@U?$pair@$$CBV?$CStringT@_WV?$StrTraitMFC_DLL@_WV?$ChTraitsCRT@_W@ATL@@@@@ATL@@U?$pair@II@std@@@std@@PAX@std@@@std@@YAPAPAU?$_Tree_node@U?$pair@$$CBV?$CStringT@_WV?$StrTraitMFC_DLL@_WV?$ChTraitsCRT@_W@ATL@@@@@ATL@@U?$pair@II@std@@@std@@PAX@0@AAPAU10@@Z 100a0d10 f i Logger.obj
 0002:0004ed50       ??$addressof@U?$pair@$$CBV?$CStringT@_WV?$StrTraitMFC_DLL@_WV?$ChTraitsCRT@_W@ATL@@@@@ATL@@U?$pair@II@std@@@std@@@std@@YAPAU?$pair@$$CBV?$CStringT@_WV?$StrTraitMFC_DLL@_WV?$ChTraitsCRT@_W@ATL@@@@@ATL@@U?$pair@II@std@@@0@AAU10@@Z 100a0d50 f i Logger.obj
 0002:0004ed90       ??$construct@PAU?$_Tree_node@U?$pair@$$CBV?$CStringT@_WV?$StrTraitMFC_DLL@_WV?$ChTraitsCRT@_W@ATL@@@@@ATL@@U?$pair@II@std@@@std@@PAX@std@@AAPAU12@@?$_Wrap_alloc@V?$allocator@U?$_Tree_node@U?$pair@$$CBV?$CStringT@_WV?$StrTraitMFC_DLL@_WV?$ChTraitsCRT@_W@ATL@@@@@ATL@@U?$pair@II@std@@@std@@PAX@std@@@std@@@std@@QAEXPAPAU?$_Tree_node@U?$pair@$$CBV?$CStringT@_WV?$StrTraitMFC_DLL@_WV?$ChTraitsCRT@_W@ATL@@@@@ATL@@U?$pair@II@std@@@std@@PAX@1@AAPAU21@@Z 100a0d90 f i Logger.obj
 0002:0004ee00       ??$construct@PAU?$_Tree_node@U?$pair@$$CBV?$CStringT@_WV?$StrTraitMFC_DLL@_WV?$ChTraitsCRT@_W@ATL@@@@@ATL@@U?$pair@II@std@@@std@@PAX@std@@AAPAU12@@?$allocator@U?$_Tree_node@U?$pair@$$CBV?$CStringT@_WV?$StrTraitMFC_DLL@_WV?$ChTraitsCRT@_W@ATL@@@@@ATL@@U?$pair@II@std@@@std@@PAX@std@@@std@@QAEXPAPAU?$_Tree_node@U?$pair@$$CBV?$CStringT@_WV?$StrTraitMFC_DLL@_WV?$ChTraitsCRT@_W@ATL@@@@@ATL@@U?$pair@II@std@@@std@@PAX@1@AAPAU21@@Z 100a0e00 f i Logger.obj
 0002:0004ef00       ??$construct@PAU?$_Tree_node@U?$pair@$$CBV?$CStringT@_WV?$StrTraitMFC_DLL@_WV?$ChTraitsCRT@_W@ATL@@@@@ATL@@U?$pair@II@std@@@std@@PAX@std@@AAPAU12@@?$allocator_traits@V?$allocator@U?$_Tree_node@U?$pair@$$CBV?$CStringT@_WV?$StrTraitMFC_DLL@_WV?$ChTraitsCRT@_W@ATL@@@@@ATL@@U?$pair@II@std@@@std@@PAX@std@@@std@@@std@@SAXAAV?$allocator@U?$_Tree_node@U?$pair@$$CBV?$CStringT@_WV?$StrTraitMFC_DLL@_WV?$ChTraitsCRT@_W@ATL@@@@@ATL@@U?$pair@II@std@@@std@@PAX@std@@@1@PAPAU?$_Tree_node@U?$pair@$$CBV?$CStringT@_WV?$StrTraitMFC_DLL@_WV?$ChTraitsCRT@_W@ATL@@@@@ATL@@U?$pair@II@std@@@std@@PAX@1@AAPAU31@@Z 100a0f00 f i Logger.obj
 0002:0004ef60       ??$construct@U?$pair@$$CBV?$CStringT@_WV?$StrTraitMFC_DLL@_WV?$ChTraitsCRT@_W@ATL@@@@@ATL@@U?$pair@II@std@@@std@@U?$pair@V?$CStringT@_WV?$StrTraitMFC_DLL@_WV?$ChTraitsCRT@_W@ATL@@@@@ATL@@U?$pair@HH@std@@@2@@?$_Wrap_alloc@V?$allocator@U?$_Tree_node@U?$pair@$$CBV?$CStringT@_WV?$StrTraitMFC_DLL@_WV?$ChTraitsCRT@_W@ATL@@@@@ATL@@U?$pair@II@std@@@std@@PAX@std@@@std@@@std@@QAEXPAU?$pair@$$CBV?$CStringT@_WV?$StrTraitMFC_DLL@_WV?$ChTraitsCRT@_W@ATL@@@@@ATL@@U?$pair@II@std@@@1@$$QAU?$pair@V?$CStringT@_WV?$StrTraitMFC_DLL@_WV?$ChTraitsCRT@_W@ATL@@@@@ATL@@U?$pair@HH@std@@@1@@Z 100a0f60 f i Logger.obj
 0002:0004efd0       ??$construct@U?$pair@$$CBV?$CStringT@_WV?$StrTraitMFC_DLL@_WV?$ChTraitsCRT@_W@ATL@@@@@ATL@@U?$pair@II@std@@@std@@U?$pair@V?$CStringT@_WV?$StrTraitMFC_DLL@_WV?$ChTraitsCRT@_W@ATL@@@@@ATL@@U?$pair@HH@std@@@2@@?$allocator@U?$_Tree_node@U?$pair@$$CBV?$CStringT@_WV?$StrTraitMFC_DLL@_WV?$ChTraitsCRT@_W@ATL@@@@@ATL@@U?$pair@II@std@@@std@@PAX@std@@@std@@QAEXPAU?$pair@$$CBV?$CStringT@_WV?$StrTraitMFC_DLL@_WV?$ChTraitsCRT@_W@ATL@@@@@ATL@@U?$pair@II@std@@@1@$$QAU?$pair@V?$CStringT@_WV?$StrTraitMFC_DLL@_WV?$ChTraitsCRT@_W@ATL@@@@@ATL@@U?$pair@HH@std@@@1@@Z 100a0fd0 f i Logger.obj
 0002:0004f0d0       ??$construct@U?$pair@$$CBV?$CStringT@_WV?$StrTraitMFC_DLL@_WV?$ChTraitsCRT@_W@ATL@@@@@ATL@@U?$pair@II@std@@@std@@U?$pair@V?$CStringT@_WV?$StrTraitMFC_DLL@_WV?$ChTraitsCRT@_W@ATL@@@@@ATL@@U?$pair@HH@std@@@2@@?$allocator_traits@V?$allocator@U?$_Tree_node@U?$pair@$$CBV?$CStringT@_WV?$StrTraitMFC_DLL@_WV?$ChTraitsCRT@_W@ATL@@@@@ATL@@U?$pair@II@std@@@std@@PAX@std@@@std@@@std@@SAXAAV?$allocator@U?$_Tree_node@U?$pair@$$CBV?$CStringT@_WV?$StrTraitMFC_DLL@_WV?$ChTraitsCRT@_W@ATL@@@@@ATL@@U?$pair@II@std@@@std@@PAX@std@@@1@PAU?$pair@$$CBV?$CStringT@_WV?$StrTraitMFC_DLL@_WV?$ChTraitsCRT@_W@ATL@@@@@ATL@@U?$pair@II@std@@@1@$$QAU?$pair@V?$CStringT@_WV?$StrTraitMFC_DLL@_WV?$ChTraitsCRT@_W@ATL@@@@@ATL@@U?$pair@HH@std@@@1@@Z 100a10d0 f i Logger.obj
 0002:0004f130       ??$destroy@PAU?$_Tree_node@U?$pair@$$CBV?$CStringT@_WV?$StrTraitMFC_DLL@_WV?$ChTraitsCRT@_W@ATL@@@@@ATL@@U?$pair@II@std@@@std@@PAX@std@@@?$_Wrap_alloc@V?$allocator@U?$_Tree_node@U?$pair@$$CBV?$CStringT@_WV?$StrTraitMFC_DLL@_WV?$ChTraitsCRT@_W@ATL@@@@@ATL@@U?$pair@II@std@@@std@@PAX@std@@@std@@@std@@QAEXPAPAU?$_Tree_node@U?$pair@$$CBV?$CStringT@_WV?$StrTraitMFC_DLL@_WV?$ChTraitsCRT@_W@ATL@@@@@ATL@@U?$pair@II@std@@@std@@PAX@1@@Z 100a1130 f i Logger.obj
 0002:0004f190       ??$destroy@PAU?$_Tree_node@U?$pair@$$CBV?$CStringT@_WV?$StrTraitMFC_DLL@_WV?$ChTraitsCRT@_W@ATL@@@@@ATL@@U?$pair@II@std@@@std@@PAX@std@@@?$allocator@U?$_Tree_node@U?$pair@$$CBV?$CStringT@_WV?$StrTraitMFC_DLL@_WV?$ChTraitsCRT@_W@ATL@@@@@ATL@@U?$pair@II@std@@@std@@PAX@std@@@std@@QAEXPAPAU?$_Tree_node@U?$pair@$$CBV?$CStringT@_WV?$StrTraitMFC_DLL@_WV?$ChTraitsCRT@_W@ATL@@@@@ATL@@U?$pair@II@std@@@std@@PAX@1@@Z 100a1190 f i Logger.obj
 0002:0004f1d0       ??$destroy@PAU?$_Tree_node@U?$pair@$$CBV?$CStringT@_WV?$StrTraitMFC_DLL@_WV?$ChTraitsCRT@_W@ATL@@@@@ATL@@U?$pair@II@std@@@std@@PAX@std@@@?$allocator_traits@V?$allocator@U?$_Tree_node@U?$pair@$$CBV?$CStringT@_WV?$StrTraitMFC_DLL@_WV?$ChTraitsCRT@_W@ATL@@@@@ATL@@U?$pair@II@std@@@std@@PAX@std@@@std@@@std@@SAXAAV?$allocator@U?$_Tree_node@U?$pair@$$CBV?$CStringT@_WV?$StrTraitMFC_DLL@_WV?$ChTraitsCRT@_W@ATL@@@@@ATL@@U?$pair@II@std@@@std@@PAX@std@@@1@PAPAU?$_Tree_node@U?$pair@$$CBV?$CStringT@_WV?$StrTraitMFC_DLL@_WV?$ChTraitsCRT@_W@ATL@@@@@ATL@@U?$pair@II@std@@@std@@PAX@1@@Z 100a11d0 f i Logger.obj
 0002:0004f220       ??$destroy@U?$pair@$$CBV?$CStringT@_WV?$StrTraitMFC_DLL@_WV?$ChTraitsCRT@_W@ATL@@@@@ATL@@U?$pair@II@std@@@std@@@?$_Wrap_alloc@V?$allocator@U?$_Tree_node@U?$pair@$$CBV?$CStringT@_WV?$StrTraitMFC_DLL@_WV?$ChTraitsCRT@_W@ATL@@@@@ATL@@U?$pair@II@std@@@std@@PAX@std@@@std@@@std@@QAEXPAU?$pair@$$CBV?$CStringT@_WV?$StrTraitMFC_DLL@_WV?$ChTraitsCRT@_W@ATL@@@@@ATL@@U?$pair@II@std@@@1@@Z 100a1220 f i Logger.obj
 0002:0004f280       ??$destroy@U?$pair@$$CBV?$CStringT@_WV?$StrTraitMFC_DLL@_WV?$ChTraitsCRT@_W@ATL@@@@@ATL@@U?$pair@II@std@@@std@@@?$allocator@U?$_Tree_node@U?$pair@$$CBV?$CStringT@_WV?$StrTraitMFC_DLL@_WV?$ChTraitsCRT@_W@ATL@@@@@ATL@@U?$pair@II@std@@@std@@PAX@std@@@std@@QAEXPAU?$pair@$$CBV?$CStringT@_WV?$StrTraitMFC_DLL@_WV?$ChTraitsCRT@_W@ATL@@@@@ATL@@U?$pair@II@std@@@1@@Z 100a1280 f i Logger.obj
 0002:0004f2e0       ??$destroy@U?$pair@$$CBV?$CStringT@_WV?$StrTraitMFC_DLL@_WV?$ChTraitsCRT@_W@ATL@@@@@ATL@@U?$pair@II@std@@@std@@@?$allocator_traits@V?$allocator@U?$_Tree_node@U?$pair@$$CBV?$CStringT@_WV?$StrTraitMFC_DLL@_WV?$ChTraitsCRT@_W@ATL@@@@@ATL@@U?$pair@II@std@@@std@@PAX@std@@@std@@@std@@SAXAAV?$allocator@U?$_Tree_node@U?$pair@$$CBV?$CStringT@_WV?$StrTraitMFC_DLL@_WV?$ChTraitsCRT@_W@ATL@@@@@ATL@@U?$pair@II@std@@@std@@PAX@std@@@1@PAU?$pair@$$CBV?$CStringT@_WV?$StrTraitMFC_DLL@_WV?$ChTraitsCRT@_W@ATL@@@@@ATL@@U?$pair@II@std@@@1@@Z 100a12e0 f i Logger.obj
 0002:0004f330       ??$forward@AAPAU?$_Tree_node@U?$pair@$$CBV?$CStringT@_WV?$StrTraitMFC_DLL@_WV?$ChTraitsCRT@_W@ATL@@@@@ATL@@U?$pair@II@std@@@std@@PAX@std@@@std@@YAAAPAU?$_Tree_node@U?$pair@$$CBV?$CStringT@_WV?$StrTraitMFC_DLL@_WV?$ChTraitsCRT@_W@ATL@@@@@ATL@@U?$pair@II@std@@@std@@PAX@0@AAPAU10@@Z 100a1330 f i Logger.obj
 0002:0004f370       ??$forward@AAU?$pair@$$CBV?$CStringT@_WV?$StrTraitMFC_DLL@_WV?$ChTraitsCRT@_W@ATL@@@@@ATL@@U?$pair@II@std@@@std@@@std@@YAAAU?$pair@$$CBV?$CStringT@_WV?$StrTraitMFC_DLL@_WV?$ChTraitsCRT@_W@ATL@@@@@ATL@@U?$pair@II@std@@@0@AAU10@@Z 100a1370 f i Logger.obj
 0002:0004f3b0       ??$forward@AAV?$_Tree_iterator@V?$_Tree_val@U?$_Tree_simple_types@U?$pair@$$CBV?$CStringT@_WV?$StrTraitMFC_DLL@_WV?$ChTraitsCRT@_W@ATL@@@@@ATL@@U?$pair@II@std@@@std@@@std@@@std@@@std@@@std@@YAAAV?$_Tree_iterator@V?$_Tree_val@U?$_Tree_simple_types@U?$pair@$$CBV?$CStringT@_WV?$StrTraitMFC_DLL@_WV?$ChTraitsCRT@_W@ATL@@@@@ATL@@U?$pair@II@std@@@std@@@std@@@std@@@0@AAV10@@Z 100a13b0 f i Logger.obj
 0002:0004f3f0       ??$forward@H@std@@YA$$QAHAAH@Z 100a13f0 f i Logger.obj
 0002:0004f430       ??$forward@U?$pair@HH@std@@@std@@YA$$QAU?$pair@HH@0@AAU10@@Z 100a1430 f i Logger.obj
 0002:0004f470       ??$forward@U?$pair@V?$CStringT@_WV?$StrTraitMFC_DLL@_WV?$ChTraitsCRT@_W@ATL@@@@@ATL@@U?$pair@HH@std@@@std@@@std@@YA$$QAU?$pair@V?$CStringT@_WV?$StrTraitMFC_DLL@_WV?$ChTraitsCRT@_W@ATL@@@@@ATL@@U?$pair@HH@std@@@0@AAU10@@Z 100a1470 f i Logger.obj
 0002:0004f4b0       ??$forward@V?$_Tree_iterator@V?$_Tree_val@U?$_Tree_simple_types@U?$pair@$$CBV?$CStringT@_WV?$StrTraitMFC_DLL@_WV?$ChTraitsCRT@_W@ATL@@@@@ATL@@U?$pair@II@std@@@std@@@std@@@std@@@std@@@std@@YA$$QAV?$_Tree_iterator@V?$_Tree_val@U?$_Tree_simple_types@U?$pair@$$CBV?$CStringT@_WV?$StrTraitMFC_DLL@_WV?$ChTraitsCRT@_W@ATL@@@@@ATL@@U?$pair@II@std@@@std@@@std@@@std@@@0@AAV10@@Z 100a14b0 f i Logger.obj
 0002:0004f4f0       ??$insert@U?$pair@V?$CStringT@_WV?$StrTraitMFC_DLL@_WV?$ChTraitsCRT@_W@ATL@@@@@ATL@@U?$pair@HH@std@@@std@@@?$_Tree@V?$_Tmap_traits@V?$CStringT@_WV?$StrTraitMFC_DLL@_WV?$ChTraitsCRT@_W@ATL@@@@@ATL@@U?$pair@II@std@@U?$less@V?$CStringT@_WV?$StrTraitMFC_DLL@_WV?$ChTraitsCRT@_W@ATL@@@@@ATL@@@4@V?$allocator@U?$pair@$$CBV?$CStringT@_WV?$StrTraitMFC_DLL@_WV?$ChTraitsCRT@_W@ATL@@@@@ATL@@U?$pair@II@std@@@std@@@4@$0A@@std@@@std@@QAE?AU?$pair@V?$_Tree_iterator@V?$_Tree_val@U?$_Tree_simple_types@U?$pair@$$CBV?$CStringT@_WV?$StrTraitMFC_DLL@_WV?$ChTraitsCRT@_W@ATL@@@@@ATL@@U?$pair@II@std@@@std@@@std@@@std@@@std@@_N@1@$$QAU?$pair@V?$CStringT@_WV?$StrTraitMFC_DLL@_WV?$ChTraitsCRT@_W@ATL@@@@@ATL@@U?$pair@HH@std@@@1@@Z 100a14f0 f i Logger.obj
 0002:0004f5a0       ??$make_pair@AAV?$CStringT@_WV?$StrTraitMFC_DLL@_WV?$ChTraitsCRT@_W@ATL@@@@@ATL@@U?$pair@HH@std@@@std@@YA?AU?$pair@V?$CStringT@_WV?$StrTraitMFC_DLL@_WV?$ChTraitsCRT@_W@ATL@@@@@ATL@@U?$pair@HH@std@@@0@AAV?$CStringT@_WV?$StrTraitMFC_DLL@_WV?$ChTraitsCRT@_W@ATL@@@@@ATL@@$$QAU?$pair@HH@0@@Z 100a15a0 f i Logger.obj
 0002:0004f630       ??$make_pair@HH@std@@YA?AU?$pair@HH@0@$$QAH0@Z 100a1630 f i Logger.obj
 0002:0004f6a0       ??$swap@D@std@@YAXAAD0@Z   100a16a0 f i Logger.obj
 0002:0004f780       ??0?$_Iterator012@Ubidirectional_iterator_tag@std@@U?$pair@$$CBV?$CStringT@_WV?$StrTraitMFC_DLL@_WV?$ChTraitsCRT@_W@ATL@@@@@ATL@@U?$pair@II@std@@@2@HPBU32@ABU32@U_Iterator_base12@2@@std@@QAE@ABU01@@Z 100a1780 f i Logger.obj
 0002:0004f7e0       ??0?$_Iterator012@Ubidirectional_iterator_tag@std@@U?$pair@$$CBV?$CStringT@_WV?$StrTraitMFC_DLL@_WV?$ChTraitsCRT@_W@ATL@@@@@ATL@@U?$pair@II@std@@@2@HPBU32@ABU32@U_Iterator_base12@2@@std@@QAE@XZ 100a17e0 f i Logger.obj
 0002:0004f840       ??0?$_Tree@V?$_Tmap_traits@V?$CStringT@_WV?$StrTraitMFC_DLL@_WV?$ChTraitsCRT@_W@ATL@@@@@ATL@@U?$pair@II@std@@U?$less@V?$CStringT@_WV?$StrTraitMFC_DLL@_WV?$ChTraitsCRT@_W@ATL@@@@@ATL@@@4@V?$allocator@U?$pair@$$CBV?$CStringT@_WV?$StrTraitMFC_DLL@_WV?$ChTraitsCRT@_W@ATL@@@@@ATL@@U?$pair@II@std@@@std@@@4@$0A@@std@@@std@@QAE@ABU?$less@V?$CStringT@_WV?$StrTraitMFC_DLL@_WV?$ChTraitsCRT@_W@ATL@@@@@ATL@@@1@ABV?$allocator@U?$pair@$$CBV?$CStringT@_WV?$StrTraitMFC_DLL@_WV?$ChTraitsCRT@_W@ATL@@@@@ATL@@U?$pair@II@std@@@std@@@1@@Z 100a1840 f i Logger.obj
 0002:0004f8a0       ??0?$_Tree_alloc@$0A@U?$_Tree_base_types@U?$pair@$$CBV?$CStringT@_WV?$StrTraitMFC_DLL@_WV?$ChTraitsCRT@_W@ATL@@@@@ATL@@U?$pair@II@std@@@std@@V?$allocator@U?$pair@$$CBV?$CStringT@_WV?$StrTraitMFC_DLL@_WV?$ChTraitsCRT@_W@ATL@@@@@ATL@@U?$pair@II@std@@@std@@@2@@std@@@std@@QAE@ABV?$allocator@U?$pair@$$CBV?$CStringT@_WV?$StrTraitMFC_DLL@_WV?$ChTraitsCRT@_W@ATL@@@@@ATL@@U?$pair@II@std@@@std@@@1@@Z 100a18a0 f i Logger.obj
 0002:0004f9a0       ??0?$_Tree_buy@U?$pair@$$CBV?$CStringT@_WV?$StrTraitMFC_DLL@_WV?$ChTraitsCRT@_W@ATL@@@@@ATL@@U?$pair@II@std@@@std@@V?$allocator@U?$pair@$$CBV?$CStringT@_WV?$StrTraitMFC_DLL@_WV?$ChTraitsCRT@_W@ATL@@@@@ATL@@U?$pair@II@std@@@std@@@2@@std@@QAE@ABV?$allocator@U?$pair@$$CBV?$CStringT@_WV?$StrTraitMFC_DLL@_WV?$ChTraitsCRT@_W@ATL@@@@@ATL@@U?$pair@II@std@@@std@@@1@@Z 100a19a0 f i Logger.obj
 0002:0004fa00       ??0?$_Tree_comp@$0A@V?$_Tmap_traits@V?$CStringT@_WV?$StrTraitMFC_DLL@_WV?$ChTraitsCRT@_W@ATL@@@@@ATL@@U?$pair@II@std@@U?$less@V?$CStringT@_WV?$StrTraitMFC_DLL@_WV?$ChTraitsCRT@_W@ATL@@@@@ATL@@@4@V?$allocator@U?$pair@$$CBV?$CStringT@_WV?$StrTraitMFC_DLL@_WV?$ChTraitsCRT@_W@ATL@@@@@ATL@@U?$pair@II@std@@@std@@@4@$0A@@std@@@std@@QAE@ABU?$less@V?$CStringT@_WV?$StrTraitMFC_DLL@_WV?$ChTraitsCRT@_W@ATL@@@@@ATL@@@1@ABV?$allocator@U?$pair@$$CBV?$CStringT@_WV?$StrTraitMFC_DLL@_WV?$ChTraitsCRT@_W@ATL@@@@@ATL@@U?$pair@II@std@@@std@@@1@@Z 100a1a00 f i Logger.obj
 0002:0004fa60       ??0?$_Tree_const_iterator@V?$_Tree_val@U?$_Tree_simple_types@U?$pair@$$CBV?$CStringT@_WV?$StrTraitMFC_DLL@_WV?$ChTraitsCRT@_W@ATL@@@@@ATL@@U?$pair@II@std@@@std@@@std@@@std@@@std@@QAE@ABV01@@Z 100a1a60 f i Logger.obj
 0002:0004fac0       ??0?$_Tree_const_iterator@V?$_Tree_val@U?$_Tree_simple_types@U?$pair@$$CBV?$CStringT@_WV?$StrTraitMFC_DLL@_WV?$ChTraitsCRT@_W@ATL@@@@@ATL@@U?$pair@II@std@@@std@@@std@@@std@@@std@@QAE@PAU?$_Tree_node@U?$pair@$$CBV?$CStringT@_WV?$StrTraitMFC_DLL@_WV?$ChTraitsCRT@_W@ATL@@@@@ATL@@U?$pair@II@std@@@std@@PAX@1@PBV?$_Tree_val@U?$_Tree_simple_types@U?$pair@$$CBV?$CStringT@_WV?$StrTraitMFC_DLL@_WV?$ChTraitsCRT@_W@ATL@@@@@ATL@@U?$pair@II@std@@@std@@@std@@@1@@Z 100a1ac0 f i Logger.obj
 0002:0004fb20       ??0?$_Tree_const_iterator@V?$_Tree_val@U?$_Tree_simple_types@U?$pair@$$CBV?$CStringT@_WV?$StrTraitMFC_DLL@_WV?$ChTraitsCRT@_W@ATL@@@@@ATL@@U?$pair@II@std@@@std@@@std@@@std@@@std@@QAE@XZ 100a1b20 f i Logger.obj
 0002:0004fb80       ??0?$_Tree_iterator@V?$_Tree_val@U?$_Tree_simple_types@U?$pair@$$CBV?$CStringT@_WV?$StrTraitMFC_DLL@_WV?$ChTraitsCRT@_W@ATL@@@@@ATL@@U?$pair@II@std@@@std@@@std@@@std@@@std@@QAE@ABV01@@Z 100a1b80 f i Logger.obj
 0002:0004fbe0       ??0?$_Tree_iterator@V?$_Tree_val@U?$_Tree_simple_types@U?$pair@$$CBV?$CStringT@_WV?$StrTraitMFC_DLL@_WV?$ChTraitsCRT@_W@ATL@@@@@ATL@@U?$pair@II@std@@@std@@@std@@@std@@@std@@QAE@PAU?$_Tree_node@U?$pair@$$CBV?$CStringT@_WV?$StrTraitMFC_DLL@_WV?$ChTraitsCRT@_W@ATL@@@@@ATL@@U?$pair@II@std@@@std@@PAX@1@PBV?$_Tree_val@U?$_Tree_simple_types@U?$pair@$$CBV?$CStringT@_WV?$StrTraitMFC_DLL@_WV?$ChTraitsCRT@_W@ATL@@@@@ATL@@U?$pair@II@std@@@std@@@std@@@1@@Z 100a1be0 f i Logger.obj
 0002:0004fc40       ??0?$_Tree_iterator@V?$_Tree_val@U?$_Tree_simple_types@U?$pair@$$CBV?$CStringT@_WV?$StrTraitMFC_DLL@_WV?$ChTraitsCRT@_W@ATL@@@@@ATL@@U?$pair@II@std@@@std@@@std@@@std@@@std@@QAE@XZ 100a1c40 f i Logger.obj
 0002:0004fca0       ??0?$_Tree_unchecked_const_iterator@V?$_Tree_val@U?$_Tree_simple_types@U?$pair@$$CBV?$CStringT@_WV?$StrTraitMFC_DLL@_WV?$ChTraitsCRT@_W@ATL@@@@@ATL@@U?$pair@II@std@@@std@@@std@@@std@@U_Iterator_base12@2@@std@@QAE@ABV01@@Z 100a1ca0 f i Logger.obj
 0002:0004fd10       ??0?$_Tree_unchecked_const_iterator@V?$_Tree_val@U?$_Tree_simple_types@U?$pair@$$CBV?$CStringT@_WV?$StrTraitMFC_DLL@_WV?$ChTraitsCRT@_W@ATL@@@@@ATL@@U?$pair@II@std@@@std@@@std@@@std@@U_Iterator_base12@2@@std@@QAE@PAU?$_Tree_node@U?$pair@$$CBV?$CStringT@_WV?$StrTraitMFC_DLL@_WV?$ChTraitsCRT@_W@ATL@@@@@ATL@@U?$pair@II@std@@@std@@PAX@1@PBV?$_Tree_val@U?$_Tree_simple_types@U?$pair@$$CBV?$CStringT@_WV?$StrTraitMFC_DLL@_WV?$ChTraitsCRT@_W@ATL@@@@@ATL@@U?$pair@II@std@@@std@@@std@@@1@@Z 100a1d10 f i Logger.obj
 0002:0004fdd0       ??0?$_Tree_unchecked_const_iterator@V?$_Tree_val@U?$_Tree_simple_types@U?$pair@$$CBV?$CStringT@_WV?$StrTraitMFC_DLL@_WV?$ChTraitsCRT@_W@ATL@@@@@ATL@@U?$pair@II@std@@@std@@@std@@@std@@U_Iterator_base12@2@@std@@QAE@XZ 100a1dd0 f i Logger.obj
 0002:0004fe30       ??0?$_Tree_val@U?$_Tree_simple_types@U?$pair@$$CBV?$CStringT@_WV?$StrTraitMFC_DLL@_WV?$ChTraitsCRT@_W@ATL@@@@@ATL@@U?$pair@II@std@@@std@@@std@@@std@@QAE@XZ 100a1e30 f i Logger.obj
 0002:0004feb0       ??0?$_Wrap_alloc@V?$allocator@U?$_Tree_node@U?$pair@$$CBV?$CStringT@_WV?$StrTraitMFC_DLL@_WV?$ChTraitsCRT@_W@ATL@@@@@ATL@@U?$pair@II@std@@@std@@PAX@std@@@std@@@std@@QAE@XZ 100a1eb0 f i Logger.obj
 0002:0004ff10       ??0?$allocator@U?$_Tree_node@U?$pair@$$CBV?$CStringT@_WV?$StrTraitMFC_DLL@_WV?$ChTraitsCRT@_W@ATL@@@@@ATL@@U?$pair@II@std@@@std@@PAX@std@@@std@@QAE@XZ 100a1f10 f i Logger.obj
 0002:0004ff50       ??0?$allocator@U?$pair@$$CBV?$CStringT@_WV?$StrTraitMFC_DLL@_WV?$ChTraitsCRT@_W@ATL@@@@@ATL@@U?$pair@II@std@@@std@@@std@@QAE@XZ 100a1f50 f i Logger.obj
 0002:0004ff90       ??0?$map@V?$CStringT@_WV?$StrTraitMFC_DLL@_WV?$ChTraitsCRT@_W@ATL@@@@@ATL@@U?$pair@II@std@@U?$less@V?$CStringT@_WV?$StrTraitMFC_DLL@_WV?$ChTraitsCRT@_W@ATL@@@@@ATL@@@4@V?$allocator@U?$pair@$$CBV?$CStringT@_WV?$StrTraitMFC_DLL@_WV?$ChTraitsCRT@_W@ATL@@@@@ATL@@U?$pair@II@std@@@std@@@4@@std@@QAE@XZ 100a1f90 f i Logger.obj
 0002:00050000       ??0?$pair@V?$_Tree_iterator@V?$_Tree_val@U?$_Tree_simple_types@U?$pair@$$CBV?$CStringT@_WV?$StrTraitMFC_DLL@_WV?$ChTraitsCRT@_W@ATL@@@@@ATL@@U?$pair@II@std@@@std@@@std@@@std@@@std@@_N@std@@QAE@XZ 100a2000 f i Logger.obj
 0002:00050060       ??0CriticalSection@baro@@QAE@XZ 100a2060 f i Logger.obj
 0002:00050140       ??0ScreenSaverControl@@QAE@XZ 100a2140 f i Logger.obj
 0002:000501a0       ??1?$_Iterator012@Ubidirectional_iterator_tag@std@@U?$pair@$$CBV?$CStringT@_WV?$StrTraitMFC_DLL@_WV?$ChTraitsCRT@_W@ATL@@@@@ATL@@U?$pair@II@std@@@2@HPBU32@ABU32@U_Iterator_base12@2@@std@@QAE@XZ 100a21a0 f i Logger.obj
 0002:000501f0       ??1?$_Tree@V?$_Tmap_traits@V?$CStringT@_WV?$StrTraitMFC_DLL@_WV?$ChTraitsCRT@_W@ATL@@@@@ATL@@U?$pair@II@std@@U?$less@V?$CStringT@_WV?$StrTraitMFC_DLL@_WV?$ChTraitsCRT@_W@ATL@@@@@ATL@@@4@V?$allocator@U?$pair@$$CBV?$CStringT@_WV?$StrTraitMFC_DLL@_WV?$ChTraitsCRT@_W@ATL@@@@@ATL@@U?$pair@II@std@@@std@@@4@$0A@@std@@@std@@QAE@XZ 100a21f0 f i Logger.obj
 0002:00050250       ??1?$_Tree_alloc@$0A@U?$_Tree_base_types@U?$pair@$$CBV?$CStringT@_WV?$StrTraitMFC_DLL@_WV?$ChTraitsCRT@_W@ATL@@@@@ATL@@U?$pair@II@std@@@std@@V?$allocator@U?$pair@$$CBV?$CStringT@_WV?$StrTraitMFC_DLL@_WV?$ChTraitsCRT@_W@ATL@@@@@ATL@@U?$pair@II@std@@@std@@@2@@std@@@std@@QAE@XZ 100a2250 f i Logger.obj
 0002:000502c0       ??1?$_Tree_buy@U?$pair@$$CBV?$CStringT@_WV?$StrTraitMFC_DLL@_WV?$ChTraitsCRT@_W@ATL@@@@@ATL@@U?$pair@II@std@@@std@@V?$allocator@U?$pair@$$CBV?$CStringT@_WV?$StrTraitMFC_DLL@_WV?$ChTraitsCRT@_W@ATL@@@@@ATL@@U?$pair@II@std@@@std@@@2@@std@@QAE@XZ 100a22c0 f i Logger.obj
 0002:00050310       ??1?$_Tree_comp@$0A@V?$_Tmap_traits@V?$CStringT@_WV?$StrTraitMFC_DLL@_WV?$ChTraitsCRT@_W@ATL@@@@@ATL@@U?$pair@II@std@@U?$less@V?$CStringT@_WV?$StrTraitMFC_DLL@_WV?$ChTraitsCRT@_W@ATL@@@@@ATL@@@4@V?$allocator@U?$pair@$$CBV?$CStringT@_WV?$StrTraitMFC_DLL@_WV?$ChTraitsCRT@_W@ATL@@@@@ATL@@U?$pair@II@std@@@std@@@4@$0A@@std@@@std@@QAE@XZ 100a2310 f i Logger.obj
 0002:00050360       ??1?$_Tree_const_iterator@V?$_Tree_val@U?$_Tree_simple_types@U?$pair@$$CBV?$CStringT@_WV?$StrTraitMFC_DLL@_WV?$ChTraitsCRT@_W@ATL@@@@@ATL@@U?$pair@II@std@@@std@@@std@@@std@@@std@@QAE@XZ 100a2360 f i Logger.obj
 0002:000503b0       ??1?$_Tree_iterator@V?$_Tree_val@U?$_Tree_simple_types@U?$pair@$$CBV?$CStringT@_WV?$StrTraitMFC_DLL@_WV?$ChTraitsCRT@_W@ATL@@@@@ATL@@U?$pair@II@std@@@std@@@std@@@std@@@std@@QAE@XZ 100a23b0 f i Logger.obj
 0002:00050400       ??1?$_Tree_unchecked_const_iterator@V?$_Tree_val@U?$_Tree_simple_types@U?$pair@$$CBV?$CStringT@_WV?$StrTraitMFC_DLL@_WV?$ChTraitsCRT@_W@ATL@@@@@ATL@@U?$pair@II@std@@@std@@@std@@@std@@U_Iterator_base12@2@@std@@QAE@XZ 100a2400 f i Logger.obj
 0002:00050450       ??1?$_Tree_val@U?$_Tree_simple_types@U?$pair@$$CBV?$CStringT@_WV?$StrTraitMFC_DLL@_WV?$ChTraitsCRT@_W@ATL@@@@@ATL@@U?$pair@II@std@@@std@@@std@@@std@@QAE@XZ 100a2450 f i Logger.obj
 0002:000504b0       ??1?$map@V?$CStringT@_WV?$StrTraitMFC_DLL@_WV?$ChTraitsCRT@_W@ATL@@@@@ATL@@U?$pair@II@std@@U?$less@V?$CStringT@_WV?$StrTraitMFC_DLL@_WV?$ChTraitsCRT@_W@ATL@@@@@ATL@@@4@V?$allocator@U?$pair@$$CBV?$CStringT@_WV?$StrTraitMFC_DLL@_WV?$ChTraitsCRT@_W@ATL@@@@@ATL@@U?$pair@II@std@@@std@@@4@@std@@QAE@XZ 100a24b0 f i Logger.obj
 0002:00050500       ??1?$pair@$$CBV?$CStringT@_WV?$StrTraitMFC_DLL@_WV?$ChTraitsCRT@_W@ATL@@@@@ATL@@U?$pair@II@std@@@std@@QAE@XZ 100a2500 f i Logger.obj
 0002:00050560       ??1?$pair@V?$CStringT@_WV?$StrTraitMFC_DLL@_WV?$ChTraitsCRT@_W@ATL@@@@@ATL@@U?$pair@HH@std@@@std@@QAE@XZ 100a2560 f i Logger.obj
 0002:000505c0       ??1?$pair@V?$_Tree_iterator@V?$_Tree_val@U?$_Tree_simple_types@U?$pair@$$CBV?$CStringT@_WV?$StrTraitMFC_DLL@_WV?$ChTraitsCRT@_W@ATL@@@@@ATL@@U?$pair@II@std@@@std@@@std@@@std@@@std@@_N@std@@QAE@XZ 100a25c0 f i Logger.obj
 0002:00050610       ??1CriticalSection@baro@@UAE@XZ 100a2610 f i Logger.obj
 0002:000506f0       ??4?$_Iterator012@Ubidirectional_iterator_tag@std@@U?$pair@$$CBV?$CStringT@_WV?$StrTraitMFC_DLL@_WV?$ChTraitsCRT@_W@ATL@@@@@ATL@@U?$pair@II@std@@@2@HPBU32@ABU32@U_Iterator_base12@2@@std@@QAEAAU01@ABU01@@Z 100a26f0 f i Logger.obj
 0002:00050750       ??4?$_Tree_const_iterator@V?$_Tree_val@U?$_Tree_simple_types@U?$pair@$$CBV?$CStringT@_WV?$StrTraitMFC_DLL@_WV?$ChTraitsCRT@_W@ATL@@@@@ATL@@U?$pair@II@std@@@std@@@std@@@std@@@std@@QAEAAV01@ABV01@@Z 100a2750 f i Logger.obj
 0002:000507b0       ??4?$_Tree_iterator@V?$_Tree_val@U?$_Tree_simple_types@U?$pair@$$CBV?$CStringT@_WV?$StrTraitMFC_DLL@_WV?$ChTraitsCRT@_W@ATL@@@@@ATL@@U?$pair@II@std@@@std@@@std@@@std@@@std@@QAEAAV01@ABV01@@Z 100a27b0 f i Logger.obj
 0002:00050810       ??4?$_Tree_unchecked_const_iterator@V?$_Tree_val@U?$_Tree_simple_types@U?$pair@$$CBV?$CStringT@_WV?$StrTraitMFC_DLL@_WV?$ChTraitsCRT@_W@ATL@@@@@ATL@@U?$pair@II@std@@@std@@@std@@@std@@U_Iterator_base12@2@@std@@QAEAAV01@ABV01@@Z 100a2810 f i Logger.obj
 0002:00050880       ??4?$pair@V?$_Tree_iterator@V?$_Tree_val@U?$_Tree_simple_types@U?$pair@$$CBV?$CStringT@_WV?$StrTraitMFC_DLL@_WV?$ChTraitsCRT@_W@ATL@@@@@ATL@@U?$pair@II@std@@@std@@@std@@@std@@@std@@_N@std@@QAEAAU01@$$QAU01@@Z 100a2880 f i Logger.obj
 0002:00050910       ??8?$_Tree_const_iterator@V?$_Tree_val@U?$_Tree_simple_types@U?$pair@$$CBV?$CStringT@_WV?$StrTraitMFC_DLL@_WV?$ChTraitsCRT@_W@ATL@@@@@ATL@@U?$pair@II@std@@@std@@@std@@@std@@@std@@QBE_NABV01@@Z 100a2910 f i Logger.obj
 0002:00050a70       ??9?$_Tree_const_iterator@V?$_Tree_val@U?$_Tree_simple_types@U?$pair@$$CBV?$CStringT@_WV?$StrTraitMFC_DLL@_WV?$ChTraitsCRT@_W@ATL@@@@@ATL@@U?$pair@II@std@@@std@@@std@@@std@@@std@@QBE_NABV01@@Z 100a2a70 f i Logger.obj
 0002:00050b00       ??C?$_Tree_iterator@V?$_Tree_val@U?$_Tree_simple_types@U?$pair@$$CBV?$CStringT@_WV?$StrTraitMFC_DLL@_WV?$ChTraitsCRT@_W@ATL@@@@@ATL@@U?$pair@II@std@@@std@@@std@@@std@@@std@@QBEPAU?$pair@$$CBV?$CStringT@_WV?$StrTraitMFC_DLL@_WV?$ChTraitsCRT@_W@ATL@@@@@ATL@@U?$pair@II@std@@@1@XZ 100a2b00 f i Logger.obj
 0002:00050b60       ??D?$_Tree_const_iterator@V?$_Tree_val@U?$_Tree_simple_types@U?$pair@$$CBV?$CStringT@_WV?$StrTraitMFC_DLL@_WV?$ChTraitsCRT@_W@ATL@@@@@ATL@@U?$pair@II@std@@@std@@@std@@@std@@@std@@QBEABU?$pair@$$CBV?$CStringT@_WV?$StrTraitMFC_DLL@_WV?$ChTraitsCRT@_W@ATL@@@@@ATL@@U?$pair@II@std@@@1@XZ 100a2b60 f i Logger.obj
 0002:00050ca0       ??D?$_Tree_iterator@V?$_Tree_val@U?$_Tree_simple_types@U?$pair@$$CBV?$CStringT@_WV?$StrTraitMFC_DLL@_WV?$ChTraitsCRT@_W@ATL@@@@@ATL@@U?$pair@II@std@@@std@@@std@@@std@@@std@@QBEAAU?$pair@$$CBV?$CStringT@_WV?$StrTraitMFC_DLL@_WV?$ChTraitsCRT@_W@ATL@@@@@ATL@@U?$pair@II@std@@@1@XZ 100a2ca0 f i Logger.obj
 0002:00050cf0       ??E?$_Tree_const_iterator@V?$_Tree_val@U?$_Tree_simple_types@U?$pair@$$CBV?$CStringT@_WV?$StrTraitMFC_DLL@_WV?$ChTraitsCRT@_W@ATL@@@@@ATL@@U?$pair@II@std@@@std@@@std@@@std@@@std@@QAE?AV01@H@Z 100a2cf0 f i Logger.obj
 0002:00050e30       ??E?$_Tree_const_iterator@V?$_Tree_val@U?$_Tree_simple_types@U?$pair@$$CBV?$CStringT@_WV?$StrTraitMFC_DLL@_WV?$ChTraitsCRT@_W@ATL@@@@@ATL@@U?$pair@II@std@@@std@@@std@@@std@@@std@@QAEAAV01@XZ 100a2e30 f i Logger.obj
 0002:00050f70       ??E?$_Tree_iterator@V?$_Tree_val@U?$_Tree_simple_types@U?$pair@$$CBV?$CStringT@_WV?$StrTraitMFC_DLL@_WV?$ChTraitsCRT@_W@ATL@@@@@ATL@@U?$pair@II@std@@@std@@@std@@@std@@@std@@QAEAAV01@XZ 100a2f70 f i Logger.obj
 0002:00050fd0       ??E?$_Tree_unchecked_const_iterator@V?$_Tree_val@U?$_Tree_simple_types@U?$pair@$$CBV?$CStringT@_WV?$StrTraitMFC_DLL@_WV?$ChTraitsCRT@_W@ATL@@@@@ATL@@U?$pair@II@std@@@std@@@std@@@std@@U_Iterator_base12@2@@std@@QAEAAV01@XZ 100a2fd0 f i Logger.obj
 0002:00051100       ??F?$_Tree_const_iterator@V?$_Tree_val@U?$_Tree_simple_types@U?$pair@$$CBV?$CStringT@_WV?$StrTraitMFC_DLL@_WV?$ChTraitsCRT@_W@ATL@@@@@ATL@@U?$pair@II@std@@@std@@@std@@@std@@@std@@QAEAAV01@XZ 100a3100 f i Logger.obj
 0002:000512e0       ??F?$_Tree_iterator@V?$_Tree_val@U?$_Tree_simple_types@U?$pair@$$CBV?$CStringT@_WV?$StrTraitMFC_DLL@_WV?$ChTraitsCRT@_W@ATL@@@@@ATL@@U?$pair@II@std@@@std@@@std@@@std@@@std@@QAEAAV01@XZ 100a32e0 f i Logger.obj
 0002:00051340       ??F?$_Tree_unchecked_const_iterator@V?$_Tree_val@U?$_Tree_simple_types@U?$pair@$$CBV?$CStringT@_WV?$StrTraitMFC_DLL@_WV?$ChTraitsCRT@_W@ATL@@@@@ATL@@U?$pair@II@std@@@std@@@std@@@std@@U_Iterator_base12@2@@std@@QAEAAV01@XZ 100a3340 f i Logger.obj
 0002:000514a0       ??_ECriticalSection@baro@@UAEPAXI@Z 100a34a0 f i Logger.obj
 0002:00051560       ??_G?$pair@$$CBV?$CStringT@_WV?$StrTraitMFC_DLL@_WV?$ChTraitsCRT@_W@ATL@@@@@ATL@@U?$pair@II@std@@@std@@QAEPAXI@Z 100a3560 f i Logger.obj
 0002:000515d0       ?Begin@logger@baro@@YAX_N00@Z 100a35d0 f   Logger.obj
 0002:00052120       ?Disable@ScreenSaverControl@@QAEXXZ 100a4120 f i Logger.obj
 0002:00052240       ?EnablePrint@logger@baro@@YAX_N@Z 100a4240 f   Logger.obj
 0002:00052280       ?End@logger@baro@@YAXXZ    100a4280 f   Logger.obj
 0002:000527c0       ?GetClassNameW@logger@baro@@YA?AV?$CStringT@_WV?$StrTraitMFC_DLL@_WV?$ChTraitsCRT@_W@ATL@@@@@ATL@@V34@@Z 100a47c0 f   Logger.obj
 0002:00052920       ?GetConstructIter@@YA?AV?$_Tree_iterator@V?$_Tree_val@U?$_Tree_simple_types@U?$pair@$$CBV?$CStringT@_WV?$StrTraitMFC_DLL@_WV?$ChTraitsCRT@_W@ATL@@@@@ATL@@U?$pair@II@std@@@std@@@std@@@std@@@std@@V?$CStringT@_WV?$StrTraitMFC_DLL@_WV?$ChTraitsCRT@_W@ATL@@@@@ATL@@@Z 100a4920 f   Logger.obj
 0002:00052d80       ?GetMethodName@logger@baro@@YA?AV?$CStringT@_WV?$StrTraitMFC_DLL@_WV?$ChTraitsCRT@_W@ATL@@@@@ATL@@V34@@Z 100a4d80 f   Logger.obj
 0002:00052f10       ?GetTabAlign@@YAHH@Z       100a4f10 f   Logger.obj
 0002:00052f80       ?IsRunning@logger@baro@@YA_NXZ 100a4f80 f   Logger.obj
 0002:00052fe0       ?IsVisible@logger@baro@@YA_NXZ 100a4fe0 f   Logger.obj
 0002:00053070       ?Lock@CriticalSection@baro@@QAEHXZ 100a5070 f i Logger.obj
 0002:000530f0       ?Restore@ScreenSaverControl@@QAEXXZ 100a50f0 f i Logger.obj
 0002:000531b0       ?SetMainThreadID@logger@baro@@YAXK@Z 100a51b0 f   Logger.obj
 0002:000531f0       ?ShowConsole@logger@baro@@YAX_N@Z 100a51f0 f   Logger.obj
 0002:000532c0       ?Trace@logger@baro@@YAXW4TextColor@2@PB_WJ11ZZ 100a52c0 f   Logger.obj
 0002:00053a20       ?TraceBuffer@logger@baro@@YAXW4TextColor@2@PBEI@Z 100a5a20 f   Logger.obj
 0002:00053cf0       ?TraceConstruct@logger@baro@@YAXPB_W_N@Z 100a5cf0 f   Logger.obj
 0002:00053f60       ?TraceDestruct@logger@baro@@YAXPB_W_N@Z 100a5f60 f   Logger.obj
 0002:00054230       ?Unlock@CriticalSection@baro@@QAEHXZ 100a6230 f i Logger.obj
 0002:000542c0       ?_Alloc_proxy@?$_Tree_alloc@$0A@U?$_Tree_base_types@U?$pair@$$CBV?$CStringT@_WV?$StrTraitMFC_DLL@_WV?$ChTraitsCRT@_W@ATL@@@@@ATL@@U?$pair@II@std@@@std@@V?$allocator@U?$pair@$$CBV?$CStringT@_WV?$StrTraitMFC_DLL@_WV?$ChTraitsCRT@_W@ATL@@@@@ATL@@U?$pair@II@std@@@std@@@2@@std@@@std@@QAEXXZ 100a62c0 f i Logger.obj
 0002:000543c0       ?_Buyheadnode@?$_Tree_alloc@$0A@U?$_Tree_base_types@U?$pair@$$CBV?$CStringT@_WV?$StrTraitMFC_DLL@_WV?$ChTraitsCRT@_W@ATL@@@@@ATL@@U?$pair@II@std@@@std@@V?$allocator@U?$pair@$$CBV?$CStringT@_WV?$StrTraitMFC_DLL@_WV?$ChTraitsCRT@_W@ATL@@@@@ATL@@U?$pair@II@std@@@std@@@2@@std@@@std@@QAEPAU?$_Tree_node@U?$pair@$$CBV?$CStringT@_WV?$StrTraitMFC_DLL@_WV?$ChTraitsCRT@_W@ATL@@@@@ATL@@U?$pair@II@std@@@std@@PAX@2@XZ 100a63c0 f i Logger.obj
 0002:00054630       ?_Buynode0@?$_Tree_buy@U?$pair@$$CBV?$CStringT@_WV?$StrTraitMFC_DLL@_WV?$ChTraitsCRT@_W@ATL@@@@@ATL@@U?$pair@II@std@@@std@@V?$allocator@U?$pair@$$CBV?$CStringT@_WV?$StrTraitMFC_DLL@_WV?$ChTraitsCRT@_W@ATL@@@@@ATL@@U?$pair@II@std@@@std@@@2@@std@@QAEPAU?$_Tree_node@U?$pair@$$CBV?$CStringT@_WV?$StrTraitMFC_DLL@_WV?$ChTraitsCRT@_W@ATL@@@@@ATL@@U?$pair@II@std@@@std@@PAX@2@XZ 100a6630 f i Logger.obj
 0002:00054840       ?_Color@?$_Tree_val@U?$_Tree_simple_types@U?$pair@$$CBV?$CStringT@_WV?$StrTraitMFC_DLL@_WV?$ChTraitsCRT@_W@ATL@@@@@ATL@@U?$pair@II@std@@@std@@@std@@@std@@SAAADPAU?$_Tree_node@U?$pair@$$CBV?$CStringT@_WV?$StrTraitMFC_DLL@_WV?$ChTraitsCRT@_W@ATL@@@@@ATL@@U?$pair@II@std@@@std@@PAX@2@@Z 100a6840 f i Logger.obj
 0002:00054880       ?_Destroy_if_not_nil@?$_Tree@V?$_Tmap_traits@V?$CStringT@_WV?$StrTraitMFC_DLL@_WV?$ChTraitsCRT@_W@ATL@@@@@ATL@@U?$pair@II@std@@U?$less@V?$CStringT@_WV?$StrTraitMFC_DLL@_WV?$ChTraitsCRT@_W@ATL@@@@@ATL@@@4@V?$allocator@U?$pair@$$CBV?$CStringT@_WV?$StrTraitMFC_DLL@_WV?$ChTraitsCRT@_W@ATL@@@@@ATL@@U?$pair@II@std@@@std@@@4@$0A@@std@@@std@@IAEXPAU?$_Tree_node@U?$pair@$$CBV?$CStringT@_WV?$StrTraitMFC_DLL@_WV?$ChTraitsCRT@_W@ATL@@@@@ATL@@U?$pair@II@std@@@std@@PAX@2@@Z 100a6880 f i Logger.obj
 0002:00054930       ?_Erase@?$_Tree@V?$_Tmap_traits@V?$CStringT@_WV?$StrTraitMFC_DLL@_WV?$ChTraitsCRT@_W@ATL@@@@@ATL@@U?$pair@II@std@@U?$less@V?$CStringT@_WV?$StrTraitMFC_DLL@_WV?$ChTraitsCRT@_W@ATL@@@@@ATL@@@4@V?$allocator@U?$pair@$$CBV?$CStringT@_WV?$StrTraitMFC_DLL@_WV?$ChTraitsCRT@_W@ATL@@@@@ATL@@U?$pair@II@std@@@std@@@4@$0A@@std@@@std@@IAEXPAU?$_Tree_node@U?$pair@$$CBV?$CStringT@_WV?$StrTraitMFC_DLL@_WV?$ChTraitsCRT@_W@ATL@@@@@ATL@@U?$pair@II@std@@@std@@PAX@2@@Z 100a6930 f i Logger.obj
 0002:00054a40       ?_Free_proxy@?$_Tree_alloc@$0A@U?$_Tree_base_types@U?$pair@$$CBV?$CStringT@_WV?$StrTraitMFC_DLL@_WV?$ChTraitsCRT@_W@ATL@@@@@ATL@@U?$pair@II@std@@@std@@V?$allocator@U?$pair@$$CBV?$CStringT@_WV?$StrTraitMFC_DLL@_WV?$ChTraitsCRT@_W@ATL@@@@@ATL@@U?$pair@II@std@@@std@@@2@@std@@@std@@QAEXXZ 100a6a40 f i Logger.obj
 0002:00054b40       ?_Freeheadnode@?$_Tree_alloc@$0A@U?$_Tree_base_types@U?$pair@$$CBV?$CStringT@_WV?$StrTraitMFC_DLL@_WV?$ChTraitsCRT@_W@ATL@@@@@ATL@@U?$pair@II@std@@@std@@V?$allocator@U?$pair@$$CBV?$CStringT@_WV?$StrTraitMFC_DLL@_WV?$ChTraitsCRT@_W@ATL@@@@@ATL@@U?$pair@II@std@@@std@@@2@@std@@@std@@QAEXPAU?$_Tree_node@U?$pair@$$CBV?$CStringT@_WV?$StrTraitMFC_DLL@_WV?$ChTraitsCRT@_W@ATL@@@@@ATL@@U?$pair@II@std@@@std@@PAX@2@@Z 100a6b40 f i Logger.obj
 0002:00054c50       ?_Freenode0@?$_Tree_buy@U?$pair@$$CBV?$CStringT@_WV?$StrTraitMFC_DLL@_WV?$ChTraitsCRT@_W@ATL@@@@@ATL@@U?$pair@II@std@@@std@@V?$allocator@U?$pair@$$CBV?$CStringT@_WV?$StrTraitMFC_DLL@_WV?$ChTraitsCRT@_W@ATL@@@@@ATL@@U?$pair@II@std@@@std@@@2@@std@@QAEXPAU?$_Tree_node@U?$pair@$$CBV?$CStringT@_WV?$StrTraitMFC_DLL@_WV?$ChTraitsCRT@_W@ATL@@@@@ATL@@U?$pair@II@std@@@std@@PAX@2@@Z 100a6c50 f i Logger.obj
 0002:00054d60       ?_Getal@?$_Tree_alloc@$0A@U?$_Tree_base_types@U?$pair@$$CBV?$CStringT@_WV?$StrTraitMFC_DLL@_WV?$ChTraitsCRT@_W@ATL@@@@@ATL@@U?$pair@II@std@@@std@@V?$allocator@U?$pair@$$CBV?$CStringT@_WV?$StrTraitMFC_DLL@_WV?$ChTraitsCRT@_W@ATL@@@@@ATL@@U?$pair@II@std@@@std@@@2@@std@@@std@@QBE?AU?$_Wrap_alloc@V?$allocator@U?$_Tree_node@U?$pair@$$CBV?$CStringT@_WV?$StrTraitMFC_DLL@_WV?$ChTraitsCRT@_W@ATL@@@@@ATL@@U?$pair@II@std@@@std@@PAX@std@@@std@@@2@XZ 100a6d60 f i Logger.obj
 0002:00054dc0       ?_Getcomp@?$_Tree_comp@$0A@V?$_Tmap_traits@V?$CStringT@_WV?$StrTraitMFC_DLL@_WV?$ChTraitsCRT@_W@ATL@@@@@ATL@@U?$pair@II@std@@U?$less@V?$CStringT@_WV?$StrTraitMFC_DLL@_WV?$ChTraitsCRT@_W@ATL@@@@@ATL@@@4@V?$allocator@U?$pair@$$CBV?$CStringT@_WV?$StrTraitMFC_DLL@_WV?$ChTraitsCRT@_W@ATL@@@@@ATL@@U?$pair@II@std@@@std@@@4@$0A@@std@@@std@@QBE?AU?$less@V?$CStringT@_WV?$StrTraitMFC_DLL@_WV?$ChTraitsCRT@_W@ATL@@@@@ATL@@@2@XZ 100a6dc0 f i Logger.obj
 0002:00054e00       ?_Isnil@?$_Tree_val@U?$_Tree_simple_types@U?$pair@$$CBV?$CStringT@_WV?$StrTraitMFC_DLL@_WV?$ChTraitsCRT@_W@ATL@@@@@ATL@@U?$pair@II@std@@@std@@@std@@@std@@SAAADPAU?$_Tree_node@U?$pair@$$CBV?$CStringT@_WV?$StrTraitMFC_DLL@_WV?$ChTraitsCRT@_W@ATL@@@@@ATL@@U?$pair@II@std@@@std@@PAX@2@@Z 100a6e00 f i Logger.obj
 0002:00054e40       ?_Key@?$_Tree@V?$_Tmap_traits@V?$CStringT@_WV?$StrTraitMFC_DLL@_WV?$ChTraitsCRT@_W@ATL@@@@@ATL@@U?$pair@II@std@@U?$less@V?$CStringT@_WV?$StrTraitMFC_DLL@_WV?$ChTraitsCRT@_W@ATL@@@@@ATL@@@4@V?$allocator@U?$pair@$$CBV?$CStringT@_WV?$StrTraitMFC_DLL@_WV?$ChTraitsCRT@_W@ATL@@@@@ATL@@U?$pair@II@std@@@std@@@4@$0A@@std@@@std@@IBEABV?$CStringT@_WV?$StrTraitMFC_DLL@_WV?$ChTraitsCRT@_W@ATL@@@@@ATL@@PAU?$_Tree_node@U?$pair@$$CBV?$CStringT@_WV?$StrTraitMFC_DLL@_WV?$ChTraitsCRT@_W@ATL@@@@@ATL@@U?$pair@II@std@@@std@@PAX@2@@Z 100a6e40 f i Logger.obj
 0002:00054eb0       ?_Kfn@?$_Tree@V?$_Tmap_traits@V?$CStringT@_WV?$StrTraitMFC_DLL@_WV?$ChTraitsCRT@_W@ATL@@@@@ATL@@U?$pair@II@std@@U?$less@V?$CStringT@_WV?$StrTraitMFC_DLL@_WV?$ChTraitsCRT@_W@ATL@@@@@ATL@@@4@V?$allocator@U?$pair@$$CBV?$CStringT@_WV?$StrTraitMFC_DLL@_WV?$ChTraitsCRT@_W@ATL@@@@@ATL@@U?$pair@II@std@@@std@@@4@$0A@@std@@@std@@IBEABV?$CStringT@_WV?$StrTraitMFC_DLL@_WV?$ChTraitsCRT@_W@ATL@@@@@ATL@@ABU?$pair@$$CBV?$CStringT@_WV?$StrTraitMFC_DLL@_WV?$ChTraitsCRT@_W@ATL@@@@@ATL@@U?$pair@II@std@@@2@@Z 100a6eb0 f i Logger.obj
 0002:00054f10       ?_Lbound@?$_Tree@V?$_Tmap_traits@V?$CStringT@_WV?$StrTraitMFC_DLL@_WV?$ChTraitsCRT@_W@ATL@@@@@ATL@@U?$pair@II@std@@U?$less@V?$CStringT@_WV?$StrTraitMFC_DLL@_WV?$ChTraitsCRT@_W@ATL@@@@@ATL@@@4@V?$allocator@U?$pair@$$CBV?$CStringT@_WV?$StrTraitMFC_DLL@_WV?$ChTraitsCRT@_W@ATL@@@@@ATL@@U?$pair@II@std@@@std@@@4@$0A@@std@@@std@@IAEPAU?$_Tree_node@U?$pair@$$CBV?$CStringT@_WV?$StrTraitMFC_DLL@_WV?$ChTraitsCRT@_W@ATL@@@@@ATL@@U?$pair@II@std@@@std@@PAX@2@ABV?$CStringT@_WV?$StrTraitMFC_DLL@_WV?$ChTraitsCRT@_W@ATL@@@@@ATL@@@Z 100a6f10 f i Logger.obj
 0002:00055020       ?_Left@?$_Tree_val@U?$_Tree_simple_types@U?$pair@$$CBV?$CStringT@_WV?$StrTraitMFC_DLL@_WV?$ChTraitsCRT@_W@ATL@@@@@ATL@@U?$pair@II@std@@@std@@@std@@@std@@SAAAPAU?$_Tree_node@U?$pair@$$CBV?$CStringT@_WV?$StrTraitMFC_DLL@_WV?$ChTraitsCRT@_W@ATL@@@@@ATL@@U?$pair@II@std@@@std@@PAX@2@PAU32@@Z 100a7020 f i Logger.obj
 0002:00055060       ?_Lmost@?$_Tree@V?$_Tmap_traits@V?$CStringT@_WV?$StrTraitMFC_DLL@_WV?$ChTraitsCRT@_W@ATL@@@@@ATL@@U?$pair@II@std@@U?$less@V?$CStringT@_WV?$StrTraitMFC_DLL@_WV?$ChTraitsCRT@_W@ATL@@@@@ATL@@@4@V?$allocator@U?$pair@$$CBV?$CStringT@_WV?$StrTraitMFC_DLL@_WV?$ChTraitsCRT@_W@ATL@@@@@ATL@@U?$pair@II@std@@@std@@@4@$0A@@std@@@std@@IBEAAPAU?$_Tree_node@U?$pair@$$CBV?$CStringT@_WV?$StrTraitMFC_DLL@_WV?$ChTraitsCRT@_W@ATL@@@@@ATL@@U?$pair@II@std@@@std@@PAX@2@XZ 100a7060 f i Logger.obj
 0002:000550c0       ?_Lrotate@?$_Tree@V?$_Tmap_traits@V?$CStringT@_WV?$StrTraitMFC_DLL@_WV?$ChTraitsCRT@_W@ATL@@@@@ATL@@U?$pair@II@std@@U?$less@V?$CStringT@_WV?$StrTraitMFC_DLL@_WV?$ChTraitsCRT@_W@ATL@@@@@ATL@@@4@V?$allocator@U?$pair@$$CBV?$CStringT@_WV?$StrTraitMFC_DLL@_WV?$ChTraitsCRT@_W@ATL@@@@@ATL@@U?$pair@II@std@@@std@@@4@$0A@@std@@@std@@IAEXPAU?$_Tree_node@U?$pair@$$CBV?$CStringT@_WV?$StrTraitMFC_DLL@_WV?$ChTraitsCRT@_W@ATL@@@@@ATL@@U?$pair@II@std@@@std@@PAX@2@@Z 100a70c0 f i Logger.obj
 0002:00055270       ?_Max@?$_Tree_val@U?$_Tree_simple_types@U?$pair@$$CBV?$CStringT@_WV?$StrTraitMFC_DLL@_WV?$ChTraitsCRT@_W@ATL@@@@@ATL@@U?$pair@II@std@@@std@@@std@@@std@@SAPAU?$_Tree_node@U?$pair@$$CBV?$CStringT@_WV?$StrTraitMFC_DLL@_WV?$ChTraitsCRT@_W@ATL@@@@@ATL@@U?$pair@II@std@@@std@@PAX@2@PAU32@@Z 100a7270 f i Logger.obj
 0002:000552f0       ?_Min@?$_Tree_val@U?$_Tree_simple_types@U?$pair@$$CBV?$CStringT@_WV?$StrTraitMFC_DLL@_WV?$ChTraitsCRT@_W@ATL@@@@@ATL@@U?$pair@II@std@@@std@@@std@@@std@@SAPAU?$_Tree_node@U?$pair@$$CBV?$CStringT@_WV?$StrTraitMFC_DLL@_WV?$ChTraitsCRT@_W@ATL@@@@@ATL@@U?$pair@II@std@@@std@@PAX@2@PAU32@@Z 100a72f0 f i Logger.obj
 0002:00055370       ?_Mynode@?$_Tree_unchecked_const_iterator@V?$_Tree_val@U?$_Tree_simple_types@U?$pair@$$CBV?$CStringT@_WV?$StrTraitMFC_DLL@_WV?$ChTraitsCRT@_W@ATL@@@@@ATL@@U?$pair@II@std@@@std@@@std@@@std@@U_Iterator_base12@2@@std@@QBEPAU?$_Tree_node@U?$pair@$$CBV?$CStringT@_WV?$StrTraitMFC_DLL@_WV?$ChTraitsCRT@_W@ATL@@@@@ATL@@U?$pair@II@std@@@std@@PAX@2@XZ 100a7370 f i Logger.obj
 0002:000553b0       ?_Myval@?$_Tree_val@U?$_Tree_simple_types@U?$pair@$$CBV?$CStringT@_WV?$StrTraitMFC_DLL@_WV?$ChTraitsCRT@_W@ATL@@@@@ATL@@U?$pair@II@std@@@std@@@std@@@std@@SAAAU?$pair@$$CBV?$CStringT@_WV?$StrTraitMFC_DLL@_WV?$ChTraitsCRT@_W@ATL@@@@@ATL@@U?$pair@II@std@@@2@PAU?$_Tree_node@U?$pair@$$CBV?$CStringT@_WV?$StrTraitMFC_DLL@_WV?$ChTraitsCRT@_W@ATL@@@@@ATL@@U?$pair@II@std@@@std@@PAX@2@@Z 100a73b0 f i Logger.obj
 0002:000553f0       ?_Orphan_ptr@?$_Tree@V?$_Tmap_traits@V?$CStringT@_WV?$StrTraitMFC_DLL@_WV?$ChTraitsCRT@_W@ATL@@@@@ATL@@U?$pair@II@std@@U?$less@V?$CStringT@_WV?$StrTraitMFC_DLL@_WV?$ChTraitsCRT@_W@ATL@@@@@ATL@@@4@V?$allocator@U?$pair@$$CBV?$CStringT@_WV?$StrTraitMFC_DLL@_WV?$ChTraitsCRT@_W@ATL@@@@@ATL@@U?$pair@II@std@@@std@@@4@$0A@@std@@@std@@IBEXAAV12@PAU?$_Tree_node@U?$pair@$$CBV?$CStringT@_WV?$StrTraitMFC_DLL@_WV?$ChTraitsCRT@_W@ATL@@@@@ATL@@U?$pair@II@std@@@std@@PAX@2@@Z 100a73f0 f i Logger.obj
 0002:00055590       ?_Parent@?$_Tree_val@U?$_Tree_simple_types@U?$pair@$$CBV?$CStringT@_WV?$StrTraitMFC_DLL@_WV?$ChTraitsCRT@_W@ATL@@@@@ATL@@U?$pair@II@std@@@std@@@std@@@std@@SAAAPAU?$_Tree_node@U?$pair@$$CBV?$CStringT@_WV?$StrTraitMFC_DLL@_WV?$ChTraitsCRT@_W@ATL@@@@@ATL@@U?$pair@II@std@@@std@@PAX@2@PAU32@@Z 100a7590 f i Logger.obj
 0002:000555d0       ?_Right@?$_Tree_val@U?$_Tree_simple_types@U?$pair@$$CBV?$CStringT@_WV?$StrTraitMFC_DLL@_WV?$ChTraitsCRT@_W@ATL@@@@@ATL@@U?$pair@II@std@@@std@@@std@@@std@@SAAAPAU?$_Tree_node@U?$pair@$$CBV?$CStringT@_WV?$StrTraitMFC_DLL@_WV?$ChTraitsCRT@_W@ATL@@@@@ATL@@U?$pair@II@std@@@std@@PAX@2@PAU32@@Z 100a75d0 f i Logger.obj
 0002:00055610       ?_Rmost@?$_Tree@V?$_Tmap_traits@V?$CStringT@_WV?$StrTraitMFC_DLL@_WV?$ChTraitsCRT@_W@ATL@@@@@ATL@@U?$pair@II@std@@U?$less@V?$CStringT@_WV?$StrTraitMFC_DLL@_WV?$ChTraitsCRT@_W@ATL@@@@@ATL@@@4@V?$allocator@U?$pair@$$CBV?$CStringT@_WV?$StrTraitMFC_DLL@_WV?$ChTraitsCRT@_W@ATL@@@@@ATL@@U?$pair@II@std@@@std@@@4@$0A@@std@@@std@@IBEAAPAU?$_Tree_node@U?$pair@$$CBV?$CStringT@_WV?$StrTraitMFC_DLL@_WV?$ChTraitsCRT@_W@ATL@@@@@ATL@@U?$pair@II@std@@@std@@PAX@2@XZ 100a7610 f i Logger.obj
 0002:00055670       ?_Root@?$_Tree@V?$_Tmap_traits@V?$CStringT@_WV?$StrTraitMFC_DLL@_WV?$ChTraitsCRT@_W@ATL@@@@@ATL@@U?$pair@II@std@@U?$less@V?$CStringT@_WV?$StrTraitMFC_DLL@_WV?$ChTraitsCRT@_W@ATL@@@@@ATL@@@4@V?$allocator@U?$pair@$$CBV?$CStringT@_WV?$StrTraitMFC_DLL@_WV?$ChTraitsCRT@_W@ATL@@@@@ATL@@U?$pair@II@std@@@std@@@4@$0A@@std@@@std@@IBEAAPAU?$_Tree_node@U?$pair@$$CBV?$CStringT@_WV?$StrTraitMFC_DLL@_WV?$ChTraitsCRT@_W@ATL@@@@@ATL@@U?$pair@II@std@@@std@@PAX@2@XZ 100a7670 f i Logger.obj
 0002:000556d0       ?_Rrotate@?$_Tree@V?$_Tmap_traits@V?$CStringT@_WV?$StrTraitMFC_DLL@_WV?$ChTraitsCRT@_W@ATL@@@@@ATL@@U?$pair@II@std@@U?$less@V?$CStringT@_WV?$StrTraitMFC_DLL@_WV?$ChTraitsCRT@_W@ATL@@@@@ATL@@@4@V?$allocator@U?$pair@$$CBV?$CStringT@_WV?$StrTraitMFC_DLL@_WV?$ChTraitsCRT@_W@ATL@@@@@ATL@@U?$pair@II@std@@@std@@@4@$0A@@std@@@std@@IAEXPAU?$_Tree_node@U?$pair@$$CBV?$CStringT@_WV?$StrTraitMFC_DLL@_WV?$ChTraitsCRT@_W@ATL@@@@@ATL@@U?$pair@II@std@@@std@@PAX@2@@Z 100a76d0 f i Logger.obj
 0002:00055880       ?_Tidy@?$_Tree@V?$_Tmap_traits@V?$CStringT@_WV?$StrTraitMFC_DLL@_WV?$ChTraitsCRT@_W@ATL@@@@@ATL@@U?$pair@II@std@@U?$less@V?$CStringT@_WV?$StrTraitMFC_DLL@_WV?$ChTraitsCRT@_W@ATL@@@@@ATL@@@4@V?$allocator@U?$pair@$$CBV?$CStringT@_WV?$StrTraitMFC_DLL@_WV?$ChTraitsCRT@_W@ATL@@@@@ATL@@U?$pair@II@std@@@std@@@4@$0A@@std@@@std@@IAEXXZ 100a7880 f i Logger.obj
 0002:00055a10       ?__autoclassinit2@?$_Tree_const_iterator@V?$_Tree_val@U?$_Tree_simple_types@U?$pair@$$CBV?$CStringT@_WV?$StrTraitMFC_DLL@_WV?$ChTraitsCRT@_W@ATL@@@@@ATL@@U?$pair@II@std@@@std@@@std@@@std@@@std@@QAEXI@Z 100a7a10 f i Logger.obj
 0002:00055a70       ?__autoclassinit2@?$_Tree_iterator@V?$_Tree_val@U?$_Tree_simple_types@U?$pair@$$CBV?$CStringT@_WV?$StrTraitMFC_DLL@_WV?$ChTraitsCRT@_W@ATL@@@@@ATL@@U?$pair@II@std@@@std@@@std@@@std@@@std@@QAEXI@Z 100a7a70 f i Logger.obj
 0002:00055ad0       ?__autoclassinit2@?$map@V?$CStringT@_WV?$StrTraitMFC_DLL@_WV?$ChTraitsCRT@_W@ATL@@@@@ATL@@U?$pair@II@std@@U?$less@V?$CStringT@_WV?$StrTraitMFC_DLL@_WV?$ChTraitsCRT@_W@ATL@@@@@ATL@@@4@V?$allocator@U?$pair@$$CBV?$CStringT@_WV?$StrTraitMFC_DLL@_WV?$ChTraitsCRT@_W@ATL@@@@@ATL@@U?$pair@II@std@@@std@@@4@@std@@QAEXI@Z 100a7ad0 f i Logger.obj
 0002:00055b30       ?__autoclassinit2@CriticalSection@baro@@QAEXI@Z 100a7b30 f i Logger.obj
 0002:00055b90       ?allocate@?$_Wrap_alloc@V?$allocator@U?$_Tree_node@U?$pair@$$CBV?$CStringT@_WV?$StrTraitMFC_DLL@_WV?$ChTraitsCRT@_W@ATL@@@@@ATL@@U?$pair@II@std@@@std@@PAX@std@@@std@@@std@@QAEPAU?$_Tree_node@U?$pair@$$CBV?$CStringT@_WV?$StrTraitMFC_DLL@_WV?$ChTraitsCRT@_W@ATL@@@@@ATL@@U?$pair@II@std@@@std@@PAX@2@I@Z 100a7b90 f i Logger.obj
 0002:00055bf0       ?allocate@?$allocator@U?$_Tree_node@U?$pair@$$CBV?$CStringT@_WV?$StrTraitMFC_DLL@_WV?$ChTraitsCRT@_W@ATL@@@@@ATL@@U?$pair@II@std@@@std@@PAX@std@@@std@@QAEPAU?$_Tree_node@U?$pair@$$CBV?$CStringT@_WV?$StrTraitMFC_DLL@_WV?$ChTraitsCRT@_W@ATL@@@@@ATL@@U?$pair@II@std@@@std@@PAX@2@I@Z 100a7bf0 f i Logger.obj
 0002:00055c50       ?begin@?$_Tree@V?$_Tmap_traits@V?$CStringT@_WV?$StrTraitMFC_DLL@_WV?$ChTraitsCRT@_W@ATL@@@@@ATL@@U?$pair@II@std@@U?$less@V?$CStringT@_WV?$StrTraitMFC_DLL@_WV?$ChTraitsCRT@_W@ATL@@@@@ATL@@@4@V?$allocator@U?$pair@$$CBV?$CStringT@_WV?$StrTraitMFC_DLL@_WV?$ChTraitsCRT@_W@ATL@@@@@ATL@@U?$pair@II@std@@@std@@@4@$0A@@std@@@std@@QAE?AV?$_Tree_iterator@V?$_Tree_val@U?$_Tree_simple_types@U?$pair@$$CBV?$CStringT@_WV?$StrTraitMFC_DLL@_WV?$ChTraitsCRT@_W@ATL@@@@@ATL@@U?$pair@II@std@@@std@@@std@@@std@@@2@XZ 100a7c50 f i Logger.obj
 0002:00055cc0       ?clear@?$_Tree@V?$_Tmap_traits@V?$CStringT@_WV?$StrTraitMFC_DLL@_WV?$ChTraitsCRT@_W@ATL@@@@@ATL@@U?$pair@II@std@@U?$less@V?$CStringT@_WV?$StrTraitMFC_DLL@_WV?$ChTraitsCRT@_W@ATL@@@@@ATL@@@4@V?$allocator@U?$pair@$$CBV?$CStringT@_WV?$StrTraitMFC_DLL@_WV?$ChTraitsCRT@_W@ATL@@@@@ATL@@U?$pair@II@std@@@std@@@4@$0A@@std@@@std@@QAEXXZ 100a7cc0 f i Logger.obj
 0002:00055d80       ?deallocate@?$_Wrap_alloc@V?$allocator@U?$_Tree_node@U?$pair@$$CBV?$CStringT@_WV?$StrTraitMFC_DLL@_WV?$ChTraitsCRT@_W@ATL@@@@@ATL@@U?$pair@II@std@@@std@@PAX@std@@@std@@@std@@QAEXPAU?$_Tree_node@U?$pair@$$CBV?$CStringT@_WV?$StrTraitMFC_DLL@_WV?$ChTraitsCRT@_W@ATL@@@@@ATL@@U?$pair@II@std@@@std@@PAX@2@I@Z 100a7d80 f i Logger.obj
 0002:00055de0       ?deallocate@?$allocator@U?$_Tree_node@U?$pair@$$CBV?$CStringT@_WV?$StrTraitMFC_DLL@_WV?$ChTraitsCRT@_W@ATL@@@@@ATL@@U?$pair@II@std@@@std@@PAX@std@@@std@@QAEXPAU?$_Tree_node@U?$pair@$$CBV?$CStringT@_WV?$StrTraitMFC_DLL@_WV?$ChTraitsCRT@_W@ATL@@@@@ATL@@U?$pair@II@std@@@std@@PAX@2@I@Z 100a7de0 f i Logger.obj
 0002:00055e40       ?end@?$_Tree@V?$_Tmap_traits@V?$CStringT@_WV?$StrTraitMFC_DLL@_WV?$ChTraitsCRT@_W@ATL@@@@@ATL@@U?$pair@II@std@@U?$less@V?$CStringT@_WV?$StrTraitMFC_DLL@_WV?$ChTraitsCRT@_W@ATL@@@@@ATL@@@4@V?$allocator@U?$pair@$$CBV?$CStringT@_WV?$StrTraitMFC_DLL@_WV?$ChTraitsCRT@_W@ATL@@@@@ATL@@U?$pair@II@std@@@std@@@4@$0A@@std@@@std@@QAE?AV?$_Tree_iterator@V?$_Tree_val@U?$_Tree_simple_types@U?$pair@$$CBV?$CStringT@_WV?$StrTraitMFC_DLL@_WV?$ChTraitsCRT@_W@ATL@@@@@ATL@@U?$pair@II@std@@@std@@@std@@@std@@@2@XZ 100a7e40 f i Logger.obj
 0002:00055eb0       ?erase@?$_Tree@V?$_Tmap_traits@V?$CStringT@_WV?$StrTraitMFC_DLL@_WV?$ChTraitsCRT@_W@ATL@@@@@ATL@@U?$pair@II@std@@U?$less@V?$CStringT@_WV?$StrTraitMFC_DLL@_WV?$ChTraitsCRT@_W@ATL@@@@@ATL@@@4@V?$allocator@U?$pair@$$CBV?$CStringT@_WV?$StrTraitMFC_DLL@_WV?$ChTraitsCRT@_W@ATL@@@@@ATL@@U?$pair@II@std@@@std@@@4@$0A@@std@@@std@@QAE?AV?$_Tree_iterator@V?$_Tree_val@U?$_Tree_simple_types@U?$pair@$$CBV?$CStringT@_WV?$StrTraitMFC_DLL@_WV?$ChTraitsCRT@_W@ATL@@@@@ATL@@U?$pair@II@std@@@std@@@std@@@std@@@2@V?$_Tree_const_iterator@V?$_Tree_val@U?$_Tree_simple_types@U?$pair@$$CBV?$CStringT@_WV?$StrTraitMFC_DLL@_WV?$ChTraitsCRT@_W@ATL@@@@@ATL@@U?$pair@II@std@@@std@@@std@@@std@@@2@0@Z 100a7eb0 f i Logger.obj
 0002:000561d0       ?erase@?$_Tree@V?$_Tmap_traits@V?$CStringT@_WV?$StrTraitMFC_DLL@_WV?$ChTraitsCRT@_W@ATL@@@@@ATL@@U?$pair@II@std@@U?$less@V?$CStringT@_WV?$StrTraitMFC_DLL@_WV?$ChTraitsCRT@_W@ATL@@@@@ATL@@@4@V?$allocator@U?$pair@$$CBV?$CStringT@_WV?$StrTraitMFC_DLL@_WV?$ChTraitsCRT@_W@ATL@@@@@ATL@@U?$pair@II@std@@@std@@@4@$0A@@std@@@std@@QAE?AV?$_Tree_iterator@V?$_Tree_val@U?$_Tree_simple_types@U?$pair@$$CBV?$CStringT@_WV?$StrTraitMFC_DLL@_WV?$ChTraitsCRT@_W@ATL@@@@@ATL@@U?$pair@II@std@@@std@@@std@@@std@@@2@V?$_Tree_const_iterator@V?$_Tree_val@U?$_Tree_simple_types@U?$pair@$$CBV?$CStringT@_WV?$StrTraitMFC_DLL@_WV?$ChTraitsCRT@_W@ATL@@@@@ATL@@U?$pair@II@std@@@std@@@std@@@std@@@2@@Z 100a81d0 f i Logger.obj
 0002:00056c50       ?find@?$_Tree@V?$_Tmap_traits@V?$CStringT@_WV?$StrTraitMFC_DLL@_WV?$ChTraitsCRT@_W@ATL@@@@@ATL@@U?$pair@II@std@@U?$less@V?$CStringT@_WV?$StrTraitMFC_DLL@_WV?$ChTraitsCRT@_W@ATL@@@@@ATL@@@4@V?$allocator@U?$pair@$$CBV?$CStringT@_WV?$StrTraitMFC_DLL@_WV?$ChTraitsCRT@_W@ATL@@@@@ATL@@U?$pair@II@std@@@std@@@4@$0A@@std@@@std@@QAE?AV?$_Tree_iterator@V?$_Tree_val@U?$_Tree_simple_types@U?$pair@$$CBV?$CStringT@_WV?$StrTraitMFC_DLL@_WV?$ChTraitsCRT@_W@ATL@@@@@ATL@@U?$pair@II@std@@@std@@@std@@@std@@@2@ABV?$CStringT@_WV?$StrTraitMFC_DLL@_WV?$ChTraitsCRT@_W@ATL@@@@@ATL@@@Z 100a8c50 f i Logger.obj
 0002:00056f80       ?lower_bound@?$_Tree@V?$_Tmap_traits@V?$CStringT@_WV?$StrTraitMFC_DLL@_WV?$ChTraitsCRT@_W@ATL@@@@@ATL@@U?$pair@II@std@@U?$less@V?$CStringT@_WV?$StrTraitMFC_DLL@_WV?$ChTraitsCRT@_W@ATL@@@@@ATL@@@4@V?$allocator@U?$pair@$$CBV?$CStringT@_WV?$StrTraitMFC_DLL@_WV?$ChTraitsCRT@_W@ATL@@@@@ATL@@U?$pair@II@std@@@std@@@4@$0A@@std@@@std@@QAE?AV?$_Tree_iterator@V?$_Tree_val@U?$_Tree_simple_types@U?$pair@$$CBV?$CStringT@_WV?$StrTraitMFC_DLL@_WV?$ChTraitsCRT@_W@ATL@@@@@ATL@@U?$pair@II@std@@@std@@@std@@@std@@@2@ABV?$CStringT@_WV?$StrTraitMFC_DLL@_WV?$ChTraitsCRT@_W@ATL@@@@@ATL@@@Z 100a8f80 f i Logger.obj
 0002:00057010       ?max_size@?$_Tree@V?$_Tmap_traits@V?$CStringT@_WV?$StrTraitMFC_DLL@_WV?$ChTraitsCRT@_W@ATL@@@@@ATL@@U?$pair@II@std@@U?$less@V?$CStringT@_WV?$StrTraitMFC_DLL@_WV?$ChTraitsCRT@_W@ATL@@@@@ATL@@@4@V?$allocator@U?$pair@$$CBV?$CStringT@_WV?$StrTraitMFC_DLL@_WV?$ChTraitsCRT@_W@ATL@@@@@ATL@@U?$pair@II@std@@@std@@@4@$0A@@std@@@std@@QBEIXZ 100a9010 f i Logger.obj
 0002:00057070       ?max_size@?$_Wrap_alloc@V?$allocator@U?$_Tree_node@U?$pair@$$CBV?$CStringT@_WV?$StrTraitMFC_DLL@_WV?$ChTraitsCRT@_W@ATL@@@@@ATL@@U?$pair@II@std@@@std@@PAX@std@@@std@@@std@@QBEIXZ 100a9070 f i Logger.obj
 0002:000570d0       ?max_size@?$allocator@U?$_Tree_node@U?$pair@$$CBV?$CStringT@_WV?$StrTraitMFC_DLL@_WV?$ChTraitsCRT@_W@ATL@@@@@ATL@@U?$pair@II@std@@@std@@PAX@std@@@std@@QBEIXZ 100a90d0 f i Logger.obj
 0002:00057110       ?max_size@?$allocator_traits@V?$allocator@U?$_Tree_node@U?$pair@$$CBV?$CStringT@_WV?$StrTraitMFC_DLL@_WV?$ChTraitsCRT@_W@ATL@@@@@ATL@@U?$pair@II@std@@@std@@PAX@std@@@std@@@std@@SAIABV?$allocator@U?$_Tree_node@U?$pair@$$CBV?$CStringT@_WV?$StrTraitMFC_DLL@_WV?$ChTraitsCRT@_W@ATL@@@@@ATL@@U?$pair@II@std@@@std@@PAX@std@@@2@@Z 100a9110 f i Logger.obj
 0002:00057160       ?pointer_to@?$pointer_traits@PAU?$pair@$$CBV?$CStringT@_WV?$StrTraitMFC_DLL@_WV?$ChTraitsCRT@_W@ATL@@@@@ATL@@U?$pair@II@std@@@std@@@std@@SAPAU?$pair@$$CBV?$CStringT@_WV?$StrTraitMFC_DLL@_WV?$ChTraitsCRT@_W@ATL@@@@@ATL@@U?$pair@II@std@@@2@AAU32@@Z 100a9160 f i Logger.obj
 0002:000571b0       ??0Performance@baro@@QAE@XZ 100a91b0 f   Performance.obj
 0002:00057320       ??1Performance@baro@@QAE@XZ 100a9320 f   Performance.obj
 0002:00057380       ??8Performance@baro@@QAE_NABV01@@Z 100a9380 f   Performance.obj
 0002:00057400       ??9Performance@baro@@QAE_NABV01@@Z 100a9400 f   Performance.obj
 0002:00057480       ??MPerformance@baro@@QAE_NABV01@@Z 100a9480 f   Performance.obj
 0002:000574f0       ??NPerformance@baro@@QAE_NABV01@@Z 100a94f0 f   Performance.obj
 0002:00057560       ??OPerformance@baro@@QAE_NABV01@@Z 100a9560 f   Performance.obj
 0002:000575d0       ??PPerformance@baro@@QAE_NABV01@@Z 100a95d0 f   Performance.obj
 0002:00057640       ?Check@Performance@baro@@QAE_NXZ 100a9640 f   Performance.obj
 0002:00057920       ?Reset@Performance@baro@@QAEXXZ 100a9920 f   Performance.obj
 0002:00057a80       ??0BitmapDC@baro@@QAE@PAVCDC@@II@Z 100a9a80 f   BitmapDC.obj
 0002:00057ba0       ??0BitmapDC@baro@@QAE@PAVCDC@@PAUHBITMAP__@@@Z 100a9ba0 f   BitmapDC.obj
 0002:00057cf0       ??0BitmapDC@baro@@QAE@PAVCWnd@@II@Z 100a9cf0 f   BitmapDC.obj
 0002:00057e80       ??0BitmapDC@baro@@QAE@PAVCWnd@@PAUHBITMAP__@@@Z 100a9e80 f   BitmapDC.obj
 0002:00058040       ??1BitmapDC@baro@@UAE@XZ   100aa040 f   BitmapDC.obj
 0002:00058140       ??_EBitmapDC@baro@@UAEPAXI@Z 100aa140 f i BitmapDC.obj
 0002:00058200       ??_GBitmapDC@baro@@UAEPAXI@Z 100aa200 f i BitmapDC.obj
 0002:00058270       ?BitBlt@BitmapDC@baro@@QAEHPAVCDC@@HHHHHHK@Z 100aa270 f   BitmapDC.obj
 0002:00058320       ?BitBlt@BitmapDC@baro@@QAEHPAVCDC@@K@Z 100aa320 f   BitmapDC.obj
 0002:000583d0       ?Detach@BitmapDC@baro@@QAEPAXXZ 100aa3d0 f   BitmapDC.obj
 0002:00058460       ?Draw@BitmapDC@baro@@QAEHV12@K@Z 100aa460 f   BitmapDC.obj
 0002:00058520       ?DrawBitmap@BitmapDC@baro@@QAEHPAVCBitmap@@HHHHHHHHKH@Z 100aa520 f   BitmapDC.obj
 0002:000585b0       ?DrawBitmap@BitmapDC@baro@@QAEHPAVCBitmap@@HHHHHHK@Z 100aa5b0 f   BitmapDC.obj
 0002:00058630       ?DrawBitmap@BitmapDC@baro@@QAEHPAVCBitmap@@K@Z 100aa630 f   BitmapDC.obj
 0002:00058690       ?DrawObject@BitmapDC@baro@@QAEHPAXHHHHHHHHKH@Z 100aa690 f   BitmapDC.obj
 0002:000587b0       ?DrawObject@BitmapDC@baro@@QAEHPAXHHHHHHK@Z 100aa7b0 f   BitmapDC.obj
 0002:000588a0       ?DrawObject@BitmapDC@baro@@QAEHPAXK@Z 100aa8a0 f   BitmapDC.obj
 0002:00058980       ?GetBitmapBits@BitmapDC@baro@@QAE_NAAV?$TBuffer@E@2@@Z 100aa980 f   BitmapDC.obj
 0002:000589e0       ?Initialize@BitmapDC@baro@@AAEXPAVCDC@@@Z 100aa9e0 f   BitmapDC.obj
 0002:00058b10       ?Initialize@BitmapDC@baro@@AAEXPAVCDC@@PAUHBITMAP__@@@Z 100aab10 f   BitmapDC.obj
 0002:00058c50       ?Release@BitmapDC@baro@@AAEXXZ 100aac50 f   BitmapDC.obj
 0002:00058cc0       ?StretchBlt@BitmapDC@baro@@QAEHPAVCDC@@HHHHHHHHKH@Z 100aacc0 f   BitmapDC.obj
 0002:00058db0       ?__autoclassinit2@CClientDC@@QAEXI@Z 100aadb0 f i BitmapDC.obj
 0002:00058e10       ??$?0$$$V@?$_Ref_count_obj@VPointCoord@baro@@@std@@QAE@XZ 100aae10 f i CustomGraph.obj
 0002:00058f20       ??$?0AAI@?$_Tuple_val@AAI@std@@QAE@AAI@Z 100aaf20 f i CustomGraph.obj
 0002:00058f80       ??$?0AAK@?$_Tuple_val@AAK@std@@QAE@AAK@Z 100aaf80 f i CustomGraph.obj
 0002:00058fe0       ??$?0AAU?$_Callable_obj@V?$_Bind@$00XU?$_Pmf_wrap@P8CustomGraph@baro@@AEXAAVGraphics@Gdiplus@@AAVCDC@@IK@ZXV12@AAV34@AAV5@IK@std@@QAVCustomGraph@baro@@AAV?$_Ph@$00@2@AAV?$_Ph@$01@2@AAV?$_Ph@$02@2@AAV?$_Ph@$03@2@@std@@$0A@@std@@@?$_Callable_obj@V?$_Bind@$00XU?$_Pmf_wrap@P8CustomGraph@baro@@AEXAAVGraphics@Gdiplus@@AAVCDC@@IK@ZXV12@AAV34@AAV5@IK@std@@QAVCustomGraph@baro@@AAV?$_Ph@$00@2@AAV?$_Ph@$01@2@AAV?$_Ph@$02@2@AAV?$_Ph@$03@2@@std@@$0A@@std@@QAE@AAU01@@Z 100aafe0 f i CustomGraph.obj
 0002:00059050       ??$?0AAV?$_Ph@$00@std@@@?$_Tuple_val@V?$_Ph@$00@std@@@std@@QAE@AAV?$_Ph@$00@1@@Z 100ab050 f i CustomGraph.obj
 0002:000590b0       ??$?0AAV?$_Ph@$00@std@@AAV?$_Ph@$01@1@AAV?$_Ph@$02@1@AAV?$_Ph@$03@1@PAPAX@?$tuple@V?$_Ph@$00@std@@V?$_Ph@$01@2@V?$_Ph@$02@2@V?$_Ph@$03@2@@std@@QAE@AAV?$_Ph@$00@1@AAV?$_Ph@$01@1@AAV?$_Ph@$02@1@AAV?$_Ph@$03@1@@Z 100ab0b0 f i CustomGraph.obj
 0002:00059160       ??$?0AAV?$_Ph@$01@std@@@?$_Tuple_val@V?$_Ph@$01@std@@@std@@QAE@AAV?$_Ph@$01@1@@Z 100ab160 f i CustomGraph.obj
 0002:000591c0       ??$?0AAV?$_Ph@$01@std@@AAV?$_Ph@$02@1@AAV?$_Ph@$03@1@PAPAX@?$tuple@V?$_Ph@$01@std@@V?$_Ph@$02@2@V?$_Ph@$03@2@@std@@QAE@AAV?$_Ph@$01@1@AAV?$_Ph@$02@1@AAV?$_Ph@$03@1@@Z 100ab1c0 f i CustomGraph.obj
 0002:00059260       ??$?0AAV?$_Ph@$02@std@@@?$_Tuple_val@V?$_Ph@$02@std@@@std@@QAE@AAV?$_Ph@$02@1@@Z 100ab260 f i CustomGraph.obj
 0002:000592c0       ??$?0AAV?$_Ph@$02@std@@AAV?$_Ph@$03@1@PAPAX@?$tuple@V?$_Ph@$02@std@@V?$_Ph@$03@2@@std@@QAE@AAV?$_Ph@$02@1@AAV?$_Ph@$03@1@@Z 100ab2c0 f i CustomGraph.obj
 0002:00059350       ??$?0AAV?$_Ph@$03@std@@$$$VPAPAX@?$tuple@V?$_Ph@$03@std@@@std@@QAE@AAV?$_Ph@$03@1@@Z 100ab350 f i CustomGraph.obj
 0002:000593c0       ??$?0AAV?$_Ph@$03@std@@@?$_Tuple_val@V?$_Ph@$03@std@@@std@@QAE@AAV?$_Ph@$03@1@@Z 100ab3c0 f i CustomGraph.obj
 0002:00059420       ??$?0AAVCDC@@@?$_Tuple_val@AAVCDC@@@std@@QAE@AAVCDC@@@Z 100ab420 f i CustomGraph.obj
 0002:00059480       ??$?0AAVGraphics@Gdiplus@@@?$_Tuple_val@AAVGraphics@Gdiplus@@@std@@QAE@AAVGraphics@Gdiplus@@@Z 100ab480 f i CustomGraph.obj
 0002:000594e0       ??$?0QAVCustomGraph@baro@@@?$_Tuple_val@PAVCustomGraph@baro@@@std@@QAE@$$QBQAVCustomGraph@baro@@@Z 100ab4e0 f i CustomGraph.obj
 0002:00059550       ??$?0QAVCustomGraph@baro@@AAV?$_Ph@$00@std@@AAV?$_Ph@$01@3@AAV?$_Ph@$02@3@AAV?$_Ph@$03@3@PAPAX@?$tuple@PAVCustomGraph@baro@@V?$_Ph@$00@std@@V?$_Ph@$01@4@V?$_Ph@$02@4@V?$_Ph@$03@4@@std@@QAE@$$QBQAVCustomGraph@baro@@AAV?$_Ph@$00@1@AAV?$_Ph@$01@1@AAV?$_Ph@$02@1@AAV?$_Ph@$03@1@@Z 100ab550 f i CustomGraph.obj
 0002:00059610       ??$?0U?$_Callable_obj@V?$_Bind@$00XU?$_Pmf_wrap@P8CustomGraph@baro@@AEXAAVGraphics@Gdiplus@@AAVCDC@@IK@ZXV12@AAV34@AAV5@IK@std@@QAVCustomGraph@baro@@AAV?$_Ph@$00@2@AAV?$_Ph@$01@2@AAV?$_Ph@$02@2@AAV?$_Ph@$03@2@@std@@$0A@@std@@@?$_Callable_obj@V?$_Bind@$00XU?$_Pmf_wrap@P8CustomGraph@baro@@AEXAAVGraphics@Gdiplus@@AAVCDC@@IK@ZXV12@AAV34@AAV5@IK@std@@QAVCustomGraph@baro@@AAV?$_Ph@$00@2@AAV?$_Ph@$01@2@AAV?$_Ph@$02@2@AAV?$_Ph@$03@2@@std@@$0A@@std@@QAE@$$QAU01@@Z 100ab610 f i CustomGraph.obj
 0002:00059680       ??$?0U?$_Pmf_wrap@P8CustomGraph@baro@@AEXAAVGraphics@Gdiplus@@AAVCDC@@IK@ZXV12@AAV34@AAV5@IK@std@@QAVCustomGraph@baro@@AAV?$_Ph@$00@1@AAV?$_Ph@$01@1@AAV?$_Ph@$02@1@AAV?$_Ph@$03@1@@?$_Bind@$00XU?$_Pmf_wrap@P8CustomGraph@baro@@AEXAAVGraphics@Gdiplus@@AAVCDC@@IK@ZXV12@AAV34@AAV5@IK@std@@QAVCustomGraph@baro@@AAV?$_Ph@$00@2@AAV?$_Ph@$01@2@AAV?$_Ph@$02@2@AAV?$_Ph@$03@2@@std@@QAE@$$QAU?$_Pmf_wrap@P8CustomGraph@baro@@AEXAAVGraphics@Gdiplus@@AAVCDC@@IK@ZXV12@AAV34@AAV5@IK@1@$$QBQAVCustomGraph@baro@@AAV?$_Ph@$00@1@AAV?$_Ph@$01@1@AAV?$_Ph@$02@1@AAV?$_Ph@$03@1@@Z 100ab680 f i CustomGraph.obj
 0002:00059750       ??$?0V?$_Bind@$00XU?$_Pmf_wrap@P8CustomGraph@baro@@AEXAAVGraphics@Gdiplus@@AAVCDC@@IK@ZXV12@AAV34@AAV5@IK@std@@QAVCustomGraph@baro@@AAV?$_Ph@$00@2@AAV?$_Ph@$01@2@AAV?$_Ph@$02@2@AAV?$_Ph@$03@2@@std@@@?$_Callable_obj@V?$_Bind@$00XU?$_Pmf_wrap@P8CustomGraph@baro@@AEXAAVGraphics@Gdiplus@@AAVCDC@@IK@ZXV12@AAV34@AAV5@IK@std@@QAVCustomGraph@baro@@AAV?$_Ph@$00@2@AAV?$_Ph@$01@2@AAV?$_Ph@$02@2@AAV?$_Ph@$03@2@@std@@$0A@@std@@QAE@$$QAV?$_Bind@$00XU?$_Pmf_wrap@P8CustomGraph@baro@@AEXAAVGraphics@Gdiplus@@AAVCDC@@IK@ZXV12@AAV34@AAV5@IK@std@@QAVCustomGraph@baro@@AAV?$_Ph@$00@2@AAV?$_Ph@$01@2@AAV?$_Ph@$02@2@AAV?$_Ph@$03@2@@1@@Z 100ab750 f i CustomGraph.obj
 0002:000597c0       ??$?0V?$_Bind@$00XU?$_Pmf_wrap@P8CustomGraph@baro@@AEXAAVGraphics@Gdiplus@@AAVCDC@@IK@ZXV12@AAV34@AAV5@IK@std@@QAVCustomGraph@baro@@AAV?$_Ph@$00@2@AAV?$_Ph@$01@2@AAV?$_Ph@$02@2@AAV?$_Ph@$03@2@@std@@@?$function@$$A6AXAAVGraphics@Gdiplus@@AAVCDC@@IK@Z@std@@QAE@$$QAV?$_Bind@$00XU?$_Pmf_wrap@P8CustomGraph@baro@@AEXAAVGraphics@Gdiplus@@AAVCDC@@IK@ZXV12@AAV34@AAV5@IK@std@@QAVCustomGraph@baro@@AAV?$_Ph@$00@2@AAV?$_Ph@$01@2@AAV?$_Ph@$02@2@AAV?$_Ph@$03@2@@1@@Z 100ab7c0 f i CustomGraph.obj
 0002:00059880       ??$?0V?$_Func_class@XAAVGraphics@Gdiplus@@AAVCDC@@IK@std@@@?$allocator@V?$_Func_impl@U?$_Callable_obj@V?$_Bind@$00XU?$_Pmf_wrap@P8CustomGraph@baro@@AEXAAVGraphics@Gdiplus@@AAVCDC@@IK@ZXV12@AAV34@AAV5@IK@std@@QAVCustomGraph@baro@@AAV?$_Ph@$00@2@AAV?$_Ph@$01@2@AAV?$_Ph@$02@2@AAV?$_Ph@$03@2@@std@@$0A@@std@@V?$allocator@V?$_Func_class@XAAVGraphics@Gdiplus@@AAVCDC@@IK@std@@@2@XAAVGraphics@Gdiplus@@AAVCDC@@IK@std@@@std@@QAE@ABV?$allocator@V?$_Func_class@XAAVGraphics@Gdiplus@@AAVCDC@@IK@std@@@1@@Z 100ab880 f i CustomGraph.obj
 0002:000598c0       ??$?RAAVGraphics@Gdiplus@@AAVCDC@@IK@?$_Bind@$00XU?$_Pmf_wrap@P8CustomGraph@baro@@AEXAAVGraphics@Gdiplus@@AAVCDC@@IK@ZXV12@AAV34@AAV5@IK@std@@QAVCustomGraph@baro@@AAV?$_Ph@$00@2@AAV?$_Ph@$01@2@AAV?$_Ph@$02@2@AAV?$_Ph@$03@2@@std@@QAEXAAVGraphics@Gdiplus@@AAVCDC@@$$QAI$$QAK@Z 100ab8c0 f i CustomGraph.obj
 0002:00059950       ??$_Allocate@V?$_Func_impl@U?$_Callable_obj@V?$_Bind@$00XU?$_Pmf_wrap@P8CustomGraph@baro@@AEXAAVGraphics@Gdiplus@@AAVCDC@@IK@ZXV12@AAV34@AAV5@IK@std@@QAVCustomGraph@baro@@AAV?$_Ph@$00@2@AAV?$_Ph@$01@2@AAV?$_Ph@$02@2@AAV?$_Ph@$03@2@@std@@$0A@@std@@V?$allocator@V?$_Func_class@XAAVGraphics@Gdiplus@@AAVCDC@@IK@std@@@2@XAAVGraphics@Gdiplus@@AAVCDC@@IK@std@@@std@@YAPAV?$_Func_impl@U?$_Callable_obj@V?$_Bind@$00XU?$_Pmf_wrap@P8CustomGraph@baro@@AEXAAVGraphics@Gdiplus@@AAVCDC@@IK@ZXV12@AAV34@AAV5@IK@std@@QAVCustomGraph@baro@@AAV?$_Ph@$00@2@AAV?$_Ph@$01@2@AAV?$_Ph@$02@2@AAV?$_Ph@$03@2@@std@@$0A@@std@@V?$allocator@V?$_Func_class@XAAVGraphics@Gdiplus@@AAVCDC@@IK@std@@@2@XAAVGraphics@Gdiplus@@AAVCDC@@IK@0@IPAV10@@Z 100ab950 f i CustomGraph.obj
 0002:000599e0       ??$_Allocate@V?$shared_ptr@VPointCoord@baro@@@std@@@std@@YAPAV?$shared_ptr@VPointCoord@baro@@@0@IPAV10@@Z 100ab9e0 f i CustomGraph.obj
 0002:00059a80       ??$_ApplyX@XAAVGraphics@Gdiplus@@AAVCDC@@IK@?$_Callable_obj@V?$_Bind@$00XU?$_Pmf_wrap@P8CustomGraph@baro@@AEXAAVGraphics@Gdiplus@@AAVCDC@@IK@ZXV12@AAV34@AAV5@IK@std@@QAVCustomGraph@baro@@AAV?$_Ph@$00@2@AAV?$_Ph@$01@2@AAV?$_Ph@$02@2@AAV?$_Ph@$03@2@@std@@$0A@@std@@QAEXAAVGraphics@Gdiplus@@AAVCDC@@$$QAI$$QAK@Z 100aba80 f i CustomGraph.obj
 0002:00059b20       ??$_Debug_pointer@V?$shared_ptr@VPointCoord@baro@@@std@@@std@@YAXPAV?$shared_ptr@VPointCoord@baro@@@0@PB_WI@Z 100abb20 f i CustomGraph.obj
 0002:00059b90       ??$_Debug_range2@PAV?$shared_ptr@VPointCoord@baro@@@std@@@std@@YAXPAV?$shared_ptr@VPointCoord@baro@@@0@0PB_WIUrandom_access_iterator_tag@0@@Z 100abb90 f i CustomGraph.obj
 0002:00059c40       ??$_Debug_range@PAV?$shared_ptr@VPointCoord@baro@@@std@@@std@@YAXPAV?$shared_ptr@VPointCoord@baro@@@0@0PB_WI@Z 100abc40 f i CustomGraph.obj
 0002:00059cc0       ??$_Destroy_range@U?$_Wrap_alloc@V?$allocator@V?$shared_ptr@VPointCoord@baro@@@std@@@std@@@std@@@std@@YAXPAV?$shared_ptr@VPointCoord@baro@@@0@0AAU?$_Wrap_alloc@V?$allocator@V?$shared_ptr@VPointCoord@baro@@@std@@@std@@@0@@Z 100abcc0 f i CustomGraph.obj
 0002:00059d40       ??$_Destroy_range@U?$_Wrap_alloc@V?$allocator@V?$shared_ptr@VPointCoord@baro@@@std@@@std@@@std@@@std@@YAXPAV?$shared_ptr@VPointCoord@baro@@@0@0AAU?$_Wrap_alloc@V?$allocator@V?$shared_ptr@VPointCoord@baro@@@std@@@std@@@0@U_Nonscalar_ptr_iterator_tag@0@@Z 100abd40 f i CustomGraph.obj
 0002:00059db0       ??$_Do_alloc@V?$_Func_impl@U?$_Callable_obj@V?$_Bind@$00XU?$_Pmf_wrap@P8CustomGraph@baro@@AEXAAVGraphics@Gdiplus@@AAVCDC@@IK@ZXV12@AAV34@AAV5@IK@std@@QAVCustomGraph@baro@@AAV?$_Ph@$00@2@AAV?$_Ph@$01@2@AAV?$_Ph@$02@2@AAV?$_Ph@$03@2@@std@@$0A@@std@@V?$allocator@V?$_Func_class@XAAVGraphics@Gdiplus@@AAVCDC@@IK@std@@@2@XAAVGraphics@Gdiplus@@AAVCDC@@IK@std@@V?$_Bind@$00XU?$_Pmf_wrap@P8CustomGraph@baro@@AEXAAVGraphics@Gdiplus@@AAVCDC@@IK@ZXV12@AAV34@AAV5@IK@std@@QAVCustomGraph@baro@@AAV?$_Ph@$00@2@AAV?$_Ph@$01@2@AAV?$_Ph@$02@2@AAV?$_Ph@$03@2@@2@V?$allocator@V?$_Func_class@XAAVGraphics@Gdiplus@@AAVCDC@@IK@std@@@2@@?$_Func_class@XAAVGraphics@Gdiplus@@AAVCDC@@IK@std@@AAEX$$QAV?$_Bind@$00XU?$_Pmf_wrap@P8CustomGraph@baro@@AEXAAVGraphics@Gdiplus@@AAVCDC@@IK@ZXV12@AAV34@AAV5@IK@std@@QAVCustomGraph@baro@@AAV?$_Ph@$00@2@AAV?$_Ph@$01@2@AAV?$_Ph@$02@2@AAV?$_Ph@$03@2@@1@V?$allocator@V?$_Func_class@XAAVGraphics@Gdiplus@@AAVCDC@@IK@std@@@1@@Z 100abdb0 f i CustomGraph.obj
 0002:0005a020       ??$_Do_call@VGraphics@Gdiplus@@VCDC@@IK$0A@$00$01$02$03@?$_Bind@$00XU?$_Pmf_wrap@P8CustomGraph@baro@@AEXAAVGraphics@Gdiplus@@AAVCDC@@IK@ZXV12@AAV34@AAV5@IK@std@@QAVCustomGraph@baro@@AAV?$_Ph@$00@2@AAV?$_Ph@$01@2@AAV?$_Ph@$02@2@AAV?$_Ph@$03@2@@std@@QAEXV?$tuple@AAVGraphics@Gdiplus@@AAVCDC@@AAIAAK@1@U?$_Arg_idx@$0A@$00$01$02$03@1@@Z 100ac020 f i CustomGraph.obj
 0002:0005a180       ??$_Fixarg@AAU?$_Pmf_wrap@P8CustomGraph@baro@@AEXAAVGraphics@Gdiplus@@AAVCDC@@IK@ZXV12@AAV34@AAV5@IK@std@@PAVCustomGraph@baro@@V?$tuple@PAVCustomGraph@baro@@V?$_Ph@$00@std@@V?$_Ph@$01@4@V?$_Ph@$02@4@V?$_Ph@$03@4@@2@V?$tuple@AAVGraphics@Gdiplus@@AAVCDC@@AAIAAK@2@@std@@YAAAPAVCustomGraph@baro@@AAU?$_Pmf_wrap@P8CustomGraph@baro@@AEXAAVGraphics@Gdiplus@@AAVCDC@@IK@ZXV12@AAV34@AAV5@IK@0@AAV?$tuple@PAVCustomGraph@baro@@V?$_Ph@$00@std@@V?$_Ph@$01@4@V?$_Ph@$02@4@V?$_Ph@$03@4@@0@AAV?$tuple@AAVGraphics@Gdiplus@@AAVCDC@@AAIAAK@0@AAPAV12@@Z 100ac180 f i CustomGraph.obj
 0002:0005a1c0       ??$_Fixarg@AAU?$_Pmf_wrap@P8CustomGraph@baro@@AEXAAVGraphics@Gdiplus@@AAVCDC@@IK@ZXV12@AAV34@AAV5@IK@std@@V?$_Ph@$00@2@V?$tuple@PAVCustomGraph@baro@@V?$_Ph@$00@std@@V?$_Ph@$01@4@V?$_Ph@$02@4@V?$_Ph@$03@4@@2@V?$tuple@AAVGraphics@Gdiplus@@AAVCDC@@AAIAAK@2@@std@@YAAAVGraphics@Gdiplus@@AAU?$_Pmf_wrap@P8CustomGraph@baro@@AEXAAVGraphics@Gdiplus@@AAVCDC@@IK@ZXV12@AAV34@AAV5@IK@0@AAV?$tuple@PAVCustomGraph@baro@@V?$_Ph@$00@std@@V?$_Ph@$01@4@V?$_Ph@$02@4@V?$_Ph@$03@4@@0@AAV?$tuple@AAVGraphics@Gdiplus@@AAVCDC@@AAIAAK@0@AAV?$_Ph@$00@0@@Z 100ac1c0 f i CustomGraph.obj
 0002:0005a220       ??$_Fixarg@AAU?$_Pmf_wrap@P8CustomGraph@baro@@AEXAAVGraphics@Gdiplus@@AAVCDC@@IK@ZXV12@AAV34@AAV5@IK@std@@V?$_Ph@$01@2@V?$tuple@PAVCustomGraph@baro@@V?$_Ph@$00@std@@V?$_Ph@$01@4@V?$_Ph@$02@4@V?$_Ph@$03@4@@2@V?$tuple@AAVGraphics@Gdiplus@@AAVCDC@@AAIAAK@2@@std@@YAAAVCDC@@AAU?$_Pmf_wrap@P8CustomGraph@baro@@AEXAAVGraphics@Gdiplus@@AAVCDC@@IK@ZXV12@AAV34@AAV5@IK@0@AAV?$tuple@PAVCustomGraph@baro@@V?$_Ph@$00@std@@V?$_Ph@$01@4@V?$_Ph@$02@4@V?$_Ph@$03@4@@0@AAV?$tuple@AAVGraphics@Gdiplus@@AAVCDC@@AAIAAK@0@AAV?$_Ph@$01@0@@Z 100ac220 f i CustomGraph.obj
 0002:0005a280       ??$_Fixarg@AAU?$_Pmf_wrap@P8CustomGraph@baro@@AEXAAVGraphics@Gdiplus@@AAVCDC@@IK@ZXV12@AAV34@AAV5@IK@std@@V?$_Ph@$02@2@V?$tuple@PAVCustomGraph@baro@@V?$_Ph@$00@std@@V?$_Ph@$01@4@V?$_Ph@$02@4@V?$_Ph@$03@4@@2@V?$tuple@AAVGraphics@Gdiplus@@AAVCDC@@AAIAAK@2@@std@@YAAAIAAU?$_Pmf_wrap@P8CustomGraph@baro@@AEXAAVGraphics@Gdiplus@@AAVCDC@@IK@ZXV12@AAV34@AAV5@IK@0@AAV?$tuple@PAVCustomGraph@baro@@V?$_Ph@$00@std@@V?$_Ph@$01@4@V?$_Ph@$02@4@V?$_Ph@$03@4@@0@AAV?$tuple@AAVGraphics@Gdiplus@@AAVCDC@@AAIAAK@0@AAV?$_Ph@$02@0@@Z 100ac280 f i CustomGraph.obj
 0002:0005a2e0       ??$_Fixarg@AAU?$_Pmf_wrap@P8CustomGraph@baro@@AEXAAVGraphics@Gdiplus@@AAVCDC@@IK@ZXV12@AAV34@AAV5@IK@std@@V?$_Ph@$03@2@V?$tuple@PAVCustomGraph@baro@@V?$_Ph@$00@std@@V?$_Ph@$01@4@V?$_Ph@$02@4@V?$_Ph@$03@4@@2@V?$tuple@AAVGraphics@Gdiplus@@AAVCDC@@AAIAAK@2@@std@@YAAAKAAU?$_Pmf_wrap@P8CustomGraph@baro@@AEXAAVGraphics@Gdiplus@@AAVCDC@@IK@ZXV12@AAV34@AAV5@IK@0@AAV?$tuple@PAVCustomGraph@baro@@V?$_Ph@$00@std@@V?$_Ph@$01@4@V?$_Ph@$02@4@V?$_Ph@$03@4@@0@AAV?$tuple@AAVGraphics@Gdiplus@@AAVCDC@@AAIAAK@0@AAV?$_Ph@$03@0@@Z 100ac2e0 f i CustomGraph.obj
 0002:0005a340       ??$_Iter_cat@PAV?$shared_ptr@VPointCoord@baro@@@std@@@std@@YA?AUrandom_access_iterator_tag@0@ABQAV?$shared_ptr@VPointCoord@baro@@@0@@Z 100ac340 f i CustomGraph.obj
 0002:0005a3c0       ??$_Move@AAPAVPointCoord@baro@@@std@@YA$$QAPAVPointCoord@baro@@AAPAV12@@Z 100ac3c0 f i CustomGraph.obj
 0002:0005a400       ??$_Ptr_cat@V?$shared_ptr@VPointCoord@baro@@@std@@V12@@std@@YA?AU_Nonscalar_ptr_iterator_tag@0@PAV?$shared_ptr@VPointCoord@baro@@@0@0@Z 100ac400 f i CustomGraph.obj
 0002:0005a470       ??$_Rechecked@PAV?$shared_ptr@VPointCoord@baro@@@std@@PAV12@@std@@YAAAPAV?$shared_ptr@VPointCoord@baro@@@0@AAPAV10@PAV10@@Z 100ac470 f i CustomGraph.obj
 0002:0005a4b0       ??$_Reset@V?$_Bind@$00XU?$_Pmf_wrap@P8CustomGraph@baro@@AEXAAVGraphics@Gdiplus@@AAVCDC@@IK@ZXV12@AAV34@AAV5@IK@std@@QAVCustomGraph@baro@@AAV?$_Ph@$00@2@AAV?$_Ph@$01@2@AAV?$_Ph@$02@2@AAV?$_Ph@$03@2@@std@@@?$_Func_class@XAAVGraphics@Gdiplus@@AAVCDC@@IK@std@@IAEX$$QAV?$_Bind@$00XU?$_Pmf_wrap@P8CustomGraph@baro@@AEXAAVGraphics@Gdiplus@@AAVCDC@@IK@ZXV12@AAV34@AAV5@IK@std@@QAVCustomGraph@baro@@AAV?$_Ph@$00@2@AAV?$_Ph@$01@2@AAV?$_Ph@$02@2@AAV?$_Ph@$03@2@@1@@Z 100ac4b0 f i CustomGraph.obj
 0002:0005a520       ??$_Reset@VPointCoord@baro@@@?$_Ptr_base@VPointCoord@baro@@@std@@QAEXABV01@@Z 100ac520 f i CustomGraph.obj
 0002:0005a590       ??$_Reset_alloc@V?$_Bind@$00XU?$_Pmf_wrap@P8CustomGraph@baro@@AEXAAVGraphics@Gdiplus@@AAVCDC@@IK@ZXV12@AAV34@AAV5@IK@std@@QAVCustomGraph@baro@@AAV?$_Ph@$00@2@AAV?$_Ph@$01@2@AAV?$_Ph@$02@2@AAV?$_Ph@$03@2@@std@@V?$allocator@V?$_Func_class@XAAVGraphics@Gdiplus@@AAVCDC@@IK@std@@@2@@?$_Func_class@XAAVGraphics@Gdiplus@@AAVCDC@@IK@std@@IAEX$$QAV?$_Bind@$00XU?$_Pmf_wrap@P8CustomGraph@baro@@AEXAAVGraphics@Gdiplus@@AAVCDC@@IK@ZXV12@AAV34@AAV5@IK@std@@QAVCustomGraph@baro@@AAV?$_Ph@$00@2@AAV?$_Ph@$01@2@AAV?$_Ph@$02@2@AAV?$_Ph@$03@2@@1@V?$allocator@V?$_Func_class@XAAVGraphics@Gdiplus@@AAVCDC@@IK@std@@@1@@Z 100ac590 f i CustomGraph.obj
 0002:0005a600       ??$_Resetp0@VPointCoord@baro@@@?$shared_ptr@VPointCoord@baro@@@std@@QAEXPAVPointCoord@baro@@PAV_Ref_count_base@1@@Z 100ac600 f i CustomGraph.obj
 0002:0005a670       ??$_Test_callable@V?$_Bind@$00XU?$_Pmf_wrap@P8CustomGraph@baro@@AEXAAVGraphics@Gdiplus@@AAVCDC@@IK@ZXV12@AAV34@AAV5@IK@std@@QAVCustomGraph@baro@@AAV?$_Ph@$00@2@AAV?$_Ph@$01@2@AAV?$_Ph@$02@2@AAV?$_Ph@$03@2@@std@@@std@@YA_NAAV?$_Bind@$00XU?$_Pmf_wrap@P8CustomGraph@baro@@AEXAAVGraphics@Gdiplus@@AAVCDC@@IK@ZXV12@AAV34@AAV5@IK@std@@QAVCustomGraph@baro@@AAV?$_Ph@$00@2@AAV?$_Ph@$01@2@AAV?$_Ph@$02@2@AAV?$_Ph@$03@2@@0@@Z 100ac670 f i CustomGraph.obj
 0002:0005a6d0       ??$_Test_callable@V?$_Bind@$00XU?$_Pmf_wrap@P8CustomGraph@baro@@AEXAAVGraphics@Gdiplus@@AAVCDC@@IK@ZXV12@AAV34@AAV5@IK@std@@QAVCustomGraph@baro@@AAV?$_Ph@$00@2@AAV?$_Ph@$01@2@AAV?$_Ph@$02@2@AAV?$_Ph@$03@2@@std@@@std@@YA_NAAV?$_Bind@$00XU?$_Pmf_wrap@P8CustomGraph@baro@@AEXAAVGraphics@Gdiplus@@AAVCDC@@IK@ZXV12@AAV34@AAV5@IK@std@@QAVCustomGraph@baro@@AAV?$_Ph@$00@2@AAV?$_Ph@$01@2@AAV?$_Ph@$02@2@AAV?$_Ph@$03@2@@0@U?$integral_constant@_N$0A@@0@@Z 100ac6d0 f i CustomGraph.obj
 0002:0005a700       ??$_Umove@PAV?$shared_ptr@VPointCoord@baro@@@std@@@?$vector@V?$shared_ptr@VPointCoord@baro@@@std@@V?$allocator@V?$shared_ptr@VPointCoord@baro@@@std@@@2@@std@@IAEPAV?$shared_ptr@VPointCoord@baro@@@1@PAV21@00@Z 100ac700 f i CustomGraph.obj
 0002:0005a7d0       ??$_Unchecked@PAV?$shared_ptr@VPointCoord@baro@@@std@@@std@@YAPAV?$shared_ptr@VPointCoord@baro@@@0@PAV10@@Z 100ac7d0 f i CustomGraph.obj
 0002:0005a810       ??$_Uninit_move@PAV?$shared_ptr@VPointCoord@baro@@@std@@PAV12@U?$_Wrap_alloc@V?$allocator@V?$shared_ptr@VPointCoord@baro@@@std@@@std@@@2@@std@@YAPAV?$shared_ptr@VPointCoord@baro@@@0@PAV10@00AAU?$_Wrap_alloc@V?$allocator@V?$shared_ptr@VPointCoord@baro@@@std@@@std@@@0@@Z 100ac810 f i CustomGraph.obj
 0002:0005a8b0       ??$_Uninit_move@PAV?$shared_ptr@VPointCoord@baro@@@std@@PAV12@V?$allocator@V?$shared_ptr@VPointCoord@baro@@@std@@@2@V12@@std@@YAPAV?$shared_ptr@VPointCoord@baro@@@0@PAV10@00AAU?$_Wrap_alloc@V?$allocator@V?$shared_ptr@VPointCoord@baro@@@std@@@std@@@0@0U_Nonscalar_ptr_iterator_tag@0@@Z 100ac8b0 f i CustomGraph.obj
 0002:0005aa10       ??$_Uninitialized_move@PAV?$shared_ptr@VPointCoord@baro@@@std@@PAV12@U?$_Wrap_alloc@V?$allocator@V?$shared_ptr@VPointCoord@baro@@@std@@@std@@@2@@std@@YAPAV?$shared_ptr@VPointCoord@baro@@@0@PAV10@00AAU?$_Wrap_alloc@V?$allocator@V?$shared_ptr@VPointCoord@baro@@@std@@@std@@@0@@Z 100aca10 f i CustomGraph.obj
 0002:0005aab0       ??$_Val_type@PAV?$shared_ptr@VPointCoord@baro@@@std@@@std@@YAPAV?$shared_ptr@VPointCoord@baro@@@0@PAV10@@Z 100acab0 f i CustomGraph.obj
 0002:0005aae0       ??$addressof@V?$shared_ptr@VPointCoord@baro@@@std@@@std@@YAPAV?$shared_ptr@VPointCoord@baro@@@0@AAV10@@Z 100acae0 f i CustomGraph.obj
 0002:0005ab20       ??$bind@XVCustomGraph@baro@@AAVGraphics@Gdiplus@@AAVCDC@@IKQAV12@AAV?$_Ph@$00@std@@AAV?$_Ph@$01@7@AAV?$_Ph@$02@7@AAV?$_Ph@$03@7@@std@@YA?AV?$_Bind@$00XU?$_Pmf_wrap@P8CustomGraph@baro@@AEXAAVGraphics@Gdiplus@@AAVCDC@@IK@ZXV12@AAV34@AAV5@IK@std@@QAVCustomGraph@baro@@AAV?$_Ph@$00@2@AAV?$_Ph@$01@2@AAV?$_Ph@$02@2@AAV?$_Ph@$03@2@@0@Q8CustomGraph@baro@@AEXAAVGraphics@Gdiplus@@AAVCDC@@IK@Z$$QBQAV23@AAV?$_Ph@$00@0@AAV?$_Ph@$01@0@AAV?$_Ph@$02@0@AAV?$_Ph@$03@0@@Z 100acb20 f i CustomGraph.obj
 0002:0005abe0       ??$construct@V?$shared_ptr@VPointCoord@baro@@@std@@V12@@?$_Wrap_alloc@V?$allocator@V?$shared_ptr@VPointCoord@baro@@@std@@@std@@@std@@QAEXPAV?$shared_ptr@VPointCoord@baro@@@1@$$QAV21@@Z 100acbe0 f i CustomGraph.obj
 0002:0005ac50       ??$construct@V?$shared_ptr@VPointCoord@baro@@@std@@V12@@?$allocator@V?$shared_ptr@VPointCoord@baro@@@std@@@std@@QAEXPAV?$shared_ptr@VPointCoord@baro@@@1@$$QAV21@@Z 100acc50 f i CustomGraph.obj
 0002:0005ad50       ??$construct@V?$shared_ptr@VPointCoord@baro@@@std@@V12@@?$allocator_traits@V?$allocator@V?$shared_ptr@VPointCoord@baro@@@std@@@std@@@std@@SAXAAV?$allocator@V?$shared_ptr@VPointCoord@baro@@@std@@@1@PAV?$shared_ptr@VPointCoord@baro@@@1@$$QAV31@@Z 100acd50 f i CustomGraph.obj
 0002:0005adb0       ??$destroy@V?$_Func_impl@U?$_Callable_obj@V?$_Bind@$00XU?$_Pmf_wrap@P8CustomGraph@baro@@AEXAAVGraphics@Gdiplus@@AAVCDC@@IK@ZXV12@AAV34@AAV5@IK@std@@QAVCustomGraph@baro@@AAV?$_Ph@$00@2@AAV?$_Ph@$01@2@AAV?$_Ph@$02@2@AAV?$_Ph@$03@2@@std@@$0A@@std@@V?$allocator@V?$_Func_class@XAAVGraphics@Gdiplus@@AAVCDC@@IK@std@@@2@XAAVGraphics@Gdiplus@@AAVCDC@@IK@std@@@?$allocator@V?$_Func_impl@U?$_Callable_obj@V?$_Bind@$00XU?$_Pmf_wrap@P8CustomGraph@baro@@AEXAAVGraphics@Gdiplus@@AAVCDC@@IK@ZXV12@AAV34@AAV5@IK@std@@QAVCustomGraph@baro@@AAV?$_Ph@$00@2@AAV?$_Ph@$01@2@AAV?$_Ph@$02@2@AAV?$_Ph@$03@2@@std@@$0A@@std@@V?$allocator@V?$_Func_class@XAAVGraphics@Gdiplus@@AAVCDC@@IK@std@@@2@XAAVGraphics@Gdiplus@@AAVCDC@@IK@std@@@std@@QAEXPAV?$_Func_impl@U?$_Callable_obj@V?$_Bind@$00XU?$_Pmf_wrap@P8CustomGraph@baro@@AEXAAVGraphics@Gdiplus@@AAVCDC@@IK@ZXV12@AAV34@AAV5@IK@std@@QAVCustomGraph@baro@@AAV?$_Ph@$00@2@AAV?$_Ph@$01@2@AAV?$_Ph@$02@2@AAV?$_Ph@$03@2@@std@@$0A@@std@@V?$allocator@V?$_Func_class@XAAVGraphics@Gdiplus@@AAVCDC@@IK@std@@@2@XAAVGraphics@Gdiplus@@AAVCDC@@IK@1@@Z 100acdb0 f i CustomGraph.obj
 0002:0005ae20       ??$destroy@V?$shared_ptr@VPointCoord@baro@@@std@@@?$_Wrap_alloc@V?$allocator@V?$shared_ptr@VPointCoord@baro@@@std@@@std@@@std@@QAEXPAV?$shared_ptr@VPointCoord@baro@@@1@@Z 100ace20 f i CustomGraph.obj
 0002:0005ae80       ??$destroy@V?$shared_ptr@VPointCoord@baro@@@std@@@?$allocator@V?$shared_ptr@VPointCoord@baro@@@std@@@std@@QAEXPAV?$shared_ptr@VPointCoord@baro@@@1@@Z 100ace80 f i CustomGraph.obj
 0002:0005aee0       ??$destroy@V?$shared_ptr@VPointCoord@baro@@@std@@@?$allocator_traits@V?$allocator@V?$shared_ptr@VPointCoord@baro@@@std@@@std@@@std@@SAXAAV?$allocator@V?$shared_ptr@VPointCoord@baro@@@std@@@1@PAV?$shared_ptr@VPointCoord@baro@@@1@@Z 100acee0 f i CustomGraph.obj
 0002:0005af30       ??$forward@AAI@std@@YAAAIAAI@Z 100acf30 f i CustomGraph.obj
 0002:0005af70       ??$forward@AAK@std@@YAAAKAAK@Z 100acf70 f i CustomGraph.obj
 0002:0005afb0       ??$forward@AAU?$_Callable_obj@V?$_Bind@$00XU?$_Pmf_wrap@P8CustomGraph@baro@@AEXAAVGraphics@Gdiplus@@AAVCDC@@IK@ZXV12@AAV34@AAV5@IK@std@@QAVCustomGraph@baro@@AAV?$_Ph@$00@2@AAV?$_Ph@$01@2@AAV?$_Ph@$02@2@AAV?$_Ph@$03@2@@std@@$0A@@std@@@std@@YAAAU?$_Callable_obj@V?$_Bind@$00XU?$_Pmf_wrap@P8CustomGraph@baro@@AEXAAVGraphics@Gdiplus@@AAVCDC@@IK@ZXV12@AAV34@AAV5@IK@std@@QAVCustomGraph@baro@@AAV?$_Ph@$00@2@AAV?$_Ph@$01@2@AAV?$_Ph@$02@2@AAV?$_Ph@$03@2@@std@@$0A@@0@AAU10@@Z 100acfb0 f i CustomGraph.obj
 0002:0005aff0       ??$forward@AAV?$_Ph@$00@std@@@std@@YAAAV?$_Ph@$00@0@AAV10@@Z 100acff0 f i CustomGraph.obj
 0002:0005b030       ??$forward@AAV?$_Ph@$01@std@@@std@@YAAAV?$_Ph@$01@0@AAV10@@Z 100ad030 f i CustomGraph.obj
 0002:0005b070       ??$forward@AAV?$_Ph@$02@std@@@std@@YAAAV?$_Ph@$02@0@AAV10@@Z 100ad070 f i CustomGraph.obj
 0002:0005b0b0       ??$forward@AAV?$_Ph@$03@std@@@std@@YAAAV?$_Ph@$03@0@AAV10@@Z 100ad0b0 f i CustomGraph.obj
 0002:0005b0f0       ??$forward@AAVCDC@@@std@@YAAAVCDC@@AAV1@@Z 100ad0f0 f i CustomGraph.obj
 0002:0005b130       ??$forward@AAVGraphics@Gdiplus@@@std@@YAAAVGraphics@Gdiplus@@AAV12@@Z 100ad130 f i CustomGraph.obj
 0002:0005b170       ??$forward@I@std@@YA$$QAIAAI@Z 100ad170 f i CustomGraph.obj
 0002:0005b1b0       ??$forward@K@std@@YA$$QAKAAK@Z 100ad1b0 f i CustomGraph.obj
 0002:0005b1f0       ??$forward@QAVCustomGraph@baro@@@std@@YA$$QBQAVCustomGraph@baro@@ABQAV12@@Z 100ad1f0 f i CustomGraph.obj
 0002:0005b230       ??$forward@U?$_Callable_obj@V?$_Bind@$00XU?$_Pmf_wrap@P8CustomGraph@baro@@AEXAAVGraphics@Gdiplus@@AAVCDC@@IK@ZXV12@AAV34@AAV5@IK@std@@QAVCustomGraph@baro@@AAV?$_Ph@$00@2@AAV?$_Ph@$01@2@AAV?$_Ph@$02@2@AAV?$_Ph@$03@2@@std@@$0A@@std@@@std@@YA$$QAU?$_Callable_obj@V?$_Bind@$00XU?$_Pmf_wrap@P8CustomGraph@baro@@AEXAAVGraphics@Gdiplus@@AAVCDC@@IK@ZXV12@AAV34@AAV5@IK@std@@QAVCustomGraph@baro@@AAV?$_Ph@$00@2@AAV?$_Ph@$01@2@AAV?$_Ph@$02@2@AAV?$_Ph@$03@2@@std@@$0A@@0@AAU10@@Z 100ad230 f i CustomGraph.obj
 0002:0005b270       ??$forward@U?$_Pmf_wrap@P8CustomGraph@baro@@AEXAAVGraphics@Gdiplus@@AAVCDC@@IK@ZXV12@AAV34@AAV5@IK@std@@@std@@YA$$QAU?$_Pmf_wrap@P8CustomGraph@baro@@AEXAAVGraphics@Gdiplus@@AAVCDC@@IK@ZXV12@AAV34@AAV5@IK@0@AAU10@@Z 100ad270 f i CustomGraph.obj
 0002:0005b2b0       ??$forward@V?$_Bind@$00XU?$_Pmf_wrap@P8CustomGraph@baro@@AEXAAVGraphics@Gdiplus@@AAVCDC@@IK@ZXV12@AAV34@AAV5@IK@std@@QAVCustomGraph@baro@@AAV?$_Ph@$00@2@AAV?$_Ph@$01@2@AAV?$_Ph@$02@2@AAV?$_Ph@$03@2@@std@@@std@@YA$$QAV?$_Bind@$00XU?$_Pmf_wrap@P8CustomGraph@baro@@AEXAAVGraphics@Gdiplus@@AAVCDC@@IK@ZXV12@AAV34@AAV5@IK@std@@QAVCustomGraph@baro@@AAV?$_Ph@$00@2@AAV?$_Ph@$01@2@AAV?$_Ph@$02@2@AAV?$_Ph@$03@2@@0@AAV10@@Z 100ad2b0 f i CustomGraph.obj
 0002:0005b2f0       ??$forward@V?$_Ptr_base@VPointCoord@baro@@@std@@@std@@YA$$QAV?$_Ptr_base@VPointCoord@baro@@@0@AAV10@@Z 100ad2f0 f i CustomGraph.obj
 0002:0005b330       ??$forward@V?$shared_ptr@VPointCoord@baro@@@std@@@std@@YA$$QAV?$shared_ptr@VPointCoord@baro@@@0@AAV10@@Z 100ad330 f i CustomGraph.obj
 0002:0005b370       ??$get@$00AAVGraphics@Gdiplus@@AAVCDC@@AAIAAK@std@@YAAAVCDC@@AAV?$tuple@AAVGraphics@Gdiplus@@AAVCDC@@AAIAAK@0@@Z 100ad370 f i CustomGraph.obj
 0002:0005b3b0       ??$get@$00PAVCustomGraph@baro@@V?$_Ph@$00@std@@V?$_Ph@$01@4@V?$_Ph@$02@4@V?$_Ph@$03@4@@std@@YAAAV?$_Ph@$00@0@AAV?$tuple@PAVCustomGraph@baro@@V?$_Ph@$00@std@@V?$_Ph@$01@4@V?$_Ph@$02@4@V?$_Ph@$03@4@@0@@Z 100ad3b0 f i CustomGraph.obj
 0002:0005b3f0       ??$get@$01AAVGraphics@Gdiplus@@AAVCDC@@AAIAAK@std@@YAAAIAAV?$tuple@AAVGraphics@Gdiplus@@AAVCDC@@AAIAAK@0@@Z 100ad3f0 f i CustomGraph.obj
 0002:0005b430       ??$get@$01PAVCustomGraph@baro@@V?$_Ph@$00@std@@V?$_Ph@$01@4@V?$_Ph@$02@4@V?$_Ph@$03@4@@std@@YAAAV?$_Ph@$01@0@AAV?$tuple@PAVCustomGraph@baro@@V?$_Ph@$00@std@@V?$_Ph@$01@4@V?$_Ph@$02@4@V?$_Ph@$03@4@@0@@Z 100ad430 f i CustomGraph.obj
 0002:0005b470       ??$get@$02AAVGraphics@Gdiplus@@AAVCDC@@AAIAAK@std@@YAAAKAAV?$tuple@AAVGraphics@Gdiplus@@AAVCDC@@AAIAAK@0@@Z 100ad470 f i CustomGraph.obj
 0002:0005b4b0       ??$get@$02PAVCustomGraph@baro@@V?$_Ph@$00@std@@V?$_Ph@$01@4@V?$_Ph@$02@4@V?$_Ph@$03@4@@std@@YAAAV?$_Ph@$02@0@AAV?$tuple@PAVCustomGraph@baro@@V?$_Ph@$00@std@@V?$_Ph@$01@4@V?$_Ph@$02@4@V?$_Ph@$03@4@@0@@Z 100ad4b0 f i CustomGraph.obj
 0002:0005b4f0       ??$get@$03PAVCustomGraph@baro@@V?$_Ph@$00@std@@V?$_Ph@$01@4@V?$_Ph@$02@4@V?$_Ph@$03@4@@std@@YAAAV?$_Ph@$03@0@AAV?$tuple@PAVCustomGraph@baro@@V?$_Ph@$00@std@@V?$_Ph@$01@4@V?$_Ph@$02@4@V?$_Ph@$03@4@@0@@Z 100ad4f0 f i CustomGraph.obj
 0002:0005b530       ??$get@$0A@AAVGraphics@Gdiplus@@AAVCDC@@AAIAAK@std@@YAAAVGraphics@Gdiplus@@AAV?$tuple@AAVGraphics@Gdiplus@@AAVCDC@@AAIAAK@0@@Z 100ad530 f i CustomGraph.obj
 0002:0005b570       ??$get@$0A@PAVCustomGraph@baro@@V?$_Ph@$00@std@@V?$_Ph@$01@4@V?$_Ph@$02@4@V?$_Ph@$03@4@@std@@YAAAPAVCustomGraph@baro@@AAV?$tuple@PAVCustomGraph@baro@@V?$_Ph@$00@std@@V?$_Ph@$01@4@V?$_Ph@$02@4@V?$_Ph@$03@4@@0@@Z 100ad570 f i CustomGraph.obj
 0002:0005b5b0       ??$make_shared@VPointCoord@baro@@$$$V@std@@YA?AV?$shared_ptr@VPointCoord@baro@@@0@XZ 100ad5b0 f i CustomGraph.obj
 0002:0005b760       ??$move@AAV?$_Func_impl@U?$_Callable_obj@V?$_Bind@$00XU?$_Pmf_wrap@P8CustomGraph@baro@@AEXAAVGraphics@Gdiplus@@AAVCDC@@IK@ZXV12@AAV34@AAV5@IK@std@@QAVCustomGraph@baro@@AAV?$_Ph@$00@2@AAV?$_Ph@$01@2@AAV?$_Ph@$02@2@AAV?$_Ph@$03@2@@std@@$0A@@std@@V?$allocator@V?$_Func_class@XAAVGraphics@Gdiplus@@AAVCDC@@IK@std@@@2@XAAVGraphics@Gdiplus@@AAVCDC@@IK@std@@@std@@YA$$QAV?$_Func_impl@U?$_Callable_obj@V?$_Bind@$00XU?$_Pmf_wrap@P8CustomGraph@baro@@AEXAAVGraphics@Gdiplus@@AAVCDC@@IK@ZXV12@AAV34@AAV5@IK@std@@QAVCustomGraph@baro@@AAV?$_Ph@$00@2@AAV?$_Ph@$01@2@AAV?$_Ph@$02@2@AAV?$_Ph@$03@2@@std@@$0A@@std@@V?$allocator@V?$_Func_class@XAAVGraphics@Gdiplus@@AAVCDC@@IK@std@@@2@XAAVGraphics@Gdiplus@@AAVCDC@@IK@0@AAV10@@Z 100ad760 f i CustomGraph.obj
 0002:0005b7a0       ??$swap@PAVPointCoord@baro@@@std@@YAXAAPAVPointCoord@baro@@0@Z 100ad7a0 f i CustomGraph.obj
 0002:0005b880       ??$tie@VGraphics@Gdiplus@@VCDC@@IK@std@@YA?AV?$tuple@AAVGraphics@Gdiplus@@AAVCDC@@AAIAAK@0@AAVGraphics@Gdiplus@@AAVCDC@@AAIAAK@Z 100ad880 f i CustomGraph.obj
 0002:0005b8e0       ??0?$_Bind@$00XU?$_Pmf_wrap@P8CustomGraph@baro@@AEXAAVGraphics@Gdiplus@@AAVCDC@@IK@ZXV12@AAV34@AAV5@IK@std@@QAVCustomGraph@baro@@AAV?$_Ph@$00@2@AAV?$_Ph@$01@2@AAV?$_Ph@$02@2@AAV?$_Ph@$03@2@@std@@QAE@ABV01@@Z 100ad8e0 f i CustomGraph.obj
 0002:0005b950       ??0?$_Callable_base@V?$_Bind@$00XU?$_Pmf_wrap@P8CustomGraph@baro@@AEXAAVGraphics@Gdiplus@@AAVCDC@@IK@ZXV12@AAV34@AAV5@IK@std@@QAVCustomGraph@baro@@AAV?$_Ph@$00@2@AAV?$_Ph@$01@2@AAV?$_Ph@$02@2@AAV?$_Ph@$03@2@@std@@$0A@@std@@QAE@ABU01@@Z 100ad950 f i CustomGraph.obj
 0002:0005b9b0       ??0?$_Callable_base@V?$_Bind@$00XU?$_Pmf_wrap@P8CustomGraph@baro@@AEXAAVGraphics@Gdiplus@@AAVCDC@@IK@ZXV12@AAV34@AAV5@IK@std@@QAVCustomGraph@baro@@AAV?$_Ph@$00@2@AAV?$_Ph@$01@2@AAV?$_Ph@$02@2@AAV?$_Ph@$03@2@@std@@$0A@@std@@QAE@ABV?$_Bind@$00XU?$_Pmf_wrap@P8CustomGraph@baro@@AEXAAVGraphics@Gdiplus@@AAVCDC@@IK@ZXV12@AAV34@AAV5@IK@std@@QAVCustomGraph@baro@@AAV?$_Ph@$00@2@AAV?$_Ph@$01@2@AAV?$_Ph@$02@2@AAV?$_Ph@$03@2@@1@@Z 100ad9b0 f i CustomGraph.obj
 0002:0005ba10       ??0?$_Func_base@XAAVGraphics@Gdiplus@@AAVCDC@@IK@std@@QAE@XZ 100ada10 f i CustomGraph.obj
 0002:0005ba60       ??0?$_Func_class@XAAVGraphics@Gdiplus@@AAVCDC@@IK@std@@QAE@XZ 100ada60 f i CustomGraph.obj
 0002:0005bab0       ??0?$_Func_impl@U?$_Callable_obj@V?$_Bind@$00XU?$_Pmf_wrap@P8CustomGraph@baro@@AEXAAVGraphics@Gdiplus@@AAVCDC@@IK@ZXV12@AAV34@AAV5@IK@std@@QAVCustomGraph@baro@@AAV?$_Ph@$00@2@AAV?$_Ph@$01@2@AAV?$_Ph@$02@2@AAV?$_Ph@$03@2@@std@@$0A@@std@@V?$allocator@V?$_Func_class@XAAVGraphics@Gdiplus@@AAVCDC@@IK@std@@@2@XAAVGraphics@Gdiplus@@AAVCDC@@IK@std@@QAE@$$QAV01@@Z 100adab0 f i CustomGraph.obj
 0002:0005bb90       ??0?$_Func_impl@U?$_Callable_obj@V?$_Bind@$00XU?$_Pmf_wrap@P8CustomGraph@baro@@AEXAAVGraphics@Gdiplus@@AAVCDC@@IK@ZXV12@AAV34@AAV5@IK@std@@QAVCustomGraph@baro@@AAV?$_Ph@$00@2@AAV?$_Ph@$01@2@AAV?$_Ph@$02@2@AAV?$_Ph@$03@2@@std@@$0A@@std@@V?$allocator@V?$_Func_class@XAAVGraphics@Gdiplus@@AAVCDC@@IK@std@@@2@XAAVGraphics@Gdiplus@@AAVCDC@@IK@std@@QAE@$$QAV?$_Bind@$00XU?$_Pmf_wrap@P8CustomGraph@baro@@AEXAAVGraphics@Gdiplus@@AAVCDC@@IK@ZXV12@AAV34@AAV5@IK@std@@QAVCustomGraph@baro@@AAV?$_Ph@$00@2@AAV?$_Ph@$01@2@AAV?$_Ph@$02@2@AAV?$_Ph@$03@2@@1@ABV?$allocator@V?$_Func_impl@U?$_Callable_obj@V?$_Bind@$00XU?$_Pmf_wrap@P8CustomGraph@baro@@AEXAAVGraphics@Gdiplus@@AAVCDC@@IK@ZXV12@AAV34@AAV5@IK@std@@QAVCustomGraph@baro@@AAV?$_Ph@$00@2@AAV?$_Ph@$01@2@AAV?$_Ph@$02@2@AAV?$_Ph@$03@2@@std@@$0A@@std@@V?$allocator@V?$_Func_class@XAAVGraphics@Gdiplus@@AAVCDC@@IK@std@@@2@XAAVGraphics@Gdiplus@@AAVCDC@@IK@std@@@1@@Z 100adb90 f i CustomGraph.obj
 0002:0005bc70       ??0?$_Func_impl@U?$_Callable_obj@V?$_Bind@$00XU?$_Pmf_wrap@P8CustomGraph@baro@@AEXAAVGraphics@Gdiplus@@AAVCDC@@IK@ZXV12@AAV34@AAV5@IK@std@@QAVCustomGraph@baro@@AAV?$_Ph@$00@2@AAV?$_Ph@$01@2@AAV?$_Ph@$02@2@AAV?$_Ph@$03@2@@std@@$0A@@std@@V?$allocator@V?$_Func_class@XAAVGraphics@Gdiplus@@AAVCDC@@IK@std@@@2@XAAVGraphics@Gdiplus@@AAVCDC@@IK@std@@QAE@AAV01@@Z 100adc70 f i CustomGraph.obj
 0002:0005bd50       ??0?$_Pmf_wrap@P8CustomGraph@baro@@AEXAAVGraphics@Gdiplus@@AAVCDC@@IK@ZXV12@AAV34@AAV5@IK@std@@QAE@ABQ8CustomGraph@baro@@AEXAAVGraphics@Gdiplus@@AAVCDC@@IK@Z@Z 100add50 f i CustomGraph.obj
 0002:0005bda0       ??0?$_Ptr_base@VPointCoord@baro@@@std@@QAE@$$QAV01@@Z 100adda0 f i CustomGraph.obj
 0002:0005be20       ??0?$_Ptr_base@VPointCoord@baro@@@std@@QAE@XZ 100ade20 f i CustomGraph.obj
 0002:0005be70       ??0?$_Vector_alloc@$0A@U?$_Vec_base_types@V?$shared_ptr@VPointCoord@baro@@@std@@V?$allocator@V?$shared_ptr@VPointCoord@baro@@@std@@@2@@std@@@std@@QAE@ABV?$allocator@V?$shared_ptr@VPointCoord@baro@@@std@@@1@@Z 100ade70 f i CustomGraph.obj
 0002:0005bf20       ??0?$_Vector_val@U?$_Simple_types@V?$shared_ptr@VPointCoord@baro@@@std@@@std@@@std@@QAE@XZ 100adf20 f i CustomGraph.obj
 0002:0005bfb0       ??0?$_Wrap_alloc@V?$allocator@V?$shared_ptr@VPointCoord@baro@@@std@@@std@@@std@@QAE@XZ 100adfb0 f i CustomGraph.obj
 0002:0005c010       ??0?$allocator@V?$_Func_class@XAAVGraphics@Gdiplus@@AAVCDC@@IK@std@@@std@@QAE@ABV01@@Z 100ae010 f i CustomGraph.obj
 0002:0005c050       ??0?$allocator@V?$_Func_class@XAAVGraphics@Gdiplus@@AAVCDC@@IK@std@@@std@@QAE@XZ 100ae050 f i CustomGraph.obj
 0002:0005c090       ??0?$allocator@V?$_Func_impl@U?$_Callable_obj@V?$_Bind@$00XU?$_Pmf_wrap@P8CustomGraph@baro@@AEXAAVGraphics@Gdiplus@@AAVCDC@@IK@ZXV12@AAV34@AAV5@IK@std@@QAVCustomGraph@baro@@AAV?$_Ph@$00@2@AAV?$_Ph@$01@2@AAV?$_Ph@$02@2@AAV?$_Ph@$03@2@@std@@$0A@@std@@V?$allocator@V?$_Func_class@XAAVGraphics@Gdiplus@@AAVCDC@@IK@std@@@2@XAAVGraphics@Gdiplus@@AAVCDC@@IK@std@@@std@@QAE@ABV01@@Z 100ae090 f i CustomGraph.obj
 0002:0005c0d0       ??0?$allocator@V?$_Func_impl@U?$_Callable_obj@V?$_Bind@$00XU?$_Pmf_wrap@P8CustomGraph@baro@@AEXAAVGraphics@Gdiplus@@AAVCDC@@IK@ZXV12@AAV34@AAV5@IK@std@@QAVCustomGraph@baro@@AAV?$_Ph@$00@2@AAV?$_Ph@$01@2@AAV?$_Ph@$02@2@AAV?$_Ph@$03@2@@std@@$0A@@std@@V?$allocator@V?$_Func_class@XAAVGraphics@Gdiplus@@AAVCDC@@IK@std@@@2@XAAVGraphics@Gdiplus@@AAVCDC@@IK@std@@@std@@QAE@XZ 100ae0d0 f i CustomGraph.obj
 0002:0005c110       ??0?$allocator@V?$shared_ptr@VPointCoord@baro@@@std@@@std@@QAE@XZ 100ae110 f i CustomGraph.obj
 0002:0005c150       ??0?$shared_ptr@VPointCoord@baro@@@std@@QAE@$$QAV01@@Z 100ae150 f i CustomGraph.obj
 0002:0005c1c0       ??0?$shared_ptr@VPointCoord@baro@@@std@@QAE@$$T@Z 100ae1c0 f i CustomGraph.obj
 0002:0005c220       ??0?$shared_ptr@VPointCoord@baro@@@std@@QAE@ABV01@@Z 100ae220 f i CustomGraph.obj
 0002:0005c290       ??0?$shared_ptr@VPointCoord@baro@@@std@@QAE@XZ 100ae290 f i CustomGraph.obj
 0002:0005c2f0       ??0?$tuple@$$$V@std@@QAE@ABV01@@Z 100ae2f0 f i CustomGraph.obj
 0002:0005c330       ??0?$tuple@$$$V@std@@QAE@XZ 100ae330 f i CustomGraph.obj
 0002:0005c370       ??0?$tuple@AAIAAK@std@@QAE@AAIAAK@Z 100ae370 f i CustomGraph.obj
 0002:0005c3e0       ??0?$tuple@AAK@std@@QAE@AAK@Z 100ae3e0 f i CustomGraph.obj
 0002:0005c450       ??0?$tuple@AAVCDC@@AAIAAK@std@@QAE@AAVCDC@@AAIAAK@Z 100ae450 f i CustomGraph.obj
 0002:0005c4d0       ??0?$tuple@AAVGraphics@Gdiplus@@AAVCDC@@AAIAAK@std@@QAE@AAVGraphics@Gdiplus@@AAVCDC@@AAIAAK@Z 100ae4d0 f i CustomGraph.obj
 0002:0005c550       ??0?$tuple@PAVCustomGraph@baro@@V?$_Ph@$00@std@@V?$_Ph@$01@4@V?$_Ph@$02@4@V?$_Ph@$03@4@@std@@QAE@ABV01@@Z 100ae550 f i CustomGraph.obj
 0002:0005c5c0       ??0?$tuple@V?$_Ph@$00@std@@V?$_Ph@$01@2@V?$_Ph@$02@2@V?$_Ph@$03@2@@std@@QAE@ABV01@@Z 100ae5c0 f i CustomGraph.obj
 0002:0005c630       ??0?$tuple@V?$_Ph@$01@std@@V?$_Ph@$02@2@V?$_Ph@$03@2@@std@@QAE@ABV01@@Z 100ae630 f i CustomGraph.obj
 0002:0005c6a0       ??0?$tuple@V?$_Ph@$02@std@@V?$_Ph@$03@2@@std@@QAE@ABV01@@Z 100ae6a0 f i CustomGraph.obj
 0002:0005c710       ??0?$tuple@V?$_Ph@$03@std@@@std@@QAE@ABV01@@Z 100ae710 f i CustomGraph.obj
 0002:0005c780       ??0?$vector@V?$shared_ptr@VPointCoord@baro@@@std@@V?$allocator@V?$shared_ptr@VPointCoord@baro@@@std@@@2@@std@@QAE@XZ 100ae780 f i CustomGraph.obj
 0002:0005c7f0       ??0Bitmap@Gdiplus@@QAE@HHH@Z 100ae7f0 f i CustomGraph.obj
 0002:0005c920       ??0CPoint@@QAE@HH@Z        100ae920 f i CustomGraph.obj
 0002:0005c970       ??0CPoint@@QAE@J@Z         100ae970 f i CustomGraph.obj
 0002:0005c9e0       ??0Color@Gdiplus@@QAE@EEE@Z 100ae9e0 f i CustomGraph.obj
 0002:0005ca60       ??0CustomGraph@baro@@QAE@I@Z 100aea60 f   CustomGraph.obj
 0002:0005ce90       ??0Graphics@Gdiplus@@QAE@PAVImage@1@@Z 100aee90 f i CustomGraph.obj
 0002:0005cf70       ??0Pen@Gdiplus@@QAE@ABVColor@1@M@Z 100aef70 f i CustomGraph.obj
 0002:0005d000       ??0Point@Gdiplus@@QAE@HH@Z 100af000 f i CustomGraph.obj
 0002:0005d050       ??0PointF@Gdiplus@@QAE@MM@Z 100af050 f i CustomGraph.obj
 0002:0005d0b0       ??0PointF@Gdiplus@@QAE@XZ  100af0b0 f i CustomGraph.obj
 0002:0005d110       ??0RectF@Gdiplus@@QAE@XZ   100af110 f i CustomGraph.obj
 0002:0005d1a0       ??0SizeF@Gdiplus@@QAE@ABV01@@Z 100af1a0 f i CustomGraph.obj
 0002:0005d200       ??0SizeF@Gdiplus@@QAE@MM@Z 100af200 f i CustomGraph.obj
 0002:0005d260       ??0SizeF@Gdiplus@@QAE@XZ   100af260 f i CustomGraph.obj
 0002:0005d2c0       ??1?$_Func_base@XAAVGraphics@Gdiplus@@AAVCDC@@IK@std@@UAE@XZ 100af2c0 f i CustomGraph.obj
 0002:0005d300       ??1?$_Func_class@XAAVGraphics@Gdiplus@@AAVCDC@@IK@std@@QAE@XZ 100af300 f i CustomGraph.obj
 0002:0005d350       ??1?$_Func_impl@U?$_Callable_obj@V?$_Bind@$00XU?$_Pmf_wrap@P8CustomGraph@baro@@AEXAAVGraphics@Gdiplus@@AAVCDC@@IK@ZXV12@AAV34@AAV5@IK@std@@QAVCustomGraph@baro@@AAV?$_Ph@$00@2@AAV?$_Ph@$01@2@AAV?$_Ph@$02@2@AAV?$_Ph@$03@2@@std@@$0A@@std@@V?$allocator@V?$_Func_class@XAAVGraphics@Gdiplus@@AAVCDC@@IK@std@@@2@XAAVGraphics@Gdiplus@@AAVCDC@@IK@std@@UAE@XZ 100af350 f i CustomGraph.obj
 0002:0005d3b0       ??1?$_Ref_count_obj@VPointCoord@baro@@@std@@UAE@XZ 100af3b0 f i CustomGraph.obj
 0002:0005d400       ??1?$_Vector_alloc@$0A@U?$_Vec_base_types@V?$shared_ptr@VPointCoord@baro@@@std@@V?$allocator@V?$shared_ptr@VPointCoord@baro@@@std@@@2@@std@@@std@@QAE@XZ 100af400 f i CustomGraph.obj
 0002:0005d460       ??1?$_Vector_val@U?$_Simple_types@V?$shared_ptr@VPointCoord@baro@@@std@@@std@@@std@@QAE@XZ 100af460 f i CustomGraph.obj
 0002:0005d4c0       ??1?$function@$$A6AXAAVGraphics@Gdiplus@@AAVCDC@@IK@Z@std@@QAE@XZ 100af4c0 f i CustomGraph.obj
 0002:0005d520       ??1?$shared_ptr@VPointCoord@baro@@@std@@QAE@XZ 100af520 f i CustomGraph.obj
 0002:0005d570       ??1?$vector@V?$shared_ptr@VPointCoord@baro@@@std@@V?$allocator@V?$shared_ptr@VPointCoord@baro@@@std@@@2@@std@@QAE@XZ 100af570 f i CustomGraph.obj
 0002:0005d5d0       ??1CustomGraph@baro@@UAE@XZ 100af5d0 f   CustomGraph.obj
 0002:0005d7c0       ??1Pen@Gdiplus@@QAE@XZ     100af7c0 f i CustomGraph.obj
 0002:0005d820       ??A?$vector@V?$shared_ptr@VPointCoord@baro@@@std@@V?$allocator@V?$shared_ptr@VPointCoord@baro@@@std@@@2@@std@@QAEAAV?$shared_ptr@VPointCoord@baro@@@1@I@Z 100af820 f i CustomGraph.obj
 0002:0005d940       ??A?$vector@V?$shared_ptr@VPointCoord@baro@@@std@@V?$allocator@V?$shared_ptr@VPointCoord@baro@@@std@@@2@@std@@QBEABV?$shared_ptr@VPointCoord@baro@@@1@I@Z 100af940 f i CustomGraph.obj
 0002:0005da60       ??C?$shared_ptr@VPointCoord@baro@@@std@@QBEPAVPointCoord@baro@@XZ 100afa60 f i CustomGraph.obj
 0002:0005dab0       ??R?$_Func_class@XAAVGraphics@Gdiplus@@AAVCDC@@IK@std@@QBEXAAVGraphics@Gdiplus@@AAVCDC@@IK@Z 100afab0 f i CustomGraph.obj
 0002:0005db80       ??R?$_Pmf_wrap@P8CustomGraph@baro@@AEXAAVGraphics@Gdiplus@@AAVCDC@@IK@ZXV12@AAV34@AAV5@IK@std@@QBEXPAVCustomGraph@baro@@AAVGraphics@Gdiplus@@AAVCDC@@IK@Z 100afb80 f i CustomGraph.obj
 0002:0005dc25       ??_9CustomGraph@baro@@$B7AE 100afc25 f i CustomGraph.obj
 0002:0005dc2a       ??_9CustomGraph@baro@@$BBA@AE 100afc2a f i CustomGraph.obj
 0002:0005dc2f       ??_9CustomGraph@baro@@$BM@AE 100afc2f f i CustomGraph.obj
 0002:0005dc40       ??_ECustomGraph@baro@@UAEPAXI@Z 100afc40 f i CustomGraph.obj
 0002:0005dd00       ??_E?$_Func_base@XAAVGraphics@Gdiplus@@AAVCDC@@IK@std@@UAEPAXI@Z 100afd00 f i CustomGraph.obj
 0002:0005dd00       ??_G?$_Func_base@XAAVGraphics@Gdiplus@@AAVCDC@@IK@std@@UAEPAXI@Z 100afd00 f i CustomGraph.obj
 0002:0005dd70       ??_G?$_Func_impl@U?$_Callable_obj@V?$_Bind@$00XU?$_Pmf_wrap@P8CustomGraph@baro@@AEXAAVGraphics@Gdiplus@@AAVCDC@@IK@ZXV12@AAV34@AAV5@IK@std@@QAVCustomGraph@baro@@AAV?$_Ph@$00@2@AAV?$_Ph@$01@2@AAV?$_Ph@$02@2@AAV?$_Ph@$03@2@@std@@$0A@@std@@V?$allocator@V?$_Func_class@XAAVGraphics@Gdiplus@@AAVCDC@@IK@std@@@2@XAAVGraphics@Gdiplus@@AAVCDC@@IK@std@@UAEPAXI@Z 100afd70 f i CustomGraph.obj
 0002:0005dd70       ??_E?$_Func_impl@U?$_Callable_obj@V?$_Bind@$00XU?$_Pmf_wrap@P8CustomGraph@baro@@AEXAAVGraphics@Gdiplus@@AAVCDC@@IK@ZXV12@AAV34@AAV5@IK@std@@QAVCustomGraph@baro@@AAV?$_Ph@$00@2@AAV?$_Ph@$01@2@AAV?$_Ph@$02@2@AAV?$_Ph@$03@2@@std@@$0A@@std@@V?$allocator@V?$_Func_class@XAAVGraphics@Gdiplus@@AAVCDC@@IK@std@@@2@XAAVGraphics@Gdiplus@@AAVCDC@@IK@std@@UAEPAXI@Z 100afd70 f i CustomGraph.obj
 0002:0005dde0       ??_E?$_Ref_count_obj@VPointCoord@baro@@@std@@UAEPAXI@Z 100afde0 f i CustomGraph.obj
 0002:0005dde0       ??_G?$_Ref_count_obj@VPointCoord@baro@@@std@@UAEPAXI@Z 100afde0 f i CustomGraph.obj
 0002:0005de50       ??_G?$shared_ptr@VPointCoord@baro@@@std@@QAEPAXI@Z 100afe50 f i CustomGraph.obj
 0002:0005dec0       ??_GCustomGraph@baro@@UAEPAXI@Z 100afec0 f i CustomGraph.obj
 0002:0005df30       ??_GPointCoord@baro@@UAEPAXI@Z 100aff30 f i CustomGraph.obj
 0002:0005dfa0       ?Add@CustomGraph@baro@@QAEXIHH@Z 100affa0 f   CustomGraph.obj
 0002:0005e0a0       ?Add@CustomGraph@baro@@QAEXIMM@Z 100b00a0 f   CustomGraph.obj
 0002:0005e1a0       ?Clear@CustomGraph@baro@@QAEXI@Z 100b01a0 f   CustomGraph.obj
 0002:0005e280       ?Clear@CustomGraph@baro@@QAEXXZ 100b0280 f   CustomGraph.obj
 0002:0005e410       ?DrawCache@CustomGraph@baro@@QAEXAAVGraphics@Gdiplus@@HHW4CustomGraphResource@12@HK@Z 100b0410 f   CustomGraph.obj
 0002:0005e690       ?DrawCache@CustomGraph@baro@@QAEXPAVCDC@@0HHW4CustomGraphResource@12@HK@Z 100b0690 f   CustomGraph.obj
 0002:0005e9c0       ?DrawDefaultGridline@CustomGraph@baro@@AAEXAAVGraphics@Gdiplus@@VSizeF@4@K@Z 100b09c0 f   CustomGraph.obj
 0002:0005ed00       ?DrawImage@CustomGraph@baro@@AAEXPAVBitmap@Gdiplus@@IKV?$function@$$A6AXAAVGraphics@Gdiplus@@AAVCDC@@IK@Z@std@@@Z 100b0d00 f   CustomGraph.obj
 0002:0005eee0       ?DrawImage@Graphics@Gdiplus@@QAE?AW4Status@2@PAVImage@2@HH@Z 100b0ee0 f i CustomGraph.obj
 0002:0005ef80       ?DrawLine@Graphics@Gdiplus@@QAE?AW4Status@2@PBVPen@2@MMMM@Z 100b0f80 f i CustomGraph.obj
 0002:0005f020       ?DrawSquareGridline@CustomGraph@baro@@AAEXAAVGraphics@Gdiplus@@VSizeF@4@K@Z 100b1020 f   CustomGraph.obj
 0002:0005f380       ?GetBottom@RectF@Gdiplus@@QBEMXZ 100b1380 f i CustomGraph.obj
 0002:0005f3e0       ?GetHDC@Graphics@Gdiplus@@QAEPAUHDC__@@XZ 100b13e0 f i CustomGraph.obj
 0002:0005f4a0       ?GetLeft@RectF@Gdiplus@@QBEMXZ 100b14a0 f i CustomGraph.obj
 0002:0005f4e0       ?GetPointCoord@CustomGraph@baro@@IAE?BV?$shared_ptr@VPointCoord@baro@@@std@@I@Z 100b14e0 f   CustomGraph.obj
 0002:0005f600       ?GetRight@RectF@Gdiplus@@QBEMXZ 100b1600 f i CustomGraph.obj
 0002:0005f660       ?GetTop@RectF@Gdiplus@@QBEMXZ 100b1660 f i CustomGraph.obj
 0002:0005f6a0       ?GetValue@Color@Gdiplus@@QBEKXZ 100b16a0 f i CustomGraph.obj
 0002:0005f6e0       ?Initialize@CustomGraph@baro@@IAEXHHVCRect@@VCPoint@@1VCSize@@2W4CustomGraphLabel@12@3PAVCFont@@4_N5@Z 100b16e0 f   CustomGraph.obj
 0002:000607a0       ?OnDrawLabelX@CustomGraph@baro@@MAEXIAAVCDC@@MMM@Z 100b27a0 f   CustomGraph.obj
 0002:00060920       ?OnDrawLabelY@CustomGraph@baro@@MAEXIAAVCDC@@MMM@Z 100b2920 f   CustomGraph.obj
 0002:00060aa0       ?PixelToBoundaryPoint@CustomGraph@baro@@QBE?AVPoint@Gdiplus@@HH@Z 100b2aa0 f   CustomGraph.obj
 0002:00060b80       ?PixelToBoundaryRatio@CustomGraph@baro@@QBE?AVPointF@Gdiplus@@HH@Z 100b2b80 f   CustomGraph.obj
 0002:00060c80       ?PixelToGraphIndexX@CustomGraph@baro@@QBEHIH@Z 100b2c80 f   CustomGraph.obj
 0002:00060de0       ?PixelToGraphIndexXY@CustomGraph@baro@@QBEHIHH@Z 100b2de0 f   CustomGraph.obj
 0002:00060f50       ?PixelToGraphIndexY@CustomGraph@baro@@QBEHIH@Z 100b2f50 f   CustomGraph.obj
 0002:000610b0       ?PixelToGraphValue@CustomGraph@baro@@QBE?AVCPoint@@IHH@Z 100b30b0 f   CustomGraph.obj
 0002:00061280       ?PixelToMainGridIndexXY@CustomGraph@baro@@QBE?AVCPoint@@HH@Z 100b3280 f   CustomGraph.obj
 0002:00061390       ?ResetImage@CustomGraph@baro@@QAEXI_NK@Z 100b3390 f   CustomGraph.obj
 0002:00061860       ?SaveCache@CustomGraph@baro@@QAENV?$CStringT@_WV?$StrTraitMFC_DLL@_WV?$ChTraitsCRT@_W@ATL@@@@@ATL@@W4CustomGraphResource@12@PB_W@Z 100b3860 f   CustomGraph.obj
 0002:00061d60       ?Size@PointCoord@baro@@QAEIXZ 100b3d60 f i CustomGraph.obj
 0002:00061dc0       ?UpdateImage@CustomGraph@baro@@QAEX_NK@Z 100b3dc0 f   CustomGraph.obj
 0002:00062270       ?_Alloc_proxy@?$_Vector_alloc@$0A@U?$_Vec_base_types@V?$shared_ptr@VPointCoord@baro@@@std@@V?$allocator@V?$shared_ptr@VPointCoord@baro@@@std@@@2@@std@@@std@@QAEXXZ 100b4270 f i CustomGraph.obj
 0002:00062360       ?_Assign_rv@?$_Ptr_base@VPointCoord@baro@@@std@@QAEX$$QAV12@@Z 100b4360 f i CustomGraph.obj
 0002:000623c0       ?_Copy@?$_Func_impl@U?$_Callable_obj@V?$_Bind@$00XU?$_Pmf_wrap@P8CustomGraph@baro@@AEXAAVGraphics@Gdiplus@@AAVCDC@@IK@ZXV12@AAV34@AAV5@IK@std@@QAVCustomGraph@baro@@AAV?$_Ph@$00@2@AAV?$_Ph@$01@2@AAV?$_Ph@$02@2@AAV?$_Ph@$03@2@@std@@$0A@@std@@V?$allocator@V?$_Func_class@XAAVGraphics@Gdiplus@@AAVCDC@@IK@std@@@2@XAAVGraphics@Gdiplus@@AAVCDC@@IK@std@@UAEPAV?$_Func_base@XAAVGraphics@Gdiplus@@AAVCDC@@IK@2@PAX@Z 100b43c0 f i CustomGraph.obj
 0002:000624d0       ?_Decref@?$_Ptr_base@VPointCoord@baro@@@std@@QAEXXZ 100b44d0 f i CustomGraph.obj
 0002:00062530       ?_Delete_this@?$_Func_impl@U?$_Callable_obj@V?$_Bind@$00XU?$_Pmf_wrap@P8CustomGraph@baro@@AEXAAVGraphics@Gdiplus@@AAVCDC@@IK@ZXV12@AAV34@AAV5@IK@std@@QAVCustomGraph@baro@@AAV?$_Ph@$00@2@AAV?$_Ph@$01@2@AAV?$_Ph@$02@2@AAV?$_Ph@$03@2@@std@@$0A@@std@@V?$allocator@V?$_Func_class@XAAVGraphics@Gdiplus@@AAVCDC@@IK@std@@@2@XAAVGraphics@Gdiplus@@AAVCDC@@IK@std@@EAEX_N@Z 100b4530 f i CustomGraph.obj
 0002:00062610       ?_Delete_this@?$_Ref_count_obj@VPointCoord@baro@@@std@@EAEXXZ 100b4610 f i CustomGraph.obj
 0002:000626c0       ?_Destroy@?$_Ref_count_obj@VPointCoord@baro@@@std@@EAEXXZ 100b46c0 f i CustomGraph.obj
 0002:00062720       ?_Destroy@?$vector@V?$shared_ptr@VPointCoord@baro@@@std@@V?$allocator@V?$shared_ptr@VPointCoord@baro@@@std@@@2@@std@@IAEXPAV?$shared_ptr@VPointCoord@baro@@@2@0@Z 100b4720 f i CustomGraph.obj
 0002:000627f0       ?_Do_call@?$_Func_impl@U?$_Callable_obj@V?$_Bind@$00XU?$_Pmf_wrap@P8CustomGraph@baro@@AEXAAVGraphics@Gdiplus@@AAVCDC@@IK@ZXV12@AAV34@AAV5@IK@std@@QAVCustomGraph@baro@@AAV?$_Ph@$00@2@AAV?$_Ph@$01@2@AAV?$_Ph@$02@2@AAV?$_Ph@$03@2@@std@@$0A@@std@@V?$allocator@V?$_Func_class@XAAVGraphics@Gdiplus@@AAVCDC@@IK@std@@@2@XAAVGraphics@Gdiplus@@AAVCDC@@IK@std@@UAEXAAVGraphics@Gdiplus@@AAVCDC@@$$QAI$$QAK@Z 100b47f0 f i CustomGraph.obj
 0002:00062890       ?_Free_proxy@?$_Vector_alloc@$0A@U?$_Vec_base_types@V?$shared_ptr@VPointCoord@baro@@@std@@V?$allocator@V?$shared_ptr@VPointCoord@baro@@@std@@@2@@std@@@std@@QAEXXZ 100b4890 f i CustomGraph.obj
 0002:00062980       ?_Get@?$_Callable_base@V?$_Bind@$00XU?$_Pmf_wrap@P8CustomGraph@baro@@AEXAAVGraphics@Gdiplus@@AAVCDC@@IK@ZXV12@AAV34@AAV5@IK@std@@QAVCustomGraph@baro@@AAV?$_Ph@$00@2@AAV?$_Ph@$01@2@AAV?$_Ph@$02@2@AAV?$_Ph@$03@2@@std@@$0A@@std@@QAEAAV?$_Bind@$00XU?$_Pmf_wrap@P8CustomGraph@baro@@AEXAAVGraphics@Gdiplus@@AAVCDC@@IK@ZXV12@AAV34@AAV5@IK@std@@QAVCustomGraph@baro@@AAV?$_Ph@$00@2@AAV?$_Ph@$01@2@AAV?$_Ph@$02@2@AAV?$_Ph@$03@2@@2@XZ 100b4980 f i CustomGraph.obj
 0002:000629c0       ?_Get@?$_Callable_base@V?$_Bind@$00XU?$_Pmf_wrap@P8CustomGraph@baro@@AEXAAVGraphics@Gdiplus@@AAVCDC@@IK@ZXV12@AAV34@AAV5@IK@std@@QAVCustomGraph@baro@@AAV?$_Ph@$00@2@AAV?$_Ph@$01@2@AAV?$_Ph@$02@2@AAV?$_Ph@$03@2@@std@@$0A@@std@@QBEABV?$_Bind@$00XU?$_Pmf_wrap@P8CustomGraph@baro@@AEXAAVGraphics@Gdiplus@@AAVCDC@@IK@ZXV12@AAV34@AAV5@IK@std@@QAVCustomGraph@baro@@AAV?$_Ph@$00@2@AAV?$_Ph@$01@2@AAV?$_Ph@$02@2@AAV?$_Ph@$03@2@@2@XZ 100b49c0 f i CustomGraph.obj
 0002:00062a00       ?_Get@?$_Func_impl@U?$_Callable_obj@V?$_Bind@$00XU?$_Pmf_wrap@P8CustomGraph@baro@@AEXAAVGraphics@Gdiplus@@AAVCDC@@IK@ZXV12@AAV34@AAV5@IK@std@@QAVCustomGraph@baro@@AAV?$_Ph@$00@2@AAV?$_Ph@$01@2@AAV?$_Ph@$02@2@AAV?$_Ph@$03@2@@std@@$0A@@std@@V?$allocator@V?$_Func_class@XAAVGraphics@Gdiplus@@AAVCDC@@IK@std@@@2@XAAVGraphics@Gdiplus@@AAVCDC@@IK@std@@EBEPBXXZ 100b4a00 f i CustomGraph.obj
 0002:00062a60       ?_Get@?$_Ptr_base@VPointCoord@baro@@@std@@QBEPAVPointCoord@baro@@XZ 100b4a60 f i CustomGraph.obj
 0002:00062aa0       ?_Getal@?$_Vector_alloc@$0A@U?$_Vec_base_types@V?$shared_ptr@VPointCoord@baro@@@std@@V?$allocator@V?$shared_ptr@VPointCoord@baro@@@std@@@2@@std@@@std@@QBE?AU?$_Wrap_alloc@V?$allocator@V?$shared_ptr@VPointCoord@baro@@@std@@@std@@@2@XZ 100b4aa0 f i CustomGraph.obj
 0002:00062b00       ?_Getptr@?$_Ref_count_obj@VPointCoord@baro@@@std@@QBEPAVPointCoord@baro@@XZ 100b4b00 f i CustomGraph.obj
 0002:00062b40       ?_Grow_to@?$vector@V?$shared_ptr@VPointCoord@baro@@@std@@V?$allocator@V?$shared_ptr@VPointCoord@baro@@@std@@@2@@std@@IBEII@Z 100b4b40 f i CustomGraph.obj
 0002:00062bf0       ?_Inside@?$vector@V?$shared_ptr@VPointCoord@baro@@@std@@V?$allocator@V?$shared_ptr@VPointCoord@baro@@@std@@@2@@std@@IBE_NPBV?$shared_ptr@VPointCoord@baro@@@2@@Z 100b4bf0 f i CustomGraph.obj
 0002:00062c70       ?_Local@?$_Func_class@XAAVGraphics@Gdiplus@@AAVCDC@@IK@std@@ABE_NXZ 100b4c70 f i CustomGraph.obj
 0002:00062ce0       ?_Move@?$_Func_impl@U?$_Callable_obj@V?$_Bind@$00XU?$_Pmf_wrap@P8CustomGraph@baro@@AEXAAVGraphics@Gdiplus@@AAVCDC@@IK@ZXV12@AAV34@AAV5@IK@std@@QAVCustomGraph@baro@@AAV?$_Ph@$00@2@AAV?$_Ph@$01@2@AAV?$_Ph@$02@2@AAV?$_Ph@$03@2@@std@@$0A@@std@@V?$allocator@V?$_Func_class@XAAVGraphics@Gdiplus@@AAVCDC@@IK@std@@@2@XAAVGraphics@Gdiplus@@AAVCDC@@IK@std@@UAEPAV?$_Func_base@XAAVGraphics@Gdiplus@@AAVCDC@@IK@2@PAX@Z 100b4ce0 f i CustomGraph.obj
 0002:00062e00       ?_Orphan_range@?$vector@V?$shared_ptr@VPointCoord@baro@@@std@@V?$allocator@V?$shared_ptr@VPointCoord@baro@@@std@@@2@@std@@IBEXPAV?$shared_ptr@VPointCoord@baro@@@2@0@Z 100b4e00 f i CustomGraph.obj
 0002:00062f90       ?_Reallocate@?$vector@V?$shared_ptr@VPointCoord@baro@@@std@@V?$allocator@V?$shared_ptr@VPointCoord@baro@@@std@@@2@@std@@IAEXI@Z 100b4f90 f i CustomGraph.obj
 0002:00063170       ?_Reserve@?$vector@V?$shared_ptr@VPointCoord@baro@@@std@@V?$allocator@V?$shared_ptr@VPointCoord@baro@@@std@@@2@@std@@IAEXI@Z 100b5170 f i CustomGraph.obj
 0002:00063220       ?_Reset0@?$_Ptr_base@VPointCoord@baro@@@std@@QAEXPAVPointCoord@baro@@PAV_Ref_count_base@2@@Z 100b5220 f i CustomGraph.obj
 0002:000632a0       ?_Reset@?$_Ptr_base@VPointCoord@baro@@@std@@QAEXPAVPointCoord@baro@@PAV_Ref_count_base@2@@Z 100b52a0 f i CustomGraph.obj
 0002:00063310       ?_Set@?$_Func_class@XAAVGraphics@Gdiplus@@AAVCDC@@IK@std@@AAEXPAV?$_Func_base@XAAVGraphics@Gdiplus@@AAVCDC@@IK@2@@Z 100b5310 f i CustomGraph.obj
 0002:00063360       ?_Swap@?$_Ptr_base@VPointCoord@baro@@@std@@QAEXAAV12@@Z 100b5360 f i CustomGraph.obj
 0002:000633e0       ?_Target_type@?$_Func_impl@U?$_Callable_obj@V?$_Bind@$00XU?$_Pmf_wrap@P8CustomGraph@baro@@AEXAAVGraphics@Gdiplus@@AAVCDC@@IK@ZXV12@AAV34@AAV5@IK@std@@QAVCustomGraph@baro@@AAV?$_Ph@$00@2@AAV?$_Ph@$01@2@AAV?$_Ph@$02@2@AAV?$_Ph@$03@2@@std@@$0A@@std@@V?$allocator@V?$_Func_class@XAAVGraphics@Gdiplus@@AAVCDC@@IK@std@@@2@XAAVGraphics@Gdiplus@@AAVCDC@@IK@std@@UBEABVtype_info@@XZ 100b53e0 f i CustomGraph.obj
 0002:00063420       ?_Tidy@?$_Func_class@XAAVGraphics@Gdiplus@@AAVCDC@@IK@std@@IAEXXZ 100b5420 f i CustomGraph.obj
 0002:000634d0       ?_Tidy@?$vector@V?$shared_ptr@VPointCoord@baro@@@std@@V?$allocator@V?$shared_ptr@VPointCoord@baro@@@std@@@2@@std@@IAEXXZ 100b54d0 f i CustomGraph.obj
 0002:000635b0       ?_Unused_capacity@?$vector@V?$shared_ptr@VPointCoord@baro@@@std@@V?$allocator@V?$shared_ptr@VPointCoord@baro@@@std@@@2@@std@@QBEIXZ 100b55b0 f i CustomGraph.obj
 0002:00063600       ?_Xlen@?$vector@V?$shared_ptr@VPointCoord@baro@@@std@@V?$allocator@V?$shared_ptr@VPointCoord@baro@@@std@@@2@@std@@IBEXXZ 100b5600 f i CustomGraph.obj
 0002:00063660       ?__autoclassinit2@?$shared_ptr@VPointCoord@baro@@@std@@QAEXI@Z 100b5660 f i CustomGraph.obj
 0002:000636c0       ?__autoclassinit2@Pen@Gdiplus@@QAEXI@Z 100b56c0 f i CustomGraph.obj
 0002:00063720       ?allocate@?$_Wrap_alloc@V?$allocator@V?$shared_ptr@VPointCoord@baro@@@std@@@std@@@std@@QAEPAV?$shared_ptr@VPointCoord@baro@@@2@I@Z 100b5720 f i CustomGraph.obj
 0002:00063780       ?allocate@?$allocator@V?$_Func_impl@U?$_Callable_obj@V?$_Bind@$00XU?$_Pmf_wrap@P8CustomGraph@baro@@AEXAAVGraphics@Gdiplus@@AAVCDC@@IK@ZXV12@AAV34@AAV5@IK@std@@QAVCustomGraph@baro@@AAV?$_Ph@$00@2@AAV?$_Ph@$01@2@AAV?$_Ph@$02@2@AAV?$_Ph@$03@2@@std@@$0A@@std@@V?$allocator@V?$_Func_class@XAAVGraphics@Gdiplus@@AAVCDC@@IK@std@@@2@XAAVGraphics@Gdiplus@@AAVCDC@@IK@std@@@std@@QAEPAV?$_Func_impl@U?$_Callable_obj@V?$_Bind@$00XU?$_Pmf_wrap@P8CustomGraph@baro@@AEXAAVGraphics@Gdiplus@@AAVCDC@@IK@ZXV12@AAV34@AAV5@IK@std@@QAVCustomGraph@baro@@AAV?$_Ph@$00@2@AAV?$_Ph@$01@2@AAV?$_Ph@$02@2@AAV?$_Ph@$03@2@@std@@$0A@@std@@V?$allocator@V?$_Func_class@XAAVGraphics@Gdiplus@@AAVCDC@@IK@std@@@2@XAAVGraphics@Gdiplus@@AAVCDC@@IK@2@I@Z 100b5780 f i CustomGraph.obj
 0002:000637e0       ?allocate@?$allocator@V?$shared_ptr@VPointCoord@baro@@@std@@@std@@QAEPAV?$shared_ptr@VPointCoord@baro@@@2@I@Z 100b57e0 f i CustomGraph.obj
 0002:00063840       ?capacity@?$vector@V?$shared_ptr@VPointCoord@baro@@@std@@V?$allocator@V?$shared_ptr@VPointCoord@baro@@@std@@@2@@std@@QBEIXZ 100b5840 f i CustomGraph.obj
 0002:00063890       ?deallocate@?$_Wrap_alloc@V?$allocator@V?$shared_ptr@VPointCoord@baro@@@std@@@std@@@std@@QAEXPAV?$shared_ptr@VPointCoord@baro@@@2@I@Z 100b5890 f i CustomGraph.obj
 0002:000638f0       ?deallocate@?$allocator@V?$_Func_impl@U?$_Callable_obj@V?$_Bind@$00XU?$_Pmf_wrap@P8CustomGraph@baro@@AEXAAVGraphics@Gdiplus@@AAVCDC@@IK@ZXV12@AAV34@AAV5@IK@std@@QAVCustomGraph@baro@@AAV?$_Ph@$00@2@AAV?$_Ph@$01@2@AAV?$_Ph@$02@2@AAV?$_Ph@$03@2@@std@@$0A@@std@@V?$allocator@V?$_Func_class@XAAVGraphics@Gdiplus@@AAVCDC@@IK@std@@@2@XAAVGraphics@Gdiplus@@AAVCDC@@IK@std@@@std@@QAEXPAV?$_Func_impl@U?$_Callable_obj@V?$_Bind@$00XU?$_Pmf_wrap@P8CustomGraph@baro@@AEXAAVGraphics@Gdiplus@@AAVCDC@@IK@ZXV12@AAV34@AAV5@IK@std@@QAVCustomGraph@baro@@AAV?$_Ph@$00@2@AAV?$_Ph@$01@2@AAV?$_Ph@$02@2@AAV?$_Ph@$03@2@@std@@$0A@@std@@V?$allocator@V?$_Func_class@XAAVGraphics@Gdiplus@@AAVCDC@@IK@std@@@2@XAAVGraphics@Gdiplus@@AAVCDC@@IK@2@I@Z 100b58f0 f i CustomGraph.obj
 0002:00063950       ?deallocate@?$allocator@V?$shared_ptr@VPointCoord@baro@@@std@@@std@@QAEXPAV?$shared_ptr@VPointCoord@baro@@@2@I@Z 100b5950 f i CustomGraph.obj
 0002:000639b0       ?max_size@?$_Wrap_alloc@V?$allocator@V?$shared_ptr@VPointCoord@baro@@@std@@@std@@@std@@QBEIXZ 100b59b0 f i CustomGraph.obj
 0002:00063a10       ?max_size@?$allocator@V?$shared_ptr@VPointCoord@baro@@@std@@@std@@QBEIXZ 100b5a10 f i CustomGraph.obj
 0002:00063a50       ?max_size@?$allocator_traits@V?$allocator@V?$shared_ptr@VPointCoord@baro@@@std@@@std@@@std@@SAIABV?$allocator@V?$shared_ptr@VPointCoord@baro@@@std@@@2@@Z 100b5a50 f i CustomGraph.obj
 0002:00063aa0       ?max_size@?$vector@V?$shared_ptr@VPointCoord@baro@@@std@@V?$allocator@V?$shared_ptr@VPointCoord@baro@@@std@@@2@@std@@QBEIXZ 100b5aa0 f i CustomGraph.obj
 0002:00063b00       ?push_back@?$vector@V?$shared_ptr@VPointCoord@baro@@@std@@V?$allocator@V?$shared_ptr@VPointCoord@baro@@@std@@@2@@std@@QAEX$$QAV?$shared_ptr@VPointCoord@baro@@@2@@Z 100b5b00 f i CustomGraph.obj
 0002:00063ca0       ?size@?$vector@V?$shared_ptr@VPointCoord@baro@@@std@@V?$allocator@V?$shared_ptr@VPointCoord@baro@@@std@@@2@@std@@QBEIXZ 100b5ca0 f i CustomGraph.obj
 0002:00063cf0       ?size@?$vector@VPointF@Gdiplus@@V?$allocator@VPointF@Gdiplus@@@std@@@std@@QBEIXZ 100b5cf0 f i CustomGraph.obj
 0002:00063d40       ??$?0AAHAAVColor@Gdiplus@@X@?$pair@HVColor@Gdiplus@@@std@@QAE@AAHAAVColor@Gdiplus@@@Z 100b5d40 f i GradientRect.obj
 0002:00063dc0       ??$?0AAV?$_Tree_iterator@V?$_Tree_val@U?$_Tree_simple_types@U?$pair@$$CBHVColor@Gdiplus@@@std@@@std@@@std@@@std@@_NX@?$pair@V?$_Tree_iterator@V?$_Tree_val@U?$_Tree_simple_types@U?$pair@$$CBHVColor@Gdiplus@@@std@@@std@@@std@@@std@@_N@std@@QAE@AAV?$_Tree_iterator@V?$_Tree_val@U?$_Tree_simple_types@U?$pair@$$CBHVColor@Gdiplus@@@std@@@std@@@std@@@1@$$QA_N@Z 100b5dc0 f i GradientRect.obj
 0002:00063e90       ??$?0HVColor@Gdiplus@@X@?$pair@$$CBHVColor@Gdiplus@@@std@@QAE@$$QAU?$pair@HVColor@Gdiplus@@@1@@Z 100b5e90 f i GradientRect.obj
 0002:00063f10       ??$?0U?$_Tree_node@U?$pair@$$CBHVColor@Gdiplus@@@std@@PAX@std@@@?$allocator@U_Container_proxy@std@@@std@@QAE@ABV?$allocator@U?$_Tree_node@U?$pair@$$CBHVColor@Gdiplus@@@std@@PAX@std@@@1@@Z 100b5f10 f i GradientRect.obj
 0002:00063f50       ??$?0U?$_Wrap_alloc@V?$allocator@U?$_Tree_node@U?$pair@$$CBHVColor@Gdiplus@@@std@@PAX@std@@@std@@@std@@@?$_Wrap_alloc@V?$allocator@U_Container_proxy@std@@@std@@@std@@QAE@ABU?$_Wrap_alloc@V?$allocator@U?$_Tree_node@U?$pair@$$CBHVColor@Gdiplus@@@std@@PAX@std@@@std@@@1@@Z 100b5f50 f i GradientRect.obj
 0002:00063fb0       ??$?0V?$_Tree_iterator@V?$_Tree_val@U?$_Tree_simple_types@U?$pair@$$CBHVColor@Gdiplus@@@std@@@std@@@std@@@std@@_NX@?$pair@V?$_Tree_iterator@V?$_Tree_val@U?$_Tree_simple_types@U?$pair@$$CBHVColor@Gdiplus@@@std@@@std@@@std@@@std@@_N@std@@QAE@$$QAV?$_Tree_iterator@V?$_Tree_val@U?$_Tree_simple_types@U?$pair@$$CBHVColor@Gdiplus@@@std@@@std@@@std@@@1@$$QA_N@Z 100b5fb0 f i GradientRect.obj
 0002:00064080       ??$_Allocate@U?$_Tree_node@U?$pair@$$CBHVColor@Gdiplus@@@std@@PAX@std@@@std@@YAPAU?$_Tree_node@U?$pair@$$CBHVColor@Gdiplus@@@std@@PAX@0@IPAU10@@Z 100b6080 f i GradientRect.obj
 0002:00064110       ??$_Buynode@U?$pair@HVColor@Gdiplus@@@std@@@?$_Tree_buy@U?$pair@$$CBHVColor@Gdiplus@@@std@@V?$allocator@U?$pair@$$CBHVColor@Gdiplus@@@std@@@2@@std@@QAEPAU?$_Tree_node@U?$pair@$$CBHVColor@Gdiplus@@@std@@PAX@1@$$QAU?$pair@HVColor@Gdiplus@@@1@@Z 100b6110 f i GradientRect.obj
 0002:00064280       ??$_Buynode_if_nil@AAU?$pair@$$CBHVColor@Gdiplus@@@std@@@?$_Tree@V?$_Tmap_traits@HVColor@Gdiplus@@U?$less@H@std@@V?$allocator@U?$pair@$$CBHVColor@Gdiplus@@@std@@@4@$0A@@std@@@std@@IAEPAU?$_Tree_node@U?$pair@$$CBHVColor@Gdiplus@@@std@@PAX@1@PAU21@AAU?$pair@$$CBHVColor@Gdiplus@@@1@@Z 100b6280 f i GradientRect.obj
 0002:000642c0       ??$_Debug_lt_pred@U?$less@H@std@@ABHABH@std@@YA_NU?$less@H@0@ABH1PB_WI@Z 100b62c0 f i GradientRect.obj
 0002:000643a0       ??$_Insert_at@AAU?$pair@$$CBHVColor@Gdiplus@@@std@@PAU?$_Tree_node@U?$pair@$$CBHVColor@Gdiplus@@@std@@PAX@2@@?$_Tree@V?$_Tmap_traits@HVColor@Gdiplus@@U?$less@H@std@@V?$allocator@U?$pair@$$CBHVColor@Gdiplus@@@std@@@4@$0A@@std@@@std@@IAE?AV?$_Tree_iterator@V?$_Tree_val@U?$_Tree_simple_types@U?$pair@$$CBHVColor@Gdiplus@@@std@@@std@@@std@@@1@_NPAU?$_Tree_node@U?$pair@$$CBHVColor@Gdiplus@@@std@@PAX@1@AAU?$pair@$$CBHVColor@Gdiplus@@@1@1@Z 100b63a0 f i GradientRect.obj
 0002:00064930       ??$_Insert_nohint@AAU?$pair@$$CBHVColor@Gdiplus@@@std@@PAU?$_Tree_node@U?$pair@$$CBHVColor@Gdiplus@@@std@@PAX@2@@?$_Tree@V?$_Tmap_traits@HVColor@Gdiplus@@U?$less@H@std@@V?$allocator@U?$pair@$$CBHVColor@Gdiplus@@@std@@@4@$0A@@std@@@std@@IAE?AU?$pair@V?$_Tree_iterator@V?$_Tree_val@U?$_Tree_simple_types@U?$pair@$$CBHVColor@Gdiplus@@@std@@@std@@@std@@@std@@_N@1@_NAAU?$pair@$$CBHVColor@Gdiplus@@@1@PAU?$_Tree_node@U?$pair@$$CBHVColor@Gdiplus@@@std@@PAX@1@@Z 100b6930 f i GradientRect.obj
 0002:00065090       ??$_Kfn@$$CBHVColor@Gdiplus@@@?$_Tmap_traits@HVColor@Gdiplus@@U?$less@H@std@@V?$allocator@U?$pair@$$CBHVColor@Gdiplus@@@std@@@4@$0A@@std@@SAABHABU?$pair@$$CBHVColor@Gdiplus@@@1@@Z 100b7090 f i GradientRect.obj
 0002:000650d0       ??$addressof@PAU?$_Tree_node@U?$pair@$$CBHVColor@Gdiplus@@@std@@PAX@std@@@std@@YAPAPAU?$_Tree_node@U?$pair@$$CBHVColor@Gdiplus@@@std@@PAX@0@AAPAU10@@Z 100b70d0 f i GradientRect.obj
 0002:00065110       ??$addressof@U?$pair@$$CBHVColor@Gdiplus@@@std@@@std@@YAPAU?$pair@$$CBHVColor@Gdiplus@@@0@AAU10@@Z 100b7110 f i GradientRect.obj
 0002:00065150       ??$construct@PAU?$_Tree_node@U?$pair@$$CBHVColor@Gdiplus@@@std@@PAX@std@@AAPAU12@@?$_Wrap_alloc@V?$allocator@U?$_Tree_node@U?$pair@$$CBHVColor@Gdiplus@@@std@@PAX@std@@@std@@@std@@QAEXPAPAU?$_Tree_node@U?$pair@$$CBHVColor@Gdiplus@@@std@@PAX@1@AAPAU21@@Z 100b7150 f i GradientRect.obj
 0002:000651c0       ??$construct@PAU?$_Tree_node@U?$pair@$$CBHVColor@Gdiplus@@@std@@PAX@std@@AAPAU12@@?$allocator@U?$_Tree_node@U?$pair@$$CBHVColor@Gdiplus@@@std@@PAX@std@@@std@@QAEXPAPAU?$_Tree_node@U?$pair@$$CBHVColor@Gdiplus@@@std@@PAX@1@AAPAU21@@Z 100b71c0 f i GradientRect.obj
 0002:000652c0       ??$construct@PAU?$_Tree_node@U?$pair@$$CBHVColor@Gdiplus@@@std@@PAX@std@@AAPAU12@@?$allocator_traits@V?$allocator@U?$_Tree_node@U?$pair@$$CBHVColor@Gdiplus@@@std@@PAX@std@@@std@@@std@@SAXAAV?$allocator@U?$_Tree_node@U?$pair@$$CBHVColor@Gdiplus@@@std@@PAX@std@@@1@PAPAU?$_Tree_node@U?$pair@$$CBHVColor@Gdiplus@@@std@@PAX@1@AAPAU31@@Z 100b72c0 f i GradientRect.obj
 0002:00065320       ??$construct@U?$pair@$$CBHVColor@Gdiplus@@@std@@U?$pair@HVColor@Gdiplus@@@2@@?$_Wrap_alloc@V?$allocator@U?$_Tree_node@U?$pair@$$CBHVColor@Gdiplus@@@std@@PAX@std@@@std@@@std@@QAEXPAU?$pair@$$CBHVColor@Gdiplus@@@1@$$QAU?$pair@HVColor@Gdiplus@@@1@@Z 100b7320 f i GradientRect.obj
 0002:00065390       ??$construct@U?$pair@$$CBHVColor@Gdiplus@@@std@@U?$pair@HVColor@Gdiplus@@@2@@?$allocator@U?$_Tree_node@U?$pair@$$CBHVColor@Gdiplus@@@std@@PAX@std@@@std@@QAEXPAU?$pair@$$CBHVColor@Gdiplus@@@1@$$QAU?$pair@HVColor@Gdiplus@@@1@@Z 100b7390 f i GradientRect.obj
 0002:00065490       ??$construct@U?$pair@$$CBHVColor@Gdiplus@@@std@@U?$pair@HVColor@Gdiplus@@@2@@?$allocator_traits@V?$allocator@U?$_Tree_node@U?$pair@$$CBHVColor@Gdiplus@@@std@@PAX@std@@@std@@@std@@SAXAAV?$allocator@U?$_Tree_node@U?$pair@$$CBHVColor@Gdiplus@@@std@@PAX@std@@@1@PAU?$pair@$$CBHVColor@Gdiplus@@@1@$$QAU?$pair@HVColor@Gdiplus@@@1@@Z 100b7490 f i GradientRect.obj
 0002:000654f0       ??$destroy@PAU?$_Tree_node@U?$pair@$$CBHVColor@Gdiplus@@@std@@PAX@std@@@?$_Wrap_alloc@V?$allocator@U?$_Tree_node@U?$pair@$$CBHVColor@Gdiplus@@@std@@PAX@std@@@std@@@std@@QAEXPAPAU?$_Tree_node@U?$pair@$$CBHVColor@Gdiplus@@@std@@PAX@1@@Z 100b74f0 f i GradientRect.obj
 0002:00065550       ??$destroy@PAU?$_Tree_node@U?$pair@$$CBHVColor@Gdiplus@@@std@@PAX@std@@@?$allocator@U?$_Tree_node@U?$pair@$$CBHVColor@Gdiplus@@@std@@PAX@std@@@std@@QAEXPAPAU?$_Tree_node@U?$pair@$$CBHVColor@Gdiplus@@@std@@PAX@1@@Z 100b7550 f i GradientRect.obj
 0002:00065590       ??$destroy@PAU?$_Tree_node@U?$pair@$$CBHVColor@Gdiplus@@@std@@PAX@std@@@?$allocator_traits@V?$allocator@U?$_Tree_node@U?$pair@$$CBHVColor@Gdiplus@@@std@@PAX@std@@@std@@@std@@SAXAAV?$allocator@U?$_Tree_node@U?$pair@$$CBHVColor@Gdiplus@@@std@@PAX@std@@@1@PAPAU?$_Tree_node@U?$pair@$$CBHVColor@Gdiplus@@@std@@PAX@1@@Z 100b7590 f i GradientRect.obj
 0002:000655e0       ??$destroy@U?$pair@$$CBHVColor@Gdiplus@@@std@@@?$_Wrap_alloc@V?$allocator@U?$_Tree_node@U?$pair@$$CBHVColor@Gdiplus@@@std@@PAX@std@@@std@@@std@@QAEXPAU?$pair@$$CBHVColor@Gdiplus@@@1@@Z 100b75e0 f i GradientRect.obj
 0002:00065640       ??$destroy@U?$pair@$$CBHVColor@Gdiplus@@@std@@@?$allocator@U?$_Tree_node@U?$pair@$$CBHVColor@Gdiplus@@@std@@PAX@std@@@std@@QAEXPAU?$pair@$$CBHVColor@Gdiplus@@@1@@Z 100b7640 f i GradientRect.obj
 0002:00065680       ??$destroy@U?$pair@$$CBHVColor@Gdiplus@@@std@@@?$allocator_traits@V?$allocator@U?$_Tree_node@U?$pair@$$CBHVColor@Gdiplus@@@std@@PAX@std@@@std@@@std@@SAXAAV?$allocator@U?$_Tree_node@U?$pair@$$CBHVColor@Gdiplus@@@std@@PAX@std@@@1@PAU?$pair@$$CBHVColor@Gdiplus@@@1@@Z 100b7680 f i GradientRect.obj
 0002:000656d0       ??$forward@AAH@std@@YAAAHAAH@Z 100b76d0 f i GradientRect.obj
 0002:00065710       ??$forward@AAPAU?$_Tree_node@U?$pair@$$CBHVColor@Gdiplus@@@std@@PAX@std@@@std@@YAAAPAU?$_Tree_node@U?$pair@$$CBHVColor@Gdiplus@@@std@@PAX@0@AAPAU10@@Z 100b7710 f i GradientRect.obj
 0002:00065750       ??$forward@AAU?$pair@$$CBHVColor@Gdiplus@@@std@@@std@@YAAAU?$pair@$$CBHVColor@Gdiplus@@@0@AAU10@@Z 100b7750 f i GradientRect.obj
 0002:00065790       ??$forward@AAV?$_Tree_iterator@V?$_Tree_val@U?$_Tree_simple_types@U?$pair@$$CBHVColor@Gdiplus@@@std@@@std@@@std@@@std@@@std@@YAAAV?$_Tree_iterator@V?$_Tree_val@U?$_Tree_simple_types@U?$pair@$$CBHVColor@Gdiplus@@@std@@@std@@@std@@@0@AAV10@@Z 100b7790 f i GradientRect.obj
 0002:000657d0       ??$forward@AAVColor@Gdiplus@@@std@@YAAAVColor@Gdiplus@@AAV12@@Z 100b77d0 f i GradientRect.obj
 0002:00065810       ??$forward@ABH@std@@YAABHABH@Z 100b7810 f i GradientRect.obj
 0002:00065850       ??$forward@U?$pair@HVColor@Gdiplus@@@std@@@std@@YA$$QAU?$pair@HVColor@Gdiplus@@@0@AAU10@@Z 100b7850 f i GradientRect.obj
 0002:00065890       ??$forward@V?$_Tree_iterator@V?$_Tree_val@U?$_Tree_simple_types@U?$pair@$$CBHVColor@Gdiplus@@@std@@@std@@@std@@@std@@@std@@YA$$QAV?$_Tree_iterator@V?$_Tree_val@U?$_Tree_simple_types@U?$pair@$$CBHVColor@Gdiplus@@@std@@@std@@@std@@@0@AAV10@@Z 100b7890 f i GradientRect.obj
 0002:000658d0       ??$forward@VColor@Gdiplus@@@std@@YA$$QAVColor@Gdiplus@@AAV12@@Z 100b78d0 f i GradientRect.obj
 0002:00065910       ??$insert@U?$pair@HVColor@Gdiplus@@@std@@@?$_Tree@V?$_Tmap_traits@HVColor@Gdiplus@@U?$less@H@std@@V?$allocator@U?$pair@$$CBHVColor@Gdiplus@@@std@@@4@$0A@@std@@@std@@QAE?AU?$pair@V?$_Tree_iterator@V?$_Tree_val@U?$_Tree_simple_types@U?$pair@$$CBHVColor@Gdiplus@@@std@@@std@@@std@@@std@@_N@1@$$QAU?$pair@HVColor@Gdiplus@@@1@@Z 100b7910 f i GradientRect.obj
 0002:000659c0       ??$make_pair@AAHAAVColor@Gdiplus@@@std@@YA?AU?$pair@HVColor@Gdiplus@@@0@AAHAAVColor@Gdiplus@@@Z 100b79c0 f i GradientRect.obj
 0002:00065a30       ??0?$_Iterator012@Ubidirectional_iterator_tag@std@@U?$pair@$$CBHVColor@Gdiplus@@@2@HPBU32@ABU32@U_Iterator_base12@2@@std@@QAE@ABU01@@Z 100b7a30 f i GradientRect.obj
 0002:00065a90       ??0?$_Iterator012@Ubidirectional_iterator_tag@std@@U?$pair@$$CBHVColor@Gdiplus@@@2@HPBU32@ABU32@U_Iterator_base12@2@@std@@QAE@XZ 100b7a90 f i GradientRect.obj
 0002:00065af0       ??0?$_Tree@V?$_Tmap_traits@HVColor@Gdiplus@@U?$less@H@std@@V?$allocator@U?$pair@$$CBHVColor@Gdiplus@@@std@@@4@$0A@@std@@@std@@QAE@ABU?$less@H@1@ABV?$allocator@U?$pair@$$CBHVColor@Gdiplus@@@std@@@1@@Z 100b7af0 f i GradientRect.obj
 0002:00065b50       ??0?$_Tree_alloc@$0A@U?$_Tree_base_types@U?$pair@$$CBHVColor@Gdiplus@@@std@@V?$allocator@U?$pair@$$CBHVColor@Gdiplus@@@std@@@2@@std@@@std@@QAE@ABV?$allocator@U?$pair@$$CBHVColor@Gdiplus@@@std@@@1@@Z 100b7b50 f i GradientRect.obj
 0002:00065c50       ??0?$_Tree_buy@U?$pair@$$CBHVColor@Gdiplus@@@std@@V?$allocator@U?$pair@$$CBHVColor@Gdiplus@@@std@@@2@@std@@QAE@ABV?$allocator@U?$pair@$$CBHVColor@Gdiplus@@@std@@@1@@Z 100b7c50 f i GradientRect.obj
 0002:00065cb0       ??0?$_Tree_comp@$0A@V?$_Tmap_traits@HVColor@Gdiplus@@U?$less@H@std@@V?$allocator@U?$pair@$$CBHVColor@Gdiplus@@@std@@@4@$0A@@std@@@std@@QAE@ABU?$less@H@1@ABV?$allocator@U?$pair@$$CBHVColor@Gdiplus@@@std@@@1@@Z 100b7cb0 f i GradientRect.obj
 0002:00065d10       ??0?$_Tree_const_iterator@V?$_Tree_val@U?$_Tree_simple_types@U?$pair@$$CBHVColor@Gdiplus@@@std@@@std@@@std@@@std@@QAE@ABV01@@Z 100b7d10 f i GradientRect.obj
 0002:00065d70       ??0?$_Tree_const_iterator@V?$_Tree_val@U?$_Tree_simple_types@U?$pair@$$CBHVColor@Gdiplus@@@std@@@std@@@std@@@std@@QAE@PAU?$_Tree_node@U?$pair@$$CBHVColor@Gdiplus@@@std@@PAX@1@PBV?$_Tree_val@U?$_Tree_simple_types@U?$pair@$$CBHVColor@Gdiplus@@@std@@@std@@@1@@Z 100b7d70 f i GradientRect.obj
 0002:00065dd0       ??0?$_Tree_iterator@V?$_Tree_val@U?$_Tree_simple_types@U?$pair@$$CBHVColor@Gdiplus@@@std@@@std@@@std@@@std@@QAE@ABV01@@Z 100b7dd0 f i GradientRect.obj
 0002:00065e30       ??0?$_Tree_iterator@V?$_Tree_val@U?$_Tree_simple_types@U?$pair@$$CBHVColor@Gdiplus@@@std@@@std@@@std@@@std@@QAE@PAU?$_Tree_node@U?$pair@$$CBHVColor@Gdiplus@@@std@@PAX@1@PBV?$_Tree_val@U?$_Tree_simple_types@U?$pair@$$CBHVColor@Gdiplus@@@std@@@std@@@1@@Z 100b7e30 f i GradientRect.obj
 0002:00065e90       ??0?$_Tree_unchecked_const_iterator@V?$_Tree_val@U?$_Tree_simple_types@U?$pair@$$CBHVColor@Gdiplus@@@std@@@std@@@std@@U_Iterator_base12@2@@std@@QAE@ABV01@@Z 100b7e90 f i GradientRect.obj
 0002:00065f00       ??0?$_Tree_unchecked_const_iterator@V?$_Tree_val@U?$_Tree_simple_types@U?$pair@$$CBHVColor@Gdiplus@@@std@@@std@@@std@@U_Iterator_base12@2@@std@@QAE@PAU?$_Tree_node@U?$pair@$$CBHVColor@Gdiplus@@@std@@PAX@1@PBV?$_Tree_val@U?$_Tree_simple_types@U?$pair@$$CBHVColor@Gdiplus@@@std@@@std@@@1@@Z 100b7f00 f i GradientRect.obj
 0002:00065fc0       ??0?$_Tree_val@U?$_Tree_simple_types@U?$pair@$$CBHVColor@Gdiplus@@@std@@@std@@@std@@QAE@XZ 100b7fc0 f i GradientRect.obj
 0002:00066040       ??0?$_Wrap_alloc@V?$allocator@U?$_Tree_node@U?$pair@$$CBHVColor@Gdiplus@@@std@@PAX@std@@@std@@@std@@QAE@XZ 100b8040 f i GradientRect.obj
 0002:000660a0       ??0?$allocator@U?$_Tree_node@U?$pair@$$CBHVColor@Gdiplus@@@std@@PAX@std@@@std@@QAE@XZ 100b80a0 f i GradientRect.obj
 0002:000660e0       ??0?$allocator@U?$pair@$$CBHVColor@Gdiplus@@@std@@@std@@QAE@XZ 100b80e0 f i GradientRect.obj
 0002:00066120       ??0?$map@HVColor@Gdiplus@@U?$less@H@std@@V?$allocator@U?$pair@$$CBHVColor@Gdiplus@@@std@@@4@@std@@QAE@XZ 100b8120 f i GradientRect.obj
 0002:00066190       ??0Brush@Gdiplus@@IAE@PAVGpBrush@1@W4Status@1@@Z 100b8190 f i GradientRect.obj
 0002:00066200       ??0Brush@Gdiplus@@IAE@XZ   100b8200 f i GradientRect.obj
 0002:00066260       ??0Color@Gdiplus@@QAE@K@Z  100b8260 f i GradientRect.obj
 0002:000662b0       ??0Color@Gdiplus@@QAE@XZ   100b82b0 f i GradientRect.obj
 0002:00066300       ??0GradientRect@baro@@QAE@VRect@Gdiplus@@VColor@3@@Z 100b8300 f   GradientRect.obj
 0002:00066420       ??0GradientRect@baro@@QAE@XZ 100b8420 f   GradientRect.obj
 0002:00066530       ??0LinearGradientBrush@Gdiplus@@QAE@ABVRect@1@ABVColor@1@1W4LinearGradientMode@1@@Z 100b8530 f i GradientRect.obj
 0002:00066670       ??0SolidBrush@Gdiplus@@QAE@ABVColor@1@@Z 100b8670 f i GradientRect.obj
 0002:000667a0       ??1?$_Iterator012@Ubidirectional_iterator_tag@std@@U?$pair@$$CBHVColor@Gdiplus@@@2@HPBU32@ABU32@U_Iterator_base12@2@@std@@QAE@XZ 100b87a0 f i GradientRect.obj
 0002:000667f0       ??1?$_Tree@V?$_Tmap_traits@HVColor@Gdiplus@@U?$less@H@std@@V?$allocator@U?$pair@$$CBHVColor@Gdiplus@@@std@@@4@$0A@@std@@@std@@QAE@XZ 100b87f0 f i GradientRect.obj
 0002:00066850       ??1?$_Tree_alloc@$0A@U?$_Tree_base_types@U?$pair@$$CBHVColor@Gdiplus@@@std@@V?$allocator@U?$pair@$$CBHVColor@Gdiplus@@@std@@@2@@std@@@std@@QAE@XZ 100b8850 f i GradientRect.obj
 0002:000668c0       ??1?$_Tree_buy@U?$pair@$$CBHVColor@Gdiplus@@@std@@V?$allocator@U?$pair@$$CBHVColor@Gdiplus@@@std@@@2@@std@@QAE@XZ 100b88c0 f i GradientRect.obj
 0002:00066910       ??1?$_Tree_comp@$0A@V?$_Tmap_traits@HVColor@Gdiplus@@U?$less@H@std@@V?$allocator@U?$pair@$$CBHVColor@Gdiplus@@@std@@@4@$0A@@std@@@std@@QAE@XZ 100b8910 f i GradientRect.obj
 0002:00066960       ??1?$_Tree_const_iterator@V?$_Tree_val@U?$_Tree_simple_types@U?$pair@$$CBHVColor@Gdiplus@@@std@@@std@@@std@@@std@@QAE@XZ 100b8960 f i GradientRect.obj
 0002:000669b0       ??1?$_Tree_iterator@V?$_Tree_val@U?$_Tree_simple_types@U?$pair@$$CBHVColor@Gdiplus@@@std@@@std@@@std@@@std@@QAE@XZ 100b89b0 f i GradientRect.obj
 0002:00066a00       ??1?$_Tree_unchecked_const_iterator@V?$_Tree_val@U?$_Tree_simple_types@U?$pair@$$CBHVColor@Gdiplus@@@std@@@std@@@std@@U_Iterator_base12@2@@std@@QAE@XZ 100b8a00 f i GradientRect.obj
 0002:00066a50       ??1?$_Tree_val@U?$_Tree_simple_types@U?$pair@$$CBHVColor@Gdiplus@@@std@@@std@@@std@@QAE@XZ 100b8a50 f i GradientRect.obj
 0002:00066ab0       ??1?$map@HVColor@Gdiplus@@U?$less@H@std@@V?$allocator@U?$pair@$$CBHVColor@Gdiplus@@@std@@@4@@std@@QAE@XZ 100b8ab0 f i GradientRect.obj
 0002:00066b00       ??1?$pair@V?$_Tree_iterator@V?$_Tree_val@U?$_Tree_simple_types@U?$pair@$$CBHVColor@Gdiplus@@@std@@@std@@@std@@@std@@_N@std@@QAE@XZ 100b8b00 f i GradientRect.obj
 0002:00066b50       ??1Brush@Gdiplus@@UAE@XZ   100b8b50 f i GradientRect.obj
 0002:00066bb0       ??1GradientRect@baro@@UAE@XZ 100b8bb0 f   GradientRect.obj
 0002:00066c80       ??1LinearGradientBrush@Gdiplus@@UAE@XZ 100b8c80 f i GradientRect.obj
 0002:00066cd0       ??1SolidBrush@Gdiplus@@UAE@XZ 100b8cd0 f i GradientRect.obj
 0002:00066d20       ??8?$_Tree_const_iterator@V?$_Tree_val@U?$_Tree_simple_types@U?$pair@$$CBHVColor@Gdiplus@@@std@@@std@@@std@@@std@@QBE_NABV01@@Z 100b8d20 f i GradientRect.obj
 0002:00066e80       ??9?$_Tree_const_iterator@V?$_Tree_val@U?$_Tree_simple_types@U?$pair@$$CBHVColor@Gdiplus@@@std@@@std@@@std@@@std@@QBE_NABV01@@Z 100b8e80 f i GradientRect.obj
 0002:00066f10       ??C?$_Tree_iterator@V?$_Tree_val@U?$_Tree_simple_types@U?$pair@$$CBHVColor@Gdiplus@@@std@@@std@@@std@@@std@@QBEPAU?$pair@$$CBHVColor@Gdiplus@@@1@XZ 100b8f10 f i GradientRect.obj
 0002:00066f70       ??D?$_Tree_const_iterator@V?$_Tree_val@U?$_Tree_simple_types@U?$pair@$$CBHVColor@Gdiplus@@@std@@@std@@@std@@@std@@QBEABU?$pair@$$CBHVColor@Gdiplus@@@1@XZ 100b8f70 f i GradientRect.obj
 0002:000670b0       ??D?$_Tree_iterator@V?$_Tree_val@U?$_Tree_simple_types@U?$pair@$$CBHVColor@Gdiplus@@@std@@@std@@@std@@@std@@QBEAAU?$pair@$$CBHVColor@Gdiplus@@@1@XZ 100b90b0 f i GradientRect.obj
 0002:00067100       ??E?$_Tree_const_iterator@V?$_Tree_val@U?$_Tree_simple_types@U?$pair@$$CBHVColor@Gdiplus@@@std@@@std@@@std@@@std@@QAE?AV01@H@Z 100b9100 f i GradientRect.obj
 0002:00067240       ??E?$_Tree_const_iterator@V?$_Tree_val@U?$_Tree_simple_types@U?$pair@$$CBHVColor@Gdiplus@@@std@@@std@@@std@@@std@@QAEAAV01@XZ 100b9240 f i GradientRect.obj
 0002:00067380       ??E?$_Tree_iterator@V?$_Tree_val@U?$_Tree_simple_types@U?$pair@$$CBHVColor@Gdiplus@@@std@@@std@@@std@@@std@@QAEAAV01@XZ 100b9380 f i GradientRect.obj
 0002:000673e0       ??E?$_Tree_unchecked_const_iterator@V?$_Tree_val@U?$_Tree_simple_types@U?$pair@$$CBHVColor@Gdiplus@@@std@@@std@@@std@@U_Iterator_base12@2@@std@@QAEAAV01@XZ 100b93e0 f i GradientRect.obj
 0002:00067510       ??F?$_Tree_const_iterator@V?$_Tree_val@U?$_Tree_simple_types@U?$pair@$$CBHVColor@Gdiplus@@@std@@@std@@@std@@@std@@QAEAAV01@XZ 100b9510 f i GradientRect.obj
 0002:000676f0       ??F?$_Tree_iterator@V?$_Tree_val@U?$_Tree_simple_types@U?$pair@$$CBHVColor@Gdiplus@@@std@@@std@@@std@@@std@@QAEAAV01@XZ 100b96f0 f i GradientRect.obj
 0002:00067750       ??F?$_Tree_unchecked_const_iterator@V?$_Tree_val@U?$_Tree_simple_types@U?$pair@$$CBHVColor@Gdiplus@@@std@@@std@@@std@@U_Iterator_base12@2@@std@@QAEAAV01@XZ 100b9750 f i GradientRect.obj
 0002:000678b0       ??R?$less@H@std@@QBE_NABH0@Z 100b98b0 f i GradientRect.obj
 0002:00067920       ??_EGradientRect@baro@@UAEPAXI@Z 100b9920 f i GradientRect.obj
 0002:000679e0       ??_GBrush@Gdiplus@@UAEPAXI@Z 100b99e0 f i GradientRect.obj
 0002:000679e0       ??_EBrush@Gdiplus@@UAEPAXI@Z 100b99e0 f i GradientRect.obj
 0002:00067a50       ??_GLinearGradientBrush@Gdiplus@@UAEPAXI@Z 100b9a50 f i GradientRect.obj
 0002:00067a50       ??_ELinearGradientBrush@Gdiplus@@UAEPAXI@Z 100b9a50 f i GradientRect.obj
 0002:00067ac0       ??_ESolidBrush@Gdiplus@@UAEPAXI@Z 100b9ac0 f i GradientRect.obj
 0002:00067ac0       ??_GSolidBrush@Gdiplus@@UAEPAXI@Z 100b9ac0 f i GradientRect.obj
 0002:00067b30       ?Add@GradientRect@baro@@QAE_NHVColor@Gdiplus@@@Z 100b9b30 f   GradientRect.obj
 0002:00067c20       ?Clone@Brush@Gdiplus@@UBEPAV12@XZ 100b9c20 f i GradientRect.obj
 0002:00067db0       ?Draw@GradientRect@baro@@QAEXAAVGraphics@Gdiplus@@@Z 100b9db0 f   GradientRect.obj
 0002:00068690       ?Draw@GradientRect@baro@@QAEXAAVGraphics@Gdiplus@@VRect@4@@Z 100ba690 f   GradientRect.obj
 0002:00068710       ?FillRectangle@Graphics@Gdiplus@@QAE?AW4Status@2@PBVBrush@2@ABVRect@2@@Z 100ba710 f i GradientRect.obj
 0002:00068790       ?FillRectangle@Graphics@Gdiplus@@QAE?AW4Status@2@PBVBrush@2@HHHH@Z 100ba790 f i GradientRect.obj
 0002:00068810       ?Remove@GradientRect@baro@@QAE_NH@Z 100ba810 f   GradientRect.obj
 0002:00068ab0       ?Reset@GradientRect@baro@@QAEXVRect@Gdiplus@@VColor@4@@Z 100baab0 f   GradientRect.obj
 0002:00068b40       ?SetNativeBrush@Brush@Gdiplus@@IAEXPAVGpBrush@2@@Z 100bab40 f i GradientRect.obj
 0002:00068b90       ?SetStatus@Brush@Gdiplus@@IBE?AW4Status@2@W432@@Z 100bab90 f i GradientRect.obj
 0002:00068bf0       ?Update@GradientRect@baro@@QAE_NHVColor@Gdiplus@@@Z 100babf0 f   GradientRect.obj
 0002:00068db0       ?_Alloc_proxy@?$_Tree_alloc@$0A@U?$_Tree_base_types@U?$pair@$$CBHVColor@Gdiplus@@@std@@V?$allocator@U?$pair@$$CBHVColor@Gdiplus@@@std@@@2@@std@@@std@@QAEXXZ 100badb0 f i GradientRect.obj
 0002:00068eb0       ?_Buyheadnode@?$_Tree_alloc@$0A@U?$_Tree_base_types@U?$pair@$$CBHVColor@Gdiplus@@@std@@V?$allocator@U?$pair@$$CBHVColor@Gdiplus@@@std@@@2@@std@@@std@@QAEPAU?$_Tree_node@U?$pair@$$CBHVColor@Gdiplus@@@std@@PAX@2@XZ 100baeb0 f i GradientRect.obj
 0002:00069120       ?_Buynode0@?$_Tree_buy@U?$pair@$$CBHVColor@Gdiplus@@@std@@V?$allocator@U?$pair@$$CBHVColor@Gdiplus@@@std@@@2@@std@@QAEPAU?$_Tree_node@U?$pair@$$CBHVColor@Gdiplus@@@std@@PAX@2@XZ 100bb120 f i GradientRect.obj
 0002:00069330       ?_Color@?$_Tree_val@U?$_Tree_simple_types@U?$pair@$$CBHVColor@Gdiplus@@@std@@@std@@@std@@SAAADPAU?$_Tree_node@U?$pair@$$CBHVColor@Gdiplus@@@std@@PAX@2@@Z 100bb330 f i GradientRect.obj
 0002:00069370       ?_Destroy_if_not_nil@?$_Tree@V?$_Tmap_traits@HVColor@Gdiplus@@U?$less@H@std@@V?$allocator@U?$pair@$$CBHVColor@Gdiplus@@@std@@@4@$0A@@std@@@std@@IAEXPAU?$_Tree_node@U?$pair@$$CBHVColor@Gdiplus@@@std@@PAX@2@@Z 100bb370 f i GradientRect.obj
 0002:00069420       ?_Erase@?$_Tree@V?$_Tmap_traits@HVColor@Gdiplus@@U?$less@H@std@@V?$allocator@U?$pair@$$CBHVColor@Gdiplus@@@std@@@4@$0A@@std@@@std@@IAEXPAU?$_Tree_node@U?$pair@$$CBHVColor@Gdiplus@@@std@@PAX@2@@Z 100bb420 f i GradientRect.obj
 0002:00069530       ?_Free_proxy@?$_Tree_alloc@$0A@U?$_Tree_base_types@U?$pair@$$CBHVColor@Gdiplus@@@std@@V?$allocator@U?$pair@$$CBHVColor@Gdiplus@@@std@@@2@@std@@@std@@QAEXXZ 100bb530 f i GradientRect.obj
 0002:00069630       ?_Freeheadnode@?$_Tree_alloc@$0A@U?$_Tree_base_types@U?$pair@$$CBHVColor@Gdiplus@@@std@@V?$allocator@U?$pair@$$CBHVColor@Gdiplus@@@std@@@2@@std@@@std@@QAEXPAU?$_Tree_node@U?$pair@$$CBHVColor@Gdiplus@@@std@@PAX@2@@Z 100bb630 f i GradientRect.obj
 0002:00069740       ?_Freenode0@?$_Tree_buy@U?$pair@$$CBHVColor@Gdiplus@@@std@@V?$allocator@U?$pair@$$CBHVColor@Gdiplus@@@std@@@2@@std@@QAEXPAU?$_Tree_node@U?$pair@$$CBHVColor@Gdiplus@@@std@@PAX@2@@Z 100bb740 f i GradientRect.obj
 0002:00069850       ?_Getal@?$_Tree_alloc@$0A@U?$_Tree_base_types@U?$pair@$$CBHVColor@Gdiplus@@@std@@V?$allocator@U?$pair@$$CBHVColor@Gdiplus@@@std@@@2@@std@@@std@@QBE?AU?$_Wrap_alloc@V?$allocator@U?$_Tree_node@U?$pair@$$CBHVColor@Gdiplus@@@std@@PAX@std@@@std@@@2@XZ 100bb850 f i GradientRect.obj
 0002:000698b0       ?_Getcomp@?$_Tree_comp@$0A@V?$_Tmap_traits@HVColor@Gdiplus@@U?$less@H@std@@V?$allocator@U?$pair@$$CBHVColor@Gdiplus@@@std@@@4@$0A@@std@@@std@@QBE?AU?$less@H@2@XZ 100bb8b0 f i GradientRect.obj
 0002:000698f0       ?_Isnil@?$_Tree_val@U?$_Tree_simple_types@U?$pair@$$CBHVColor@Gdiplus@@@std@@@std@@@std@@SAAADPAU?$_Tree_node@U?$pair@$$CBHVColor@Gdiplus@@@std@@PAX@2@@Z 100bb8f0 f i GradientRect.obj
 0002:00069930       ?_Key@?$_Tree@V?$_Tmap_traits@HVColor@Gdiplus@@U?$less@H@std@@V?$allocator@U?$pair@$$CBHVColor@Gdiplus@@@std@@@4@$0A@@std@@@std@@IBEABHPAU?$_Tree_node@U?$pair@$$CBHVColor@Gdiplus@@@std@@PAX@2@@Z 100bb930 f i GradientRect.obj
 0002:000699a0       ?_Kfn@?$_Tree@V?$_Tmap_traits@HVColor@Gdiplus@@U?$less@H@std@@V?$allocator@U?$pair@$$CBHVColor@Gdiplus@@@std@@@4@$0A@@std@@@std@@IBEABHABU?$pair@$$CBHVColor@Gdiplus@@@2@@Z 100bb9a0 f i GradientRect.obj
 0002:00069a00       ?_Lbound@?$_Tree@V?$_Tmap_traits@HVColor@Gdiplus@@U?$less@H@std@@V?$allocator@U?$pair@$$CBHVColor@Gdiplus@@@std@@@4@$0A@@std@@@std@@IAEPAU?$_Tree_node@U?$pair@$$CBHVColor@Gdiplus@@@std@@PAX@2@ABH@Z 100bba00 f i GradientRect.obj
 0002:00069b10       ?_Left@?$_Tree_val@U?$_Tree_simple_types@U?$pair@$$CBHVColor@Gdiplus@@@std@@@std@@@std@@SAAAPAU?$_Tree_node@U?$pair@$$CBHVColor@Gdiplus@@@std@@PAX@2@PAU32@@Z 100bbb10 f i GradientRect.obj
 0002:00069b50       ?_Lmost@?$_Tree@V?$_Tmap_traits@HVColor@Gdiplus@@U?$less@H@std@@V?$allocator@U?$pair@$$CBHVColor@Gdiplus@@@std@@@4@$0A@@std@@@std@@IBEAAPAU?$_Tree_node@U?$pair@$$CBHVColor@Gdiplus@@@std@@PAX@2@XZ 100bbb50 f i GradientRect.obj
 0002:00069bb0       ?_Lrotate@?$_Tree@V?$_Tmap_traits@HVColor@Gdiplus@@U?$less@H@std@@V?$allocator@U?$pair@$$CBHVColor@Gdiplus@@@std@@@4@$0A@@std@@@std@@IAEXPAU?$_Tree_node@U?$pair@$$CBHVColor@Gdiplus@@@std@@PAX@2@@Z 100bbbb0 f i GradientRect.obj
 0002:00069d60       ?_Max@?$_Tree_val@U?$_Tree_simple_types@U?$pair@$$CBHVColor@Gdiplus@@@std@@@std@@@std@@SAPAU?$_Tree_node@U?$pair@$$CBHVColor@Gdiplus@@@std@@PAX@2@PAU32@@Z 100bbd60 f i GradientRect.obj
 0002:00069de0       ?_Min@?$_Tree_val@U?$_Tree_simple_types@U?$pair@$$CBHVColor@Gdiplus@@@std@@@std@@@std@@SAPAU?$_Tree_node@U?$pair@$$CBHVColor@Gdiplus@@@std@@PAX@2@PAU32@@Z 100bbde0 f i GradientRect.obj
 0002:00069e60       ?_Mynode@?$_Tree_unchecked_const_iterator@V?$_Tree_val@U?$_Tree_simple_types@U?$pair@$$CBHVColor@Gdiplus@@@std@@@std@@@std@@U_Iterator_base12@2@@std@@QBEPAU?$_Tree_node@U?$pair@$$CBHVColor@Gdiplus@@@std@@PAX@2@XZ 100bbe60 f i GradientRect.obj
 0002:00069ea0       ?_Myval@?$_Tree_val@U?$_Tree_simple_types@U?$pair@$$CBHVColor@Gdiplus@@@std@@@std@@@std@@SAAAU?$pair@$$CBHVColor@Gdiplus@@@2@PAU?$_Tree_node@U?$pair@$$CBHVColor@Gdiplus@@@std@@PAX@2@@Z 100bbea0 f i GradientRect.obj
 0002:00069ee0       ?_Orphan_ptr@?$_Tree@V?$_Tmap_traits@HVColor@Gdiplus@@U?$less@H@std@@V?$allocator@U?$pair@$$CBHVColor@Gdiplus@@@std@@@4@$0A@@std@@@std@@IBEXAAV12@PAU?$_Tree_node@U?$pair@$$CBHVColor@Gdiplus@@@std@@PAX@2@@Z 100bbee0 f i GradientRect.obj
 0002:0006a080       ?_Parent@?$_Tree_val@U?$_Tree_simple_types@U?$pair@$$CBHVColor@Gdiplus@@@std@@@std@@@std@@SAAAPAU?$_Tree_node@U?$pair@$$CBHVColor@Gdiplus@@@std@@PAX@2@PAU32@@Z 100bc080 f i GradientRect.obj
 0002:0006a0c0       ?_Right@?$_Tree_val@U?$_Tree_simple_types@U?$pair@$$CBHVColor@Gdiplus@@@std@@@std@@@std@@SAAAPAU?$_Tree_node@U?$pair@$$CBHVColor@Gdiplus@@@std@@PAX@2@PAU32@@Z 100bc0c0 f i GradientRect.obj
 0002:0006a100       ?_Rmost@?$_Tree@V?$_Tmap_traits@HVColor@Gdiplus@@U?$less@H@std@@V?$allocator@U?$pair@$$CBHVColor@Gdiplus@@@std@@@4@$0A@@std@@@std@@IBEAAPAU?$_Tree_node@U?$pair@$$CBHVColor@Gdiplus@@@std@@PAX@2@XZ 100bc100 f i GradientRect.obj
 0002:0006a160       ?_Root@?$_Tree@V?$_Tmap_traits@HVColor@Gdiplus@@U?$less@H@std@@V?$allocator@U?$pair@$$CBHVColor@Gdiplus@@@std@@@4@$0A@@std@@@std@@IBEAAPAU?$_Tree_node@U?$pair@$$CBHVColor@Gdiplus@@@std@@PAX@2@XZ 100bc160 f i GradientRect.obj
 0002:0006a1c0       ?_Rrotate@?$_Tree@V?$_Tmap_traits@HVColor@Gdiplus@@U?$less@H@std@@V?$allocator@U?$pair@$$CBHVColor@Gdiplus@@@std@@@4@$0A@@std@@@std@@IAEXPAU?$_Tree_node@U?$pair@$$CBHVColor@Gdiplus@@@std@@PAX@2@@Z 100bc1c0 f i GradientRect.obj
 0002:0006a370       ?_Tidy@?$_Tree@V?$_Tmap_traits@HVColor@Gdiplus@@U?$less@H@std@@V?$allocator@U?$pair@$$CBHVColor@Gdiplus@@@std@@@4@$0A@@std@@@std@@IAEXXZ 100bc370 f i GradientRect.obj
 0002:0006a500       ?__autoclassinit2@?$_Tree_const_iterator@V?$_Tree_val@U?$_Tree_simple_types@U?$pair@$$CBHVColor@Gdiplus@@@std@@@std@@@std@@@std@@QAEXI@Z 100bc500 f i GradientRect.obj
 0002:0006a560       ?__autoclassinit2@?$_Tree_iterator@V?$_Tree_val@U?$_Tree_simple_types@U?$pair@$$CBHVColor@Gdiplus@@@std@@@std@@@std@@@std@@QAEXI@Z 100bc560 f i GradientRect.obj
 0002:0006a5c0       ?__autoclassinit2@Brush@Gdiplus@@QAEXI@Z 100bc5c0 f i GradientRect.obj
 0002:0006a620       ?__autoclassinit2@LinearGradientBrush@Gdiplus@@QAEXI@Z 100bc620 f i GradientRect.obj
 0002:0006a680       ?__autoclassinit2@SolidBrush@Gdiplus@@QAEXI@Z 100bc680 f i GradientRect.obj
 0002:0006a6e0       ?allocate@?$_Wrap_alloc@V?$allocator@U?$_Tree_node@U?$pair@$$CBHVColor@Gdiplus@@@std@@PAX@std@@@std@@@std@@QAEPAU?$_Tree_node@U?$pair@$$CBHVColor@Gdiplus@@@std@@PAX@2@I@Z 100bc6e0 f i GradientRect.obj
 0002:0006a740       ?allocate@?$allocator@U?$_Tree_node@U?$pair@$$CBHVColor@Gdiplus@@@std@@PAX@std@@@std@@QAEPAU?$_Tree_node@U?$pair@$$CBHVColor@Gdiplus@@@std@@PAX@2@I@Z 100bc740 f i GradientRect.obj
 0002:0006a7a0       ?begin@?$_Tree@V?$_Tmap_traits@HVColor@Gdiplus@@U?$less@H@std@@V?$allocator@U?$pair@$$CBHVColor@Gdiplus@@@std@@@4@$0A@@std@@@std@@QAE?AV?$_Tree_iterator@V?$_Tree_val@U?$_Tree_simple_types@U?$pair@$$CBHVColor@Gdiplus@@@std@@@std@@@std@@@2@XZ 100bc7a0 f i GradientRect.obj
 0002:0006a810       ?clear@?$_Tree@V?$_Tmap_traits@HVColor@Gdiplus@@U?$less@H@std@@V?$allocator@U?$pair@$$CBHVColor@Gdiplus@@@std@@@4@$0A@@std@@@std@@QAEXXZ 100bc810 f i GradientRect.obj
 0002:0006a8d0       ?deallocate@?$_Wrap_alloc@V?$allocator@U?$_Tree_node@U?$pair@$$CBHVColor@Gdiplus@@@std@@PAX@std@@@std@@@std@@QAEXPAU?$_Tree_node@U?$pair@$$CBHVColor@Gdiplus@@@std@@PAX@2@I@Z 100bc8d0 f i GradientRect.obj
 0002:0006a930       ?deallocate@?$allocator@U?$_Tree_node@U?$pair@$$CBHVColor@Gdiplus@@@std@@PAX@std@@@std@@QAEXPAU?$_Tree_node@U?$pair@$$CBHVColor@Gdiplus@@@std@@PAX@2@I@Z 100bc930 f i GradientRect.obj
 0002:0006a990       ?end@?$_Tree@V?$_Tmap_traits@HVColor@Gdiplus@@U?$less@H@std@@V?$allocator@U?$pair@$$CBHVColor@Gdiplus@@@std@@@4@$0A@@std@@@std@@QAE?AV?$_Tree_iterator@V?$_Tree_val@U?$_Tree_simple_types@U?$pair@$$CBHVColor@Gdiplus@@@std@@@std@@@std@@@2@XZ 100bc990 f i GradientRect.obj
 0002:0006aa00       ?erase@?$_Tree@V?$_Tmap_traits@HVColor@Gdiplus@@U?$less@H@std@@V?$allocator@U?$pair@$$CBHVColor@Gdiplus@@@std@@@4@$0A@@std@@@std@@QAE?AV?$_Tree_iterator@V?$_Tree_val@U?$_Tree_simple_types@U?$pair@$$CBHVColor@Gdiplus@@@std@@@std@@@std@@@2@V?$_Tree_const_iterator@V?$_Tree_val@U?$_Tree_simple_types@U?$pair@$$CBHVColor@Gdiplus@@@std@@@std@@@std@@@2@0@Z 100bca00 f i GradientRect.obj
 0002:0006ad20       ?erase@?$_Tree@V?$_Tmap_traits@HVColor@Gdiplus@@U?$less@H@std@@V?$allocator@U?$pair@$$CBHVColor@Gdiplus@@@std@@@4@$0A@@std@@@std@@QAE?AV?$_Tree_iterator@V?$_Tree_val@U?$_Tree_simple_types@U?$pair@$$CBHVColor@Gdiplus@@@std@@@std@@@std@@@2@V?$_Tree_const_iterator@V?$_Tree_val@U?$_Tree_simple_types@U?$pair@$$CBHVColor@Gdiplus@@@std@@@std@@@std@@@2@@Z 100bcd20 f i GradientRect.obj
 0002:0006b7a0       ?find@?$_Tree@V?$_Tmap_traits@HVColor@Gdiplus@@U?$less@H@std@@V?$allocator@U?$pair@$$CBHVColor@Gdiplus@@@std@@@4@$0A@@std@@@std@@QAE?AV?$_Tree_iterator@V?$_Tree_val@U?$_Tree_simple_types@U?$pair@$$CBHVColor@Gdiplus@@@std@@@std@@@std@@@2@ABH@Z 100bd7a0 f i GradientRect.obj
 0002:0006bad0       ?lower_bound@?$_Tree@V?$_Tmap_traits@HVColor@Gdiplus@@U?$less@H@std@@V?$allocator@U?$pair@$$CBHVColor@Gdiplus@@@std@@@4@$0A@@std@@@std@@QAE?AV?$_Tree_iterator@V?$_Tree_val@U?$_Tree_simple_types@U?$pair@$$CBHVColor@Gdiplus@@@std@@@std@@@std@@@2@ABH@Z 100bdad0 f i GradientRect.obj
 0002:0006bb60       ?max_size@?$_Tree@V?$_Tmap_traits@HVColor@Gdiplus@@U?$less@H@std@@V?$allocator@U?$pair@$$CBHVColor@Gdiplus@@@std@@@4@$0A@@std@@@std@@QBEIXZ 100bdb60 f i GradientRect.obj
 0002:0006bbc0       ?max_size@?$_Wrap_alloc@V?$allocator@U?$_Tree_node@U?$pair@$$CBHVColor@Gdiplus@@@std@@PAX@std@@@std@@@std@@QBEIXZ 100bdbc0 f i GradientRect.obj
 0002:0006bc20       ?max_size@?$allocator@U?$_Tree_node@U?$pair@$$CBHVColor@Gdiplus@@@std@@PAX@std@@@std@@QBEIXZ 100bdc20 f i GradientRect.obj
 0002:0006bc60       ?max_size@?$allocator_traits@V?$allocator@U?$_Tree_node@U?$pair@$$CBHVColor@Gdiplus@@@std@@PAX@std@@@std@@@std@@SAIABV?$allocator@U?$_Tree_node@U?$pair@$$CBHVColor@Gdiplus@@@std@@PAX@std@@@2@@Z 100bdc60 f i GradientRect.obj
 0002:0006bcb0       ?pointer_to@?$pointer_traits@PAU?$pair@$$CBHVColor@Gdiplus@@@std@@@std@@SAPAU?$pair@$$CBHVColor@Gdiplus@@@2@AAU32@@Z 100bdcb0 f i GradientRect.obj
 0002:0006bd00       ?size@?$_Tree@V?$_Tmap_traits@HVColor@Gdiplus@@U?$less@H@std@@V?$allocator@U?$pair@$$CBHVColor@Gdiplus@@@std@@@4@$0A@@std@@@std@@QBEIXZ 100bdd00 f i GradientRect.obj
 0002:0006bd40       ??$?0AAU?$_Callable_obj@V<lambda_660079388d01d824f1d4f65d6714bd9d>@@$0A@@std@@@?$_Callable_obj@V<lambda_660079388d01d824f1d4f65d6714bd9d>@@$0A@@std@@QAE@AAU01@@Z 100bdd40 f i PointCoord.obj
 0002:0006bdb0       ??$?0AAU?$_Callable_obj@V<lambda_f15cf28b79eebeba7dee09e3ec20cd6a>@@$0A@@std@@@?$_Callable_obj@V<lambda_f15cf28b79eebeba7dee09e3ec20cd6a>@@$0A@@std@@QAE@AAU01@@Z 100bddb0 f i PointCoord.obj
 0002:0006be20       ??$?0I@?$allocator@_N@std@@QAE@ABV?$allocator@I@1@@Z 100bde20 f i PointCoord.obj
 0002:0006be60       ??$?0U?$_Callable_obj@V<lambda_660079388d01d824f1d4f65d6714bd9d>@@$0A@@std@@@?$_Callable_obj@V<lambda_660079388d01d824f1d4f65d6714bd9d>@@$0A@@std@@QAE@$$QAU01@@Z 100bde60 f i PointCoord.obj
 0002:0006bed0       ??$?0U?$_Callable_obj@V<lambda_f15cf28b79eebeba7dee09e3ec20cd6a>@@$0A@@std@@@?$_Callable_obj@V<lambda_f15cf28b79eebeba7dee09e3ec20cd6a>@@$0A@@std@@QAE@$$QAU01@@Z 100bded0 f i PointCoord.obj
 0002:0006bf40       ??$?0V<lambda_660079388d01d824f1d4f65d6714bd9d>@@@?$_Callable_obj@V<lambda_660079388d01d824f1d4f65d6714bd9d>@@$0A@@std@@QAE@$$QAV<lambda_660079388d01d824f1d4f65d6714bd9d>@@@Z 100bdf40 f i PointCoord.obj
 0002:0006bfb0       ??$?0V<lambda_660079388d01d824f1d4f65d6714bd9d>@@@?$function@$$A6AMI@Z@std@@QAE@$$QAV<lambda_660079388d01d824f1d4f65d6714bd9d>@@@Z 100bdfb0 f i PointCoord.obj
 0002:0006c070       ??$?0V<lambda_f15cf28b79eebeba7dee09e3ec20cd6a>@@@?$_Callable_obj@V<lambda_f15cf28b79eebeba7dee09e3ec20cd6a>@@$0A@@std@@QAE@$$QAV<lambda_f15cf28b79eebeba7dee09e3ec20cd6a>@@@Z 100be070 f i PointCoord.obj
 0002:0006c0e0       ??$?0V<lambda_f15cf28b79eebeba7dee09e3ec20cd6a>@@@?$function@$$A6AMI@Z@std@@QAE@$$QAV<lambda_f15cf28b79eebeba7dee09e3ec20cd6a>@@@Z 100be0e0 f i PointCoord.obj
 0002:0006c1a0       ??$?0V?$_Func_class@MI@std@@@?$allocator@V?$_Func_impl@U?$_Callable_obj@V<lambda_660079388d01d824f1d4f65d6714bd9d>@@$0A@@std@@V?$allocator@V?$_Func_class@MI@std@@@2@MI@std@@@std@@QAE@ABV?$allocator@V?$_Func_class@MI@std@@@1@@Z 100be1a0 f i PointCoord.obj
 0002:0006c1e0       ??$?0V?$_Func_class@MI@std@@@?$allocator@V?$_Func_impl@U?$_Callable_obj@V<lambda_f15cf28b79eebeba7dee09e3ec20cd6a>@@$0A@@std@@V?$allocator@V?$_Func_class@MI@std@@@2@MI@std@@@std@@QAE@ABV?$allocator@V?$_Func_class@MI@std@@@1@@Z 100be1e0 f i PointCoord.obj
 0002:0006c220       ??$?0V?$allocator@_N@std@@@?$_Wrap_alloc@V?$allocator@U_Container_proxy@std@@@std@@@std@@QAE@ABV?$allocator@_N@1@@Z 100be220 f i PointCoord.obj
 0002:0006c280       ??$?0_N@?$allocator@U_Container_proxy@std@@@std@@QAE@ABV?$allocator@_N@1@@Z 100be280 f i PointCoord.obj
 0002:0006c2c0       ??$_Allocate@I@std@@YAPAIIPAI@Z 100be2c0 f i PointCoord.obj
 0002:0006c360       ??$_Allocate@V?$_Func_impl@U?$_Callable_obj@V<lambda_660079388d01d824f1d4f65d6714bd9d>@@$0A@@std@@V?$allocator@V?$_Func_class@MI@std@@@2@MI@std@@@std@@YAPAV?$_Func_impl@U?$_Callable_obj@V<lambda_660079388d01d824f1d4f65d6714bd9d>@@$0A@@std@@V?$allocator@V?$_Func_class@MI@std@@@2@MI@0@IPAV10@@Z 100be360 f i PointCoord.obj
 0002:0006c3f0       ??$_Allocate@V?$_Func_impl@U?$_Callable_obj@V<lambda_f15cf28b79eebeba7dee09e3ec20cd6a>@@$0A@@std@@V?$allocator@V?$_Func_class@MI@std@@@2@MI@std@@@std@@YAPAV?$_Func_impl@U?$_Callable_obj@V<lambda_f15cf28b79eebeba7dee09e3ec20cd6a>@@$0A@@std@@V?$allocator@V?$_Func_class@MI@std@@@2@MI@0@IPAV10@@Z 100be3f0 f i PointCoord.obj
 0002:0006c480       ??$_Allocate@VPoint@Gdiplus@@@std@@YAPAVPoint@Gdiplus@@IPAV12@@Z 100be480 f i PointCoord.obj
 0002:0006c520       ??$_Allocate@VPointF@Gdiplus@@@std@@YAPAVPointF@Gdiplus@@IPAV12@@Z 100be520 f i PointCoord.obj
 0002:0006c5c0       ??$_ApplyX@MI@?$_Callable_obj@V<lambda_660079388d01d824f1d4f65d6714bd9d>@@$0A@@std@@QAEM$$QAI@Z 100be5c0 f i PointCoord.obj
 0002:0006c630       ??$_ApplyX@MI@?$_Callable_obj@V<lambda_f15cf28b79eebeba7dee09e3ec20cd6a>@@$0A@@std@@QAEM$$QAI@Z 100be630 f i PointCoord.obj
 0002:0006c6a0       ??$_Copy_backward@V?$_Vb_iterator@U?$_Wrap_alloc@V?$allocator@I@std@@@std@@@std@@V12@@std@@YA?AV?$_Vb_iterator@U?$_Wrap_alloc@V?$allocator@I@std@@@std@@@0@V10@00@Z 100be6a0 f i PointCoord.obj
 0002:0006c840       ??$_Copy_backward@V?$_Vb_iterator@U?$_Wrap_alloc@V?$allocator@I@std@@@std@@@std@@V12@@std@@YA?AV?$_Vb_iterator@U?$_Wrap_alloc@V?$allocator@I@std@@@std@@@0@V10@00U?$integral_constant@_N$00@0@@Z 100be840 f i PointCoord.obj
 0002:0006ca10       ??$_Copy_backward@V?$_Vb_iterator@U?$_Wrap_alloc@V?$allocator@I@std@@@std@@@std@@V12@@std@@YA?AV?$_Vb_iterator@U?$_Wrap_alloc@V?$allocator@I@std@@@std@@@0@V10@00U_Nonscalar_ptr_iterator_tag@0@@Z 100bea10 f i PointCoord.obj
 0002:0006cba0       ??$_Copy_impl@V?$_Vb_iterator@U?$_Wrap_alloc@V?$allocator@I@std@@@std@@@std@@V12@@std@@YA?AV?$_Vb_iterator@U?$_Wrap_alloc@V?$allocator@I@std@@@std@@@0@V10@00@Z 100beba0 f i PointCoord.obj
 0002:0006cd40       ??$_Copy_impl@V?$_Vb_iterator@U?$_Wrap_alloc@V?$allocator@I@std@@@std@@@std@@V12@@std@@YA?AV?$_Vb_iterator@U?$_Wrap_alloc@V?$allocator@I@std@@@std@@@0@V10@00U?$integral_constant@_N$00@0@@Z 100bed40 f i PointCoord.obj
 0002:0006cf00       ??$_Copy_impl@V?$_Vb_iterator@U?$_Wrap_alloc@V?$allocator@I@std@@@std@@@std@@V12@@std@@YA?AV?$_Vb_iterator@U?$_Wrap_alloc@V?$allocator@I@std@@@std@@@0@V10@00U_Nonscalar_ptr_iterator_tag@0@@Z 100bef00 f i PointCoord.obj
 0002:0006d0a0       ??$_Copy_impl@V?$_Vb_iterator@U?$_Wrap_alloc@V?$allocator@I@std@@@std@@@std@@V12@@std@@YA?AV?$_Vb_iterator@U?$_Wrap_alloc@V?$allocator@I@std@@@std@@@0@V10@00Urandom_access_iterator_tag@0@1@Z 100bf0a0 f i PointCoord.obj
 0002:0006d2e0       ??$_Debug_pointer@I@std@@YAXPAIPB_WI@Z 100bf2e0 f i PointCoord.obj
 0002:0006d350       ??$_Debug_pointer@V?$_Vb_iterator@U?$_Wrap_alloc@V?$allocator@I@std@@@std@@@std@@@std@@YAXAAV?$_Vb_iterator@U?$_Wrap_alloc@V?$allocator@I@std@@@std@@@0@PB_WI@Z 100bf350 f i PointCoord.obj
 0002:0006d380       ??$_Debug_pointer@VPoint@Gdiplus@@@std@@YAXPAVPoint@Gdiplus@@PB_WI@Z 100bf380 f i PointCoord.obj
 0002:0006d3f0       ??$_Debug_pointer@VPointF@Gdiplus@@@std@@YAXPAVPointF@Gdiplus@@PB_WI@Z 100bf3f0 f i PointCoord.obj
 0002:0006d460       ??$_Debug_pointer@VPointF@Gdiplus@@@std@@YAXPBVPointF@Gdiplus@@PB_WI@Z 100bf460 f i PointCoord.obj
 0002:0006d4d0       ??$_Debug_range2@PAI@std@@YAXPAI0PB_WIUrandom_access_iterator_tag@0@@Z 100bf4d0 f i PointCoord.obj
 0002:0006d580       ??$_Debug_range2@PAVPoint@Gdiplus@@@std@@YAXPAVPoint@Gdiplus@@0PB_WIUrandom_access_iterator_tag@0@@Z 100bf580 f i PointCoord.obj
 0002:0006d630       ??$_Debug_range2@PAVPointF@Gdiplus@@@std@@YAXPAVPointF@Gdiplus@@0PB_WIUrandom_access_iterator_tag@0@@Z 100bf630 f i PointCoord.obj
 0002:0006d6e0       ??$_Debug_range2@PBVPointF@Gdiplus@@@std@@YAXPBVPointF@Gdiplus@@0PB_WIUrandom_access_iterator_tag@0@@Z 100bf6e0 f i PointCoord.obj
 0002:0006d790       ??$_Debug_range2@V?$_Vb_iterator@U?$_Wrap_alloc@V?$allocator@I@std@@@std@@@std@@@std@@YAXV?$_Vb_iterator@U?$_Wrap_alloc@V?$allocator@I@std@@@std@@@0@0PB_WIUrandom_access_iterator_tag@0@@Z 100bf790 f i PointCoord.obj
 0002:0006d8c0       ??$_Debug_range@PAI@std@@YAXPAI0PB_WI@Z 100bf8c0 f i PointCoord.obj
 0002:0006d940       ??$_Debug_range@PAVPoint@Gdiplus@@@std@@YAXPAVPoint@Gdiplus@@0PB_WI@Z 100bf940 f i PointCoord.obj
 0002:0006d9c0       ??$_Debug_range@PAVPointF@Gdiplus@@@std@@YAXPAVPointF@Gdiplus@@0PB_WI@Z 100bf9c0 f i PointCoord.obj
 0002:0006da40       ??$_Debug_range@PBVPointF@Gdiplus@@@std@@YAXPBVPointF@Gdiplus@@0PB_WI@Z 100bfa40 f i PointCoord.obj
 0002:0006dac0       ??$_Debug_range@V?$_Vb_iterator@U?$_Wrap_alloc@V?$allocator@I@std@@@std@@@std@@@std@@YAXV?$_Vb_iterator@U?$_Wrap_alloc@V?$allocator@I@std@@@std@@@0@0PB_WI@Z 100bfac0 f i PointCoord.obj
 0002:0006dbf0       ??$_Destroy_range@U?$_Wrap_alloc@V?$allocator@I@std@@@std@@@std@@YAXPAI0AAU?$_Wrap_alloc@V?$allocator@I@std@@@0@@Z 100bfbf0 f i PointCoord.obj
 0002:0006dc70       ??$_Destroy_range@U?$_Wrap_alloc@V?$allocator@I@std@@@std@@@std@@YAXPAI0AAU?$_Wrap_alloc@V?$allocator@I@std@@@0@U_Scalar_ptr_iterator_tag@0@@Z 100bfc70 f i PointCoord.obj
 0002:0006dca0       ??$_Destroy_range@U?$_Wrap_alloc@V?$allocator@VPoint@Gdiplus@@@std@@@std@@@std@@YAXPAVPoint@Gdiplus@@0AAU?$_Wrap_alloc@V?$allocator@VPoint@Gdiplus@@@std@@@0@@Z 100bfca0 f i PointCoord.obj
 0002:0006dd20       ??$_Destroy_range@U?$_Wrap_alloc@V?$allocator@VPoint@Gdiplus@@@std@@@std@@@std@@YAXPAVPoint@Gdiplus@@0AAU?$_Wrap_alloc@V?$allocator@VPoint@Gdiplus@@@std@@@0@U_Nonscalar_ptr_iterator_tag@0@@Z 100bfd20 f i PointCoord.obj
 0002:0006dd90       ??$_Destroy_range@U?$_Wrap_alloc@V?$allocator@VPointF@Gdiplus@@@std@@@std@@@std@@YAXPAVPointF@Gdiplus@@0AAU?$_Wrap_alloc@V?$allocator@VPointF@Gdiplus@@@std@@@0@@Z 100bfd90 f i PointCoord.obj
 0002:0006de10       ??$_Destroy_range@U?$_Wrap_alloc@V?$allocator@VPointF@Gdiplus@@@std@@@std@@@std@@YAXPAVPointF@Gdiplus@@0AAU?$_Wrap_alloc@V?$allocator@VPointF@Gdiplus@@@std@@@0@U_Nonscalar_ptr_iterator_tag@0@@Z 100bfe10 f i PointCoord.obj
 0002:0006de80       ??$_Do_alloc@V?$_Func_impl@U?$_Callable_obj@V<lambda_660079388d01d824f1d4f65d6714bd9d>@@$0A@@std@@V?$allocator@V?$_Func_class@MI@std@@@2@MI@std@@V<lambda_660079388d01d824f1d4f65d6714bd9d>@@V?$allocator@V?$_Func_class@MI@std@@@2@@?$_Func_class@MI@std@@AAEX$$QAV<lambda_660079388d01d824f1d4f65d6714bd9d>@@V?$allocator@V?$_Func_class@MI@std@@@1@@Z 100bfe80 f i PointCoord.obj
 0002:0006e0f0       ??$_Do_alloc@V?$_Func_impl@U?$_Callable_obj@V<lambda_f15cf28b79eebeba7dee09e3ec20cd6a>@@$0A@@std@@V?$allocator@V?$_Func_class@MI@std@@@2@MI@std@@V<lambda_f15cf28b79eebeba7dee09e3ec20cd6a>@@V?$allocator@V?$_Func_class@MI@std@@@2@@?$_Func_class@MI@std@@AAEX$$QAV<lambda_f15cf28b79eebeba7dee09e3ec20cd6a>@@V?$allocator@V?$_Func_class@MI@std@@@1@@Z 100c00f0 f i PointCoord.obj
 0002:0006e360       ??$_Fill@V?$_Vb_iterator@U?$_Wrap_alloc@V?$allocator@I@std@@@std@@@std@@_N@std@@YAXV?$_Vb_iterator@U?$_Wrap_alloc@V?$allocator@I@std@@@std@@@0@0AB_N@Z 100c0360 f i PointCoord.obj
 0002:0006e470       ??$_Fill_n@PAIII@std@@YAPAIPAIIABI@Z 100c0470 f i PointCoord.obj
 0002:0006e4e0       ??$_Is_checked@V?$_Vb_iterator@U?$_Wrap_alloc@V?$allocator@I@std@@@std@@@std@@@std@@YA?AU?$integral_constant@_N$00@0@V?$_Vb_iterator@U?$_Wrap_alloc@V?$allocator@I@std@@@std@@@0@@Z 100c04e0 f i PointCoord.obj
 0002:0006e550       ??$_Iter_cat@PAI@std@@YA?AUrandom_access_iterator_tag@0@ABQAI@Z 100c0550 f i PointCoord.obj
 0002:0006e5d0       ??$_Iter_cat@PAVPoint@Gdiplus@@@std@@YA?AUrandom_access_iterator_tag@0@ABQAVPoint@Gdiplus@@@Z 100c05d0 f i PointCoord.obj
 0002:0006e650       ??$_Iter_cat@PAVPointF@Gdiplus@@@std@@YA?AUrandom_access_iterator_tag@0@ABQAVPointF@Gdiplus@@@Z 100c0650 f i PointCoord.obj
 0002:0006e6d0       ??$_Iter_cat@PBVPointF@Gdiplus@@@std@@YA?AUrandom_access_iterator_tag@0@ABQBVPointF@Gdiplus@@@Z 100c06d0 f i PointCoord.obj
 0002:0006e750       ??$_Iter_cat@V?$_Vb_iterator@U?$_Wrap_alloc@V?$allocator@I@std@@@std@@@std@@@std@@YA?AUrandom_access_iterator_tag@0@ABV?$_Vb_iterator@U?$_Wrap_alloc@V?$allocator@I@std@@@std@@@0@@Z 100c0750 f i PointCoord.obj
 0002:0006e7d0       ??$_Move@PAIPAI@std@@YAPAIPAI00@Z 100c07d0 f i PointCoord.obj
 0002:0006e850       ??$_Move@PAIPAI@std@@YAPAIPAI00U_Scalar_ptr_iterator_tag@0@@Z 100c0850 f i PointCoord.obj
 0002:0006e8e0       ??$_Ptr_cat@II@std@@YA?AU_Scalar_ptr_iterator_tag@0@PAI0@Z 100c08e0 f i PointCoord.obj
 0002:0006e950       ??$_Ptr_cat@V?$_Vb_iterator@U?$_Wrap_alloc@V?$allocator@I@std@@@std@@@std@@V12@@std@@YA?AU_Nonscalar_ptr_iterator_tag@0@AAV?$_Vb_iterator@U?$_Wrap_alloc@V?$allocator@I@std@@@std@@@0@0@Z 100c0950 f i PointCoord.obj
 0002:0006e9c0       ??$_Ptr_cat@VPoint@Gdiplus@@V12@@std@@YA?AU_Nonscalar_ptr_iterator_tag@0@PAVPoint@Gdiplus@@0@Z 100c09c0 f i PointCoord.obj
 0002:0006ea30       ??$_Ptr_cat@VPointF@Gdiplus@@V12@@std@@YA?AU_Nonscalar_ptr_iterator_tag@0@PAVPointF@Gdiplus@@0@Z 100c0a30 f i PointCoord.obj
 0002:0006eaa0       ??$_Ptr_cat@VPointF@Gdiplus@@V12@@std@@YA?AU_Nonscalar_ptr_iterator_tag@0@PBVPointF@Gdiplus@@PAV23@@Z 100c0aa0 f i PointCoord.obj
 0002:0006eb10       ??$_Rechecked@PAIPAI@std@@YAAAPAIAAPAIPAI@Z 100c0b10 f i PointCoord.obj
 0002:0006eb50       ??$_Rechecked@PAVPoint@Gdiplus@@PAV12@@std@@YAAAPAVPoint@Gdiplus@@AAPAV12@PAV12@@Z 100c0b50 f i PointCoord.obj
 0002:0006eb90       ??$_Rechecked@PAVPointF@Gdiplus@@PAV12@@std@@YAAAPAVPointF@Gdiplus@@AAPAV12@PAV12@@Z 100c0b90 f i PointCoord.obj
 0002:0006ebd0       ??$_Reset@V<lambda_660079388d01d824f1d4f65d6714bd9d>@@@?$_Func_class@MI@std@@IAEX$$QAV<lambda_660079388d01d824f1d4f65d6714bd9d>@@@Z 100c0bd0 f i PointCoord.obj
 0002:0006ec40       ??$_Reset@V<lambda_f15cf28b79eebeba7dee09e3ec20cd6a>@@@?$_Func_class@MI@std@@IAEX$$QAV<lambda_f15cf28b79eebeba7dee09e3ec20cd6a>@@@Z 100c0c40 f i PointCoord.obj
 0002:0006ecb0       ??$_Reset_alloc@V<lambda_660079388d01d824f1d4f65d6714bd9d>@@V?$allocator@V?$_Func_class@MI@std@@@std@@@?$_Func_class@MI@std@@IAEX$$QAV<lambda_660079388d01d824f1d4f65d6714bd9d>@@V?$allocator@V?$_Func_class@MI@std@@@1@@Z 100c0cb0 f i PointCoord.obj
 0002:0006ed20       ??$_Reset_alloc@V<lambda_f15cf28b79eebeba7dee09e3ec20cd6a>@@V?$allocator@V?$_Func_class@MI@std@@@std@@@?$_Func_class@MI@std@@IAEX$$QAV<lambda_f15cf28b79eebeba7dee09e3ec20cd6a>@@V?$allocator@V?$_Func_class@MI@std@@@1@@Z 100c0d20 f i PointCoord.obj
 0002:0006ed90       ??$_Test_callable@V<lambda_660079388d01d824f1d4f65d6714bd9d>@@@std@@YA_NAAV<lambda_660079388d01d824f1d4f65d6714bd9d>@@@Z 100c0d90 f i PointCoord.obj
 0002:0006edf0       ??$_Test_callable@V<lambda_660079388d01d824f1d4f65d6714bd9d>@@@std@@YA_NAAV<lambda_660079388d01d824f1d4f65d6714bd9d>@@U?$integral_constant@_N$0A@@0@@Z 100c0df0 f i PointCoord.obj
 0002:0006ee20       ??$_Test_callable@V<lambda_f15cf28b79eebeba7dee09e3ec20cd6a>@@@std@@YA_NAAV<lambda_f15cf28b79eebeba7dee09e3ec20cd6a>@@@Z 100c0e20 f i PointCoord.obj
 0002:0006ee80       ??$_Test_callable@V<lambda_f15cf28b79eebeba7dee09e3ec20cd6a>@@@std@@YA_NAAV<lambda_f15cf28b79eebeba7dee09e3ec20cd6a>@@U?$integral_constant@_N$0A@@0@@Z 100c0e80 f i PointCoord.obj
 0002:0006eeb0       ??$_Ucopy@V?$_Vector_const_iterator@V?$_Vector_val@U?$_Simple_types@VPointF@Gdiplus@@@std@@@std@@@std@@@?$vector@VPointF@Gdiplus@@V?$allocator@VPointF@Gdiplus@@@std@@@std@@IAEPAVPointF@Gdiplus@@V?$_Vector_const_iterator@V?$_Vector_val@U?$_Simple_types@VPointF@Gdiplus@@@std@@@std@@@1@0PAV23@@Z 100c0eb0 f i PointCoord.obj
 0002:0006f040       ??$_Umove@PAI@?$vector@IV?$allocator@_N@std@@@std@@IAEPAIPAI00@Z 100c1040 f i PointCoord.obj
 0002:0006f110       ??$_Umove@PAVPoint@Gdiplus@@@?$vector@VPoint@Gdiplus@@V?$allocator@VPoint@Gdiplus@@@std@@@std@@IAEPAVPoint@Gdiplus@@PAV23@00@Z 100c1110 f i PointCoord.obj
 0002:0006f1e0       ??$_Umove@PAVPointF@Gdiplus@@@?$vector@VPointF@Gdiplus@@V?$allocator@VPointF@Gdiplus@@@std@@@std@@IAEPAVPointF@Gdiplus@@PAV23@00@Z 100c11e0 f i PointCoord.obj
 0002:0006f2b0       ??$_Unchecked@PAI@std@@YAPAIPAI@Z 100c12b0 f i PointCoord.obj
 0002:0006f2f0       ??$_Unchecked@PAVPoint@Gdiplus@@@std@@YAPAVPoint@Gdiplus@@PAV12@@Z 100c12f0 f i PointCoord.obj
 0002:0006f330       ??$_Unchecked@PAVPointF@Gdiplus@@@std@@YAPAVPointF@Gdiplus@@PAV12@@Z 100c1330 f i PointCoord.obj
 0002:0006f370       ??$_Unchecked@V?$_Vb_iterator@U?$_Wrap_alloc@V?$allocator@I@std@@@std@@@std@@@std@@YA?AV?$_Vb_iterator@U?$_Wrap_alloc@V?$allocator@I@std@@@std@@@0@V10@@Z 100c1370 f i PointCoord.obj
 0002:0006f430       ??$_Unchecked@V?$_Vector_val@U?$_Simple_types@VPointF@Gdiplus@@@std@@@std@@@std@@YAPBVPointF@Gdiplus@@V?$_Vector_const_iterator@V?$_Vector_val@U?$_Simple_types@VPointF@Gdiplus@@@std@@@std@@@0@@Z 100c1430 f i PointCoord.obj
 0002:0006f4e0       ??$_Uninit_copy@PBVPointF@Gdiplus@@PAV12@U?$_Wrap_alloc@V?$allocator@VPointF@Gdiplus@@@std@@@std@@@std@@YAPAVPointF@Gdiplus@@PBV12@0PAV12@AAU?$_Wrap_alloc@V?$allocator@VPointF@Gdiplus@@@std@@@0@@Z 100c14e0 f i PointCoord.obj
 0002:0006f570       ??$_Uninit_copy@PBVPointF@Gdiplus@@PAV12@V?$allocator@VPointF@Gdiplus@@@std@@@std@@YAPAVPointF@Gdiplus@@PBV12@0PAV12@AAU?$_Wrap_alloc@V?$allocator@VPointF@Gdiplus@@@std@@@0@U_Nonscalar_ptr_iterator_tag@0@@Z 100c1570 f i PointCoord.obj
 0002:0006f6d0       ??$_Uninit_fill_n@IIII@std@@YAXPAIIPBIAAU?$_Wrap_alloc@V?$allocator@I@std@@@0@0U_Scalar_ptr_iterator_tag@0@@Z 100c16d0 f i PointCoord.obj
 0002:0006f730       ??$_Uninit_move@III@std@@YAPAIPAI00AAU?$_Wrap_alloc@V?$allocator@I@std@@@0@0U_Scalar_ptr_iterator_tag@0@@Z 100c1730 f i PointCoord.obj
 0002:0006f7f0       ??$_Uninit_move@PAIPAIU?$_Wrap_alloc@V?$allocator@I@std@@@std@@@std@@YAPAIPAI00AAU?$_Wrap_alloc@V?$allocator@I@std@@@0@@Z 100c17f0 f i PointCoord.obj
 0002:0006f890       ??$_Uninit_move@PAVPoint@Gdiplus@@PAV12@U?$_Wrap_alloc@V?$allocator@VPoint@Gdiplus@@@std@@@std@@@std@@YAPAVPoint@Gdiplus@@PAV12@00AAU?$_Wrap_alloc@V?$allocator@VPoint@Gdiplus@@@std@@@0@@Z 100c1890 f i PointCoord.obj
 0002:0006f930       ??$_Uninit_move@PAVPoint@Gdiplus@@PAV12@V?$allocator@VPoint@Gdiplus@@@std@@V12@@std@@YAPAVPoint@Gdiplus@@PAV12@00AAU?$_Wrap_alloc@V?$allocator@VPoint@Gdiplus@@@std@@@0@0U_Nonscalar_ptr_iterator_tag@0@@Z 100c1930 f i PointCoord.obj
 0002:0006fa90       ??$_Uninit_move@PAVPointF@Gdiplus@@PAV12@U?$_Wrap_alloc@V?$allocator@VPointF@Gdiplus@@@std@@@std@@@std@@YAPAVPointF@Gdiplus@@PAV12@00AAU?$_Wrap_alloc@V?$allocator@VPointF@Gdiplus@@@std@@@0@@Z 100c1a90 f i PointCoord.obj
 0002:0006fb30       ??$_Uninit_move@PAVPointF@Gdiplus@@PAV12@V?$allocator@VPointF@Gdiplus@@@std@@V12@@std@@YAPAVPointF@Gdiplus@@PAV12@00AAU?$_Wrap_alloc@V?$allocator@VPointF@Gdiplus@@@std@@@0@0U_Nonscalar_ptr_iterator_tag@0@@Z 100c1b30 f i PointCoord.obj
 0002:0006fc90       ??$_Uninitialized_copy@V?$_Vector_const_iterator@V?$_Vector_val@U?$_Simple_types@VPointF@Gdiplus@@@std@@@std@@@std@@PAVPointF@Gdiplus@@U?$_Wrap_alloc@V?$allocator@VPointF@Gdiplus@@@std@@@2@@std@@YAPAVPointF@Gdiplus@@V?$_Vector_const_iterator@V?$_Vector_val@U?$_Simple_types@VPointF@Gdiplus@@@std@@@std@@@0@0PAV12@AAU?$_Wrap_alloc@V?$allocator@VPointF@Gdiplus@@@std@@@0@@Z 100c1c90 f i PointCoord.obj
 0002:0006fe00       ??$_Uninitialized_fill_n@PAIIIU?$_Wrap_alloc@V?$allocator@I@std@@@std@@@std@@YAXPAIIPBIAAU?$_Wrap_alloc@V?$allocator@I@std@@@0@@Z 100c1e00 f i PointCoord.obj
 0002:0006fea0       ??$_Uninitialized_move@PAIPAIU?$_Wrap_alloc@V?$allocator@I@std@@@std@@@std@@YAPAIPAI00AAU?$_Wrap_alloc@V?$allocator@I@std@@@0@@Z 100c1ea0 f i PointCoord.obj
 0002:0006ff40       ??$_Uninitialized_move@PAVPoint@Gdiplus@@PAV12@U?$_Wrap_alloc@V?$allocator@VPoint@Gdiplus@@@std@@@std@@@std@@YAPAVPoint@Gdiplus@@PAV12@00AAU?$_Wrap_alloc@V?$allocator@VPoint@Gdiplus@@@std@@@0@@Z 100c1f40 f i PointCoord.obj
 0002:0006ffe0       ??$_Uninitialized_move@PAVPointF@Gdiplus@@PAV12@U?$_Wrap_alloc@V?$allocator@VPointF@Gdiplus@@@std@@@std@@@std@@YAPAVPointF@Gdiplus@@PAV12@00AAU?$_Wrap_alloc@V?$allocator@VPointF@Gdiplus@@@std@@@0@@Z 100c1fe0 f i PointCoord.obj
 0002:00070080       ??$_Val_type@PAI@std@@YAPAIPAI@Z 100c2080 f i PointCoord.obj
 0002:000700b0       ??$_Val_type@PAVPoint@Gdiplus@@@std@@YAPAVPoint@Gdiplus@@PAV12@@Z 100c20b0 f i PointCoord.obj
 0002:000700e0       ??$_Val_type@PAVPointF@Gdiplus@@@std@@YAPAVPointF@Gdiplus@@PAV12@@Z 100c20e0 f i PointCoord.obj
 0002:00070110       ??$addressof@$$CBI@std@@YAPBIABI@Z 100c2110 f i PointCoord.obj
 0002:00070150       ??$addressof@$$CBVPointF@Gdiplus@@@std@@YAPBVPointF@Gdiplus@@ABV12@@Z 100c2150 f i PointCoord.obj
 0002:00070190       ??$addressof@I@std@@YAPAIAAI@Z 100c2190 f i PointCoord.obj
 0002:000701d0       ??$addressof@VPoint@Gdiplus@@@std@@YAPAVPoint@Gdiplus@@AAV12@@Z 100c21d0 f i PointCoord.obj
 0002:00070210       ??$addressof@VPointF@Gdiplus@@@std@@YAPAVPointF@Gdiplus@@AAV12@@Z 100c2210 f i PointCoord.obj
 0002:00070250       ??$construct@VPoint@Gdiplus@@V12@@?$_Wrap_alloc@V?$allocator@VPoint@Gdiplus@@@std@@@std@@QAEXPAVPoint@Gdiplus@@$$QAV23@@Z 100c2250 f i PointCoord.obj
 0002:000702c0       ??$construct@VPoint@Gdiplus@@V12@@?$allocator@VPoint@Gdiplus@@@std@@QAEXPAVPoint@Gdiplus@@$$QAV23@@Z 100c22c0 f i PointCoord.obj
 0002:000703c0       ??$construct@VPoint@Gdiplus@@V12@@?$allocator_traits@V?$allocator@VPoint@Gdiplus@@@std@@@std@@SAXAAV?$allocator@VPoint@Gdiplus@@@1@PAVPoint@Gdiplus@@$$QAV34@@Z 100c23c0 f i PointCoord.obj
 0002:00070420       ??$construct@VPointF@Gdiplus@@AAV12@@?$_Wrap_alloc@V?$allocator@VPointF@Gdiplus@@@std@@@std@@QAEXPAVPointF@Gdiplus@@AAV23@@Z 100c2420 f i PointCoord.obj
 0002:00070490       ??$construct@VPointF@Gdiplus@@AAV12@@?$allocator@VPointF@Gdiplus@@@std@@QAEXPAVPointF@Gdiplus@@AAV23@@Z 100c2490 f i PointCoord.obj
 0002:00070590       ??$construct@VPointF@Gdiplus@@AAV12@@?$allocator_traits@V?$allocator@VPointF@Gdiplus@@@std@@@std@@SAXAAV?$allocator@VPointF@Gdiplus@@@1@PAVPointF@Gdiplus@@AAV34@@Z 100c2590 f i PointCoord.obj
 0002:000705f0       ??$construct@VPointF@Gdiplus@@ABV12@@?$_Wrap_alloc@V?$allocator@VPointF@Gdiplus@@@std@@@std@@QAEXPAVPointF@Gdiplus@@ABV23@@Z 100c25f0 f i PointCoord.obj
 0002:00070660       ??$construct@VPointF@Gdiplus@@ABV12@@?$allocator_traits@V?$allocator@VPointF@Gdiplus@@@std@@@std@@SAXAAV?$allocator@VPointF@Gdiplus@@@1@PAVPointF@Gdiplus@@ABV34@@Z 100c2660 f i PointCoord.obj
 0002:000706c0       ??$construct@VPointF@Gdiplus@@V12@@?$_Wrap_alloc@V?$allocator@VPointF@Gdiplus@@@std@@@std@@QAEXPAVPointF@Gdiplus@@$$QAV23@@Z 100c26c0 f i PointCoord.obj
 0002:00070730       ??$construct@VPointF@Gdiplus@@V12@@?$allocator@VPointF@Gdiplus@@@std@@QAEXPAVPointF@Gdiplus@@$$QAV23@@Z 100c2730 f i PointCoord.obj
 0002:00070830       ??$construct@VPointF@Gdiplus@@V12@@?$allocator_traits@V?$allocator@VPointF@Gdiplus@@@std@@@std@@SAXAAV?$allocator@VPointF@Gdiplus@@@1@PAVPointF@Gdiplus@@$$QAV34@@Z 100c2830 f i PointCoord.obj
 0002:00070890       ??$copy@V?$_Vb_iterator@U?$_Wrap_alloc@V?$allocator@I@std@@@std@@@std@@V12@@std@@YA?AV?$_Vb_iterator@U?$_Wrap_alloc@V?$allocator@I@std@@@std@@@0@V10@00@Z 100c2890 f i PointCoord.obj
 0002:00070be0       ??$copy_backward@V?$_Vb_iterator@U?$_Wrap_alloc@V?$allocator@I@std@@@std@@@std@@V12@@std@@YA?AV?$_Vb_iterator@U?$_Wrap_alloc@V?$allocator@I@std@@@std@@@0@V10@00@Z 100c2be0 f i PointCoord.obj
 0002:00070e80       ??$destroy@V?$_Func_impl@U?$_Callable_obj@V<lambda_660079388d01d824f1d4f65d6714bd9d>@@$0A@@std@@V?$allocator@V?$_Func_class@MI@std@@@2@MI@std@@@?$allocator@V?$_Func_impl@U?$_Callable_obj@V<lambda_660079388d01d824f1d4f65d6714bd9d>@@$0A@@std@@V?$allocator@V?$_Func_class@MI@std@@@2@MI@std@@@std@@QAEXPAV?$_Func_impl@U?$_Callable_obj@V<lambda_660079388d01d824f1d4f65d6714bd9d>@@$0A@@std@@V?$allocator@V?$_Func_class@MI@std@@@2@MI@1@@Z 100c2e80 f i PointCoord.obj
 0002:00070ef0       ??$destroy@V?$_Func_impl@U?$_Callable_obj@V<lambda_f15cf28b79eebeba7dee09e3ec20cd6a>@@$0A@@std@@V?$allocator@V?$_Func_class@MI@std@@@2@MI@std@@@?$allocator@V?$_Func_impl@U?$_Callable_obj@V<lambda_f15cf28b79eebeba7dee09e3ec20cd6a>@@$0A@@std@@V?$allocator@V?$_Func_class@MI@std@@@2@MI@std@@@std@@QAEXPAV?$_Func_impl@U?$_Callable_obj@V<lambda_f15cf28b79eebeba7dee09e3ec20cd6a>@@$0A@@std@@V?$allocator@V?$_Func_class@MI@std@@@2@MI@1@@Z 100c2ef0 f i PointCoord.obj
 0002:00070f60       ??$destroy@VPoint@Gdiplus@@@?$_Wrap_alloc@V?$allocator@VPoint@Gdiplus@@@std@@@std@@QAEXPAVPoint@Gdiplus@@@Z 100c2f60 f i PointCoord.obj
 0002:00070fc0       ??$destroy@VPoint@Gdiplus@@@?$allocator@VPoint@Gdiplus@@@std@@QAEXPAVPoint@Gdiplus@@@Z 100c2fc0 f i PointCoord.obj
 0002:00071000       ??$destroy@VPoint@Gdiplus@@@?$allocator_traits@V?$allocator@VPoint@Gdiplus@@@std@@@std@@SAXAAV?$allocator@VPoint@Gdiplus@@@1@PAVPoint@Gdiplus@@@Z 100c3000 f i PointCoord.obj
 0002:00071050       ??$destroy@VPointF@Gdiplus@@@?$_Wrap_alloc@V?$allocator@VPointF@Gdiplus@@@std@@@std@@QAEXPAVPointF@Gdiplus@@@Z 100c3050 f i PointCoord.obj
 0002:000710b0       ??$destroy@VPointF@Gdiplus@@@?$allocator@VPointF@Gdiplus@@@std@@QAEXPAVPointF@Gdiplus@@@Z 100c30b0 f i PointCoord.obj
 0002:000710f0       ??$destroy@VPointF@Gdiplus@@@?$allocator_traits@V?$allocator@VPointF@Gdiplus@@@std@@@std@@SAXAAV?$allocator@VPointF@Gdiplus@@@1@PAVPointF@Gdiplus@@@Z 100c30f0 f i PointCoord.obj
 0002:00071140       ??$fill@V?$_Vb_iterator@U?$_Wrap_alloc@V?$allocator@I@std@@@std@@@std@@_N@std@@YAXV?$_Vb_iterator@U?$_Wrap_alloc@V?$allocator@I@std@@@std@@@0@0AB_N@Z 100c3140 f i PointCoord.obj
 0002:00071310       ??$forward@AAU?$_Callable_obj@V<lambda_660079388d01d824f1d4f65d6714bd9d>@@$0A@@std@@@std@@YAAAU?$_Callable_obj@V<lambda_660079388d01d824f1d4f65d6714bd9d>@@$0A@@0@AAU10@@Z 100c3310 f i PointCoord.obj
 0002:00071350       ??$forward@AAU?$_Callable_obj@V<lambda_f15cf28b79eebeba7dee09e3ec20cd6a>@@$0A@@std@@@std@@YAAAU?$_Callable_obj@V<lambda_f15cf28b79eebeba7dee09e3ec20cd6a>@@$0A@@0@AAU10@@Z 100c3350 f i PointCoord.obj
 0002:00071390       ??$forward@AAVPointF@Gdiplus@@@std@@YAAAVPointF@Gdiplus@@AAV12@@Z 100c3390 f i PointCoord.obj
 0002:000713d0       ??$forward@ABVPointF@Gdiplus@@@std@@YAABVPointF@Gdiplus@@ABV12@@Z 100c33d0 f i PointCoord.obj
 0002:00071410       ??$forward@U?$_Callable_obj@V<lambda_660079388d01d824f1d4f65d6714bd9d>@@$0A@@std@@@std@@YA$$QAU?$_Callable_obj@V<lambda_660079388d01d824f1d4f65d6714bd9d>@@$0A@@0@AAU10@@Z 100c3410 f i PointCoord.obj
 0002:00071450       ??$forward@U?$_Callable_obj@V<lambda_f15cf28b79eebeba7dee09e3ec20cd6a>@@$0A@@std@@@std@@YA$$QAU?$_Callable_obj@V<lambda_f15cf28b79eebeba7dee09e3ec20cd6a>@@$0A@@0@AAU10@@Z 100c3450 f i PointCoord.obj
 0002:00071490       ??$forward@V<lambda_660079388d01d824f1d4f65d6714bd9d>@@@std@@YA$$QAV<lambda_660079388d01d824f1d4f65d6714bd9d>@@AAV1@@Z 100c3490 f i PointCoord.obj
 0002:000714d0       ??$forward@V<lambda_f15cf28b79eebeba7dee09e3ec20cd6a>@@@std@@YA$$QAV<lambda_f15cf28b79eebeba7dee09e3ec20cd6a>@@AAV1@@Z 100c34d0 f i PointCoord.obj
 0002:00071510       ??$forward@VPoint@Gdiplus@@@std@@YA$$QAVPoint@Gdiplus@@AAV12@@Z 100c3510 f i PointCoord.obj
 0002:00071550       ??$forward@VPointF@Gdiplus@@@std@@YA$$QAVPointF@Gdiplus@@AAV12@@Z 100c3550 f i PointCoord.obj
 0002:00071590       ??$move@AAV?$_Func_impl@U?$_Callable_obj@V<lambda_660079388d01d824f1d4f65d6714bd9d>@@$0A@@std@@V?$allocator@V?$_Func_class@MI@std@@@2@MI@std@@@std@@YA$$QAV?$_Func_impl@U?$_Callable_obj@V<lambda_660079388d01d824f1d4f65d6714bd9d>@@$0A@@std@@V?$allocator@V?$_Func_class@MI@std@@@2@MI@0@AAV10@@Z 100c3590 f i PointCoord.obj
 0002:000715d0       ??$move@AAV?$_Func_impl@U?$_Callable_obj@V<lambda_f15cf28b79eebeba7dee09e3ec20cd6a>@@$0A@@std@@V?$allocator@V?$_Func_class@MI@std@@@2@MI@std@@@std@@YA$$QAV?$_Func_impl@U?$_Callable_obj@V<lambda_f15cf28b79eebeba7dee09e3ec20cd6a>@@$0A@@std@@V?$allocator@V?$_Func_class@MI@std@@@2@MI@0@AAV10@@Z 100c35d0 f i PointCoord.obj
 0002:000716b0       ??0?$_Callable_base@V<lambda_660079388d01d824f1d4f65d6714bd9d>@@$0A@@std@@QAE@ABV<lambda_660079388d01d824f1d4f65d6714bd9d>@@@Z 100c36b0 f i PointCoord.obj
 0002:00071700       ??0?$_Callable_base@V<lambda_f15cf28b79eebeba7dee09e3ec20cd6a>@@$0A@@std@@QAE@ABV<lambda_f15cf28b79eebeba7dee09e3ec20cd6a>@@@Z 100c3700 f i PointCoord.obj
 0002:00071750       ??0?$_Func_base@MI@std@@QAE@XZ 100c3750 f i PointCoord.obj
 0002:000717a0       ??0?$_Func_class@MI@std@@QAE@XZ 100c37a0 f i PointCoord.obj
 0002:000717f0       ??0?$_Func_impl@U?$_Callable_obj@V<lambda_660079388d01d824f1d4f65d6714bd9d>@@$0A@@std@@V?$allocator@V?$_Func_class@MI@std@@@2@MI@std@@QAE@$$QAV01@@Z 100c37f0 f i PointCoord.obj
 0002:000718d0       ??0?$_Func_impl@U?$_Callable_obj@V<lambda_660079388d01d824f1d4f65d6714bd9d>@@$0A@@std@@V?$allocator@V?$_Func_class@MI@std@@@2@MI@std@@QAE@$$QAV<lambda_660079388d01d824f1d4f65d6714bd9d>@@ABV?$allocator@V?$_Func_impl@U?$_Callable_obj@V<lambda_660079388d01d824f1d4f65d6714bd9d>@@$0A@@std@@V?$allocator@V?$_Func_class@MI@std@@@2@MI@std@@@1@@Z 100c38d0 f i PointCoord.obj
 0002:000719b0       ??0?$_Func_impl@U?$_Callable_obj@V<lambda_660079388d01d824f1d4f65d6714bd9d>@@$0A@@std@@V?$allocator@V?$_Func_class@MI@std@@@2@MI@std@@QAE@AAV01@@Z 100c39b0 f i PointCoord.obj
 0002:00071a90       ??0?$_Func_impl@U?$_Callable_obj@V<lambda_f15cf28b79eebeba7dee09e3ec20cd6a>@@$0A@@std@@V?$allocator@V?$_Func_class@MI@std@@@2@MI@std@@QAE@$$QAV01@@Z 100c3a90 f i PointCoord.obj
 0002:00071b70       ??0?$_Func_impl@U?$_Callable_obj@V<lambda_f15cf28b79eebeba7dee09e3ec20cd6a>@@$0A@@std@@V?$allocator@V?$_Func_class@MI@std@@@2@MI@std@@QAE@$$QAV<lambda_f15cf28b79eebeba7dee09e3ec20cd6a>@@ABV?$allocator@V?$_Func_impl@U?$_Callable_obj@V<lambda_f15cf28b79eebeba7dee09e3ec20cd6a>@@$0A@@std@@V?$allocator@V?$_Func_class@MI@std@@@2@MI@std@@@1@@Z 100c3b70 f i PointCoord.obj
 0002:00071c50       ??0?$_Func_impl@U?$_Callable_obj@V<lambda_f15cf28b79eebeba7dee09e3ec20cd6a>@@$0A@@std@@V?$allocator@V?$_Func_class@MI@std@@@2@MI@std@@QAE@AAV01@@Z 100c3c50 f i PointCoord.obj
 0002:00071d30       ??0?$_Iterator012@Urandom_access_iterator_tag@std@@IHPBIABIU_Iterator_base12@2@@std@@QAE@ABU01@@Z 100c3d30 f i PointCoord.obj
 0002:00071d90       ??0?$_Iterator012@Urandom_access_iterator_tag@std@@IHPBIABIU_Iterator_base12@2@@std@@QAE@XZ 100c3d90 f i PointCoord.obj
 0002:00071df0       ??0?$_Iterator012@Urandom_access_iterator_tag@std@@VPointF@Gdiplus@@HPBV34@ABV34@U_Iterator_base12@2@@std@@QAE@ABU01@@Z 100c3df0 f i PointCoord.obj
 0002:00071e50       ??0?$_Iterator012@Urandom_access_iterator_tag@std@@VPointF@Gdiplus@@HPBV34@ABV34@U_Iterator_base12@2@@std@@QAE@XZ 100c3e50 f i PointCoord.obj
 0002:00071eb0       ??0?$_Iterator012@Urandom_access_iterator_tag@std@@_NHPA_N_NU_Iterator_base12@2@@std@@QAE@ABU01@@Z 100c3eb0 f i PointCoord.obj
 0002:00071f10       ??0?$_Iterator012@Urandom_access_iterator_tag@std@@_NHPA_N_NU_Iterator_base12@2@@std@@QAE@XZ 100c3f10 f i PointCoord.obj
 0002:00071f70       ??0?$_Vb_const_iterator@U?$_Wrap_alloc@V?$allocator@I@std@@@std@@@std@@QAE@ABV01@@Z 100c3f70 f i PointCoord.obj
 0002:00071fd0       ??0?$_Vb_const_iterator@U?$_Wrap_alloc@V?$allocator@I@std@@@std@@@std@@QAE@PBIPBU_Container_base12@1@@Z 100c3fd0 f i PointCoord.obj
 0002:00072040       ??0?$_Vb_iter_base@U?$_Wrap_alloc@V?$allocator@I@std@@@std@@@std@@QAE@ABV01@@Z 100c4040 f i PointCoord.obj
 0002:000720c0       ??0?$_Vb_iter_base@U?$_Wrap_alloc@V?$allocator@I@std@@@std@@@std@@QAE@PBIIPBU_Container_base12@1@@Z 100c40c0 f i PointCoord.obj
 0002:00072180       ??0?$_Vb_iterator@U?$_Wrap_alloc@V?$allocator@I@std@@@std@@@std@@QAE@ABV01@@Z 100c4180 f i PointCoord.obj
 0002:000721e0       ??0?$_Vb_iterator@U?$_Wrap_alloc@V?$allocator@I@std@@@std@@@std@@QAE@PAIPAU_Container_base12@1@@Z 100c41e0 f i PointCoord.obj
 0002:00072240       ??0?$_Vb_reference@U?$_Wrap_alloc@V?$allocator@I@std@@@std@@@std@@QAE@ABV?$_Vb_iter_base@U?$_Wrap_alloc@V?$allocator@I@std@@@std@@@1@@Z 100c4240 f i PointCoord.obj
 0002:000722c0       ??0?$_Vb_val@V?$allocator@_N@std@@@std@@QAE@IAB_NABV?$allocator@_N@1@@Z 100c42c0 f i PointCoord.obj
 0002:000723f0       ??0?$_Vector_alloc@$0A@U?$_Vec_base_types@IV?$allocator@_N@std@@@std@@@std@@QAE@ABV?$allocator@_N@1@@Z 100c43f0 f i PointCoord.obj
 0002:000724a0       ??0?$_Vector_alloc@$0A@U?$_Vec_base_types@VPointF@Gdiplus@@V?$allocator@VPointF@Gdiplus@@@std@@@std@@@std@@QAE@ABV?$allocator@VPointF@Gdiplus@@@1@@Z 100c44a0 f i PointCoord.obj
 0002:00072550       ??0?$_Vector_const_iterator@V?$_Vector_val@U?$_Simple_types@I@std@@@std@@@std@@QAE@ABV01@@Z 100c4550 f i PointCoord.obj
 0002:000725c0       ??0?$_Vector_const_iterator@V?$_Vector_val@U?$_Simple_types@I@std@@@std@@@std@@QAE@PAIPBU_Container_base12@1@@Z 100c45c0 f i PointCoord.obj
 0002:00072680       ??0?$_Vector_const_iterator@V?$_Vector_val@U?$_Simple_types@VPointF@Gdiplus@@@std@@@std@@@std@@QAE@ABV01@@Z 100c4680 f i PointCoord.obj
 0002:000726f0       ??0?$_Vector_const_iterator@V?$_Vector_val@U?$_Simple_types@VPointF@Gdiplus@@@std@@@std@@@std@@QAE@PAVPointF@Gdiplus@@PBU_Container_base12@1@@Z 100c46f0 f i PointCoord.obj
 0002:000727b0       ??0?$_Vector_iterator@V?$_Vector_val@U?$_Simple_types@I@std@@@std@@@std@@QAE@ABV01@@Z 100c47b0 f i PointCoord.obj
 0002:00072810       ??0?$_Vector_iterator@V?$_Vector_val@U?$_Simple_types@I@std@@@std@@@std@@QAE@PAIPBU_Container_base12@1@@Z 100c4810 f i PointCoord.obj
 0002:00072870       ??0?$_Vector_iterator@V?$_Vector_val@U?$_Simple_types@VPointF@Gdiplus@@@std@@@std@@@std@@QAE@PAVPointF@Gdiplus@@PBU_Container_base12@1@@Z 100c4870 f i PointCoord.obj
 0002:000728d0       ??0?$_Vector_val@U?$_Simple_types@I@std@@@std@@QAE@XZ 100c48d0 f i PointCoord.obj
 0002:00072960       ??0?$_Vector_val@U?$_Simple_types@VPointF@Gdiplus@@@std@@@std@@QAE@XZ 100c4960 f i PointCoord.obj
 0002:000729f0       ??0?$_Wrap_alloc@V?$allocator@I@std@@@std@@QAE@XZ 100c49f0 f i PointCoord.obj
 0002:00072a50       ??0?$_Wrap_alloc@V?$allocator@VPoint@Gdiplus@@@std@@@std@@QAE@XZ 100c4a50 f i PointCoord.obj
 0002:00072ab0       ??0?$_Wrap_alloc@V?$allocator@VPointF@Gdiplus@@@std@@@std@@QAE@ABV?$allocator@VPointF@Gdiplus@@@1@@Z 100c4ab0 f i PointCoord.obj
 0002:00072b10       ??0?$_Wrap_alloc@V?$allocator@VPointF@Gdiplus@@@std@@@std@@QAE@XZ 100c4b10 f i PointCoord.obj
 0002:00072b70       ??0?$allocator@I@std@@QAE@XZ 100c4b70 f i PointCoord.obj
 0002:00072bb0       ??0?$allocator@V?$_Func_class@MI@std@@@std@@QAE@ABV01@@Z 100c4bb0 f i PointCoord.obj
 0002:00072bf0       ??0?$allocator@V?$_Func_class@MI@std@@@std@@QAE@XZ 100c4bf0 f i PointCoord.obj
 0002:00072c30       ??0?$allocator@V?$_Func_impl@U?$_Callable_obj@V<lambda_660079388d01d824f1d4f65d6714bd9d>@@$0A@@std@@V?$allocator@V?$_Func_class@MI@std@@@2@MI@std@@@std@@QAE@ABV01@@Z 100c4c30 f i PointCoord.obj
 0002:00072c70       ??0?$allocator@V?$_Func_impl@U?$_Callable_obj@V<lambda_660079388d01d824f1d4f65d6714bd9d>@@$0A@@std@@V?$allocator@V?$_Func_class@MI@std@@@2@MI@std@@@std@@QAE@XZ 100c4c70 f i PointCoord.obj
 0002:00072cb0       ??0?$allocator@V?$_Func_impl@U?$_Callable_obj@V<lambda_f15cf28b79eebeba7dee09e3ec20cd6a>@@$0A@@std@@V?$allocator@V?$_Func_class@MI@std@@@2@MI@std@@@std@@QAE@ABV01@@Z 100c4cb0 f i PointCoord.obj
 0002:00072cf0       ??0?$allocator@V?$_Func_impl@U?$_Callable_obj@V<lambda_f15cf28b79eebeba7dee09e3ec20cd6a>@@$0A@@std@@V?$allocator@V?$_Func_class@MI@std@@@2@MI@std@@@std@@QAE@XZ 100c4cf0 f i PointCoord.obj
 0002:00072d30       ??0?$allocator@VPoint@Gdiplus@@@std@@QAE@XZ 100c4d30 f i PointCoord.obj
 0002:00072d70       ??0?$allocator@VPointF@Gdiplus@@@std@@QAE@ABV01@@Z 100c4d70 f i PointCoord.obj
 0002:00072db0       ??0?$allocator@VPointF@Gdiplus@@@std@@QAE@XZ 100c4db0 f i PointCoord.obj
 0002:00072df0       ??0?$allocator@_N@std@@QAE@XZ 100c4df0 f i PointCoord.obj
 0002:00072e30       ??0?$vector@IV?$allocator@_N@std@@@std@@QAE@IABIABV?$allocator@_N@1@@Z 100c4e30 f i PointCoord.obj
 0002:00072ef0       ??0?$vector@VPointF@Gdiplus@@V?$allocator@VPointF@Gdiplus@@@std@@@std@@QAE@ABV01@@Z 100c4ef0 f i PointCoord.obj
 0002:00073080       ??0?$vector@VPointF@Gdiplus@@V?$allocator@VPointF@Gdiplus@@@std@@@std@@QAE@XZ 100c5080 f i PointCoord.obj
 0002:000730f0       ??0?$vector@_NV?$allocator@_N@std@@@std@@QAE@XZ 100c50f0 f i PointCoord.obj
 0002:00073170       ??0Point@Gdiplus@@QAE@ABV01@@Z 100c5170 f i PointCoord.obj
 0002:000731d0       ??0PointCoord@baro@@QAE@XZ 100c51d0 f   PointCoord.obj
 0002:000734c0       ??0PointF@Gdiplus@@QAE@ABV01@@Z 100c54c0 f i PointCoord.obj
 0002:00073520       ??0PointF@Gdiplus@@QAE@ABVSizeF@1@@Z 100c5520 f i PointCoord.obj
 0002:00073580       ??1?$_Func_base@MI@std@@UAE@XZ 100c5580 f i PointCoord.obj
 0002:000735c0       ??1?$_Func_class@MI@std@@QAE@XZ 100c55c0 f i PointCoord.obj
 0002:00073610       ??1?$_Func_impl@U?$_Callable_obj@V<lambda_660079388d01d824f1d4f65d6714bd9d>@@$0A@@std@@V?$allocator@V?$_Func_class@MI@std@@@2@MI@std@@UAE@XZ 100c5610 f i PointCoord.obj
 0002:00073670       ??1?$_Func_impl@U?$_Callable_obj@V<lambda_f15cf28b79eebeba7dee09e3ec20cd6a>@@$0A@@std@@V?$allocator@V?$_Func_class@MI@std@@@2@MI@std@@UAE@XZ 100c5670 f i PointCoord.obj
 0002:000736d0       ??1?$_Iterator012@Urandom_access_iterator_tag@std@@IHPBIABIU_Iterator_base12@2@@std@@QAE@XZ 100c56d0 f i PointCoord.obj
 0002:00073720       ??1?$_Iterator012@Urandom_access_iterator_tag@std@@VPointF@Gdiplus@@HPBV34@ABV34@U_Iterator_base12@2@@std@@QAE@XZ 100c5720 f i PointCoord.obj
 0002:00073770       ??1?$_Iterator012@Urandom_access_iterator_tag@std@@_NHPA_N_NU_Iterator_base12@2@@std@@QAE@XZ 100c5770 f i PointCoord.obj
 0002:000737c0       ??1?$_Vb_const_iterator@U?$_Wrap_alloc@V?$allocator@I@std@@@std@@@std@@QAE@XZ 100c57c0 f i PointCoord.obj
 0002:00073810       ??1?$_Vb_iter_base@U?$_Wrap_alloc@V?$allocator@I@std@@@std@@@std@@QAE@XZ 100c5810 f i PointCoord.obj
 0002:00073860       ??1?$_Vb_iterator@U?$_Wrap_alloc@V?$allocator@I@std@@@std@@@std@@QAE@XZ 100c5860 f i PointCoord.obj
 0002:000738b0       ??1?$_Vb_reference@U?$_Wrap_alloc@V?$allocator@I@std@@@std@@@std@@QAE@XZ 100c58b0 f i PointCoord.obj
 0002:00073900       ??1?$_Vb_val@V?$allocator@_N@std@@@std@@QAE@XZ 100c5900 f i PointCoord.obj
 0002:00073980       ??1?$_Vector_alloc@$0A@U?$_Vec_base_types@IV?$allocator@_N@std@@@std@@@std@@QAE@XZ 100c5980 f i PointCoord.obj
 0002:000739e0       ??1?$_Vector_alloc@$0A@U?$_Vec_base_types@VPointF@Gdiplus@@V?$allocator@VPointF@Gdiplus@@@std@@@std@@@std@@QAE@XZ 100c59e0 f i PointCoord.obj
 0002:00073a40       ??1?$_Vector_const_iterator@V?$_Vector_val@U?$_Simple_types@I@std@@@std@@@std@@QAE@XZ 100c5a40 f i PointCoord.obj
 0002:00073a90       ??1?$_Vector_const_iterator@V?$_Vector_val@U?$_Simple_types@VPointF@Gdiplus@@@std@@@std@@@std@@QAE@XZ 100c5a90 f i PointCoord.obj
 0002:00073ae0       ??1?$_Vector_iterator@V?$_Vector_val@U?$_Simple_types@I@std@@@std@@@std@@QAE@XZ 100c5ae0 f i PointCoord.obj
 0002:00073b30       ??1?$_Vector_iterator@V?$_Vector_val@U?$_Simple_types@VPointF@Gdiplus@@@std@@@std@@@std@@QAE@XZ 100c5b30 f i PointCoord.obj
 0002:00073b80       ??1?$_Vector_val@U?$_Simple_types@I@std@@@std@@QAE@XZ 100c5b80 f i PointCoord.obj
 0002:00073be0       ??1?$_Vector_val@U?$_Simple_types@VPointF@Gdiplus@@@std@@@std@@QAE@XZ 100c5be0 f i PointCoord.obj
 0002:00073c40       ??1?$function@$$A6AMI@Z@std@@QAE@XZ 100c5c40 f i PointCoord.obj
 0002:00073ca0       ??1?$vector@IV?$allocator@_N@std@@@std@@QAE@XZ 100c5ca0 f i PointCoord.obj
 0002:00073d00       ??1?$vector@VPointF@Gdiplus@@V?$allocator@VPointF@Gdiplus@@@std@@@std@@QAE@XZ 100c5d00 f i PointCoord.obj
 0002:00073d60       ??1?$vector@_NV?$allocator@_N@std@@@std@@QAE@XZ 100c5d60 f i PointCoord.obj
 0002:00073dc0       ??1PointCoord@baro@@UAE@XZ 100c5dc0 f   PointCoord.obj
 0002:00073ec0       ??4?$_Vb_reference@U?$_Wrap_alloc@V?$allocator@I@std@@@std@@@std@@QAEAAV01@ABV01@@Z 100c5ec0 f i PointCoord.obj
 0002:00073f20       ??4?$_Vb_reference@U?$_Wrap_alloc@V?$allocator@I@std@@@std@@@std@@QAEAAV01@_N@Z 100c5f20 f i PointCoord.obj
 0002:00073fe0       ??8?$_Vb_const_iterator@U?$_Wrap_alloc@V?$allocator@I@std@@@std@@@std@@QBE_NABV01@@Z 100c5fe0 f i PointCoord.obj
 0002:00074080       ??8?$_Vector_const_iterator@V?$_Vector_val@U?$_Simple_types@I@std@@@std@@@std@@QBE_NABV01@@Z 100c6080 f i PointCoord.obj
 0002:00074110       ??8?$_Vector_const_iterator@V?$_Vector_val@U?$_Simple_types@VPointF@Gdiplus@@@std@@@std@@@std@@QBE_NABV01@@Z 100c6110 f i PointCoord.obj
 0002:000741a0       ??9?$_Vb_const_iterator@U?$_Wrap_alloc@V?$allocator@I@std@@@std@@@std@@QBE_NABV01@@Z 100c61a0 f i PointCoord.obj
 0002:00074230       ??9?$_Vector_const_iterator@V?$_Vector_val@U?$_Simple_types@I@std@@@std@@@std@@QBE_NABV01@@Z 100c6230 f i PointCoord.obj
 0002:000742c0       ??9?$_Vector_const_iterator@V?$_Vector_val@U?$_Simple_types@VPointF@Gdiplus@@@std@@@std@@@std@@QBE_NABV01@@Z 100c62c0 f i PointCoord.obj
 0002:00074350       ??A?$vector@IV?$allocator@_N@std@@@std@@QAEAAII@Z 100c6350 f i PointCoord.obj
 0002:00074470       ??A?$vector@VPointF@Gdiplus@@V?$allocator@VPointF@Gdiplus@@@std@@@std@@QBEABVPointF@Gdiplus@@I@Z 100c6470 f i PointCoord.obj
 0002:00074590       ??A?$vector@_NV?$allocator@_N@std@@@std@@QBE_NI@Z 100c6590 f i PointCoord.obj
 0002:000746c0       ??B?$_Vb_reference@U?$_Wrap_alloc@V?$allocator@I@std@@@std@@@std@@QBE_NXZ 100c66c0 f i PointCoord.obj
 0002:00074750       ??D?$_Vb_const_iterator@U?$_Wrap_alloc@V?$allocator@I@std@@@std@@@std@@QBE_NXZ 100c6750 f i PointCoord.obj
 0002:000747e0       ??D?$_Vb_iterator@U?$_Wrap_alloc@V?$allocator@I@std@@@std@@@std@@QBE?AV?$_Vb_reference@U?$_Wrap_alloc@V?$allocator@I@std@@@std@@@1@XZ 100c67e0 f i PointCoord.obj
 0002:00074860       ??D?$_Vector_const_iterator@V?$_Vector_val@U?$_Simple_types@VPointF@Gdiplus@@@std@@@std@@@std@@QBEABVPointF@Gdiplus@@XZ 100c6860 f i PointCoord.obj
 0002:000749a0       ??D?$_Vector_iterator@V?$_Vector_val@U?$_Simple_types@VPointF@Gdiplus@@@std@@@std@@@std@@QBEAAVPointF@Gdiplus@@XZ 100c69a0 f i PointCoord.obj
 0002:000749f0       ??E?$_Vb_const_iterator@U?$_Wrap_alloc@V?$allocator@I@std@@@std@@@std@@QAEAAV01@XZ 100c69f0 f i PointCoord.obj
 0002:00074a50       ??E?$_Vb_iterator@U?$_Wrap_alloc@V?$allocator@I@std@@@std@@@std@@QAEAAV01@XZ 100c6a50 f i PointCoord.obj
 0002:00074ab0       ??E?$_Vector_const_iterator@V?$_Vector_val@U?$_Simple_types@VPointF@Gdiplus@@@std@@@std@@@std@@QAEAAV01@XZ 100c6ab0 f i PointCoord.obj
 0002:00074be0       ??E?$_Vector_iterator@V?$_Vector_val@U?$_Simple_types@VPointF@Gdiplus@@@std@@@std@@@std@@QAEAAV01@XZ 100c6be0 f i PointCoord.obj
 0002:00074c40       ??F?$_Vb_const_iterator@U?$_Wrap_alloc@V?$allocator@I@std@@@std@@@std@@QAEAAV01@XZ 100c6c40 f i PointCoord.obj
 0002:00074ca0       ??F?$_Vb_iterator@U?$_Wrap_alloc@V?$allocator@I@std@@@std@@@std@@QAEAAV01@XZ 100c6ca0 f i PointCoord.obj
 0002:00074d00       ??G?$_Vb_const_iterator@U?$_Wrap_alloc@V?$allocator@I@std@@@std@@@std@@QBEHABV01@@Z 100c6d00 f i PointCoord.obj
 0002:00074d80       ??G?$_Vb_iterator@U?$_Wrap_alloc@V?$allocator@I@std@@@std@@@std@@QBEHABV?$_Vb_const_iterator@U?$_Wrap_alloc@V?$allocator@I@std@@@std@@@1@@Z 100c6d80 f i PointCoord.obj
 0002:00074de0       ??H?$_Vb_iterator@U?$_Wrap_alloc@V?$allocator@I@std@@@std@@@std@@QBE?AV01@H@Z 100c6de0 f i PointCoord.obj
 0002:00074f20       ??H?$_Vector_iterator@V?$_Vector_val@U?$_Simple_types@I@std@@@std@@@std@@QBE?AV01@H@Z 100c6f20 f i PointCoord.obj
 0002:00075060       ??HPointF@Gdiplus@@QBE?AV01@ABV01@@Z 100c7060 f i PointCoord.obj
 0002:000750f0       ??M?$_Vb_const_iterator@U?$_Wrap_alloc@V?$allocator@I@std@@@std@@@std@@QBE_NABV01@@Z 100c70f0 f i PointCoord.obj
 0002:000751a0       ??M?$_Vector_const_iterator@V?$_Vector_val@U?$_Simple_types@I@std@@@std@@@std@@QBE_NABV01@@Z 100c71a0 f i PointCoord.obj
 0002:000755f0       ??R?$_Func_class@MI@std@@QBEMI@Z 100c75f0 f i PointCoord.obj
 0002:00075690       ??Y?$_Vb_const_iterator@U?$_Wrap_alloc@V?$allocator@I@std@@@std@@@std@@QAEAAV01@H@Z 100c7690 f i PointCoord.obj
 0002:00075790       ??Y?$_Vb_iterator@U?$_Wrap_alloc@V?$allocator@I@std@@@std@@@std@@QAEAAV01@H@Z 100c7790 f i PointCoord.obj
 0002:000757f0       ??Y?$_Vector_const_iterator@V?$_Vector_val@U?$_Simple_types@I@std@@@std@@@std@@QAEAAV01@H@Z 100c77f0 f i PointCoord.obj
 0002:00075950       ??Y?$_Vector_iterator@V?$_Vector_val@U?$_Simple_types@I@std@@@std@@@std@@QAEAAV01@H@Z 100c7950 f i PointCoord.obj
 0002:000759b0       ??_EPointCoord@baro@@UAEPAXI@Z 100c79b0 f i PointCoord.obj
 0002:00075a70       ??_G?$_Func_base@MI@std@@UAEPAXI@Z 100c7a70 f i PointCoord.obj
 0002:00075a70       ??_E?$_Func_base@MI@std@@UAEPAXI@Z 100c7a70 f i PointCoord.obj
 0002:00075ae0       ??_G?$_Func_impl@U?$_Callable_obj@V<lambda_660079388d01d824f1d4f65d6714bd9d>@@$0A@@std@@V?$allocator@V?$_Func_class@MI@std@@@2@MI@std@@UAEPAXI@Z 100c7ae0 f i PointCoord.obj
 0002:00075ae0       ??_E?$_Func_impl@U?$_Callable_obj@V<lambda_660079388d01d824f1d4f65d6714bd9d>@@$0A@@std@@V?$allocator@V?$_Func_class@MI@std@@@2@MI@std@@UAEPAXI@Z 100c7ae0 f i PointCoord.obj
 0002:00075b50       ??_G?$_Func_impl@U?$_Callable_obj@V<lambda_f15cf28b79eebeba7dee09e3ec20cd6a>@@$0A@@std@@V?$allocator@V?$_Func_class@MI@std@@@2@MI@std@@UAEPAXI@Z 100c7b50 f i PointCoord.obj
 0002:00075b50       ??_E?$_Func_impl@U?$_Callable_obj@V<lambda_f15cf28b79eebeba7dee09e3ec20cd6a>@@$0A@@std@@V?$allocator@V?$_Func_class@MI@std@@@2@MI@std@@UAEPAXI@Z 100c7b50 f i PointCoord.obj
 0002:00075bc0       ?Add@PointCoord@baro@@QAEXMM@Z 100c7bc0 f   PointCoord.obj
 0002:00075f50       ?Clear@PointCoord@baro@@QAEXXZ 100c7f50 f   PointCoord.obj
 0002:00076050       ?GetCoord@PointCoord@baro@@QBE?AVPointF@Gdiplus@@I@Z 100c8050 f   PointCoord.obj
 0002:00076100       ?GetCoord@PointCoord@baro@@QBEXIVSizeF@Gdiplus@@AAVPoint@4@AA_N@Z 100c8100 f   PointCoord.obj
 0002:00076230       ?GetCoordArray@PointCoord@baro@@QBEIVSizeF@Gdiplus@@AAV?$vector@VPoint@Gdiplus@@V?$allocator@VPoint@Gdiplus@@@std@@@std@@AAV?$vector@_NV?$allocator@_N@std@@@6@I@Z 100c8230 f   PointCoord.obj
 0002:00076380       ?GetCoordArrayF@PointCoord@baro@@QBEIVSizeF@Gdiplus@@AAV?$vector@VPointF@Gdiplus@@V?$allocator@VPointF@Gdiplus@@@std@@@std@@AAV?$vector@_NV?$allocator@_N@std@@@6@I@Z 100c8380 f   PointCoord.obj
 0002:000764b0       ?GetCoordF@PointCoord@baro@@QBEXIVSizeF@Gdiplus@@AAVPointF@4@AA_N@Z 100c84b0 f   PointCoord.obj
 0002:000765d0       ?GetDest@PointCoord@baro@@QBE?AVPointF@Gdiplus@@I@Z 100c85d0 f   PointCoord.obj
 0002:00076680       ?GetMinMaxCoordBoundary@PointCoord@baro@@QBE?AVRectF@Gdiplus@@VSizeF@4@@Z 100c8680 f   PointCoord.obj
 0002:00076790       ?GetNearIndexFromRatio@PointCoord@baro@@QBEHMM@Z 100c8790 f   PointCoord.obj
 0002:00076a70       ?GetNearIndexFromRatio@PointCoord@baro@@QBEH_NM@Z 100c8a70 f   PointCoord.obj
 0002:00076db0       ?GetSrc@PointCoord@baro@@QBE?AVPointF@Gdiplus@@I@Z 100c8db0 f   PointCoord.obj
 0002:00076e60       ?Initialize@PointCoord@baro@@QAEXHHMMMM@Z 100c8e60 f   PointCoord.obj
 0002:00077240       ?IsEqualRange@PointCoord@baro@@QAE_NXZ 100c9240 f   PointCoord.obj
 0002:000772d0       ?MakeCoordF@PointCoord@baro@@QBE?AVPointF@Gdiplus@@MM@Z 100c92d0 f   PointCoord.obj
 0002:00077360       ?MakeCoordF@PointCoord@baro@@QBE?AVPointF@Gdiplus@@MMAA_N@Z 100c9360 f   PointCoord.obj
 0002:000774a0       ?MakeCoordF@PointCoord@baro@@QBE?AVPointF@Gdiplus@@MMAA_NAAV34@@Z 100c94a0 f   PointCoord.obj
 0002:000775b0       ?MakeCoordF@PointCoord@baro@@QBE?AVPointF@Gdiplus@@V34@@Z 100c95b0 f   PointCoord.obj
 0002:00077650       ?MakeRatio@PointCoord@baro@@QBE?AVPointF@Gdiplus@@MM@Z 100c9650 f   PointCoord.obj
 0002:00077800       ?MakeValue@PointCoord@baro@@QBE?AVPointF@Gdiplus@@MM@Z 100c9800 f   PointCoord.obj
 0002:000778b0       ?Offset@RectF@Gdiplus@@QAEXABVPointF@2@@Z 100c98b0 f i PointCoord.obj
 0002:00077930       ?Offset@RectF@Gdiplus@@QAEXMM@Z 100c9930 f i PointCoord.obj
 0002:000779a0       ?_Advance@?$_Vb_iter_base@U?$_Wrap_alloc@V?$allocator@I@std@@@std@@@std@@QAEXI@Z 100c99a0 f i PointCoord.obj
 0002:00077a30       ?_Alloc_proxy@?$_Vb_val@V?$allocator@_N@std@@@std@@QAEXXZ 100c9a30 f i PointCoord.obj
 0002:00077b30       ?_Alloc_proxy@?$_Vector_alloc@$0A@U?$_Vec_base_types@IV?$allocator@_N@std@@@std@@@std@@QAEXXZ 100c9b30 f i PointCoord.obj
 0002:00077c20       ?_Alloc_proxy@?$_Vector_alloc@$0A@U?$_Vec_base_types@VPointF@Gdiplus@@V?$allocator@VPointF@Gdiplus@@@std@@@std@@@std@@QAEXXZ 100c9c20 f i PointCoord.obj
 0002:00077d10       ?_Buy@?$vector@IV?$allocator@_N@std@@@std@@IAE_NI@Z 100c9d10 f i PointCoord.obj
 0002:00077e00       ?_Buy@?$vector@VPointF@Gdiplus@@V?$allocator@VPointF@Gdiplus@@@std@@@std@@IAE_NI@Z 100c9e00 f i PointCoord.obj
 0002:00077ef0       ?_Compat@?$_Vb_const_iterator@U?$_Wrap_alloc@V?$allocator@I@std@@@std@@@std@@QBEXABV12@@Z 100c9ef0 f i PointCoord.obj
 0002:00077f90       ?_Compat@?$_Vector_const_iterator@V?$_Vector_val@U?$_Simple_types@I@std@@@std@@@std@@QBEXABV12@@Z 100c9f90 f i PointCoord.obj
 0002:000780b0       ?_Compat@?$_Vector_const_iterator@V?$_Vector_val@U?$_Simple_types@VPointF@Gdiplus@@@std@@@std@@@std@@QBEXABV12@@Z 100ca0b0 f i PointCoord.obj
 0002:000781d0       ?_Construct_n@?$vector@IV?$allocator@_N@std@@@std@@QAEXIPBI@Z 100ca1d0 f i PointCoord.obj
 0002:000782e0       ?_Copy@?$_Func_impl@U?$_Callable_obj@V<lambda_660079388d01d824f1d4f65d6714bd9d>@@$0A@@std@@V?$allocator@V?$_Func_class@MI@std@@@2@MI@std@@UAEPAV?$_Func_base@MI@2@PAX@Z 100ca2e0 f i PointCoord.obj
 0002:000783f0       ?_Copy@?$_Func_impl@U?$_Callable_obj@V<lambda_f15cf28b79eebeba7dee09e3ec20cd6a>@@$0A@@std@@V?$allocator@V?$_Func_class@MI@std@@@2@MI@std@@UAEPAV?$_Func_base@MI@2@PAX@Z 100ca3f0 f i PointCoord.obj
 0002:00078500       ?_Dec@?$_Vb_const_iterator@U?$_Wrap_alloc@V?$allocator@I@std@@@std@@@std@@QAEXXZ 100ca500 f i PointCoord.obj
 0002:00078660       ?_Delete_this@?$_Func_impl@U?$_Callable_obj@V<lambda_660079388d01d824f1d4f65d6714bd9d>@@$0A@@std@@V?$allocator@V?$_Func_class@MI@std@@@2@MI@std@@EAEX_N@Z 100ca660 f i PointCoord.obj
 0002:00078740       ?_Delete_this@?$_Func_impl@U?$_Callable_obj@V<lambda_f15cf28b79eebeba7dee09e3ec20cd6a>@@$0A@@std@@V?$allocator@V?$_Func_class@MI@std@@@2@MI@std@@EAEX_N@Z 100ca740 f i PointCoord.obj
 0002:00078820       ?_Destroy@?$vector@IV?$allocator@_N@std@@@std@@IAEXPAI0@Z 100ca820 f i PointCoord.obj
 0002:000788f0       ?_Destroy@?$vector@VPoint@Gdiplus@@V?$allocator@VPoint@Gdiplus@@@std@@@std@@IAEXPAVPoint@Gdiplus@@0@Z 100ca8f0 f i PointCoord.obj
 0002:000789c0       ?_Destroy@?$vector@VPointF@Gdiplus@@V?$allocator@VPointF@Gdiplus@@@std@@@std@@IAEXPAVPointF@Gdiplus@@0@Z 100ca9c0 f i PointCoord.obj
 0002:00078a90       ?_Do_call@?$_Func_impl@U?$_Callable_obj@V<lambda_660079388d01d824f1d4f65d6714bd9d>@@$0A@@std@@V?$allocator@V?$_Func_class@MI@std@@@2@MI@std@@UAEM$$QAI@Z 100caa90 f i PointCoord.obj
 0002:00078b00       ?_Do_call@?$_Func_impl@U?$_Callable_obj@V<lambda_f15cf28b79eebeba7dee09e3ec20cd6a>@@$0A@@std@@V?$allocator@V?$_Func_class@MI@std@@@2@MI@std@@UAEM$$QAI@Z 100cab00 f i PointCoord.obj
 0002:00078b70       ?_Free_proxy@?$_Vb_val@V?$allocator@_N@std@@@std@@QAEXXZ 100cab70 f i PointCoord.obj
 0002:00078c70       ?_Free_proxy@?$_Vector_alloc@$0A@U?$_Vec_base_types@IV?$allocator@_N@std@@@std@@@std@@QAEXXZ 100cac70 f i PointCoord.obj
 0002:00078d60       ?_Free_proxy@?$_Vector_alloc@$0A@U?$_Vec_base_types@VPointF@Gdiplus@@V?$allocator@VPointF@Gdiplus@@@std@@@std@@@std@@QAEXXZ 100cad60 f i PointCoord.obj
 0002:00078e50       ?_Get@?$_Callable_base@V<lambda_660079388d01d824f1d4f65d6714bd9d>@@$0A@@std@@QAEAAV<lambda_660079388d01d824f1d4f65d6714bd9d>@@XZ 100cae50 f i PointCoord.obj
 0002:00078e90       ?_Get@?$_Callable_base@V<lambda_660079388d01d824f1d4f65d6714bd9d>@@$0A@@std@@QBEABV<lambda_660079388d01d824f1d4f65d6714bd9d>@@XZ 100cae90 f i PointCoord.obj
 0002:00078ed0       ?_Get@?$_Callable_base@V<lambda_f15cf28b79eebeba7dee09e3ec20cd6a>@@$0A@@std@@QAEAAV<lambda_f15cf28b79eebeba7dee09e3ec20cd6a>@@XZ 100caed0 f i PointCoord.obj
 0002:00078f10       ?_Get@?$_Callable_base@V<lambda_f15cf28b79eebeba7dee09e3ec20cd6a>@@$0A@@std@@QBEABV<lambda_f15cf28b79eebeba7dee09e3ec20cd6a>@@XZ 100caf10 f i PointCoord.obj
 0002:00078f50       ?_Get@?$_Func_impl@U?$_Callable_obj@V<lambda_660079388d01d824f1d4f65d6714bd9d>@@$0A@@std@@V?$allocator@V?$_Func_class@MI@std@@@2@MI@std@@EBEPBXXZ 100caf50 f i PointCoord.obj
 0002:00078fb0       ?_Get@?$_Func_impl@U?$_Callable_obj@V<lambda_f15cf28b79eebeba7dee09e3ec20cd6a>@@$0A@@std@@V?$allocator@V?$_Func_class@MI@std@@@2@MI@std@@EBEPBXXZ 100cafb0 f i PointCoord.obj
 0002:00079010       ?_Getal@?$_Vector_alloc@$0A@U?$_Vec_base_types@IV?$allocator@_N@std@@@std@@@std@@QBE?AU?$_Wrap_alloc@V?$allocator@I@std@@@2@XZ 100cb010 f i PointCoord.obj
 0002:00079070       ?_Getal@?$_Vector_alloc@$0A@U?$_Vec_base_types@VPoint@Gdiplus@@V?$allocator@VPoint@Gdiplus@@@std@@@std@@@std@@QBE?AU?$_Wrap_alloc@V?$allocator@VPoint@Gdiplus@@@std@@@2@XZ 100cb070 f i PointCoord.obj
 0002:000790d0       ?_Getal@?$_Vector_alloc@$0A@U?$_Vec_base_types@VPointF@Gdiplus@@V?$allocator@VPointF@Gdiplus@@@std@@@std@@@std@@QBE?AU?$_Wrap_alloc@V?$allocator@VPointF@Gdiplus@@@std@@@2@XZ 100cb0d0 f i PointCoord.obj
 0002:00079130       ?_Getptr@?$_Vb_reference@U?$_Wrap_alloc@V?$allocator@I@std@@@std@@@std@@QBEPBIXZ 100cb130 f i PointCoord.obj
 0002:00079260       ?_Grow_to@?$vector@IV?$allocator@_N@std@@@std@@IBEII@Z 100cb260 f i PointCoord.obj
 0002:00079310       ?_Grow_to@?$vector@VPoint@Gdiplus@@V?$allocator@VPoint@Gdiplus@@@std@@@std@@IBEII@Z 100cb310 f i PointCoord.obj
 0002:000793c0       ?_Grow_to@?$vector@VPointF@Gdiplus@@V?$allocator@VPointF@Gdiplus@@@std@@@std@@IBEII@Z 100cb3c0 f i PointCoord.obj
 0002:00079470       ?_Inc@?$_Vb_const_iterator@U?$_Wrap_alloc@V?$allocator@I@std@@@std@@@std@@QAEXXZ 100cb470 f i PointCoord.obj
 0002:000795d0       ?_Insert_n@?$vector@_NV?$allocator@_N@std@@@std@@QAE?AV?$_Vb_iterator@U?$_Wrap_alloc@V?$allocator@I@std@@@std@@@2@V?$_Vb_const_iterator@U?$_Wrap_alloc@V?$allocator@I@std@@@std@@@2@IAB_N@Z 100cb5d0 f i PointCoord.obj
 0002:00079830       ?_Insert_x@?$vector@_NV?$allocator@_N@std@@@std@@QAEIV?$_Vb_const_iterator@U?$_Wrap_alloc@V?$allocator@I@std@@@std@@@2@I@Z 100cb830 f i PointCoord.obj
 0002:00079c80       ?_Inside@?$vector@IV?$allocator@_N@std@@@std@@IBE_NPBI@Z 100cbc80 f i PointCoord.obj
 0002:00079d00       ?_Inside@?$vector@VPoint@Gdiplus@@V?$allocator@VPoint@Gdiplus@@@std@@@std@@IBE_NPBVPoint@Gdiplus@@@Z 100cbd00 f i PointCoord.obj
 0002:00079d80       ?_Inside@?$vector@VPointF@Gdiplus@@V?$allocator@VPointF@Gdiplus@@@std@@@std@@IBE_NPBVPointF@Gdiplus@@@Z 100cbd80 f i PointCoord.obj
 0002:00079e00       ?_Local@?$_Func_class@MI@std@@ABE_NXZ 100cbe00 f i PointCoord.obj
 0002:00079e70       ?_Make_iter@?$vector@IV?$allocator@_N@std@@@std@@QBE?AV?$_Vector_iterator@V?$_Vector_val@U?$_Simple_types@I@std@@@std@@@2@V?$_Vector_const_iterator@V?$_Vector_val@U?$_Simple_types@I@std@@@std@@@2@@Z 100cbe70 f i PointCoord.obj
 0002:00079f40       ?_Make_iter@?$vector@_NV?$allocator@_N@std@@@std@@QAE?AV?$_Vb_iterator@U?$_Wrap_alloc@V?$allocator@I@std@@@std@@@2@V?$_Vb_const_iterator@U?$_Wrap_alloc@V?$allocator@I@std@@@std@@@2@@Z 100cbf40 f i PointCoord.obj
 0002:0007a0f0       ?_Mask@?$_Vb_reference@U?$_Wrap_alloc@V?$allocator@I@std@@@std@@@std@@IBEIXZ 100cc0f0 f i PointCoord.obj
 0002:0007a140       ?_Move@?$_Func_impl@U?$_Callable_obj@V<lambda_660079388d01d824f1d4f65d6714bd9d>@@$0A@@std@@V?$allocator@V?$_Func_class@MI@std@@@2@MI@std@@UAEPAV?$_Func_base@MI@2@PAX@Z 100cc140 f i PointCoord.obj
 0002:0007a260       ?_Move@?$_Func_impl@U?$_Callable_obj@V<lambda_f15cf28b79eebeba7dee09e3ec20cd6a>@@$0A@@std@@V?$allocator@V?$_Func_class@MI@std@@@2@MI@std@@UAEPAV?$_Func_base@MI@2@PAX@Z 100cc260 f i PointCoord.obj
 0002:0007a380       ?_Nw@?$_Vb_val@V?$allocator@_N@std@@@std@@SAII@Z 100cc380 f i PointCoord.obj
 0002:0007a3c0       ?_Orphan_range@?$vector@IV?$allocator@_N@std@@@std@@IBEXPAI0@Z 100cc3c0 f i PointCoord.obj
 0002:0007a550       ?_Orphan_range@?$vector@VPoint@Gdiplus@@V?$allocator@VPoint@Gdiplus@@@std@@@std@@IBEXPAVPoint@Gdiplus@@0@Z 100cc550 f i PointCoord.obj
 0002:0007a6e0       ?_Orphan_range@?$vector@VPointF@Gdiplus@@V?$allocator@VPointF@Gdiplus@@@std@@@std@@IBEXPAVPointF@Gdiplus@@0@Z 100cc6e0 f i PointCoord.obj
 0002:0007a870       ?_Orphan_range@?$vector@_NV?$allocator@_N@std@@@std@@QBEXII@Z 100cc870 f i PointCoord.obj
 0002:0007aa20       ?_Pop_back_n@?$vector@IV?$allocator@_N@std@@@std@@QAEXI@Z 100cca20 f i PointCoord.obj
 0002:0007aac0       ?_Reallocate@?$vector@IV?$allocator@_N@std@@@std@@IAEXI@Z 100ccac0 f i PointCoord.obj
 0002:0007aca0       ?_Reallocate@?$vector@VPoint@Gdiplus@@V?$allocator@VPoint@Gdiplus@@@std@@@std@@IAEXI@Z 100ccca0 f i PointCoord.obj
 0002:0007ae80       ?_Reallocate@?$vector@VPointF@Gdiplus@@V?$allocator@VPointF@Gdiplus@@@std@@@std@@IAEXI@Z 100cce80 f i PointCoord.obj
 0002:0007b060       ?_Reserve@?$vector@IV?$allocator@_N@std@@@std@@IAEXI@Z 100cd060 f i PointCoord.obj
 0002:0007b110       ?_Reserve@?$vector@VPoint@Gdiplus@@V?$allocator@VPoint@Gdiplus@@@std@@@std@@IAEXI@Z 100cd110 f i PointCoord.obj
 0002:0007b1c0       ?_Reserve@?$vector@VPointF@Gdiplus@@V?$allocator@VPointF@Gdiplus@@@std@@@std@@IAEXI@Z 100cd1c0 f i PointCoord.obj
 0002:0007b270       ?_Set@?$_Func_class@MI@std@@AAEXPAV?$_Func_base@MI@2@@Z 100cd270 f i PointCoord.obj
 0002:0007b2c0       ?_Target_type@?$_Func_impl@U?$_Callable_obj@V<lambda_660079388d01d824f1d4f65d6714bd9d>@@$0A@@std@@V?$allocator@V?$_Func_class@MI@std@@@2@MI@std@@UBEABVtype_info@@XZ 100cd2c0 f i PointCoord.obj
 0002:0007b300       ?_Target_type@?$_Func_impl@U?$_Callable_obj@V<lambda_f15cf28b79eebeba7dee09e3ec20cd6a>@@$0A@@std@@V?$allocator@V?$_Func_class@MI@std@@@2@MI@std@@UBEABVtype_info@@XZ 100cd300 f i PointCoord.obj
 0002:0007b340       ?_Tidy@?$_Func_class@MI@std@@IAEXXZ 100cd340 f i PointCoord.obj
 0002:0007b3f0       ?_Tidy@?$vector@IV?$allocator@_N@std@@@std@@IAEXXZ 100cd3f0 f i PointCoord.obj
 0002:0007b4d0       ?_Tidy@?$vector@VPointF@Gdiplus@@V?$allocator@VPointF@Gdiplus@@@std@@@std@@IAEXXZ 100cd4d0 f i PointCoord.obj
 0002:0007b5b0       ?_Trim@?$vector@_NV?$allocator@_N@std@@@std@@QAEXI@Z 100cd5b0 f i PointCoord.obj
 0002:0007b850       ?_Ufill@?$vector@IV?$allocator@_N@std@@@std@@IAEPAIPAIIPBI@Z 100cd850 f i PointCoord.obj
 0002:0007b920       ?_Unchecked@?$_Vector_const_iterator@V?$_Vector_val@U?$_Simple_types@VPointF@Gdiplus@@@std@@@std@@@std@@QBEPBVPointF@Gdiplus@@XZ 100cd920 f i PointCoord.obj
 0002:0007b960       ?_Unused_capacity@?$vector@IV?$allocator@_N@std@@@std@@QBEIXZ 100cd960 f i PointCoord.obj
 0002:0007b9b0       ?_Unused_capacity@?$vector@VPoint@Gdiplus@@V?$allocator@VPoint@Gdiplus@@@std@@@std@@QBEIXZ 100cd9b0 f i PointCoord.obj
 0002:0007ba00       ?_Unused_capacity@?$vector@VPointF@Gdiplus@@V?$allocator@VPointF@Gdiplus@@@std@@@std@@QBEIXZ 100cda00 f i PointCoord.obj
 0002:0007ba50       ?_Valid@?$_Vb_iter_base@U?$_Wrap_alloc@V?$allocator@I@std@@@std@@@std@@QBEHI@Z 100cda50 f i PointCoord.obj
 0002:0007bb40       ?_Xlen@?$vector@IV?$allocator@_N@std@@@std@@IBEXXZ 100cdb40 f i PointCoord.obj
 0002:0007bba0       ?_Xlen@?$vector@VPoint@Gdiplus@@V?$allocator@VPoint@Gdiplus@@@std@@@std@@IBEXXZ 100cdba0 f i PointCoord.obj
 0002:0007bc00       ?_Xlen@?$vector@VPointF@Gdiplus@@V?$allocator@VPointF@Gdiplus@@@std@@@std@@IBEXXZ 100cdc00 f i PointCoord.obj
 0002:0007bc60       ?_Xlen@?$vector@_NV?$allocator@_N@std@@@std@@QBEXXZ 100cdc60 f i PointCoord.obj
 0002:0007bcc0       ?__autoclassinit2@?$_Vb_const_iterator@U?$_Wrap_alloc@V?$allocator@I@std@@@std@@@std@@QAEXI@Z 100cdcc0 f i PointCoord.obj
 0002:0007bd20       ?__autoclassinit2@?$_Vb_iterator@U?$_Wrap_alloc@V?$allocator@I@std@@@std@@@std@@QAEXI@Z 100cdd20 f i PointCoord.obj
 0002:0007bd80       ?__autoclassinit2@?$_Vector_iterator@V?$_Vector_val@U?$_Simple_types@I@std@@@std@@@std@@QAEXI@Z 100cdd80 f i PointCoord.obj
 0002:0007bde0       ?__autoclassinit2@?$_Vector_iterator@V?$_Vector_val@U?$_Simple_types@VPointF@Gdiplus@@@std@@@std@@@std@@QAEXI@Z 100cdde0 f i PointCoord.obj
 0002:0007be40       ?__autoclassinit2@?$vector@VPointF@Gdiplus@@V?$allocator@VPointF@Gdiplus@@@std@@@std@@QAEXI@Z 100cde40 f i PointCoord.obj
 0002:0007bea0       ?allocate@?$_Wrap_alloc@V?$allocator@I@std@@@std@@QAEPAII@Z 100cdea0 f i PointCoord.obj
 0002:0007bf00       ?allocate@?$_Wrap_alloc@V?$allocator@VPoint@Gdiplus@@@std@@@std@@QAEPAVPoint@Gdiplus@@I@Z 100cdf00 f i PointCoord.obj
 0002:0007bf60       ?allocate@?$_Wrap_alloc@V?$allocator@VPointF@Gdiplus@@@std@@@std@@QAEPAVPointF@Gdiplus@@I@Z 100cdf60 f i PointCoord.obj
 0002:0007bfc0       ?allocate@?$allocator@I@std@@QAEPAII@Z 100cdfc0 f i PointCoord.obj
 0002:0007c020       ?allocate@?$allocator@V?$_Func_impl@U?$_Callable_obj@V<lambda_660079388d01d824f1d4f65d6714bd9d>@@$0A@@std@@V?$allocator@V?$_Func_class@MI@std@@@2@MI@std@@@std@@QAEPAV?$_Func_impl@U?$_Callable_obj@V<lambda_660079388d01d824f1d4f65d6714bd9d>@@$0A@@std@@V?$allocator@V?$_Func_class@MI@std@@@2@MI@2@I@Z 100ce020 f i PointCoord.obj
 0002:0007c080       ?allocate@?$allocator@V?$_Func_impl@U?$_Callable_obj@V<lambda_f15cf28b79eebeba7dee09e3ec20cd6a>@@$0A@@std@@V?$allocator@V?$_Func_class@MI@std@@@2@MI@std@@@std@@QAEPAV?$_Func_impl@U?$_Callable_obj@V<lambda_f15cf28b79eebeba7dee09e3ec20cd6a>@@$0A@@std@@V?$allocator@V?$_Func_class@MI@std@@@2@MI@2@I@Z 100ce080 f i PointCoord.obj
 0002:0007c0e0       ?allocate@?$allocator@VPoint@Gdiplus@@@std@@QAEPAVPoint@Gdiplus@@I@Z 100ce0e0 f i PointCoord.obj
 0002:0007c140       ?allocate@?$allocator@VPointF@Gdiplus@@@std@@QAEPAVPointF@Gdiplus@@I@Z 100ce140 f i PointCoord.obj
 0002:0007c1a0       ?begin@?$vector@IV?$allocator@_N@std@@@std@@QAE?AV?$_Vector_iterator@V?$_Vector_val@U?$_Simple_types@I@std@@@std@@@2@XZ 100ce1a0 f i PointCoord.obj
 0002:0007c210       ?begin@?$vector@VPointF@Gdiplus@@V?$allocator@VPointF@Gdiplus@@@std@@@std@@QAE?AV?$_Vector_iterator@V?$_Vector_val@U?$_Simple_types@VPointF@Gdiplus@@@std@@@std@@@2@XZ 100ce210 f i PointCoord.obj
 0002:0007c280       ?begin@?$vector@VPointF@Gdiplus@@V?$allocator@VPointF@Gdiplus@@@std@@@std@@QBE?AV?$_Vector_const_iterator@V?$_Vector_val@U?$_Simple_types@VPointF@Gdiplus@@@std@@@std@@@2@XZ 100ce280 f i PointCoord.obj
 0002:0007c2f0       ?begin@?$vector@_NV?$allocator@_N@std@@@std@@QAE?AV?$_Vb_iterator@U?$_Wrap_alloc@V?$allocator@I@std@@@std@@@2@XZ 100ce2f0 f i PointCoord.obj
 0002:0007c360       ?begin@?$vector@_NV?$allocator@_N@std@@@std@@QBE?AV?$_Vb_const_iterator@U?$_Wrap_alloc@V?$allocator@I@std@@@std@@@2@XZ 100ce360 f i PointCoord.obj
 0002:0007c3d0       ?capacity@?$vector@IV?$allocator@_N@std@@@std@@QBEIXZ 100ce3d0 f i PointCoord.obj
 0002:0007c420       ?capacity@?$vector@VPoint@Gdiplus@@V?$allocator@VPoint@Gdiplus@@@std@@@std@@QBEIXZ 100ce420 f i PointCoord.obj
 0002:0007c470       ?capacity@?$vector@VPointF@Gdiplus@@V?$allocator@VPointF@Gdiplus@@@std@@@std@@QBEIXZ 100ce470 f i PointCoord.obj
 0002:0007c4c0       ?capacity@?$vector@_NV?$allocator@_N@std@@@std@@QBEIXZ 100ce4c0 f i PointCoord.obj
 0002:0007c520       ?clear@?$vector@IV?$allocator@_N@std@@@std@@QAEXXZ 100ce520 f i PointCoord.obj
 0002:0007c5b0       ?clear@?$vector@VPoint@Gdiplus@@V?$allocator@VPoint@Gdiplus@@@std@@@std@@QAEXXZ 100ce5b0 f i PointCoord.obj
 0002:0007c640       ?clear@?$vector@VPointF@Gdiplus@@V?$allocator@VPointF@Gdiplus@@@std@@@std@@QAEXXZ 100ce640 f i PointCoord.obj
 0002:0007c6d0       ?clear@?$vector@_NV?$allocator@_N@std@@@std@@QAEXXZ 100ce6d0 f i PointCoord.obj
 0002:0007c7a0       ?construct@?$allocator@VPointF@Gdiplus@@@std@@QAEXPAVPointF@Gdiplus@@ABV34@@Z 100ce7a0 f i PointCoord.obj
 0002:0007c890       ?deallocate@?$_Wrap_alloc@V?$allocator@I@std@@@std@@QAEXPAII@Z 100ce890 f i PointCoord.obj
 0002:0007c8f0       ?deallocate@?$_Wrap_alloc@V?$allocator@VPoint@Gdiplus@@@std@@@std@@QAEXPAVPoint@Gdiplus@@I@Z 100ce8f0 f i PointCoord.obj
 0002:0007c950       ?deallocate@?$_Wrap_alloc@V?$allocator@VPointF@Gdiplus@@@std@@@std@@QAEXPAVPointF@Gdiplus@@I@Z 100ce950 f i PointCoord.obj
 0002:0007c9b0       ?deallocate@?$allocator@I@std@@QAEXPAII@Z 100ce9b0 f i PointCoord.obj
 0002:0007ca10       ?deallocate@?$allocator@V?$_Func_impl@U?$_Callable_obj@V<lambda_660079388d01d824f1d4f65d6714bd9d>@@$0A@@std@@V?$allocator@V?$_Func_class@MI@std@@@2@MI@std@@@std@@QAEXPAV?$_Func_impl@U?$_Callable_obj@V<lambda_660079388d01d824f1d4f65d6714bd9d>@@$0A@@std@@V?$allocator@V?$_Func_class@MI@std@@@2@MI@2@I@Z 100cea10 f i PointCoord.obj
 0002:0007ca70       ?deallocate@?$allocator@V?$_Func_impl@U?$_Callable_obj@V<lambda_f15cf28b79eebeba7dee09e3ec20cd6a>@@$0A@@std@@V?$allocator@V?$_Func_class@MI@std@@@2@MI@std@@@std@@QAEXPAV?$_Func_impl@U?$_Callable_obj@V<lambda_f15cf28b79eebeba7dee09e3ec20cd6a>@@$0A@@std@@V?$allocator@V?$_Func_class@MI@std@@@2@MI@2@I@Z 100cea70 f i PointCoord.obj
 0002:0007cad0       ?deallocate@?$allocator@VPoint@Gdiplus@@@std@@QAEXPAVPoint@Gdiplus@@I@Z 100cead0 f i PointCoord.obj
 0002:0007cb30       ?deallocate@?$allocator@VPointF@Gdiplus@@@std@@QAEXPAVPointF@Gdiplus@@I@Z 100ceb30 f i PointCoord.obj
 0002:0007cb90       ?empty@?$vector@_NV?$allocator@_N@std@@@std@@QBE_NXZ 100ceb90 f i PointCoord.obj
 0002:0007cc10       ?end@?$vector@IV?$allocator@_N@std@@@std@@QAE?AV?$_Vector_iterator@V?$_Vector_val@U?$_Simple_types@I@std@@@std@@@2@XZ 100cec10 f i PointCoord.obj
 0002:0007cc80       ?end@?$vector@VPointF@Gdiplus@@V?$allocator@VPointF@Gdiplus@@@std@@@std@@QAE?AV?$_Vector_iterator@V?$_Vector_val@U?$_Simple_types@VPointF@Gdiplus@@@std@@@std@@@2@XZ 100cec80 f i PointCoord.obj
 0002:0007ccf0       ?end@?$vector@VPointF@Gdiplus@@V?$allocator@VPointF@Gdiplus@@@std@@@std@@QBE?AV?$_Vector_const_iterator@V?$_Vector_val@U?$_Simple_types@VPointF@Gdiplus@@@std@@@std@@@2@XZ 100cecf0 f i PointCoord.obj
 0002:0007cd60       ?end@?$vector@_NV?$allocator@_N@std@@@std@@QAE?AV?$_Vb_iterator@U?$_Wrap_alloc@V?$allocator@I@std@@@std@@@2@XZ 100ced60 f i PointCoord.obj
 0002:0007ce50       ?erase@?$vector@IV?$allocator@_N@std@@@std@@QAE?AV?$_Vector_iterator@V?$_Vector_val@U?$_Simple_types@I@std@@@std@@@2@V?$_Vector_const_iterator@V?$_Vector_val@U?$_Simple_types@I@std@@@std@@@2@0@Z 100cee50 f i PointCoord.obj
 0002:0007d2c0       ?erase@?$vector@_NV?$allocator@_N@std@@@std@@QAE?AV?$_Vb_iterator@U?$_Wrap_alloc@V?$allocator@I@std@@@std@@@2@V?$_Vb_const_iterator@U?$_Wrap_alloc@V?$allocator@I@std@@@std@@@2@0@Z 100cf2c0 f i PointCoord.obj
 0002:0007d7d0       ?fabs@@YAMM@Z              100cf7d0 f i PointCoord.obj
 0002:0007d830       ?get_allocator@?$vector@IV?$allocator@_N@std@@@std@@QBE?AV?$allocator@_N@2@XZ 100cf830 f i PointCoord.obj
 0002:0007d8a0       ?insert@?$vector@_NV?$allocator@_N@std@@@std@@QAE?AV?$_Vb_iterator@U?$_Wrap_alloc@V?$allocator@I@std@@@std@@@2@V?$_Vb_const_iterator@U?$_Wrap_alloc@V?$allocator@I@std@@@std@@@2@AB_N@Z 100cf8a0 f i PointCoord.obj
 0002:0007d9a0       ?max_size@?$_Wrap_alloc@V?$allocator@I@std@@@std@@QBEIXZ 100cf9a0 f i PointCoord.obj
 0002:0007da00       ?max_size@?$_Wrap_alloc@V?$allocator@VPoint@Gdiplus@@@std@@@std@@QBEIXZ 100cfa00 f i PointCoord.obj
 0002:0007da60       ?max_size@?$_Wrap_alloc@V?$allocator@VPointF@Gdiplus@@@std@@@std@@QBEIXZ 100cfa60 f i PointCoord.obj
 0002:0007dac0       ?max_size@?$allocator@I@std@@QBEIXZ 100cfac0 f i PointCoord.obj
 0002:0007db00       ?max_size@?$allocator@VPoint@Gdiplus@@@std@@QBEIXZ 100cfb00 f i PointCoord.obj
 0002:0007db40       ?max_size@?$allocator@VPointF@Gdiplus@@@std@@QBEIXZ 100cfb40 f i PointCoord.obj
 0002:0007db80       ?max_size@?$allocator_traits@V?$allocator@I@std@@@std@@SAIABV?$allocator@I@2@@Z 100cfb80 f i PointCoord.obj
 0002:0007dbd0       ?max_size@?$allocator_traits@V?$allocator@VPoint@Gdiplus@@@std@@@std@@SAIABV?$allocator@VPoint@Gdiplus@@@2@@Z 100cfbd0 f i PointCoord.obj
 0002:0007dc20       ?max_size@?$allocator_traits@V?$allocator@VPointF@Gdiplus@@@std@@@std@@SAIABV?$allocator@VPointF@Gdiplus@@@2@@Z 100cfc20 f i PointCoord.obj
 0002:0007dc70       ?max_size@?$vector@IV?$allocator@_N@std@@@std@@QBEIXZ 100cfc70 f i PointCoord.obj
 0002:0007dcd0       ?max_size@?$vector@VPoint@Gdiplus@@V?$allocator@VPoint@Gdiplus@@@std@@@std@@QBEIXZ 100cfcd0 f i PointCoord.obj
 0002:0007dd30       ?max_size@?$vector@VPointF@Gdiplus@@V?$allocator@VPointF@Gdiplus@@@std@@@std@@QBEIXZ 100cfd30 f i PointCoord.obj
 0002:0007dd90       ?max_size@?$vector@_NV?$allocator@_N@std@@@std@@QBEIXZ 100cfd90 f i PointCoord.obj
 0002:0007de20       ?push_back@?$vector@VPoint@Gdiplus@@V?$allocator@VPoint@Gdiplus@@@std@@@std@@QAEX$$QAVPoint@Gdiplus@@@Z 100cfe20 f i PointCoord.obj
 0002:0007dfc0       ?push_back@?$vector@VPointF@Gdiplus@@V?$allocator@VPointF@Gdiplus@@@std@@@std@@QAEX$$QAVPointF@Gdiplus@@@Z 100cffc0 f i PointCoord.obj
 0002:0007e160       ?push_back@?$vector@VPointF@Gdiplus@@V?$allocator@VPointF@Gdiplus@@@std@@@std@@QAEXABVPointF@Gdiplus@@@Z 100d0160 f i PointCoord.obj
 0002:0007e2f0       ?push_back@?$vector@_NV?$allocator@_N@std@@@std@@QAEXAB_N@Z 100d02f0 f i PointCoord.obj
 0002:0007e410       ?resize@?$vector@IV?$allocator@_N@std@@@std@@QAEXIABI@Z 100d0410 f i PointCoord.obj
 0002:0007e600       ?select_on_container_copy_construction@?$_Wrap_alloc@V?$allocator@VPointF@Gdiplus@@@std@@@std@@QBE?AU12@XZ 100d0600 f i PointCoord.obj
 0002:0007e670       ?select_on_container_copy_construction@?$allocator@VPointF@Gdiplus@@@std@@QBE?AV12@XZ 100d0670 f i PointCoord.obj
 0002:0007e6d0       ?select_on_container_copy_construction@?$allocator_traits@V?$allocator@VPointF@Gdiplus@@@std@@@std@@SA?AV?$allocator@VPointF@Gdiplus@@@2@ABV32@@Z 100d06d0 f i PointCoord.obj
 0002:0007e730       ?size@?$vector@IV?$allocator@_N@std@@@std@@QBEIXZ 100d0730 f i PointCoord.obj
 0002:0007e780       ?size@?$vector@VPoint@Gdiplus@@V?$allocator@VPoint@Gdiplus@@@std@@@std@@QBEIXZ 100d0780 f i PointCoord.obj
 0002:0007e7d0       ?size@?$vector@_NV?$allocator@_N@std@@@std@@QBEIXZ 100d07d0 f i PointCoord.obj
 0002:0007e810       _fabsf                     100d0810 f i PointCoord.obj
 0002:0007e880       ??$NextRead@M@Stream@baro@@QAE?AW4StreamResult@1@AAM@Z 100d0880 f i ISerialize.obj
 0002:0007e980       ??$NextRead@U_GUID@@@Stream@baro@@QAE?AW4StreamResult@1@AAU_GUID@@@Z 100d0980 f i ISerialize.obj
 0002:0007ea80       ??$NextWrite@M@Stream@baro@@QAE?AW4StreamResult@1@ABM@Z 100d0a80 f i ISerialize.obj
 0002:0007eae0       ??$NextWrite@U_GUID@@@Stream@baro@@QAE?AW4StreamResult@1@ABU_GUID@@@Z 100d0ae0 f i ISerialize.obj
 0002:0007eb40       ??0ISerialize@baro@@QAE@XZ 100d0b40 f   ISerialize.obj
 0002:0007ec00       ??1ISerialize@baro@@UAE@XZ 100d0c00 f   ISerialize.obj
 0002:0007ecc0       ??_EISerialize@baro@@UAEPAXI@Z 100d0cc0 f i ISerialize.obj
 0002:0007ed80       ??_GISerialize@baro@@UAEPAXI@Z 100d0d80 f i ISerialize.obj
 0002:0007edf0       ?GetClassGuid@ISerialize@baro@@UBE?AU_GUID@@XZ 100d0df0 f   ISerialize.obj
 0002:0007ee60       ?GetClassVersion@ISerialize@baro@@UBEMXZ 100d0e60 f   ISerialize.obj
 0002:0007eea0       ?GetStreamResultString@baro@@YA?AV?$CStringT@_WV?$StrTraitMFC_DLL@_WV?$ChTraitsCRT@_W@ATL@@@@@ATL@@W4StreamResult@1@@Z 100d0ea0 f   ISerialize.obj
 0002:0007f3b0       ?ReadStream@ISerialize@baro@@QAE?AW4StreamResult@2@AAVStream@2@_N@Z 100d13b0 f   ISerialize.obj
 0002:0007f5d0       ?WriteStream@ISerialize@baro@@QBE?AW4StreamResult@2@AAVStream@2@_N@Z 100d15d0 f   ISerialize.obj
 0002:0007f720       ??$?8V?$allocator@VCRect@@@std@@V01@@std@@YA_NABU?$_Wrap_alloc@V?$allocator@VCRect@@@std@@@0@0@Z 100d1720 f i MonitorInfo.obj
 0002:0007f790       ??$?8VCRect@@V0@@std@@YA_NABV?$allocator@VCRect@@@0@0@Z 100d1790 f i MonitorInfo.obj
 0002:0007f7c0       ??$?9V?$allocator@VCRect@@@std@@V01@@std@@YA_NABU?$_Wrap_alloc@V?$allocator@VCRect@@@std@@@0@0@Z 100d17c0 f i MonitorInfo.obj
 0002:0007f840       ??$_Copy_impl@PAVCRect@@PAV1@@std@@YAPAVCRect@@PAV1@00@Z 100d1840 f i MonitorInfo.obj
 0002:0007f8c0       ??$_Copy_impl@PAVCRect@@PAV1@@std@@YAPAVCRect@@PAV1@00U_Nonscalar_ptr_iterator_tag@0@@Z 100d18c0 f i MonitorInfo.obj
 0002:0007f940       ??$_Ucopy@PAVCRect@@@?$vector@VCRect@@V?$allocator@VCRect@@@std@@@std@@IAEPAVCRect@@PAV2@00@Z 100d1940 f i MonitorInfo.obj
 0002:0007fa10       ??$_Uninit_copy@PAVCRect@@PAV1@U?$_Wrap_alloc@V?$allocator@VCRect@@@std@@@std@@@std@@YAPAVCRect@@PAV1@00AAU?$_Wrap_alloc@V?$allocator@VCRect@@@std@@@0@@Z 100d1a10 f i MonitorInfo.obj
 0002:0007faa0       ??$_Uninit_copy@PAVCRect@@PAV1@V?$allocator@VCRect@@@std@@@std@@YAPAVCRect@@PAV1@00AAU?$_Wrap_alloc@V?$allocator@VCRect@@@std@@@0@U_Nonscalar_ptr_iterator_tag@0@@Z 100d1aa0 f i MonitorInfo.obj
 0002:0007fc00       ??$_Uninitialized_copy@PAVCRect@@PAV1@U?$_Wrap_alloc@V?$allocator@VCRect@@@std@@@std@@@std@@YAPAVCRect@@PAV1@00AAU?$_Wrap_alloc@V?$allocator@VCRect@@@std@@@0@@Z 100d1c00 f i MonitorInfo.obj
 0002:0007fca0       ??$construct@VCRect@@AAV1@@?$_Wrap_alloc@V?$allocator@VCRect@@@std@@@std@@QAEXPAVCRect@@AAV2@@Z 100d1ca0 f i MonitorInfo.obj
 0002:0007fd10       ??$construct@VCRect@@AAV1@@?$allocator@VCRect@@@std@@QAEXPAVCRect@@AAV2@@Z 100d1d10 f i MonitorInfo.obj
 0002:0007fe20       ??$construct@VCRect@@AAV1@@?$allocator_traits@V?$allocator@VCRect@@@std@@@std@@SAXAAV?$allocator@VCRect@@@1@PAVCRect@@AAV3@@Z 100d1e20 f i MonitorInfo.obj
 0002:0007fe80       ??$forward@AAVCRect@@@std@@YAAAVCRect@@AAV1@@Z 100d1e80 f i MonitorInfo.obj
 0002:0007fec0       ??0?$_Iterator012@Urandom_access_iterator_tag@std@@VCRect@@HPBV3@ABV3@U_Iterator_base12@2@@std@@QAE@XZ 100d1ec0 f i MonitorInfo.obj
 0002:0007ff20       ??0?$_Vector_alloc@$0A@U?$_Vec_base_types@VCRect@@V?$allocator@VCRect@@@std@@@std@@@std@@QAE@ABV?$allocator@VCRect@@@1@@Z 100d1f20 f i MonitorInfo.obj
 0002:0007ffd0       ??0?$_Vector_const_iterator@V?$_Vector_val@U?$_Simple_types@VCRect@@@std@@@std@@@std@@QAE@PAVCRect@@PBU_Container_base12@1@@Z 100d1fd0 f i MonitorInfo.obj
 0002:00080090       ??0?$_Vector_iterator@V?$_Vector_val@U?$_Simple_types@VCRect@@@std@@@std@@@std@@QAE@PAVCRect@@PBU_Container_base12@1@@Z 100d2090 f i MonitorInfo.obj
 0002:000800f0       ??0?$_Vector_val@U?$_Simple_types@VCRect@@@std@@@std@@QAE@XZ 100d20f0 f i MonitorInfo.obj
 0002:00080180       ??0?$allocator@VCRect@@@std@@QAE@ABV01@@Z 100d2180 f i MonitorInfo.obj
 0002:000801c0       ??0?$vector@VCRect@@V?$allocator@VCRect@@@std@@@std@@QAE@XZ 100d21c0 f i MonitorInfo.obj
 0002:00080230       ??0MonitorInfo@baro@@QAE@ABV01@@Z 100d2230 f   MonitorInfo.obj
 0002:00080340       ??0MonitorInfo@baro@@QAE@XZ 100d2340 f   MonitorInfo.obj
 0002:00080440       ??1?$_Iterator012@Urandom_access_iterator_tag@std@@VCRect@@HPBV3@ABV3@U_Iterator_base12@2@@std@@QAE@XZ 100d2440 f i MonitorInfo.obj
 0002:00080490       ??1?$_Vector_alloc@$0A@U?$_Vec_base_types@VCRect@@V?$allocator@VCRect@@@std@@@std@@@std@@QAE@XZ 100d2490 f i MonitorInfo.obj
 0002:000804f0       ??1?$_Vector_const_iterator@V?$_Vector_val@U?$_Simple_types@VCRect@@@std@@@std@@@std@@QAE@XZ 100d24f0 f i MonitorInfo.obj
 0002:00080540       ??1?$_Vector_iterator@V?$_Vector_val@U?$_Simple_types@VCRect@@@std@@@std@@@std@@QAE@XZ 100d2540 f i MonitorInfo.obj
 0002:00080590       ??1?$_Vector_val@U?$_Simple_types@VCRect@@@std@@@std@@QAE@XZ 100d2590 f i MonitorInfo.obj
 0002:000805f0       ??1?$vector@VCRect@@V?$allocator@VCRect@@@std@@@std@@QAE@XZ 100d25f0 f i MonitorInfo.obj
 0002:00080650       ??1MonitorInfo@baro@@QAE@XZ 100d2650 f   MonitorInfo.obj
 0002:00080710       ??4?$vector@VCRect@@V?$allocator@VCRect@@@std@@@std@@QAEAAV01@ABV01@@Z 100d2710 f i MonitorInfo.obj
 0002:00080a40       ??4MonitorInfo@baro@@QAEAAV01@ABV01@@Z 100d2a40 f i MonitorInfo.obj
 0002:00080b60       ??8?$_Vector_const_iterator@V?$_Vector_val@U?$_Simple_types@VCRect@@@std@@@std@@@std@@QBE_NABV01@@Z 100d2b60 f i MonitorInfo.obj
 0002:00080bf0       ??9?$_Vector_const_iterator@V?$_Vector_val@U?$_Simple_types@VCRect@@@std@@@std@@@std@@QBE_NABV01@@Z 100d2bf0 f i MonitorInfo.obj
 0002:00080c80       ??A?$vector@VCRect@@V?$allocator@VCRect@@@std@@@std@@QAEAAVCRect@@I@Z 100d2c80 f i MonitorInfo.obj
 0002:00080da0       ??D?$_Vector_const_iterator@V?$_Vector_val@U?$_Simple_types@VCRect@@@std@@@std@@@std@@QBEABVCRect@@XZ 100d2da0 f i MonitorInfo.obj
 0002:00080ee0       ??D?$_Vector_iterator@V?$_Vector_val@U?$_Simple_types@VCRect@@@std@@@std@@@std@@QBEAAVCRect@@XZ 100d2ee0 f i MonitorInfo.obj
 0002:00080f30       ??E?$_Vector_const_iterator@V?$_Vector_val@U?$_Simple_types@VCRect@@@std@@@std@@@std@@QAEAAV01@XZ 100d2f30 f i MonitorInfo.obj
 0002:00081060       ??E?$_Vector_iterator@V?$_Vector_val@U?$_Simple_types@VCRect@@@std@@@std@@@std@@QAEAAV01@XZ 100d3060 f i MonitorInfo.obj
 0002:000810c0       ?BottomRight@CRect@@QAEAAVCPoint@@XZ 100d30c0 f i MonitorInfo.obj
 0002:00081100       ?IsRectInMonitorArea@MonitorInfo@baro@@QAEXVCRect@@AA_N111@Z 100d3100 f   MonitorInfo.obj
 0002:00081340       ?IsRectInMonitorAreaEx@MonitorInfo@baro@@QAEXVCRect@@AA_N111@Z 100d3340 f   MonitorInfo.obj
 0002:000816f0       ?Print@MonitorInfo@baro@@QAEXXZ 100d36f0 f   MonitorInfo.obj
 0002:000819d0       ?PtInRect@CRect@@QBEHUtagPOINT@@@Z 100d39d0 f i MonitorInfo.obj
 0002:00081a40       ?Reset@MonitorInfo@baro@@QAEXPAUtagRECT@@@Z 100d3a40 f   MonitorInfo.obj
 0002:00081b30       ?TopLeft@CRect@@QAEAAVCPoint@@XZ 100d3b30 f i MonitorInfo.obj
 0002:00081b70       ?_Alloc_proxy@?$_Vector_alloc@$0A@U?$_Vec_base_types@VCRect@@V?$allocator@VCRect@@@std@@@std@@@std@@QAEXXZ 100d3b70 f i MonitorInfo.obj
 0002:00081c60       ?_Buy@?$vector@VCRect@@V?$allocator@VCRect@@@std@@@std@@IAE_NI@Z 100d3c60 f i MonitorInfo.obj
 0002:00081d50       ?_Change_alloc@?$_Vector_alloc@$0A@U?$_Vec_base_types@VCRect@@V?$allocator@VCRect@@@std@@@std@@@std@@QAEXABU?$_Wrap_alloc@V?$allocator@VCRect@@@std@@@2@@Z 100d3d50 f i MonitorInfo.obj
 0002:00081d90       ?_Compat@?$_Vector_const_iterator@V?$_Vector_val@U?$_Simple_types@VCRect@@@std@@@std@@@std@@QBEXABV12@@Z 100d3d90 f i MonitorInfo.obj
 0002:00081eb0       ?_Free_proxy@?$_Vector_alloc@$0A@U?$_Vec_base_types@VCRect@@V?$allocator@VCRect@@@std@@@std@@@std@@QAEXXZ 100d3eb0 f i MonitorInfo.obj
 0002:00081fa0       ?_Tidy@?$vector@VCRect@@V?$allocator@VCRect@@@std@@@std@@IAEXXZ 100d3fa0 f i MonitorInfo.obj
 0002:00082080       ?__autoclassinit2@?$_Vector_iterator@V?$_Vector_val@U?$_Simple_types@VCRect@@@std@@@std@@@std@@QAEXI@Z 100d4080 f i MonitorInfo.obj
 0002:000820e0       ?begin@?$vector@VCRect@@V?$allocator@VCRect@@@std@@@std@@QAE?AV?$_Vector_iterator@V?$_Vector_val@U?$_Simple_types@VCRect@@@std@@@std@@@2@XZ 100d40e0 f i MonitorInfo.obj
 0002:00082150       ?clear@?$vector@VCRect@@V?$allocator@VCRect@@@std@@@std@@QAEXXZ 100d4150 f i MonitorInfo.obj
 0002:000821e0       ?empty@?$vector@VCRect@@V?$allocator@VCRect@@@std@@@std@@QBE_NXZ 100d41e0 f i MonitorInfo.obj
 0002:00082250       ?end@?$vector@VCRect@@V?$allocator@VCRect@@@std@@@std@@QAE?AV?$_Vector_iterator@V?$_Vector_val@U?$_Simple_types@VCRect@@@std@@@std@@@2@XZ 100d4250 f i MonitorInfo.obj
 0002:000822c0       ??0?$TSingleton@$$CBVSystemInfo@baro@@@baro@@IAE@XZ 100d42c0 f i SystemInfo.obj
 0002:00082380       ??0SystemInfo@baro@@QAE@U_token@?$TSingleton@$$CBVSystemInfo@baro@@@1@@Z 100d4380 f   SystemInfo.obj
 0002:00082ed0       ??1?$TSingleton@$$CBVSystemInfo@baro@@@baro@@MAE@XZ 100d4ed0 f i SystemInfo.obj
 0002:00082f90       ??1SystemInfo@baro@@UAE@XZ 100d4f90 f   SystemInfo.obj
 0002:00083200       ??_E?$TSingleton@$$CBVSystemInfo@baro@@@baro@@MAEPAXI@Z 100d5200 f i SystemInfo.obj
 0002:000832c0       ??_ESystemInfo@baro@@UAEPAXI@Z 100d52c0 f i SystemInfo.obj
 0002:00083380       ??_GSystemInfo@baro@@UAEPAXI@Z 100d5380 f i SystemInfo.obj
 0002:000833f0       ?InitOsInfo@SystemInfo@baro@@AAEXXZ 100d53f0 f   SystemInfo.obj
 0002:00083b40       ??$?0AAU?$_Callable_obj@V<lambda_187152e110f699ad5b1ab81533769cf2>@@$0A@@std@@@?$_Callable_obj@V<lambda_187152e110f699ad5b1ab81533769cf2>@@$0A@@std@@QAE@AAU01@@Z 100d5b40 f i stdafx.obj
 0002:00083bb0       ??$?0AAU?$_Callable_obj@V<lambda_5c9231035f6c38fca048a0864a8210ea>@@$0A@@std@@@?$_Callable_obj@V<lambda_5c9231035f6c38fca048a0864a8210ea>@@$0A@@std@@QAE@AAU01@@Z 100d5bb0 f i stdafx.obj
 0002:00083c20       ??$?0AAU?$_Callable_obj@V<lambda_71f23d2cacd049d0fc44bb672969fbab>@@$0A@@std@@@?$_Callable_obj@V<lambda_71f23d2cacd049d0fc44bb672969fbab>@@$0A@@std@@QAE@AAU01@@Z 100d5c20 f i stdafx.obj
 0002:00083c90       ??$?0AAU?$_Callable_obj@V<lambda_740eeb7a2f1d2c38bf9d2a55ba51dd10>@@$0A@@std@@@?$_Callable_obj@V<lambda_740eeb7a2f1d2c38bf9d2a55ba51dd10>@@$0A@@std@@QAE@AAU01@@Z 100d5c90 f i stdafx.obj
 0002:00083d00       ??$?0AAU?$_Callable_obj@V<lambda_75f487c1c530e75cedd270693ab9589c>@@$0A@@std@@@?$_Callable_obj@V<lambda_75f487c1c530e75cedd270693ab9589c>@@$0A@@std@@QAE@AAU01@@Z 100d5d00 f i stdafx.obj
 0002:00083d70       ??$?0AAU?$_Callable_obj@V<lambda_e76177b2965f6f295be7c5f96021c124>@@$0A@@std@@@?$_Callable_obj@V<lambda_e76177b2965f6f295be7c5f96021c124>@@$0A@@std@@QAE@AAU01@@Z 100d5d70 f i stdafx.obj
 0002:00083de0       ??$?0AAV?$CStringT@_WV?$StrTraitMFC_DLL@_WV?$ChTraitsCRT@_W@ATL@@@@@ATL@@AAV01@X@?$pair@V?$CStringT@_WV?$StrTraitMFC_DLL@_WV?$ChTraitsCRT@_W@ATL@@@@@ATL@@V12@@std@@QAE@AAV?$CStringT@_WV?$StrTraitMFC_DLL@_WV?$ChTraitsCRT@_W@ATL@@@@@ATL@@0@Z 100d5de0 f i stdafx.obj
 0002:00083ed0       ??$?0AAV?$_Tree_iterator@V?$_Tree_val@U?$_Tree_simple_types@U?$pair@$$CBV?$CStringT@_WV?$StrTraitMFC_DLL@_WV?$ChTraitsCRT@_W@ATL@@@@@ATL@@V12@@std@@@std@@@std@@@std@@_NX@?$pair@V?$_Tree_iterator@V?$_Tree_val@U?$_Tree_simple_types@U?$pair@$$CBV?$CStringT@_WV?$StrTraitMFC_DLL@_WV?$ChTraitsCRT@_W@ATL@@@@@ATL@@V12@@std@@@std@@@std@@@std@@_N@std@@QAE@AAV?$_Tree_iterator@V?$_Tree_val@U?$_Tree_simple_types@U?$pair@$$CBV?$CStringT@_WV?$StrTraitMFC_DLL@_WV?$ChTraitsCRT@_W@ATL@@@@@ATL@@V12@@std@@@std@@@std@@@1@$$QA_N@Z 100d5ed0 f i stdafx.obj
 0002:00083fa0       ??$?0U?$_Callable_obj@V<lambda_187152e110f699ad5b1ab81533769cf2>@@$0A@@std@@@?$_Callable_obj@V<lambda_187152e110f699ad5b1ab81533769cf2>@@$0A@@std@@QAE@$$QAU01@@Z 100d5fa0 f i stdafx.obj
 0002:00084010       ??$?0U?$_Callable_obj@V<lambda_5c9231035f6c38fca048a0864a8210ea>@@$0A@@std@@@?$_Callable_obj@V<lambda_5c9231035f6c38fca048a0864a8210ea>@@$0A@@std@@QAE@$$QAU01@@Z 100d6010 f i stdafx.obj
 0002:00084080       ??$?0U?$_Callable_obj@V<lambda_71f23d2cacd049d0fc44bb672969fbab>@@$0A@@std@@@?$_Callable_obj@V<lambda_71f23d2cacd049d0fc44bb672969fbab>@@$0A@@std@@QAE@$$QAU01@@Z 100d6080 f i stdafx.obj
 0002:000840f0       ??$?0U?$_Callable_obj@V<lambda_740eeb7a2f1d2c38bf9d2a55ba51dd10>@@$0A@@std@@@?$_Callable_obj@V<lambda_740eeb7a2f1d2c38bf9d2a55ba51dd10>@@$0A@@std@@QAE@$$QAU01@@Z 100d60f0 f i stdafx.obj
 0002:00084160       ??$?0U?$_Callable_obj@V<lambda_75f487c1c530e75cedd270693ab9589c>@@$0A@@std@@@?$_Callable_obj@V<lambda_75f487c1c530e75cedd270693ab9589c>@@$0A@@std@@QAE@$$QAU01@@Z 100d6160 f i stdafx.obj
 0002:000841d0       ??$?0U?$_Callable_obj@V<lambda_e76177b2965f6f295be7c5f96021c124>@@$0A@@std@@@?$_Callable_obj@V<lambda_e76177b2965f6f295be7c5f96021c124>@@$0A@@std@@QAE@$$QAU01@@Z 100d61d0 f i stdafx.obj
 0002:00084240       ??$?0U?$_Tree_node@U?$pair@$$CBHVColor@Gdiplus@@@std@@PAX@std@@@?$allocator@U?$pair@$$CBHVColor@Gdiplus@@@std@@@std@@QAE@ABV?$allocator@U?$_Tree_node@U?$pair@$$CBHVColor@Gdiplus@@@std@@PAX@std@@@1@@Z 100d6240 f i stdafx.obj
 0002:00084280       ??$?0V<lambda_187152e110f699ad5b1ab81533769cf2>@@@?$_Callable_obj@V<lambda_187152e110f699ad5b1ab81533769cf2>@@$0A@@std@@QAE@$$QAV<lambda_187152e110f699ad5b1ab81533769cf2>@@@Z 100d6280 f i stdafx.obj
 0002:000842f0       ??$?0V<lambda_187152e110f699ad5b1ab81533769cf2>@@@?$function@$$A6A?AW4StreamResult@baro@@ABV?$CStringT@_WV?$StrTraitMFC_DLL@_WV?$ChTraitsCRT@_W@ATL@@@@@ATL@@@Z@std@@QAE@$$QAV<lambda_187152e110f699ad5b1ab81533769cf2>@@@Z 100d62f0 f i stdafx.obj
 0002:000843b0       ??$?0V<lambda_5c9231035f6c38fca048a0864a8210ea>@@@?$_Callable_obj@V<lambda_5c9231035f6c38fca048a0864a8210ea>@@$0A@@std@@QAE@$$QAV<lambda_5c9231035f6c38fca048a0864a8210ea>@@@Z 100d63b0 f i stdafx.obj
 0002:00084420       ??$?0V<lambda_5c9231035f6c38fca048a0864a8210ea>@@@?$function@$$A6A?AW4StreamResult@baro@@AAV?$CStringT@_WV?$StrTraitMFC_DLL@_WV?$ChTraitsCRT@_W@ATL@@@@@ATL@@@Z@std@@QAE@$$QAV<lambda_5c9231035f6c38fca048a0864a8210ea>@@@Z 100d6420 f i stdafx.obj
 0002:000844e0       ??$?0V<lambda_71f23d2cacd049d0fc44bb672969fbab>@@@?$_Callable_obj@V<lambda_71f23d2cacd049d0fc44bb672969fbab>@@$0A@@std@@QAE@$$QAV<lambda_71f23d2cacd049d0fc44bb672969fbab>@@@Z 100d64e0 f i stdafx.obj
 0002:00084550       ??$?0V<lambda_71f23d2cacd049d0fc44bb672969fbab>@@@?$function@$$A6A?AW4StreamResult@baro@@AAV?$CStringT@_WV?$StrTraitMFC_DLL@_WV?$ChTraitsCRT@_W@ATL@@@@@ATL@@@Z@std@@QAE@$$QAV<lambda_71f23d2cacd049d0fc44bb672969fbab>@@@Z 100d6550 f i stdafx.obj
 0002:00084610       ??$?0V<lambda_740eeb7a2f1d2c38bf9d2a55ba51dd10>@@@?$_Callable_obj@V<lambda_740eeb7a2f1d2c38bf9d2a55ba51dd10>@@$0A@@std@@QAE@$$QAV<lambda_740eeb7a2f1d2c38bf9d2a55ba51dd10>@@@Z 100d6610 f i stdafx.obj
 0002:00084680       ??$?0V<lambda_740eeb7a2f1d2c38bf9d2a55ba51dd10>@@@?$function@$$A6A?AW4StreamResult@baro@@ABV?$CStringT@_WV?$StrTraitMFC_DLL@_WV?$ChTraitsCRT@_W@ATL@@@@@ATL@@@Z@std@@QAE@$$QAV<lambda_740eeb7a2f1d2c38bf9d2a55ba51dd10>@@@Z 100d6680 f i stdafx.obj
 0002:00084740       ??$?0V<lambda_75f487c1c530e75cedd270693ab9589c>@@@?$_Callable_obj@V<lambda_75f487c1c530e75cedd270693ab9589c>@@$0A@@std@@QAE@$$QAV<lambda_75f487c1c530e75cedd270693ab9589c>@@@Z 100d6740 f i stdafx.obj
 0002:000847b0       ??$?0V<lambda_75f487c1c530e75cedd270693ab9589c>@@@?$function@$$A6A?AW4StreamResult@baro@@ABV?$CStringT@_WV?$StrTraitMFC_DLL@_WV?$ChTraitsCRT@_W@ATL@@@@@ATL@@@Z@std@@QAE@$$QAV<lambda_75f487c1c530e75cedd270693ab9589c>@@@Z 100d67b0 f i stdafx.obj
 0002:00084870       ??$?0V<lambda_e76177b2965f6f295be7c5f96021c124>@@@?$_Callable_obj@V<lambda_e76177b2965f6f295be7c5f96021c124>@@$0A@@std@@QAE@$$QAV<lambda_e76177b2965f6f295be7c5f96021c124>@@@Z 100d6870 f i stdafx.obj
 0002:000848e0       ??$?0V<lambda_e76177b2965f6f295be7c5f96021c124>@@@?$function@$$A6A?AW4StreamResult@baro@@AAV?$CStringT@_WV?$StrTraitMFC_DLL@_WV?$ChTraitsCRT@_W@ATL@@@@@ATL@@@Z@std@@QAE@$$QAV<lambda_e76177b2965f6f295be7c5f96021c124>@@@Z 100d68e0 f i stdafx.obj
 0002:000849a0       ??$?0V?$CStringT@_WV?$StrTraitMFC_DLL@_WV?$ChTraitsCRT@_W@ATL@@@@@ATL@@V01@X@?$pair@$$CBV?$CStringT@_WV?$StrTraitMFC_DLL@_WV?$ChTraitsCRT@_W@ATL@@@@@ATL@@V12@@std@@QAE@$$QAU?$pair@V?$CStringT@_WV?$StrTraitMFC_DLL@_WV?$ChTraitsCRT@_W@ATL@@@@@ATL@@V12@@1@@Z 100d69a0 f i stdafx.obj
 0002:00084a90       ??$?0V?$_Func_class@W4StreamResult@baro@@AAV?$CStringT@_WV?$StrTraitMFC_DLL@_WV?$ChTraitsCRT@_W@ATL@@@@@ATL@@@std@@@?$allocator@V?$_Func_impl@U?$_Callable_obj@V<lambda_5c9231035f6c38fca048a0864a8210ea>@@$0A@@std@@V?$allocator@V?$_Func_class@W4StreamResult@baro@@AAV?$CStringT@_WV?$StrTraitMFC_DLL@_WV?$ChTraitsCRT@_W@ATL@@@@@ATL@@@std@@@2@W4StreamResult@baro@@AAV?$CStringT@_WV?$StrTraitMFC_DLL@_WV?$ChTraitsCRT@_W@ATL@@@@@ATL@@@std@@@std@@QAE@ABV?$allocator@V?$_Func_class@W4StreamResult@baro@@AAV?$CStringT@_WV?$StrTraitMFC_DLL@_WV?$ChTraitsCRT@_W@ATL@@@@@ATL@@@std@@@1@@Z 100d6a90 f i stdafx.obj
 0002:00084ad0       ??$?0V?$_Func_class@W4StreamResult@baro@@AAV?$CStringT@_WV?$StrTraitMFC_DLL@_WV?$ChTraitsCRT@_W@ATL@@@@@ATL@@@std@@@?$allocator@V?$_Func_impl@U?$_Callable_obj@V<lambda_71f23d2cacd049d0fc44bb672969fbab>@@$0A@@std@@V?$allocator@V?$_Func_class@W4StreamResult@baro@@AAV?$CStringT@_WV?$StrTraitMFC_DLL@_WV?$ChTraitsCRT@_W@ATL@@@@@ATL@@@std@@@2@W4StreamResult@baro@@AAV?$CStringT@_WV?$StrTraitMFC_DLL@_WV?$ChTraitsCRT@_W@ATL@@@@@ATL@@@std@@@std@@QAE@ABV?$allocator@V?$_Func_class@W4StreamResult@baro@@AAV?$CStringT@_WV?$StrTraitMFC_DLL@_WV?$ChTraitsCRT@_W@ATL@@@@@ATL@@@std@@@1@@Z 100d6ad0 f i stdafx.obj
 0002:00084b10       ??$?0V?$_Func_class@W4StreamResult@baro@@AAV?$CStringT@_WV?$StrTraitMFC_DLL@_WV?$ChTraitsCRT@_W@ATL@@@@@ATL@@@std@@@?$allocator@V?$_Func_impl@U?$_Callable_obj@V<lambda_e76177b2965f6f295be7c5f96021c124>@@$0A@@std@@V?$allocator@V?$_Func_class@W4StreamResult@baro@@AAV?$CStringT@_WV?$StrTraitMFC_DLL@_WV?$ChTraitsCRT@_W@ATL@@@@@ATL@@@std@@@2@W4StreamResult@baro@@AAV?$CStringT@_WV?$StrTraitMFC_DLL@_WV?$ChTraitsCRT@_W@ATL@@@@@ATL@@@std@@@std@@QAE@ABV?$allocator@V?$_Func_class@W4StreamResult@baro@@AAV?$CStringT@_WV?$StrTraitMFC_DLL@_WV?$ChTraitsCRT@_W@ATL@@@@@ATL@@@std@@@1@@Z 100d6b10 f i stdafx.obj
 0002:00084b50       ??$?0V?$_Func_class@W4StreamResult@baro@@ABV?$CStringT@_WV?$StrTraitMFC_DLL@_WV?$ChTraitsCRT@_W@ATL@@@@@ATL@@@std@@@?$allocator@V?$_Func_impl@U?$_Callable_obj@V<lambda_187152e110f699ad5b1ab81533769cf2>@@$0A@@std@@V?$allocator@V?$_Func_class@W4StreamResult@baro@@ABV?$CStringT@_WV?$StrTraitMFC_DLL@_WV?$ChTraitsCRT@_W@ATL@@@@@ATL@@@std@@@2@W4StreamResult@baro@@ABV?$CStringT@_WV?$StrTraitMFC_DLL@_WV?$ChTraitsCRT@_W@ATL@@@@@ATL@@@std@@@std@@QAE@ABV?$allocator@V?$_Func_class@W4StreamResult@baro@@ABV?$CStringT@_WV?$StrTraitMFC_DLL@_WV?$ChTraitsCRT@_W@ATL@@@@@ATL@@@std@@@1@@Z 100d6b50 f i stdafx.obj
 0002:00084b90       ??$?0V?$_Func_class@W4StreamResult@baro@@ABV?$CStringT@_WV?$StrTraitMFC_DLL@_WV?$ChTraitsCRT@_W@ATL@@@@@ATL@@@std@@@?$allocator@V?$_Func_impl@U?$_Callable_obj@V<lambda_740eeb7a2f1d2c38bf9d2a55ba51dd10>@@$0A@@std@@V?$allocator@V?$_Func_class@W4StreamResult@baro@@ABV?$CStringT@_WV?$StrTraitMFC_DLL@_WV?$ChTraitsCRT@_W@ATL@@@@@ATL@@@std@@@2@W4StreamResult@baro@@ABV?$CStringT@_WV?$StrTraitMFC_DLL@_WV?$ChTraitsCRT@_W@ATL@@@@@ATL@@@std@@@std@@QAE@ABV?$allocator@V?$_Func_class@W4StreamResult@baro@@ABV?$CStringT@_WV?$StrTraitMFC_DLL@_WV?$ChTraitsCRT@_W@ATL@@@@@ATL@@@std@@@1@@Z 100d6b90 f i stdafx.obj
 0002:00084bd0       ??$?0V?$_Func_class@W4StreamResult@baro@@ABV?$CStringT@_WV?$StrTraitMFC_DLL@_WV?$ChTraitsCRT@_W@ATL@@@@@ATL@@@std@@@?$allocator@V?$_Func_impl@U?$_Callable_obj@V<lambda_75f487c1c530e75cedd270693ab9589c>@@$0A@@std@@V?$allocator@V?$_Func_class@W4StreamResult@baro@@ABV?$CStringT@_WV?$StrTraitMFC_DLL@_WV?$ChTraitsCRT@_W@ATL@@@@@ATL@@@std@@@2@W4StreamResult@baro@@ABV?$CStringT@_WV?$StrTraitMFC_DLL@_WV?$ChTraitsCRT@_W@ATL@@@@@ATL@@@std@@@std@@QAE@ABV?$allocator@V?$_Func_class@W4StreamResult@baro@@ABV?$CStringT@_WV?$StrTraitMFC_DLL@_WV?$ChTraitsCRT@_W@ATL@@@@@ATL@@@std@@@1@@Z 100d6bd0 f i stdafx.obj
 0002:00084c10       ??$?0V?$_Tree_iterator@V?$_Tree_val@U?$_Tree_simple_types@U?$pair@$$CBV?$CStringT@_WV?$StrTraitMFC_DLL@_WV?$ChTraitsCRT@_W@ATL@@@@@ATL@@V12@@std@@@std@@@std@@@std@@_NX@?$pair@V?$_Tree_iterator@V?$_Tree_val@U?$_Tree_simple_types@U?$pair@$$CBV?$CStringT@_WV?$StrTraitMFC_DLL@_WV?$ChTraitsCRT@_W@ATL@@@@@ATL@@V12@@std@@@std@@@std@@@std@@_N@std@@QAE@$$QAV?$_Tree_iterator@V?$_Tree_val@U?$_Tree_simple_types@U?$pair@$$CBV?$CStringT@_WV?$StrTraitMFC_DLL@_WV?$ChTraitsCRT@_W@ATL@@@@@ATL@@V12@@std@@@std@@@std@@@1@$$QA_N@Z 100d6c10 f i stdafx.obj
 0002:00084ce0       ??$?8II@std@@YA_NABV?$allocator@I@0@0@Z 100d6ce0 f i stdafx.obj
 0002:00084d10       ??$?8U?$_Tree_node@U?$pair@$$CBHVColor@Gdiplus@@@std@@PAX@std@@U01@@std@@YA_NABV?$allocator@U?$_Tree_node@U?$pair@$$CBHVColor@Gdiplus@@@std@@PAX@std@@@0@0@Z 100d6d10 f i stdafx.obj
 0002:00084d40       ??$?8V?$allocator@I@std@@V01@@std@@YA_NABU?$_Wrap_alloc@V?$allocator@I@std@@@0@0@Z 100d6d40 f i stdafx.obj
 0002:00084db0       ??$?8V?$allocator@U?$_Tree_node@U?$pair@$$CBHVColor@Gdiplus@@@std@@PAX@std@@@std@@V01@@std@@YA_NABU?$_Wrap_alloc@V?$allocator@U?$_Tree_node@U?$pair@$$CBHVColor@Gdiplus@@@std@@PAX@std@@@std@@@0@0@Z 100d6db0 f i stdafx.obj
 0002:00084e20       ??$?8V?$allocator@VPointF@Gdiplus@@@std@@V01@@std@@YA_NABU?$_Wrap_alloc@V?$allocator@VPointF@Gdiplus@@@std@@@0@0@Z 100d6e20 f i stdafx.obj
 0002:00084e90       ??$?8VPointF@Gdiplus@@V01@@std@@YA_NABV?$allocator@VPointF@Gdiplus@@@0@0@Z 100d6e90 f i stdafx.obj
 0002:00084ec0       ??$?9V?$allocator@I@std@@V01@@std@@YA_NABU?$_Wrap_alloc@V?$allocator@I@std@@@0@0@Z 100d6ec0 f i stdafx.obj
 0002:00084f40       ??$?9V?$allocator@U?$_Tree_node@U?$pair@$$CBHVColor@Gdiplus@@@std@@PAX@std@@@std@@V01@@std@@YA_NABU?$_Wrap_alloc@V?$allocator@U?$_Tree_node@U?$pair@$$CBHVColor@Gdiplus@@@std@@PAX@std@@@std@@@0@0@Z 100d6f40 f i stdafx.obj
 0002:00084fc0       ??$?9V?$allocator@VPointF@Gdiplus@@@std@@V01@@std@@YA_NABU?$_Wrap_alloc@V?$allocator@VPointF@Gdiplus@@@std@@@0@0@Z 100d6fc0 f i stdafx.obj
 0002:00085040       ??$AtlAdd@H@ATL@@YAJPAHHH@Z 100d7040 f i stdafx.obj
 0002:000850c0       ??$AtlAdd@I@ATL@@YAJPAIII@Z 100d70c0 f i stdafx.obj
 0002:00085130       ??$AtlAdd@K@ATL@@YAJPAKKK@Z 100d7130 f i stdafx.obj
 0002:000851a0       ??$AtlAlignUp@H@ATL@@YGHHK@Z 100d71a0 f i stdafx.obj
 0002:000851f0       ??$AtlMultiply@K@ATL@@YAJPAKKK@Z 100d71f0 f i stdafx.obj
 0002:00085270       ??$NextRead@I@Stream@baro@@QAE?AW4StreamResult@1@AAI@Z 100d7270 f i stdafx.obj
 0002:00085370       ??$NextReadMap@V?$CStringT@_WV?$StrTraitMFC_DLL@_WV?$ChTraitsCRT@_W@ATL@@@@@ATL@@V12@@Stream@baro@@AAE?AW4StreamResult@1@AAV?$map@V?$CStringT@_WV?$StrTraitMFC_DLL@_WV?$ChTraitsCRT@_W@ATL@@@@@ATL@@V12@U?$less@V?$CStringT@_WV?$StrTraitMFC_DLL@_WV?$ChTraitsCRT@_W@ATL@@@@@ATL@@@std@@V?$allocator@U?$pair@$$CBV?$CStringT@_WV?$StrTraitMFC_DLL@_WV?$ChTraitsCRT@_W@ATL@@@@@ATL@@V12@@std@@@4@@std@@V?$function@$$A6A?AW4StreamResult@baro@@AAV?$CStringT@_WV?$StrTraitMFC_DLL@_WV?$ChTraitsCRT@_W@ATL@@@@@ATL@@@Z@4@1@Z 100d7370 f i stdafx.obj
 0002:00085790       ??$NextReadVector@V?$CStringT@_WV?$StrTraitMFC_DLL@_WV?$ChTraitsCRT@_W@ATL@@@@@ATL@@@Stream@baro@@AAE?AW4StreamResult@1@AAV?$vector@V?$CStringT@_WV?$StrTraitMFC_DLL@_WV?$ChTraitsCRT@_W@ATL@@@@@ATL@@V?$allocator@V?$CStringT@_WV?$StrTraitMFC_DLL@_WV?$ChTraitsCRT@_W@ATL@@@@@ATL@@@std@@@std@@V?$function@$$A6A?AW4StreamResult@baro@@AAV?$CStringT@_WV?$StrTraitMFC_DLL@_WV?$ChTraitsCRT@_W@ATL@@@@@ATL@@@Z@4@@Z 100d7790 f i stdafx.obj
 0002:00085a10       ??$NextWrite@I@Stream@baro@@QAE?AW4StreamResult@1@ABI@Z 100d7a10 f i stdafx.obj
 0002:00085a70       ??$NextWriteMap@V?$CStringT@_WV?$StrTraitMFC_DLL@_WV?$ChTraitsCRT@_W@ATL@@@@@ATL@@V12@@Stream@baro@@AAE?AW4StreamResult@1@ABV?$map@V?$CStringT@_WV?$StrTraitMFC_DLL@_WV?$ChTraitsCRT@_W@ATL@@@@@ATL@@V12@U?$less@V?$CStringT@_WV?$StrTraitMFC_DLL@_WV?$ChTraitsCRT@_W@ATL@@@@@ATL@@@std@@V?$allocator@U?$pair@$$CBV?$CStringT@_WV?$StrTraitMFC_DLL@_WV?$ChTraitsCRT@_W@ATL@@@@@ATL@@V12@@std@@@4@@std@@V?$function@$$A6A?AW4StreamResult@baro@@ABV?$CStringT@_WV?$StrTraitMFC_DLL@_WV?$ChTraitsCRT@_W@ATL@@@@@ATL@@@Z@4@1@Z 100d7a70 f i stdafx.obj
 0002:00085df0       ??$NextWriteVector@V?$CStringT@_WV?$StrTraitMFC_DLL@_WV?$ChTraitsCRT@_W@ATL@@@@@ATL@@@Stream@baro@@AAE?AW4StreamResult@1@ABV?$vector@V?$CStringT@_WV?$StrTraitMFC_DLL@_WV?$ChTraitsCRT@_W@ATL@@@@@ATL@@V?$allocator@V?$CStringT@_WV?$StrTraitMFC_DLL@_WV?$ChTraitsCRT@_W@ATL@@@@@ATL@@@std@@@std@@V?$function@$$A6A?AW4StreamResult@baro@@ABV?$CStringT@_WV?$StrTraitMFC_DLL@_WV?$ChTraitsCRT@_W@ATL@@@@@ATL@@@Z@4@@Z 100d7df0 f i stdafx.obj
 0002:00085ff0       ??$_Allocate@U?$_Tree_node@U?$pair@$$CBV?$CStringT@_WV?$StrTraitMFC_DLL@_WV?$ChTraitsCRT@_W@ATL@@@@@ATL@@V12@@std@@PAX@std@@@std@@YAPAU?$_Tree_node@U?$pair@$$CBV?$CStringT@_WV?$StrTraitMFC_DLL@_WV?$ChTraitsCRT@_W@ATL@@@@@ATL@@V12@@std@@PAX@0@IPAU10@@Z 100d7ff0 f i stdafx.obj
 0002:00086080       ??$_Allocate@V?$_Func_impl@U?$_Callable_obj@V<lambda_187152e110f699ad5b1ab81533769cf2>@@$0A@@std@@V?$allocator@V?$_Func_class@W4StreamResult@baro@@ABV?$CStringT@_WV?$StrTraitMFC_DLL@_WV?$ChTraitsCRT@_W@ATL@@@@@ATL@@@std@@@2@W4StreamResult@baro@@ABV?$CStringT@_WV?$StrTraitMFC_DLL@_WV?$ChTraitsCRT@_W@ATL@@@@@ATL@@@std@@@std@@YAPAV?$_Func_impl@U?$_Callable_obj@V<lambda_187152e110f699ad5b1ab81533769cf2>@@$0A@@std@@V?$allocator@V?$_Func_class@W4StreamResult@baro@@ABV?$CStringT@_WV?$StrTraitMFC_DLL@_WV?$ChTraitsCRT@_W@ATL@@@@@ATL@@@std@@@2@W4StreamResult@baro@@ABV?$CStringT@_WV?$StrTraitMFC_DLL@_WV?$ChTraitsCRT@_W@ATL@@@@@ATL@@@0@IPAV10@@Z 100d8080 f i stdafx.obj
 0002:00086110       ??$_Allocate@V?$_Func_impl@U?$_Callable_obj@V<lambda_5c9231035f6c38fca048a0864a8210ea>@@$0A@@std@@V?$allocator@V?$_Func_class@W4StreamResult@baro@@AAV?$CStringT@_WV?$StrTraitMFC_DLL@_WV?$ChTraitsCRT@_W@ATL@@@@@ATL@@@std@@@2@W4StreamResult@baro@@AAV?$CStringT@_WV?$StrTraitMFC_DLL@_WV?$ChTraitsCRT@_W@ATL@@@@@ATL@@@std@@@std@@YAPAV?$_Func_impl@U?$_Callable_obj@V<lambda_5c9231035f6c38fca048a0864a8210ea>@@$0A@@std@@V?$allocator@V?$_Func_class@W4StreamResult@baro@@AAV?$CStringT@_WV?$StrTraitMFC_DLL@_WV?$ChTraitsCRT@_W@ATL@@@@@ATL@@@std@@@2@W4StreamResult@baro@@AAV?$CStringT@_WV?$StrTraitMFC_DLL@_WV?$ChTraitsCRT@_W@ATL@@@@@ATL@@@0@IPAV10@@Z 100d8110 f i stdafx.obj
 0002:000861a0       ??$_Allocate@V?$_Func_impl@U?$_Callable_obj@V<lambda_71f23d2cacd049d0fc44bb672969fbab>@@$0A@@std@@V?$allocator@V?$_Func_class@W4StreamResult@baro@@AAV?$CStringT@_WV?$StrTraitMFC_DLL@_WV?$ChTraitsCRT@_W@ATL@@@@@ATL@@@std@@@2@W4StreamResult@baro@@AAV?$CStringT@_WV?$StrTraitMFC_DLL@_WV?$ChTraitsCRT@_W@ATL@@@@@ATL@@@std@@@std@@YAPAV?$_Func_impl@U?$_Callable_obj@V<lambda_71f23d2cacd049d0fc44bb672969fbab>@@$0A@@std@@V?$allocator@V?$_Func_class@W4StreamResult@baro@@AAV?$CStringT@_WV?$StrTraitMFC_DLL@_WV?$ChTraitsCRT@_W@ATL@@@@@ATL@@@std@@@2@W4StreamResult@baro@@AAV?$CStringT@_WV?$StrTraitMFC_DLL@_WV?$ChTraitsCRT@_W@ATL@@@@@ATL@@@0@IPAV10@@Z 100d81a0 f i stdafx.obj
 0002:00086230       ??$_Allocate@V?$_Func_impl@U?$_Callable_obj@V<lambda_740eeb7a2f1d2c38bf9d2a55ba51dd10>@@$0A@@std@@V?$allocator@V?$_Func_class@W4StreamResult@baro@@ABV?$CStringT@_WV?$StrTraitMFC_DLL@_WV?$ChTraitsCRT@_W@ATL@@@@@ATL@@@std@@@2@W4StreamResult@baro@@ABV?$CStringT@_WV?$StrTraitMFC_DLL@_WV?$ChTraitsCRT@_W@ATL@@@@@ATL@@@std@@@std@@YAPAV?$_Func_impl@U?$_Callable_obj@V<lambda_740eeb7a2f1d2c38bf9d2a55ba51dd10>@@$0A@@std@@V?$allocator@V?$_Func_class@W4StreamResult@baro@@ABV?$CStringT@_WV?$StrTraitMFC_DLL@_WV?$ChTraitsCRT@_W@ATL@@@@@ATL@@@std@@@2@W4StreamResult@baro@@ABV?$CStringT@_WV?$StrTraitMFC_DLL@_WV?$ChTraitsCRT@_W@ATL@@@@@ATL@@@0@IPAV10@@Z 100d8230 f i stdafx.obj
 0002:000862c0       ??$_Allocate@V?$_Func_impl@U?$_Callable_obj@V<lambda_75f487c1c530e75cedd270693ab9589c>@@$0A@@std@@V?$allocator@V?$_Func_class@W4StreamResult@baro@@ABV?$CStringT@_WV?$StrTraitMFC_DLL@_WV?$ChTraitsCRT@_W@ATL@@@@@ATL@@@std@@@2@W4StreamResult@baro@@ABV?$CStringT@_WV?$StrTraitMFC_DLL@_WV?$ChTraitsCRT@_W@ATL@@@@@ATL@@@std@@@std@@YAPAV?$_Func_impl@U?$_Callable_obj@V<lambda_75f487c1c530e75cedd270693ab9589c>@@$0A@@std@@V?$allocator@V?$_Func_class@W4StreamResult@baro@@ABV?$CStringT@_WV?$StrTraitMFC_DLL@_WV?$ChTraitsCRT@_W@ATL@@@@@ATL@@@std@@@2@W4StreamResult@baro@@ABV?$CStringT@_WV?$StrTraitMFC_DLL@_WV?$ChTraitsCRT@_W@ATL@@@@@ATL@@@0@IPAV10@@Z 100d82c0 f i stdafx.obj
