 Baronow25

 Timestamp is 5def5c00 (Tue Dec 10 17:49:04 2019)

 Preferred load address is 10000000

 Start         Length     Name                   Class
 0001:00000000 00000332H .text$di                CODE
 0001:00000340 0005a130H .text$mn                CODE
 0001:0005a470 00005524H .text$x                 CODE
 0001:0005f9a0 0000044aH .text$yd                CODE
 0002:00000000 00000b18H .idata$5                DATA
 0002:00000b18 00000004H .CRT$XCA                DATA
 0002:00000b1c 00000004H .CRT$XCL                DATA
 0002:00000b20 00000070H .CRT$XCU                DATA
 0002:00000b90 00000004H .CRT$XCZ                DATA
 0002:00000b94 00000004H .CRT$XIA                DATA
 0002:00000b98 00000004H .CRT$XIAA               DATA
 0002:00000b9c 00000004H .CRT$XIC                DATA
 0002:00000ba0 00000004H .CRT$XIZ                DATA
 0002:00000bb0 00008bb8H .rdata                  DATA
 0002:00009768 00000064H .rdata$debug            DATA
 0002:000097cc 00001e30H .rdata$r                DATA
 0002:0000b600 000004d8H .rdata$sxdata           DATA
 0002:0000bad8 00000004H .rtc$IAA                DATA
 0002:0000badc 00000004H .rtc$IZZ                DATA
 0002:0000bae0 00000004H .rtc$TAA                DATA
 0002:0000bae4 00000004H .rtc$TZZ                DATA
 0002:0000bae8 00004c4cH .xdata$x                DATA
 0002:00010734 00000000H ATL$__a                 DATA
 0002:00010734 00000000H ATL$__z                 DATA
 0002:00010740 000220f5H .edata                  DATA
 0002:00032838 0000012cH .idata$2                DATA
 0002:00032964 00000014H .idata$3                DATA
 0002:00032978 00000b18H .idata$4                DATA
 0002:00033490 00001e4cH .idata$6                DATA
 0003:00000000 000001c0H .data                   DATA
 0003:000001c0 00000d9cH .data$r                 DATA
 0003:00000f60 00281f60H .bss                    DATA
 0004:00000000 000000a0H .rsrc$01                DATA
 0004:000000a0 00000490H .rsrc$02                DATA

  Address         Publics by Value              Rva+Base       Lib:Object

 0000:00000000       ___guard_flags             00000000     <absolute>
 0000:00000000       ___guard_fids_count        00000000     <absolute>
 0000:00000000       __except_list              00000000     <absolute>
 0000:00000000       ___guard_fids_table        00000000     <absolute>
 0000:00000136       ___safe_se_handler_count   00000136     <absolute>
 0000:00009876       __ldused                   00009876     <absolute>
 0000:00009876       __fltused                  00009876     <absolute>
 0000:00000000       ___ImageBase               10000000     <linker-defined>
 0001:00000340       ?UpdateClickEdge@BNC_BaseDialog@@EAEXXZ 10001340 f i BNC_BaseDialog.obj
 0001:00000340       ??1BNC_ReferenceItemSort@@QAE@XZ 10001340 f i BNC_ReferenceItemSort.obj
 0001:00000340       ??1BNC_WindowSync@@QAE@XZ  10001340 f i BNC_WindowSync.obj
 0001:00000340       ?AssertValid@CObject@@UBEXXZ 10001340 f i dllmain.obj
 0001:00000340       ??1BNS_ImageInfo@@QAE@XZ   10001340 f i BNS_ImageInfo.obj
 0001:00000340       ?Stop@BNC_TransparentAnimation@@QAEXXZ 10001340 f i BNC_TransparentAnimation.obj
 0001:00000340       ?OnDrawEnd@BNC_BaseDialog@@EAEXXZ 10001340 f i BNC_BaseDialog.obj
 0001:00000340       ??1BNC_ReferenceItemSelecter@@QAE@XZ 10001340 f i BNC_ReferenceItemSelecter.obj
 0001:00000340       ??1BNC_ReferenceItemTreeSort@@QAE@XZ 10001340 f i BNC_ReferenceItemSort.obj
 0001:00000340       ?OnStopHide@BNC_BaseLayered@@EAEXXZ 10001340 f i BNC_BaseLayered.obj
 0001:00000340       ??1?$BNC_Instance@VBNC_FakeRect@@@@IAE@XZ 10001340 f i BNC_FakeRect.obj
 0001:00000340       ??1BNC_WindowLayered@@QAE@XZ 10001340 f i BNC_WindowLayered.obj
 0001:00000340       ??1BNC_ClipboardImageOLE@@QAE@XZ 10001340 f i BNC_ClipboardImageOLE.obj
 0001:00000340       ??1BNC_MouseControl@@QAE@XZ 10001340 f i BNC_MouseControl.obj
 0001:00000340       ?OnEnUpdate@BNC_RichEditbox@@QAEXXZ 10001340 f i BNC_RichEditbox.obj
 0001:00000340       ?OnBreak@BNC_BaseModal@@EAEXXZ 10001340 f i BNC_BaseModal.obj
 0001:00000340       ??3@YAXPAX0@Z              10001340 f i dllmain.obj
 0001:00000340       ??1BNC_DwmColorControl@@QAE@XZ 10001340 f i BNC_DwmColorControl.obj
 0001:00000340       ?OnCreateDefaultPos@BNC_BaseDialog@@EAEXXZ 10001340 f i BNC_BaseDialog.obj
 0001:00000340       ??1BNC_ReferenceItemSeqSort@@QAE@XZ 10001340 f i BNC_ReferenceItemSort.obj
 0001:00000340       ?OnNcPaint@BNC_BaseClient@@QAEXXZ 10001340 f i BNC_BaseClient.obj
 0001:00000340       ??1BNC_ReferenceItemExOptionDrag@@QAE@XZ 10001340 f i BNC_ReferenceItemEx.obj
 0001:00000340       ?Draw@BNC_FakeBorder@@AAEXXZ 10001340 f i BNC_FakeBorder.obj
 0001:00000350       ?Init@CComCriticalSection@ATL@@QAEJXZ 10001350 f i dllmain.obj
 0001:00000380       ?DoDataExchange@CWnd@@MAEXPAVCDataExchange@@@Z 10001380 f i dllmain.obj
 0001:00000380       ??$destroy@PAU?$_Tree_node@U?$pair@$$CBV?$CStringT@_WV?$StrTraitMFC_DLL@_WV?$ChTraitsCRT@_W@ATL@@@@@ATL@@PAVImage@Gdiplus@@@std@@PAX@std@@@?$_Wrap_alloc@V?$allocator@U?$_Tree_node@U?$pair@$$CBV?$CStringT@_WV?$StrTraitMFC_DLL@_WV?$ChTraitsCRT@_W@ATL@@@@@ATL@@PAVImage@Gdiplus@@@std@@PAX@std@@@std@@@std@@QAEXPAPAU?$_Tree_node@U?$pair@$$CBV?$CStringT@_WV?$StrTraitMFC_DLL@_WV?$ChTraitsCRT@_W@ATL@@@@@ATL@@PAVImage@Gdiplus@@@std@@PAX@1@@Z 10001380 f i BNC_HtmlMetaInfo.obj
 0001:00000380       ?OnFirstTransparentAnimation@BNC_BaseDialog@@UAEXE@Z 10001380 f i BNC_BaseDialog.obj
 0001:00000380       ?OnUpdateWindowStatus@BNC_BaseDialog@@EAEXW4BNE_POPUP_STATUS@@@Z 10001380 f i BNC_BaseDialog.obj
 0001:00000380       ?Serialize@CObject@@UAEXAAVCArchive@@@Z 10001380 f i dllmain.obj
 0001:00000380       ??$destroy@PAU?$_Tree_node@U?$pair@$$CBV?$CStringT@_WV?$StrTraitMFC_DLL@_WV?$ChTraitsCRT@_W@ATL@@@@@ATL@@PAUHICON__@@@std@@PAX@std@@@?$_Wrap_alloc@V?$allocator@U?$_Tree_node@U?$pair@$$CBV?$CStringT@_WV?$StrTraitMFC_DLL@_WV?$ChTraitsCRT@_W@ATL@@@@@ATL@@PAUHICON__@@@std@@PAX@std@@@std@@@std@@QAEXPAPAU?$_Tree_node@U?$pair@$$CBV?$CStringT@_WV?$StrTraitMFC_DLL@_WV?$ChTraitsCRT@_W@ATL@@@@@ATL@@PAUHICON__@@@std@@PAX@1@@Z 10001380 f i BNC_HtmlMetaInfo.obj
 0001:00000380       ?OnEnableTopmost@BNC_Titlebar@@UAEX_N@Z 10001380 f i BNC_Titlebar.obj
 0001:00000380       ?OnUpdateSystemMessagePos@BNC_BaseDialog@@UAEXPAUBNS_SyncPos@@@Z 10001380 f i BNC_BaseDialog.obj
 0001:00000380       ?OnModifyPopupPtr@BNC_EditboxEx@@EAEXPAVBNC_BaseDialog@@@Z 10001380 f i BNC_EditboxEx.obj
 0001:00000380       ?OnUpdatePopupStatus@BNC_HtmlBrowser@@EAEXW4BNE_POPUP_STATUS@@@Z 10001380 f i BNC_HtmlBrowser.obj
 0001:00000380       ?OnSelectClient@BNC_BaseClient@@EAEXPAV1@@Z 10001380 f i BNC_BaseClient.obj
 0001:00000380       ?OnModifyPopupPtr@BNC_HtmlBrowser@@EAEXPAVBNC_BaseDialog@@@Z 10001380 f i BNC_HtmlBrowser.obj
 0001:00000380       ??$destroy@PAU?$_Tree_node@PAUHWND__@@PAX@std@@@?$_Wrap_alloc@V?$allocator@U?$_Tree_node@PAUHWND__@@PAX@std@@@std@@@std@@QAEXPAPAU?$_Tree_node@PAUHWND__@@PAX@1@@Z 10001380 f i BNC_BaseDialog.obj
 0001:00000380       ?OnCreate@BNC_DrawObject@@MAEXPB_W@Z 10001380 f i BNC_DrawObject.obj
 0001:00000380       ?OnModifyPopupPtr@BNC_AsyncMessageBoxRoot@@EAEXPAVBNC_BaseDialog@@@Z 10001380 f i BNC_AsyncMessageBox.obj
 0001:00000380       ?OnModifyPopupPtr@BNC_TempClient@@UAEXPAVBNC_BaseDialog@@@Z 10001380 f i dllmain.obj
 0001:00000380       ?DoDataExchange@BNC_HtmlBrowserClient@@MAEXPAVCDataExchange@@@Z 10001380 f i BNC_HtmlBrowserClient.obj
 0001:00000380       ?OnUpdatePopupStatus@BNC_BaseClient@@MAEXW4BNE_POPUP_STATUS@@@Z 10001380 f i BNC_BaseClient.obj
 0001:00000380       ?Dump@CObject@@UBEXAAVCDumpContext@@@Z 10001380 f i dllmain.obj
 0001:00000380       ?ClientPointToActualPoint@BNC_FakeBorder@@QAEXAAVCPoint@@@Z 10001380 f i BNC_FakeBorder.obj
 0001:00000380       ?DoDataExchange@BNC_BaseDialog@@MAEXPAVCDataExchange@@@Z 10001380 f i BNC_BaseDialog.obj
 0001:00000380       ?OnModifyPopupPtr@BNC_BaseClient@@EAEXPAVBNC_BaseDialog@@@Z 10001380 f i BNC_BaseClient.obj
 0001:00000380       ?OnUpdateWindowStatus@BNC_FloatingMessage@@EAEXW4BNE_POPUP_STATUS@@@Z 10001380 f i BNC_FloatingMessage.obj
 0001:00000390       ??3CObject@@SGXPAX@Z       10001390 f i dllmain.obj
 0001:000003a0       ?BeginModalState@CWnd@@UAEXXZ 100013a0 f i dllmain.obj
 0001:000003b0       ?EndModalState@CWnd@@UAEXXZ 100013b0 f i dllmain.obj
 0001:000003c0       ??0CInitGDIPlus@CImage@ATL@@QAE@XZ 100013c0 f i dllmain.obj
 0001:00000410       ??_E_Iostream_error_category@std@@UAEPAXI@Z 10001410 f i * CIL library *:* CIL module *
 0001:00000410       ??_Gerror_category@std@@UAEPAXI@Z 10001410 f i dllmain.obj
 0001:00000410       ??_G_Generic_error_category@std@@UAEPAXI@Z 10001410 f i dllmain.obj
 0001:00000410       ??_E_System_error_category@std@@UAEPAXI@Z 10001410 f i * CIL library *:* CIL module *
 0001:00000410       ??_E_Generic_error_category@std@@UAEPAXI@Z 10001410 f i * CIL library *:* CIL module *
 0001:00000410       ??_Eerror_category@std@@UAEPAXI@Z 10001410 f i * CIL library *:* CIL module *
 0001:00000410       ??_G_Iostream_error_category@std@@UAEPAXI@Z 10001410 f i dllmain.obj
 0001:00000410       ??_G_System_error_category@std@@UAEPAXI@Z 10001410 f i dllmain.obj
 0001:00000440       ?default_error_condition@error_category@std@@UBE?AVerror_condition@2@H@Z 10001440 f i dllmain.obj
 0001:00000460       ?equivalent@error_category@std@@UBE_NHABVerror_condition@2@@Z 10001460 f i dllmain.obj
 0001:000004a0       ?equivalent@error_category@std@@UBE_NABVerror_code@2@H@Z 100014a0 f i dllmain.obj
 0001:000004c0       ?name@_Generic_error_category@std@@UBEPBDXZ 100014c0 f i dllmain.obj
 0001:000004d0       ?message@_Generic_error_category@std@@UBE?AV?$basic_string@DU?$char_traits@D@std@@V?$allocator@D@2@@2@H@Z 100014d0 f i dllmain.obj
 0001:00000550       ?name@_Iostream_error_category@std@@UBEPBDXZ 10001550 f i dllmain.obj
 0001:00000560       ?message@_Iostream_error_category@std@@UBE?AV?$basic_string@DU?$char_traits@D@std@@V?$allocator@D@2@@2@H@Z 10001560 f i dllmain.obj
 0001:000005b0       ?name@_System_error_category@std@@UBEPBDXZ 100015b0 f i dllmain.obj
 0001:000005c0       ?message@_System_error_category@std@@UBE?AV?$basic_string@DU?$char_traits@D@std@@V?$allocator@D@2@@2@H@Z 100015c0 f i dllmain.obj
 0001:00000640       ?default_error_condition@_System_error_category@std@@UBE?AVerror_condition@2@H@Z 10001640 f i dllmain.obj
 0001:00000680       ??4BNS_ImageInfo@@QAEAAU0@ABU0@@Z 10001680 f i dllmain.obj
 0001:000006b0       ?__autoclassinit2@BNC_FakeModal@@QAEXI@Z 100016b0 f i dllmain.obj
 0001:000006b0       ?__autoclassinit2@BNC_BaseLayered@@QAEXI@Z 100016b0 f i dllmain.obj
 0001:000006b0       ?__autoclassinit2@BNC_RefTreeControl@@QAEXI@Z 100016b0 f i dllmain.obj
 0001:000006b0       ?__autoclassinit2@BNC_AnimationDialog@@QAEXI@Z 100016b0 f i dllmain.obj
 0001:000006b0       ?__autoclassinit2@BNC_ReferenceItemEx@@QAEXI@Z 100016b0 f i dllmain.obj
 0001:000006b0       ?__autoclassinit2@BNC_RefListControl@@QAEXI@Z 100016b0 f i dllmain.obj
 0001:000006b0       ?__autoclassinit2@BNC_HtmlMetaInfo@@QAEXI@Z 100016b0 f i dllmain.obj
 0001:000006b0       ?__autoclassinit2@BNC_ReferenceItemExOptionLine@@QAEXI@Z 100016b0 f i dllmain.obj
 0001:000006b0       ?__autoclassinit2@BNC_RichEditbox@@QAEXI@Z 100016b0 f i dllmain.obj
 0001:000006b0       ?__autoclassinit2@BNC_DummyListControl@@QAEXI@Z 100016b0 f i dllmain.obj
 0001:000006b0       ?__autoclassinit2@BNC_HtmlBrowserClient@@QAEXI@Z 100016b0 f i dllmain.obj
 0001:000006b0       ?__autoclassinit2@BNC_RefTreeView@@QAEXI@Z 100016b0 f i dllmain.obj
 0001:000006b0       ?__autoclassinit2@BNC_TempClient@@QAEXI@Z 100016b0 f i dllmain.obj
 0001:000006b0       ?__autoclassinit2@BNC_Graphics@@QAEXI@Z 100016b0 f i dllmain.obj
 0001:000006b0       ?__autoclassinit2@BNC_HtmlBrowserThread@@QAEXI@Z 100016b0 f i dllmain.obj
 0001:000006b0       ?__autoclassinit2@BNC_FakeWindow@@QAEXI@Z 100016b0 f i dllmain.obj
 0001:000006b0       ?__autoclassinit2@BNC_BaseDialogTracer@@QAEXI@Z 100016b0 f i dllmain.obj
 0001:000006b0       ?__autoclassinit2@BNC_Button@@QAEXI@Z 100016b0 f i dllmain.obj
 0001:000006b0       ?__autoclassinit2@BNC_Edit@@QAEXI@Z 100016b0 f i dllmain.obj
 0001:000006b0       ?__autoclassinit2@BNC_AsyncMessageBoxRoot@@QAEXI@Z 100016b0 f i dllmain.obj
 0001:000006b0       ?__autoclassinit2@BNC_BaseModal@@QAEXI@Z 100016b0 f i dllmain.obj
 0001:000006b0       ?__autoclassinit2@BNC_FloatingButton@@QAEXI@Z 100016b0 f i dllmain.obj
 0001:000006b0       ?__autoclassinit2@BNC_PopupMenu@@QAEXI@Z 100016b0 f i dllmain.obj
 0001:000006b0       ?__autoclassinit2@BNC_SimpleHScrollbar@@QAEXI@Z 100016b0 f i dllmain.obj
 0001:000006b0       ?__autoclassinit2@BNC_ButtonEx@@QAEXI@Z 100016b0 f i dllmain.obj
 0001:000006b0       ?__autoclassinit2@BNC_SyncRect@@QAEXI@Z 100016b0 f i dllmain.obj
 0001:000006b0       ?__autoclassinit2@BNC_DrawObject@@QAEXI@Z 100016b0 f i dllmain.obj
 0001:000006b0       ?__autoclassinit2@BNC_PopupMenuItem@@QAEXI@Z 100016b0 f i dllmain.obj
 0001:000006b0       ?__autoclassinit2@BNC_RefListViewEx@@QAEXI@Z 100016b0 f i dllmain.obj
 0001:000006b0       ?__autoclassinit2@BNC_StaticObject@@QAEXI@Z 100016b0 f i dllmain.obj
 0001:000006b0       ?__autoclassinit2@BNC_TabControl@@QAEXI@Z 100016b0 f i dllmain.obj
 0001:000006b0       ?__autoclassinit2@BNC_GDI@@QAEXI@Z 100016b0 f i dllmain.obj
 0001:000006b0       ?__autoclassinit2@BNC_BaseOverlay@@QAEXI@Z 100016b0 f i dllmain.obj
 0001:000006b0       ?__autoclassinit2@BNC_DummyListView@@QAEXI@Z 100016b0 f i dllmain.obj
 0001:000006b0       ?__autoclassinit2@BNC_WindowLayered@@QAEXI@Z 100016b0 f i dllmain.obj
 0001:000006b0       ?__autoclassinit2@BNC_ReferenceItemExOption@@QAEXI@Z 100016b0 f i dllmain.obj
 0001:000006b0       ?__autoclassinit2@BNC_FakeBorder@@QAEXI@Z 100016b0 f i dllmain.obj
 0001:000006b0       ?__autoclassinit2@BNC_TransparentAnimation@@QAEXI@Z 100016b0 f i dllmain.obj
 0001:000006b0       ?__autoclassinit2@BNC_FadeAnimation@@QAEXI@Z 100016b0 f i dllmain.obj
 0001:000006b0       ?__autoclassinit2@BNC_Titlebar@@QAEXI@Z 100016b0 f i dllmain.obj
 0001:000006b0       ?__autoclassinit2@BNC_RefTreeItemOption@@QAEXI@Z 100016b0 f i dllmain.obj
 0001:000006b0       ?__autoclassinit2@BNC_BaseControl@@QAEXI@Z 100016b0 f i dllmain.obj
 0001:000006b0       ?__autoclassinit2@BNC_MessageBox@@QAEXI@Z 100016b0 f i dllmain.obj
 0001:000006b0       ?__autoclassinit2@BNC_BaseRefItemControl@@QAEXI@Z 100016b0 f i dllmain.obj
 0001:000006b0       ?__autoclassinit2@BNC_AsyncMessageBox@@QAEXI@Z 100016b0 f i dllmain.obj
 0001:000006b0       ?__autoclassinit2@BNC_RefListControlEx@@QAEXI@Z 100016b0 f i dllmain.obj
 0001:000006b0       ?__autoclassinit2@BNC_BaseSliderCtrl@@QAEXI@Z 100016b0 f i dllmain.obj
 0001:000006b0       ?__autoclassinit2@BNC_FloatingMessage@@QAEXI@Z 100016b0 f i dllmain.obj
 0001:000006b0       ?__autoclassinit2@BNC_ReferenceItem@@QAEXI@Z 100016b0 f i dllmain.obj
 0001:000006b0       ?__autoclassinit2@BNC_RefListView@@QAEXI@Z 100016b0 f i dllmain.obj
 0001:000006b0       ?__autoclassinit2@BNC_BaseRefItemControlEx@@QAEXI@Z 100016b0 f i dllmain.obj
 0001:000006b0       ?__autoclassinit2@BNC_HtmlBrowserFrame@@QAEXI@Z 100016b0 f i BNC_HtmlBrowserFrame.obj
 0001:000006b0       ?__autoclassinit2@BNC_MouseControl@@QAEXI@Z 100016b0 f i dllmain.obj
 0001:000006b0       ?__autoclassinit2@BNC_DrawString@@QAEXI@Z 100016b0 f i dllmain.obj
 0001:000006b0       ?__autoclassinit2@BNC_HtmlBrowser@@QAEXI@Z 100016b0 f i dllmain.obj
 0001:000006b0       ?__autoclassinit2@BNC_WindowSync@@QAEXI@Z 100016b0 f i dllmain.obj
 0001:000006b0       ?__autoclassinit2@BNC_BaseClient@@QAEXI@Z 100016b0 f i dllmain.obj
 0001:000006b0       ?__autoclassinit2@BNC_BaseInstant@@QAEXI@Z 100016b0 f i dllmain.obj
 0001:000006b0       ?__autoclassinit2@BNC_Editbox@@QAEXI@Z 100016b0 f i dllmain.obj
 0001:000006b0       ?__autoclassinit2@BNC_HyperLink@@QAEXI@Z 100016b0 f i dllmain.obj
 0001:000006b0       ?__autoclassinit2@BNC_CaptureKeyboardMouse@@QAEXI@Z 100016b0 f i dllmain.obj
 0001:000006b0       ?__autoclassinit2@BNC_EditboxEx@@QAEXI@Z 100016b0 f i dllmain.obj
 0001:000006b0       ?__autoclassinit2@BNC_FakeBtnSet@@QAEXI@Z 100016b0 f i dllmain.obj
 0001:000006b0       ?__autoclassinit2@BNC_BaseFloating@@QAEXI@Z 100016b0 f i dllmain.obj
 0001:000006b0       ?__autoclassinit2@BNC_SimpleVScrollbar@@QAEXI@Z 100016b0 f i dllmain.obj
 0001:000006b0       ?__autoclassinit2@BNC_ClipboardImage@@QAEXI@Z 100016b0 f i dllmain.obj
 0001:000006b0       ?__autoclassinit2@BNC_BorderessProc@@QAEXI@Z 100016b0 f i dllmain.obj
 0001:000006b0       ?__autoclassinit2@BNC_FakeRect@@QAEXI@Z 100016b0 f i dllmain.obj
 0001:000006b0       ?__autoclassinit2@BNC_BaseDialog@@QAEXI@Z 100016b0 f i dllmain.obj
 0001:000006b0       ?__autoclassinit2@BNC_BaseModaless@@QAEXI@Z 100016b0 f i dllmain.obj
 0001:000006d0       ??4BNC_MouseControl@@QAEAAV0@ABV0@@Z 100016d0 f i dllmain.obj
 0001:00000700       ??0BNC_DrawString@@QAE@ABV0@@Z 10001700 f i dllmain.obj
 0001:00000740       ??4BNC_DrawString@@QAEAAV0@ABV0@@Z 10001740 f i dllmain.obj
 0001:00000780       ??4BNC_PopupMenuItem@@QAEAAV0@ABV0@@Z 10001780 f i dllmain.obj
 0001:000007c0       ??4BNC_ReferenceItemTreeSort@@QAEAAV0@ABV0@@Z 100017c0 f i dllmain.obj
 0001:000007c0       ??4BNC_ReferenceItemSort@@QAEAAV0@ABV0@@Z 100017c0 f i dllmain.obj
 0001:000007c0       ??0BNC_ReferenceItemTreeSort@@QAE@ABV0@@Z 100017c0 f i BNC_ReferenceItemSort.obj
 0001:000007e0       ??4BNC_ReferenceItemSeqSort@@QAEAAV0@ABV0@@Z 100017e0 f i dllmain.obj
 0001:000007f0       ??4BNC_ReferenceItemSelecter@@QAEAAV0@ABV0@@Z 100017f0 f i dllmain.obj
 0001:000007f0       ??4BNC_Base64Low@@QAEAAV0@ABV0@@Z 100017f0 f i dllmain.obj
 0001:000007f0       ??4BNC_ClipboardImageOLE@@QAEAAV0@ABV0@@Z 100017f0 f i dllmain.obj
 0001:000007f0       ??4BNC_DwmColorControl@@QAEAAV0@ABV0@@Z 100017f0 f i dllmain.obj
 0001:000007f0       ??4BNC_MagnetEffect@@QAEAAV0@ABV0@@Z 100017f0 f i dllmain.obj
 0001:00000800       ??0BNC_RefTreeItemOption@@QAE@ABV0@@Z 10001800 f i dllmain.obj
 0001:000008b0       ??4BNC_RefTreeItemOption@@QAEAAV0@ABV0@@Z 100018b0 f i dllmain.obj
 0001:00000980       ??_EBNC_RefTreeItemOption@@UAEPAXI@Z 10001980 f i dllmain.obj
 0001:000009e0       ??1?$map@V?$CStringT@_WV?$StrTraitMFC_DLL@_WV?$ChTraitsCRT@_W@ATL@@@@@ATL@@PAVBNC_ReferenceItemEx@@U?$less@V?$CStringT@_WV?$StrTraitMFC_DLL@_WV?$ChTraitsCRT@_W@ATL@@@@@ATL@@@std@@V?$allocator@U?$pair@$$CBV?$CStringT@_WV?$StrTraitMFC_DLL@_WV?$ChTraitsCRT@_W@ATL@@@@@ATL@@PAVBNC_ReferenceItemEx@@@std@@@5@@std@@QAE@XZ 100019e0 f i BNC_RefListControlEx.obj
 0001:000009e0       ??1?$map@V?$CStringT@_WV?$StrTraitMFC_DLL@_WV?$ChTraitsCRT@_W@ATL@@@@@ATL@@PAVBNC_ReferenceItem@@U?$less@V?$CStringT@_WV?$StrTraitMFC_DLL@_WV?$ChTraitsCRT@_W@ATL@@@@@ATL@@@std@@V?$allocator@U?$pair@$$CBV?$CStringT@_WV?$StrTraitMFC_DLL@_WV?$ChTraitsCRT@_W@ATL@@@@@ATL@@PAVBNC_ReferenceItem@@@std@@@5@@std@@QAE@XZ 100019e0 f i dllmain.obj
 0001:000009e0       ??1?$map@V?$CStringT@_WV?$StrTraitMFC_DLL@_WV?$ChTraitsCRT@_W@ATL@@@@@ATL@@PAVBNC_ReferenceItemExOption@@U?$less@V?$CStringT@_WV?$StrTraitMFC_DLL@_WV?$ChTraitsCRT@_W@ATL@@@@@ATL@@@std@@V?$allocator@U?$pair@$$CBV?$CStringT@_WV?$StrTraitMFC_DLL@_WV?$ChTraitsCRT@_W@ATL@@@@@ATL@@PAVBNC_ReferenceItemExOption@@@std@@@5@@std@@QAE@XZ 100019e0 f i BNC_RefListControlEx.obj
 0001:00000a10       ??4BNC_CaptureKeyboardMouse@@QAEAAV0@ABV0@@Z 10001a10 f i dllmain.obj
 0001:00000a30       ??0BNC_HyperLink@@QAE@ABV0@@Z 10001a30 f i dllmain.obj
 0001:00000a50       ??4BNC_HyperLink@@QAEAAV0@ABV0@@Z 10001a50 f i dllmain.obj
 0001:00000a70       ??4BNC_StaticObject@@QAEAAV0@ABV0@@Z 10001a70 f i dllmain.obj
 0001:00000a90       ??4BNC_ClipboardImage@@QAEAAV0@ABV0@@Z 10001a90 f i dllmain.obj
 0001:00000a90       ??4BNC_Graphics@@QAEAAV0@ABV0@@Z 10001a90 f i dllmain.obj
 0001:00000ab0       ??4?$BNC_Instance@VBNC_FakeRect@@@@QAEAAV0@ABV0@@Z 10001ab0 f i dllmain.obj
 0001:00000ab0       ??4BNC_WindowSync@@QAEAAV0@ABV0@@Z 10001ab0 f i dllmain.obj
 0001:00000ab0       ??4BNC_WindowLayered@@QAEAAV0@ABV0@@Z 10001ab0 f i dllmain.obj
 0001:00000ac0       ??0BNC_FakeBtnSet@@QAE@ABV0@@Z 10001ac0 f i dllmain.obj
 0001:00000ae0       ??4BNC_FakeBtnSet@@QAEAAV0@ABV0@@Z 10001ae0 f i dllmain.obj
 0001:00000b00       ??0BNC_HtmlMetaInfo@@QAE@ABV0@@Z 10001b00 f i dllmain.obj
 0001:00000bc0       ??4BNC_HtmlMetaInfo@@QAEAAV0@ABV0@@Z 10001bc0 f i dllmain.obj
 0001:00000c40       ?GetClientSize@BNC_BaseControl@@QAE?AVCSize@@XZ 10001c40 f i dllmain.obj
 0001:00000c60       ??0BNC_TempClient@@QAE@XZ  10001c60 f i dllmain.obj
 0001:00000c80       ??1BNC_TempClient@@UAE@XZ  10001c80 f i dllmain.obj
 0001:00000c90       ??_EBNC_TempClient@@UAEPAXI@Z 10001c90 f i dllmain.obj
 0001:00000cf0       ?IsActivate@BNC_BaseDialog@@QBE_NXZ 10001cf0 f i dllmain.obj
 0001:00000d00       ??0BNC_EditState@@QAE@XZ   10001d00 f i dllmain.obj
 0001:00000d20       ??1?$pair@V?$CStringT@_WV?$StrTraitMFC_DLL@_WV?$ChTraitsCRT@_W@ATL@@@@@ATL@@PAVBNC_ReferenceItemExOption@@@std@@QAE@XZ 10001d20 f i BNC_RefListControlEx.obj
 0001:00000d20       ??1BNC_EditState@@QAE@XZ   10001d20 f i dllmain.obj
 0001:00000d20       ??1BNC_DrawString@@QAE@XZ  10001d20 f i BNC_DrawString.obj
 0001:00000d20       ??1?$pair@V?$CStringT@_WV?$StrTraitMFC_DLL@_WV?$ChTraitsCRT@_W@ATL@@@@@ATL@@PAUHICON__@@@std@@QAE@XZ 10001d20 f i BNC_HtmlMetaInfo.obj
 0001:00000d20       ??1?$pair@V?$CStringT@_WV?$StrTraitMFC_DLL@_WV?$ChTraitsCRT@_W@ATL@@@@@ATL@@PAVImage@Gdiplus@@@std@@QAE@XZ 10001d20 f i BNC_HtmlMetaInfo.obj
 0001:00000d20       ??1?$pair@V?$CStringT@_WV?$StrTraitMFC_DLL@_WV?$ChTraitsCRT@_W@ATL@@@@@ATL@@PAVBNC_ReferenceItemEx@@@std@@QAE@XZ 10001d20 f i BNC_RefListControlEx.obj
 0001:00000d20       ??1?$pair@V?$CStringT@_WV?$StrTraitMFC_DLL@_WV?$ChTraitsCRT@_W@ATL@@@@@ATL@@PAVBNC_ReferenceItem@@@std@@QAE@XZ 10001d20 f i BNC_RefListControl.obj
 0001:00000d30       ??0BNC_EditState@@QAE@ABV0@@Z 10001d30 f i dllmain.obj
 0001:00000da0       ??4BNC_EditState@@QAEAAV0@ABV0@@Z 10001da0 f i dllmain.obj
 0001:00000dd0       ?GetEditCtl@BNC_Editbox@@QAEPAVCEdit@@XZ 10001dd0 f i dllmain.obj
 0001:00000de0       ??0BNC_Titlebar@@QAE@ABV0@@Z 10001de0 f i dllmain.obj
 0001:00000ed0       ??4BNC_Titlebar@@QAEAAV0@ABV0@@Z 10001ed0 f i dllmain.obj
 0001:00000f80       ??_EBNC_Titlebar@@UAEPAXI@Z 10001f80 f i dllmain.obj
 0001:00000fe0       ?GetEditCtl@BNC_EditboxEx@@QAEPAVCEdit@@XZ 10001fe0 f i dllmain.obj
 0001:00000ff0       ?GetUseCount@BNC_DummyListView@@QAEHXZ 10001ff0 f i dllmain.obj
 0001:00001000       _ExtRawDllMain@12          10002000 f   dllmain.obj
 0001:00001040       _DllMain@12                10002040 f   dllmain.obj
 0001:000010c0       ??0?$vector@V?$CStringT@_WV?$StrTraitMFC_DLL@_WV?$ChTraitsCRT@_W@ATL@@@@@ATL@@V?$allocator@V?$CStringT@_WV?$StrTraitMFC_DLL@_WV?$ChTraitsCRT@_W@ATL@@@@@ATL@@@std@@@std@@QAE@ABV01@@Z 100020c0 f i dllmain.obj
 0001:00001160       ?_Tidy@?$vector@V?$CStringT@_WV?$StrTraitMFC_DLL@_WV?$ChTraitsCRT@_W@ATL@@@@@ATL@@V?$allocator@V?$CStringT@_WV?$StrTraitMFC_DLL@_WV?$ChTraitsCRT@_W@ATL@@@@@ATL@@@std@@@std@@IAEXXZ 10002160 f i dllmain.obj
 0001:00001160       ??1?$vector@V?$CStringT@_WV?$StrTraitMFC_DLL@_WV?$ChTraitsCRT@_W@ATL@@@@@ATL@@V?$allocator@V?$CStringT@_WV?$StrTraitMFC_DLL@_WV?$ChTraitsCRT@_W@ATL@@@@@ATL@@@std@@@std@@QAE@XZ 10002160 f i dllmain.obj
 0001:000011b0       ??4?$vector@V?$CStringT@_WV?$StrTraitMFC_DLL@_WV?$ChTraitsCRT@_W@ATL@@@@@ATL@@V?$allocator@V?$CStringT@_WV?$StrTraitMFC_DLL@_WV?$ChTraitsCRT@_W@ATL@@@@@ATL@@@std@@@std@@QAEAAV01@ABV01@@Z 100021b0 f i dllmain.obj
 0001:000012f0       ??0?$vector@PAVBNC_Button@@V?$allocator@PAVBNC_Button@@@std@@@std@@QAE@ABV01@@Z 100022f0 f i dllmain.obj
 0001:000012f0       ??0?$vector@IV?$allocator@I@std@@@std@@QAE@ABV01@@Z 100022f0 f i BNC_ReferenceItemEx.obj
 0001:000012f0       ??0?$vector@PAVBNC_ReferenceItem@@V?$allocator@PAVBNC_ReferenceItem@@@std@@@std@@QAE@ABV01@@Z 100022f0 f i dllmain.obj
 0001:000012f0       ??0?$vector@HV?$allocator@H@std@@@std@@QAE@ABV01@@Z 100022f0 f i dllmain.obj
 0001:00001350       ??1?$vector@VCSize@@V?$allocator@VCSize@@@std@@@std@@QAE@XZ 10002350 f i BNC_DrawObject.obj
 0001:00001350       ??1?$vector@PAVImage@Gdiplus@@V?$allocator@PAVImage@Gdiplus@@@std@@@std@@QAE@XZ 10002350 f i BNC_DrawObject.obj
 0001:00001350       ??1?$vector@PAVCImage@ATL@@V?$allocator@PAVCImage@ATL@@@std@@@std@@QAE@XZ 10002350 f i BNC_DrawObject.obj
 0001:00001350       ??1?$vector@EV?$allocator@E@std@@@std@@QAE@XZ 10002350 f i BNC_ReferenceItemExOption.obj
 0001:00001350       ??1?$vector@PAVBNC_SyncRect@@V?$allocator@PAVBNC_SyncRect@@@std@@@std@@QAE@XZ 10002350 f i BNC_ReferenceItem.obj
 0001:00001350       ??1?$vector@HV?$allocator@H@std@@@std@@QAE@XZ 10002350 f i dllmain.obj
 0001:00001350       ??1?$vector@PAVCBitmap@@V?$allocator@PAVCBitmap@@@std@@@std@@QAE@XZ 10002350 f i BNC_DrawObject.obj
 0001:00001350       ??1?$vector@PAVBNC_DrawString@@V?$allocator@PAVBNC_DrawString@@@std@@@std@@QAE@XZ 10002350 f i BNC_MessageBox.obj
 0001:00001350       ??1?$vector@PAVBNC_ReferenceItemEx@@V?$allocator@PAVBNC_ReferenceItemEx@@@std@@@std@@QAE@XZ 10002350 f i BNC_RefListControlEx.obj
 0001:00001350       ??1?$vector@PAVBNC_ReferenceItem@@V?$allocator@PAVBNC_ReferenceItem@@@std@@@std@@QAE@XZ 10002350 f i dllmain.obj
 0001:00001350       ??1?$vector@FV?$allocator@F@std@@@std@@QAE@XZ 10002350 f i BNC_ReferenceItemExOption.obj
 0001:00001350       ??1?$vector@VCPoint@@V?$allocator@VCPoint@@@std@@@std@@QAE@XZ 10002350 f i BNC_ReferenceItemExOption.obj
 0001:00001350       ??1?$vector@PAVBNC_Button@@V?$allocator@PAVBNC_Button@@@std@@@std@@QAE@XZ 10002350 f i dllmain.obj
 0001:00001350       ??1?$vector@PAVCWnd@@V?$allocator@PAVCWnd@@@std@@@std@@QAE@XZ 10002350 f i BNC_BaseClient.obj
 0001:00001350       ??1?$vector@IV?$allocator@I@std@@@std@@QAE@XZ 10002350 f i BNC_FakeBtnSet.obj
 0001:00001350       ??1?$vector@PAVBNC_PopupMenuItem@@V?$allocator@PAVBNC_PopupMenuItem@@@std@@@std@@QAE@XZ 10002350 f i BNC_PopupMenu.obj
 0001:00001350       ??1?$vector@PAV?$CStringT@_WV?$StrTraitMFC_DLL@_WV?$ChTraitsCRT@_W@ATL@@@@@ATL@@V?$allocator@PAV?$CStringT@_WV?$StrTraitMFC_DLL@_WV?$ChTraitsCRT@_W@ATL@@@@@ATL@@@std@@@std@@QAE@XZ 10002350 f i BNC_ReferenceItem.obj
 0001:00001350       ??1?$vector@VCRect@@V?$allocator@VCRect@@@std@@@std@@QAE@XZ 10002350 f i BNC_ReferenceItemEx.obj
 0001:00001350       ??1?$vector@PAVBNC_BaseDialog@@V?$allocator@PAVBNC_BaseDialog@@@std@@@std@@QAE@XZ 10002350 f i BNC_BaseDialog.obj
 0001:00001350       ??1?$vector@PAVBNC_BaseClient@@V?$allocator@PAVBNC_BaseClient@@@std@@@std@@QAE@XZ 10002350 f i BNC_BaseClient.obj
 0001:00001380       ??4?$vector@PAVBNC_ReferenceItem@@V?$allocator@PAVBNC_ReferenceItem@@@std@@@std@@QAEAAV01@ABV01@@Z 10002380 f i dllmain.obj
 0001:00001380       ??4?$vector@IV?$allocator@_N@std@@@std@@QAEAAV01@ABV01@@Z 10002380 f i BNC_ReferenceItemEx.obj
 0001:00001380       ??4?$vector@PAVBNC_Button@@V?$allocator@PAVBNC_Button@@@std@@@std@@QAEAAV01@ABV01@@Z 10002380 f i dllmain.obj
 0001:00001380       ??4?$vector@HV?$allocator@H@std@@@std@@QAEAAV01@ABV01@@Z 10002380 f i dllmain.obj
 0001:00001380       ??4?$vector@IV?$allocator@I@std@@@std@@QAEAAV01@ABV01@@Z 10002380 f i BNC_ReferenceItemEx.obj
 0001:000014a0       ??0?$vector@V?$shared_ptr@VBNC_FakeRect@@@std@@V?$allocator@V?$shared_ptr@VBNC_FakeRect@@@std@@@2@@std@@QAE@ABV01@@Z 100024a0 f i dllmain.obj
 0001:00001500       ??4?$vector@V?$shared_ptr@VBNC_FakeRect@@@std@@V?$allocator@V?$shared_ptr@VBNC_FakeRect@@@std@@@2@@std@@QAEAAV01@ABV01@@Z 10002500 f i dllmain.obj
 0001:00001610       ??0?$TSingleton@VBNC_BaseDialogTracer@@@baro@@IAE@XZ 10002610 f i dllmain.obj
 0001:00001630       ??1?$TSingleton@VBNC_BaseDialogTracer@@@baro@@MAE@XZ 10002630 f i dllmain.obj
 0001:00001640       ?GetInstance@?$TSingleton@VBNC_BaseDialogTracer@@@baro@@SAAAVBNC_BaseDialogTracer@@XZ 10002640 f i dllmain.obj
 0001:00001700       ??1?$_Tree_comp@$0A@V?$_Tset_traits@PAVBNC_ReferenceItem@@U?$less@PAVBNC_ReferenceItem@@@std@@V?$allocator@PAVBNC_ReferenceItem@@@3@$0A@@std@@@std@@QAE@XZ 10002700 f i BNC_BaseRefItemControl.obj
 0001:00001700       ??1?$_Tree_comp@$0A@V?$_Tmap_traits@V?$CStringT@_WV?$StrTraitMFC_DLL@_WV?$ChTraitsCRT@_W@ATL@@@@@ATL@@PAVBNC_ReferenceItem@@U?$less@V?$CStringT@_WV?$StrTraitMFC_DLL@_WV?$ChTraitsCRT@_W@ATL@@@@@ATL@@@std@@V?$allocator@U?$pair@$$CBV?$CStringT@_WV?$StrTraitMFC_DLL@_WV?$ChTraitsCRT@_W@ATL@@@@@ATL@@PAVBNC_ReferenceItem@@@std@@@5@$0A@@std@@@std@@QAE@XZ 10002700 f i dllmain.obj
 0001:00001700       ??1?$_Tree_comp@$0A@V?$_Tset_traits@PAUHWND__@@U?$less@PAUHWND__@@@std@@V?$allocator@PAUHWND__@@@3@$0A@@std@@@std@@QAE@XZ 10002700 f i BNC_BaseDialog.obj
 0001:00001700       ??1?$_Tree_comp@$0A@V?$_Tset_traits@PAVBNC_ReferenceItemEx@@U?$less@PAVBNC_ReferenceItemEx@@@std@@V?$allocator@PAVBNC_ReferenceItemEx@@@3@$0A@@std@@@std@@QAE@XZ 10002700 f i BNC_BaseRefItemControlEx.obj
 0001:00001710       ??_E?$TSingleton@VBNC_BaseDialogTracer@@@baro@@MAEPAXI@Z 10002710 f i dllmain.obj
 0001:00001770       ?assign@?$basic_string@DU?$char_traits@D@std@@V?$allocator@D@2@@std@@QAEAAV12@ABV12@II@Z 10002770 f i dllmain.obj
 0001:00001850       ?clear@?$vector@V?$CStringT@_WV?$StrTraitMFC_DLL@_WV?$ChTraitsCRT@_W@ATL@@@@@ATL@@V?$allocator@V?$CStringT@_WV?$StrTraitMFC_DLL@_WV?$ChTraitsCRT@_W@ATL@@@@@ATL@@@std@@@std@@QAEXXZ 10002850 f i dllmain.obj
 0001:00001890       ?_Buy@?$vector@HV?$allocator@H@std@@@std@@IAE_NI@Z 10002890 f i dllmain.obj
 0001:00001890       ?_Buy@?$vector@V?$CStringT@_WV?$StrTraitMFC_DLL@_WV?$ChTraitsCRT@_W@ATL@@@@@ATL@@V?$allocator@V?$CStringT@_WV?$StrTraitMFC_DLL@_WV?$ChTraitsCRT@_W@ATL@@@@@ATL@@@std@@@std@@IAE_NI@Z 10002890 f i dllmain.obj
 0001:00001890       ?_Buy@?$vector@IV?$allocator@I@std@@@std@@IAE_NI@Z 10002890 f i BNC_ReferenceItemEx.obj
 0001:00001890       ?_Buy@?$vector@PAVBNC_Button@@V?$allocator@PAVBNC_Button@@@std@@@std@@IAE_NI@Z 10002890 f i dllmain.obj
 0001:00001890       ?_Buy@?$vector@IV?$allocator@_N@std@@@std@@IAE_NI@Z 10002890 f i BNC_ReferenceItemEx.obj
 0001:00001890       ?_Buy@?$vector@PAVBNC_ReferenceItem@@V?$allocator@PAVBNC_ReferenceItem@@@std@@@std@@IAE_NI@Z 10002890 f i dllmain.obj
 0001:00001900       ?_Destroy@?$vector@V?$CStringT@_WV?$StrTraitMFC_DLL@_WV?$ChTraitsCRT@_W@ATL@@@@@ATL@@V?$allocator@V?$CStringT@_WV?$StrTraitMFC_DLL@_WV?$ChTraitsCRT@_W@ATL@@@@@ATL@@@std@@@std@@IAEXPAV?$CStringT@_WV?$StrTraitMFC_DLL@_WV?$ChTraitsCRT@_W@ATL@@@@@ATL@@0@Z 10002900 f i dllmain.obj
 0001:00001930       ??0?$_Tree@V?$_Tmap_traits@V?$CStringT@_WV?$StrTraitMFC_DLL@_WV?$ChTraitsCRT@_W@ATL@@@@@ATL@@PAVBNC_ReferenceItem@@U?$less@V?$CStringT@_WV?$StrTraitMFC_DLL@_WV?$ChTraitsCRT@_W@ATL@@@@@ATL@@@std@@V?$allocator@U?$pair@$$CBV?$CStringT@_WV?$StrTraitMFC_DLL@_WV?$ChTraitsCRT@_W@ATL@@@@@ATL@@PAVBNC_ReferenceItem@@@std@@@5@$0A@@std@@@std@@QAE@ABV01@ABV?$allocator@U?$pair@$$CBV?$CStringT@_WV?$StrTraitMFC_DLL@_WV?$ChTraitsCRT@_W@ATL@@@@@ATL@@PAVBNC_ReferenceItem@@@std@@@1@@Z 10002930 f i dllmain.obj
 0001:000019d0       ?_Buy@?$vector@V?$shared_ptr@VBNC_FakeRect@@@std@@V?$allocator@V?$shared_ptr@VBNC_FakeRect@@@std@@@2@@std@@IAE_NI@Z 100029d0 f i dllmain.obj
 0001:000019d0       ?_Buy@?$vector@VCPoint@@V?$allocator@VCPoint@@@std@@@std@@IAE_NI@Z 100029d0 f i BNC_ReferenceItemExOption.obj
 0001:00001a40       ?assign@?$basic_string@DU?$char_traits@D@std@@V?$allocator@D@2@@std@@QAEAAV12@PBDI@Z 10002a40 f i dllmain.obj
 0001:00001b00       ?erase@?$basic_string@DU?$char_traits@D@std@@V?$allocator@D@2@@std@@QAEAAV12@II@Z 10002b00 f i dllmain.obj
 0001:00001b80       ?_Grow@?$basic_string@DU?$char_traits@D@std@@V?$allocator@D@2@@std@@QAE_NI_N@Z 10002b80 f i dllmain.obj
 0001:00001be0       ?erase@?$_Tree@V?$_Tmap_traits@V?$CStringT@_WV?$StrTraitMFC_DLL@_WV?$ChTraitsCRT@_W@ATL@@@@@ATL@@PAVBNC_ReferenceItemExOption@@U?$less@V?$CStringT@_WV?$StrTraitMFC_DLL@_WV?$ChTraitsCRT@_W@ATL@@@@@ATL@@@std@@V?$allocator@U?$pair@$$CBV?$CStringT@_WV?$StrTraitMFC_DLL@_WV?$ChTraitsCRT@_W@ATL@@@@@ATL@@PAVBNC_ReferenceItemExOption@@@std@@@5@$0A@@std@@@std@@QAE?AV?$_Tree_iterator@V?$_Tree_val@U?$_Tree_simple_types@U?$pair@$$CBV?$CStringT@_WV?$StrTraitMFC_DLL@_WV?$ChTraitsCRT@_W@ATL@@@@@ATL@@PAVBNC_ReferenceItemExOption@@@std@@@std@@@std@@@2@V?$_Tree_const_iterator@V?$_Tree_val@U?$_Tree_simple_types@U?$pair@$$CBV?$CStringT@_WV?$StrTraitMFC_DLL@_WV?$ChTraitsCRT@_W@ATL@@@@@ATL@@PAVBNC_ReferenceItemExOption@@@std@@@std@@@std@@@2@0@Z 10002be0 f i BNC_RefListControlEx.obj
 0001:00001be0       ?erase@?$_Tree@V?$_Tmap_traits@V?$CStringT@_WV?$StrTraitMFC_DLL@_WV?$ChTraitsCRT@_W@ATL@@@@@ATL@@PAVBNC_ReferenceItemEx@@U?$less@V?$CStringT@_WV?$StrTraitMFC_DLL@_WV?$ChTraitsCRT@_W@ATL@@@@@ATL@@@std@@V?$allocator@U?$pair@$$CBV?$CStringT@_WV?$StrTraitMFC_DLL@_WV?$ChTraitsCRT@_W@ATL@@@@@ATL@@PAVBNC_ReferenceItemEx@@@std@@@5@$0A@@std@@@std@@QAE?AV?$_Tree_iterator@V?$_Tree_val@U?$_Tree_simple_types@U?$pair@$$CBV?$CStringT@_WV?$StrTraitMFC_DLL@_WV?$ChTraitsCRT@_W@ATL@@@@@ATL@@PAVBNC_ReferenceItemEx@@@std@@@std@@@std@@@2@V?$_Tree_const_iterator@V?$_Tree_val@U?$_Tree_simple_types@U?$pair@$$CBV?$CStringT@_WV?$StrTraitMFC_DLL@_WV?$ChTraitsCRT@_W@ATL@@@@@ATL@@PAVBNC_ReferenceItemEx@@@std@@@std@@@std@@@2@0@Z 10002be0 f i BNC_RefListControlEx.obj
 0001:00001be0       ?erase@?$_Tree@V?$_Tmap_traits@V?$CStringT@_WV?$StrTraitMFC_DLL@_WV?$ChTraitsCRT@_W@ATL@@@@@ATL@@PAVBNC_ReferenceItem@@U?$less@V?$CStringT@_WV?$StrTraitMFC_DLL@_WV?$ChTraitsCRT@_W@ATL@@@@@ATL@@@std@@V?$allocator@U?$pair@$$CBV?$CStringT@_WV?$StrTraitMFC_DLL@_WV?$ChTraitsCRT@_W@ATL@@@@@ATL@@PAVBNC_ReferenceItem@@@std@@@5@$0A@@std@@@std@@QAE?AV?$_Tree_iterator@V?$_Tree_val@U?$_Tree_simple_types@U?$pair@$$CBV?$CStringT@_WV?$StrTraitMFC_DLL@_WV?$ChTraitsCRT@_W@ATL@@@@@ATL@@PAVBNC_ReferenceItem@@@std@@@std@@@std@@@2@V?$_Tree_const_iterator@V?$_Tree_val@U?$_Tree_simple_types@U?$pair@$$CBV?$CStringT@_WV?$StrTraitMFC_DLL@_WV?$ChTraitsCRT@_W@ATL@@@@@ATL@@PAVBNC_ReferenceItem@@@std@@@std@@@std@@@2@0@Z 10002be0 f i dllmain.obj
 0001:00001ca0       ?_Copy@?$basic_string@DU?$char_traits@D@std@@V?$allocator@D@2@@std@@QAEXII@Z 10002ca0 f i dllmain.obj
 0001:00001df0       ?erase@?$_Tree@V?$_Tmap_traits@V?$CStringT@_WV?$StrTraitMFC_DLL@_WV?$ChTraitsCRT@_W@ATL@@@@@ATL@@PAVBNC_ReferenceItemEx@@U?$less@V?$CStringT@_WV?$StrTraitMFC_DLL@_WV?$ChTraitsCRT@_W@ATL@@@@@ATL@@@std@@V?$allocator@U?$pair@$$CBV?$CStringT@_WV?$StrTraitMFC_DLL@_WV?$ChTraitsCRT@_W@ATL@@@@@ATL@@PAVBNC_ReferenceItemEx@@@std@@@5@$0A@@std@@@std@@QAE?AV?$_Tree_iterator@V?$_Tree_val@U?$_Tree_simple_types@U?$pair@$$CBV?$CStringT@_WV?$StrTraitMFC_DLL@_WV?$ChTraitsCRT@_W@ATL@@@@@ATL@@PAVBNC_ReferenceItemEx@@@std@@@std@@@std@@@2@V?$_Tree_const_iterator@V?$_Tree_val@U?$_Tree_simple_types@U?$pair@$$CBV?$CStringT@_WV?$StrTraitMFC_DLL@_WV?$ChTraitsCRT@_W@ATL@@@@@ATL@@PAVBNC_ReferenceItemEx@@@std@@@std@@@std@@@2@@Z 10002df0 f i BNC_RefListControlEx.obj
 0001:00001df0       ?erase@?$_Tree@V?$_Tmap_traits@V?$CStringT@_WV?$StrTraitMFC_DLL@_WV?$ChTraitsCRT@_W@ATL@@@@@ATL@@PAVBNC_ReferenceItemExOption@@U?$less@V?$CStringT@_WV?$StrTraitMFC_DLL@_WV?$ChTraitsCRT@_W@ATL@@@@@ATL@@@std@@V?$allocator@U?$pair@$$CBV?$CStringT@_WV?$StrTraitMFC_DLL@_WV?$ChTraitsCRT@_W@ATL@@@@@ATL@@PAVBNC_ReferenceItemExOption@@@std@@@5@$0A@@std@@@std@@QAE?AV?$_Tree_iterator@V?$_Tree_val@U?$_Tree_simple_types@U?$pair@$$CBV?$CStringT@_WV?$StrTraitMFC_DLL@_WV?$ChTraitsCRT@_W@ATL@@@@@ATL@@PAVBNC_ReferenceItemExOption@@@std@@@std@@@std@@@2@V?$_Tree_const_iterator@V?$_Tree_val@U?$_Tree_simple_types@U?$pair@$$CBV?$CStringT@_WV?$StrTraitMFC_DLL@_WV?$ChTraitsCRT@_W@ATL@@@@@ATL@@PAVBNC_ReferenceItemExOption@@@std@@@std@@@std@@@2@@Z 10002df0 f i BNC_RefListControlEx.obj
 0001:00001df0       ?erase@?$_Tree@V?$_Tmap_traits@V?$CStringT@_WV?$StrTraitMFC_DLL@_WV?$ChTraitsCRT@_W@ATL@@@@@ATL@@PAVBNC_ReferenceItem@@U?$less@V?$CStringT@_WV?$StrTraitMFC_DLL@_WV?$ChTraitsCRT@_W@ATL@@@@@ATL@@@std@@V?$allocator@U?$pair@$$CBV?$CStringT@_WV?$StrTraitMFC_DLL@_WV?$ChTraitsCRT@_W@ATL@@@@@ATL@@PAVBNC_ReferenceItem@@@std@@@5@$0A@@std@@@std@@QAE?AV?$_Tree_iterator@V?$_Tree_val@U?$_Tree_simple_types@U?$pair@$$CBV?$CStringT@_WV?$StrTraitMFC_DLL@_WV?$ChTraitsCRT@_W@ATL@@@@@ATL@@PAVBNC_ReferenceItem@@@std@@@std@@@std@@@2@V?$_Tree_const_iterator@V?$_Tree_val@U?$_Tree_simple_types@U?$pair@$$CBV?$CStringT@_WV?$StrTraitMFC_DLL@_WV?$ChTraitsCRT@_W@ATL@@@@@ATL@@PAVBNC_ReferenceItem@@@std@@@std@@@std@@@2@@Z 10002df0 f i dllmain.obj
 0001:00002070       ?_Erase@?$_Tree@V?$_Tmap_traits@V?$CStringT@_WV?$StrTraitMFC_DLL@_WV?$ChTraitsCRT@_W@ATL@@@@@ATL@@PAVBNC_ReferenceItem@@U?$less@V?$CStringT@_WV?$StrTraitMFC_DLL@_WV?$ChTraitsCRT@_W@ATL@@@@@ATL@@@std@@V?$allocator@U?$pair@$$CBV?$CStringT@_WV?$StrTraitMFC_DLL@_WV?$ChTraitsCRT@_W@ATL@@@@@ATL@@PAVBNC_ReferenceItem@@@std@@@5@$0A@@std@@@std@@IAEXPAU?$_Tree_node@U?$pair@$$CBV?$CStringT@_WV?$StrTraitMFC_DLL@_WV?$ChTraitsCRT@_W@ATL@@@@@ATL@@PAVBNC_ReferenceItem@@@std@@PAX@2@@Z 10003070 f i dllmain.obj
 0001:00002070       ?_Erase@?$_Tree@V?$_Tmap_traits@V?$CStringT@_WV?$StrTraitMFC_DLL@_WV?$ChTraitsCRT@_W@ATL@@@@@ATL@@PAVBNC_ReferenceItemExOption@@U?$less@V?$CStringT@_WV?$StrTraitMFC_DLL@_WV?$ChTraitsCRT@_W@ATL@@@@@ATL@@@std@@V?$allocator@U?$pair@$$CBV?$CStringT@_WV?$StrTraitMFC_DLL@_WV?$ChTraitsCRT@_W@ATL@@@@@ATL@@PAVBNC_ReferenceItemExOption@@@std@@@5@$0A@@std@@@std@@IAEXPAU?$_Tree_node@U?$pair@$$CBV?$CStringT@_WV?$StrTraitMFC_DLL@_WV?$ChTraitsCRT@_W@ATL@@@@@ATL@@PAVBNC_ReferenceItemExOption@@@std@@PAX@2@@Z 10003070 f i BNC_RefListControlEx.obj
 0001:00002070       ?_Erase@?$_Tree@V?$_Tmap_traits@V?$CStringT@_WV?$StrTraitMFC_DLL@_WV?$ChTraitsCRT@_W@ATL@@@@@ATL@@PAVBNC_ReferenceItemEx@@U?$less@V?$CStringT@_WV?$StrTraitMFC_DLL@_WV?$ChTraitsCRT@_W@ATL@@@@@ATL@@@std@@V?$allocator@U?$pair@$$CBV?$CStringT@_WV?$StrTraitMFC_DLL@_WV?$ChTraitsCRT@_W@ATL@@@@@ATL@@PAVBNC_ReferenceItemEx@@@std@@@5@$0A@@std@@@std@@IAEXPAU?$_Tree_node@U?$pair@$$CBV?$CStringT@_WV?$StrTraitMFC_DLL@_WV?$ChTraitsCRT@_W@ATL@@@@@ATL@@PAVBNC_ReferenceItemEx@@@std@@PAX@2@@Z 10003070 f i BNC_RefListControlEx.obj
 0001:00002070       ?_Erase@?$_Tree@V?$_Tmap_traits@V?$CStringT@_WV?$StrTraitMFC_DLL@_WV?$ChTraitsCRT@_W@ATL@@@@@ATL@@PAUHICON__@@U?$less@V?$CStringT@_WV?$StrTraitMFC_DLL@_WV?$ChTraitsCRT@_W@ATL@@@@@ATL@@@std@@V?$allocator@U?$pair@$$CBV?$CStringT@_WV?$StrTraitMFC_DLL@_WV?$ChTraitsCRT@_W@ATL@@@@@ATL@@PAUHICON__@@@std@@@5@$0A@@std@@@std@@IAEXPAU?$_Tree_node@U?$pair@$$CBV?$CStringT@_WV?$StrTraitMFC_DLL@_WV?$ChTraitsCRT@_W@ATL@@@@@ATL@@PAUHICON__@@@std@@PAX@2@@Z 10003070 f i BNC_HtmlMetaInfo.obj
 0001:00002070       ?_Erase@?$_Tree@V?$_Tmap_traits@V?$CStringT@_WV?$StrTraitMFC_DLL@_WV?$ChTraitsCRT@_W@ATL@@@@@ATL@@PAVImage@Gdiplus@@U?$less@V?$CStringT@_WV?$StrTraitMFC_DLL@_WV?$ChTraitsCRT@_W@ATL@@@@@ATL@@@std@@V?$allocator@U?$pair@$$CBV?$CStringT@_WV?$StrTraitMFC_DLL@_WV?$ChTraitsCRT@_W@ATL@@@@@ATL@@PAVImage@Gdiplus@@@std@@@6@$0A@@std@@@std@@IAEXPAU?$_Tree_node@U?$pair@$$CBV?$CStringT@_WV?$StrTraitMFC_DLL@_WV?$ChTraitsCRT@_W@ATL@@@@@ATL@@PAVImage@Gdiplus@@@std@@PAX@2@@Z 10003070 f i BNC_HtmlMetaInfo.obj
 0001:000020c0       ?allocate@?$_Wrap_alloc@V?$allocator@D@std@@@std@@QAEPADI@Z 100030c0 f i dllmain.obj
 0001:000020f0       ?_Lrotate@?$_Tree@V?$_Tset_traits@PAVBNC_ReferenceItem@@U?$less@PAVBNC_ReferenceItem@@@std@@V?$allocator@PAVBNC_ReferenceItem@@@3@$0A@@std@@@std@@IAEXPAU?$_Tree_node@PAVBNC_ReferenceItem@@PAX@2@@Z 100030f0 f i BNC_BaseRefItemControl.obj
 0001:000020f0       ?_Lrotate@?$_Tree@V?$_Tset_traits@PAUHWND__@@U?$less@PAUHWND__@@@std@@V?$allocator@PAUHWND__@@@3@$0A@@std@@@std@@IAEXPAU?$_Tree_node@PAUHWND__@@PAX@2@@Z 100030f0 f i BNC_BaseDialog.obj
 0001:000020f0       ?_Lrotate@?$_Tree@V?$_Tmap_traits@V?$CStringT@_WV?$StrTraitMFC_DLL@_WV?$ChTraitsCRT@_W@ATL@@@@@ATL@@PAVBNC_ReferenceItem@@U?$less@V?$CStringT@_WV?$StrTraitMFC_DLL@_WV?$ChTraitsCRT@_W@ATL@@@@@ATL@@@std@@V?$allocator@U?$pair@$$CBV?$CStringT@_WV?$StrTraitMFC_DLL@_WV?$ChTraitsCRT@_W@ATL@@@@@ATL@@PAVBNC_ReferenceItem@@@std@@@5@$0A@@std@@@std@@IAEXPAU?$_Tree_node@U?$pair@$$CBV?$CStringT@_WV?$StrTraitMFC_DLL@_WV?$ChTraitsCRT@_W@ATL@@@@@ATL@@PAVBNC_ReferenceItem@@@std@@PAX@2@@Z 100030f0 f i dllmain.obj
 0001:000020f0       ?_Lrotate@?$_Tree@V?$_Tmap_traits@IIU?$less@I@std@@V?$allocator@U?$pair@$$CBII@std@@@2@$0A@@std@@@std@@IAEXPAU?$_Tree_node@U?$pair@$$CBII@std@@PAX@2@@Z 100030f0 f i BNC_ReferenceItemExOption.obj
 0001:000020f0       ?_Lrotate@?$_Tree@V?$_Tmap_traits@V?$CStringT@_WV?$StrTraitMFC_DLL@_WV?$ChTraitsCRT@_W@ATL@@@@@ATL@@PAVBNC_ReferenceItemEx@@U?$less@V?$CStringT@_WV?$StrTraitMFC_DLL@_WV?$ChTraitsCRT@_W@ATL@@@@@ATL@@@std@@V?$allocator@U?$pair@$$CBV?$CStringT@_WV?$StrTraitMFC_DLL@_WV?$ChTraitsCRT@_W@ATL@@@@@ATL@@PAVBNC_ReferenceItemEx@@@std@@@5@$0A@@std@@@std@@IAEXPAU?$_Tree_node@U?$pair@$$CBV?$CStringT@_WV?$StrTraitMFC_DLL@_WV?$ChTraitsCRT@_W@ATL@@@@@ATL@@PAVBNC_ReferenceItemEx@@@std@@PAX@2@@Z 100030f0 f i BNC_RefListControlEx.obj
 0001:000020f0       ?_Lrotate@?$_Tree@V?$_Tmap_traits@V?$CStringT@_WV?$StrTraitMFC_DLL@_WV?$ChTraitsCRT@_W@ATL@@@@@ATL@@PAVBNC_ReferenceItemExOption@@U?$less@V?$CStringT@_WV?$StrTraitMFC_DLL@_WV?$ChTraitsCRT@_W@ATL@@@@@ATL@@@std@@V?$allocator@U?$pair@$$CBV?$CStringT@_WV?$StrTraitMFC_DLL@_WV?$ChTraitsCRT@_W@ATL@@@@@ATL@@PAVBNC_ReferenceItemExOption@@@std@@@5@$0A@@std@@@std@@IAEXPAU?$_Tree_node@U?$pair@$$CBV?$CStringT@_WV?$StrTraitMFC_DLL@_WV?$ChTraitsCRT@_W@ATL@@@@@ATL@@PAVBNC_ReferenceItemExOption@@@std@@PAX@2@@Z 100030f0 f i BNC_RefListControlEx.obj
 0001:000020f0       ?_Lrotate@?$_Tree@V?$_Tset_traits@PAVBNC_BaseDialog@@U?$less@PAVBNC_BaseDialog@@@std@@V?$allocator@PAVBNC_BaseDialog@@@3@$0A@@std@@@std@@IAEXPAU?$_Tree_node@PAVBNC_BaseDialog@@PAX@2@@Z 100030f0 f i BNC_BaseDialog.obj
 0001:000020f0       ?_Lrotate@?$_Tree@V?$_Tset_traits@PAVBNC_ReferenceItemEx@@U?$less@PAVBNC_ReferenceItemEx@@@std@@V?$allocator@PAVBNC_ReferenceItemEx@@@3@$0A@@std@@@std@@IAEXPAU?$_Tree_node@PAVBNC_ReferenceItemEx@@PAX@2@@Z 100030f0 f i BNC_BaseRefItemControlEx.obj
 0001:00002150       ?_Rrotate@?$_Tree@V?$_Tmap_traits@V?$CStringT@_WV?$StrTraitMFC_DLL@_WV?$ChTraitsCRT@_W@ATL@@@@@ATL@@PAVBNC_ReferenceItem@@U?$less@V?$CStringT@_WV?$StrTraitMFC_DLL@_WV?$ChTraitsCRT@_W@ATL@@@@@ATL@@@std@@V?$allocator@U?$pair@$$CBV?$CStringT@_WV?$StrTraitMFC_DLL@_WV?$ChTraitsCRT@_W@ATL@@@@@ATL@@PAVBNC_ReferenceItem@@@std@@@5@$0A@@std@@@std@@IAEXPAU?$_Tree_node@U?$pair@$$CBV?$CStringT@_WV?$StrTraitMFC_DLL@_WV?$ChTraitsCRT@_W@ATL@@@@@ATL@@PAVBNC_ReferenceItem@@@std@@PAX@2@@Z 10003150 f i dllmain.obj
 0001:00002150       ?_Rrotate@?$_Tree@V?$_Tset_traits@PAVBNC_BaseDialog@@U?$less@PAVBNC_BaseDialog@@@std@@V?$allocator@PAVBNC_BaseDialog@@@3@$0A@@std@@@std@@IAEXPAU?$_Tree_node@PAVBNC_BaseDialog@@PAX@2@@Z 10003150 f i BNC_BaseDialog.obj
 0001:00002150       ?_Rrotate@?$_Tree@V?$_Tset_traits@PAVBNC_ReferenceItemEx@@U?$less@PAVBNC_ReferenceItemEx@@@std@@V?$allocator@PAVBNC_ReferenceItemEx@@@3@$0A@@std@@@std@@IAEXPAU?$_Tree_node@PAVBNC_ReferenceItemEx@@PAX@2@@Z 10003150 f i BNC_BaseRefItemControlEx.obj
 0001:00002150       ?_Rrotate@?$_Tree@V?$_Tmap_traits@V?$CStringT@_WV?$StrTraitMFC_DLL@_WV?$ChTraitsCRT@_W@ATL@@@@@ATL@@PAVBNC_ReferenceItemExOption@@U?$less@V?$CStringT@_WV?$StrTraitMFC_DLL@_WV?$ChTraitsCRT@_W@ATL@@@@@ATL@@@std@@V?$allocator@U?$pair@$$CBV?$CStringT@_WV?$StrTraitMFC_DLL@_WV?$ChTraitsCRT@_W@ATL@@@@@ATL@@PAVBNC_ReferenceItemExOption@@@std@@@5@$0A@@std@@@std@@IAEXPAU?$_Tree_node@U?$pair@$$CBV?$CStringT@_WV?$StrTraitMFC_DLL@_WV?$ChTraitsCRT@_W@ATL@@@@@ATL@@PAVBNC_ReferenceItemExOption@@@std@@PAX@2@@Z 10003150 f i BNC_RefListControlEx.obj
 0001:00002150       ?_Rrotate@?$_Tree@V?$_Tset_traits@PAVBNC_ReferenceItem@@U?$less@PAVBNC_ReferenceItem@@@std@@V?$allocator@PAVBNC_ReferenceItem@@@3@$0A@@std@@@std@@IAEXPAU?$_Tree_node@PAVBNC_ReferenceItem@@PAX@2@@Z 10003150 f i BNC_BaseRefItemControl.obj
 0001:00002150       ?_Rrotate@?$_Tree@V?$_Tset_traits@PAUHWND__@@U?$less@PAUHWND__@@@std@@V?$allocator@PAUHWND__@@@3@$0A@@std@@@std@@IAEXPAU?$_Tree_node@PAUHWND__@@PAX@2@@Z 10003150 f i BNC_BaseDialog.obj
 0001:00002150       ?_Rrotate@?$_Tree@V?$_Tmap_traits@V?$CStringT@_WV?$StrTraitMFC_DLL@_WV?$ChTraitsCRT@_W@ATL@@@@@ATL@@PAVBNC_ReferenceItemEx@@U?$less@V?$CStringT@_WV?$StrTraitMFC_DLL@_WV?$ChTraitsCRT@_W@ATL@@@@@ATL@@@std@@V?$allocator@U?$pair@$$CBV?$CStringT@_WV?$StrTraitMFC_DLL@_WV?$ChTraitsCRT@_W@ATL@@@@@ATL@@PAVBNC_ReferenceItemEx@@@std@@@5@$0A@@std@@@std@@IAEXPAU?$_Tree_node@U?$pair@$$CBV?$CStringT@_WV?$StrTraitMFC_DLL@_WV?$ChTraitsCRT@_W@ATL@@@@@ATL@@PAVBNC_ReferenceItemEx@@@std@@PAX@2@@Z 10003150 f i BNC_RefListControlEx.obj
 0001:00002150       ?_Rrotate@?$_Tree@V?$_Tmap_traits@IIU?$less@I@std@@V?$allocator@U?$pair@$$CBII@std@@@2@$0A@@std@@@std@@IAEXPAU?$_Tree_node@U?$pair@$$CBII@std@@PAX@2@@Z 10003150 f i BNC_ReferenceItemExOption.obj
 0001:000021b0       ?_Max@?$_Tree_val@U?$_Tree_simple_types@U?$pair@$$CBV?$CStringT@_WV?$StrTraitMFC_DLL@_WV?$ChTraitsCRT@_W@ATL@@@@@ATL@@PAVBNC_ReferenceItem@@@std@@@std@@@std@@SAPAU?$_Tree_node@U?$pair@$$CBV?$CStringT@_WV?$StrTraitMFC_DLL@_WV?$ChTraitsCRT@_W@ATL@@@@@ATL@@PAVBNC_ReferenceItem@@@std@@PAX@2@PAU32@@Z 100031b0 f i dllmain.obj
 0001:000021b0       ?_Max@?$_Tree_val@U?$_Tree_simple_types@PAUHWND__@@@std@@@std@@SAPAU?$_Tree_node@PAUHWND__@@PAX@2@PAU32@@Z 100031b0 f i BNC_BaseDialog.obj
 0001:000021b0       ?_Max@?$_Tree_val@U?$_Tree_simple_types@PAVBNC_ReferenceItem@@@std@@@std@@SAPAU?$_Tree_node@PAVBNC_ReferenceItem@@PAX@2@PAU32@@Z 100031b0 f i BNC_BaseRefItemControl.obj
 0001:000021b0       ?_Max@?$_Tree_val@U?$_Tree_simple_types@U?$pair@$$CBV?$CStringT@_WV?$StrTraitMFC_DLL@_WV?$ChTraitsCRT@_W@ATL@@@@@ATL@@PAVImage@Gdiplus@@@std@@@std@@@std@@SAPAU?$_Tree_node@U?$pair@$$CBV?$CStringT@_WV?$StrTraitMFC_DLL@_WV?$ChTraitsCRT@_W@ATL@@@@@ATL@@PAVImage@Gdiplus@@@std@@PAX@2@PAU32@@Z 100031b0 f i BNC_HtmlMetaInfo.obj
 0001:000021b0       ?_Max@?$_Tree_val@U?$_Tree_simple_types@U?$pair@$$CBV?$CStringT@_WV?$StrTraitMFC_DLL@_WV?$ChTraitsCRT@_W@ATL@@@@@ATL@@PAVBNC_ReferenceItemEx@@@std@@@std@@@std@@SAPAU?$_Tree_node@U?$pair@$$CBV?$CStringT@_WV?$StrTraitMFC_DLL@_WV?$ChTraitsCRT@_W@ATL@@@@@ATL@@PAVBNC_ReferenceItemEx@@@std@@PAX@2@PAU32@@Z 100031b0 f i BNC_RefListControlEx.obj
 0001:000021b0       ?_Max@?$_Tree_val@U?$_Tree_simple_types@U?$pair@$$CBII@std@@@std@@@std@@SAPAU?$_Tree_node@U?$pair@$$CBII@std@@PAX@2@PAU32@@Z 100031b0 f i BNC_ReferenceItemExOption.obj
 0001:000021b0       ?_Max@?$_Tree_val@U?$_Tree_simple_types@PAVBNC_BaseDialog@@@std@@@std@@SAPAU?$_Tree_node@PAVBNC_BaseDialog@@PAX@2@PAU32@@Z 100031b0 f i BNC_BaseDialog.obj
 0001:000021b0       ?_Max@?$_Tree_val@U?$_Tree_simple_types@U?$pair@$$CBV?$CStringT@_WV?$StrTraitMFC_DLL@_WV?$ChTraitsCRT@_W@ATL@@@@@ATL@@PAUHICON__@@@std@@@std@@@std@@SAPAU?$_Tree_node@U?$pair@$$CBV?$CStringT@_WV?$StrTraitMFC_DLL@_WV?$ChTraitsCRT@_W@ATL@@@@@ATL@@PAUHICON__@@@std@@PAX@2@PAU32@@Z 100031b0 f i BNC_HtmlMetaInfo.obj
 0001:000021b0       ?_Max@?$_Tree_val@U?$_Tree_simple_types@PAVBNC_ReferenceItemEx@@@std@@@std@@SAPAU?$_Tree_node@PAVBNC_ReferenceItemEx@@PAX@2@PAU32@@Z 100031b0 f i BNC_BaseRefItemControlEx.obj
 0001:000021b0       ?_Max@?$_Tree_val@U?$_Tree_simple_types@U?$pair@$$CBV?$CStringT@_WV?$StrTraitMFC_DLL@_WV?$ChTraitsCRT@_W@ATL@@@@@ATL@@PAVBNC_ReferenceItemExOption@@@std@@@std@@@std@@SAPAU?$_Tree_node@U?$pair@$$CBV?$CStringT@_WV?$StrTraitMFC_DLL@_WV?$ChTraitsCRT@_W@ATL@@@@@ATL@@PAVBNC_ReferenceItemExOption@@@std@@PAX@2@PAU32@@Z 100031b0 f i BNC_RefListControlEx.obj
 0001:000021d0       ?_Buyheadnode@?$_Tree_alloc@$0A@U?$_Tree_base_types@U?$pair@$$CBV?$CStringT@_WV?$StrTraitMFC_DLL@_WV?$ChTraitsCRT@_W@ATL@@@@@ATL@@PAVBNC_ReferenceItem@@@std@@V?$allocator@U?$pair@$$CBV?$CStringT@_WV?$StrTraitMFC_DLL@_WV?$ChTraitsCRT@_W@ATL@@@@@ATL@@PAVBNC_ReferenceItem@@@std@@@2@@std@@@std@@QAEPAU?$_Tree_node@U?$pair@$$CBV?$CStringT@_WV?$StrTraitMFC_DLL@_WV?$ChTraitsCRT@_W@ATL@@@@@ATL@@PAVBNC_ReferenceItem@@@std@@PAX@2@XZ 100031d0 f i dllmain.obj
 0001:000021d0       ?_Buyheadnode@?$_Tree_alloc@$0A@U?$_Tree_base_types@U?$pair@$$CBII@std@@V?$allocator@U?$pair@$$CBII@std@@@2@@std@@@std@@QAEPAU?$_Tree_node@U?$pair@$$CBII@std@@PAX@2@XZ 100031d0 f i BNC_ReferenceItemExOption.obj
 0001:000021d0       ?_Buyheadnode@?$_Tree_alloc@$0A@U?$_Tree_base_types@U?$pair@$$CBV?$CStringT@_WV?$StrTraitMFC_DLL@_WV?$ChTraitsCRT@_W@ATL@@@@@ATL@@PAVBNC_ReferenceItemExOption@@@std@@V?$allocator@U?$pair@$$CBV?$CStringT@_WV?$StrTraitMFC_DLL@_WV?$ChTraitsCRT@_W@ATL@@@@@ATL@@PAVBNC_ReferenceItemExOption@@@std@@@2@@std@@@std@@QAEPAU?$_Tree_node@U?$pair@$$CBV?$CStringT@_WV?$StrTraitMFC_DLL@_WV?$ChTraitsCRT@_W@ATL@@@@@ATL@@PAVBNC_ReferenceItemExOption@@@std@@PAX@2@XZ 100031d0 f i BNC_RefListControlEx.obj
 0001:000021d0       ?_Buyheadnode@?$_Tree_alloc@$0A@U?$_Tree_base_types@U?$pair@$$CBV?$CStringT@_WV?$StrTraitMFC_DLL@_WV?$ChTraitsCRT@_W@ATL@@@@@ATL@@PAVBNC_ReferenceItemEx@@@std@@V?$allocator@U?$pair@$$CBV?$CStringT@_WV?$StrTraitMFC_DLL@_WV?$ChTraitsCRT@_W@ATL@@@@@ATL@@PAVBNC_ReferenceItemEx@@@std@@@2@@std@@@std@@QAEPAU?$_Tree_node@U?$pair@$$CBV?$CStringT@_WV?$StrTraitMFC_DLL@_WV?$ChTraitsCRT@_W@ATL@@@@@ATL@@PAVBNC_ReferenceItemEx@@@std@@PAX@2@XZ 100031d0 f i BNC_RefListControlEx.obj
 0001:000021d0       ?_Buyheadnode@?$_Tree_alloc@$0A@U?$_Tree_base_types@U?$pair@$$CBV?$CStringT@_WV?$StrTraitMFC_DLL@_WV?$ChTraitsCRT@_W@ATL@@@@@ATL@@PAUHICON__@@@std@@V?$allocator@U?$pair@$$CBV?$CStringT@_WV?$StrTraitMFC_DLL@_WV?$ChTraitsCRT@_W@ATL@@@@@ATL@@PAUHICON__@@@std@@@2@@std@@@std@@QAEPAU?$_Tree_node@U?$pair@$$CBV?$CStringT@_WV?$StrTraitMFC_DLL@_WV?$ChTraitsCRT@_W@ATL@@@@@ATL@@PAUHICON__@@@std@@PAX@2@XZ 100031d0 f i BNC_HtmlMetaInfo.obj
 0001:000021d0       ?_Buyheadnode@?$_Tree_alloc@$0A@U?$_Tree_base_types@U?$pair@$$CBV?$CStringT@_WV?$StrTraitMFC_DLL@_WV?$ChTraitsCRT@_W@ATL@@@@@ATL@@PAVImage@Gdiplus@@@std@@V?$allocator@U?$pair@$$CBV?$CStringT@_WV?$StrTraitMFC_DLL@_WV?$ChTraitsCRT@_W@ATL@@@@@ATL@@PAVImage@Gdiplus@@@std@@@2@@std@@@std@@QAEPAU?$_Tree_node@U?$pair@$$CBV?$CStringT@_WV?$StrTraitMFC_DLL@_WV?$ChTraitsCRT@_W@ATL@@@@@ATL@@PAVImage@Gdiplus@@@std@@PAX@2@XZ 100031d0 f i BNC_HtmlMetaInfo.obj
 0001:00002200       ??E?$_Tree_unchecked_const_iterator@V?$_Tree_val@U?$_Tree_simple_types@U?$pair@$$CBV?$CStringT@_WV?$StrTraitMFC_DLL@_WV?$ChTraitsCRT@_W@ATL@@@@@ATL@@PAVBNC_ReferenceItem@@@std@@@std@@@std@@U_Iterator_base0@2@@std@@QAEAAV01@XZ 10003200 f i dllmain.obj
 0001:00002200       ??E?$_Tree_unchecked_const_iterator@V?$_Tree_val@U?$_Tree_simple_types@U?$pair@$$CBII@std@@@std@@@std@@U_Iterator_base0@2@@std@@QAEAAV01@XZ 10003200 f i BNC_ReferenceItemExOption.obj
 0001:00002200       ??E?$_Tree_unchecked_const_iterator@V?$_Tree_val@U?$_Tree_simple_types@PAVBNC_ReferenceItemEx@@@std@@@std@@U_Iterator_base0@2@@std@@QAEAAV01@XZ 10003200 f i BNC_BaseRefItemControlEx.obj
 0001:00002200       ??E?$_Tree_unchecked_const_iterator@V?$_Tree_val@U?$_Tree_simple_types@U?$pair@$$CBV?$CStringT@_WV?$StrTraitMFC_DLL@_WV?$ChTraitsCRT@_W@ATL@@@@@ATL@@PAVBNC_ReferenceItemEx@@@std@@@std@@@std@@U_Iterator_base0@2@@std@@QAEAAV01@XZ 10003200 f i BNC_RefListControlEx.obj
 0001:00002200       ??E?$_Tree_unchecked_const_iterator@V?$_Tree_val@U?$_Tree_simple_types@PAVBNC_BaseDialog@@@std@@@std@@U_Iterator_base0@2@@std@@QAEAAV01@XZ 10003200 f i BNC_BaseDialog.obj
 0001:00002200       ??E?$_Tree_unchecked_const_iterator@V?$_Tree_val@U?$_Tree_simple_types@PAVBNC_ReferenceItem@@@std@@@std@@U_Iterator_base0@2@@std@@QAEAAV01@XZ 10003200 f i BNC_BaseRefItemControl.obj
 0001:00002200       ??E?$_Tree_unchecked_const_iterator@V?$_Tree_val@U?$_Tree_simple_types@PAUHWND__@@@std@@@std@@U_Iterator_base0@2@@std@@QAEAAV01@XZ 10003200 f i BNC_BaseDialog.obj
 0001:00002200       ??E?$_Tree_unchecked_const_iterator@V?$_Tree_val@U?$_Tree_simple_types@U?$pair@$$CBV?$CStringT@_WV?$StrTraitMFC_DLL@_WV?$ChTraitsCRT@_W@ATL@@@@@ATL@@PAUHICON__@@@std@@@std@@@std@@U_Iterator_base0@2@@std@@QAEAAV01@XZ 10003200 f i BNC_HtmlMetaInfo.obj
 0001:00002200       ??E?$_Tree_unchecked_const_iterator@V?$_Tree_val@U?$_Tree_simple_types@U?$pair@$$CBV?$CStringT@_WV?$StrTraitMFC_DLL@_WV?$ChTraitsCRT@_W@ATL@@@@@ATL@@PAVBNC_ReferenceItemExOption@@@std@@@std@@@std@@U_Iterator_base0@2@@std@@QAEAAV01@XZ 10003200 f i BNC_RefListControlEx.obj
 0001:00002200       ??E?$_Tree_unchecked_const_iterator@V?$_Tree_val@U?$_Tree_simple_types@U?$pair@$$CBV?$CStringT@_WV?$StrTraitMFC_DLL@_WV?$ChTraitsCRT@_W@ATL@@@@@ATL@@PAVImage@Gdiplus@@@std@@@std@@@std@@U_Iterator_base0@2@@std@@QAEAAV01@XZ 10003200 f i BNC_HtmlMetaInfo.obj
 0001:00002250       ??$AtlAdd@K@ATL@@YAJPAKKK@Z 10003250 f i dllmain.obj
 0001:00002280       ??$_Copy_impl@PAV?$CStringT@_WV?$StrTraitMFC_DLL@_WV?$ChTraitsCRT@_W@ATL@@@@@ATL@@PAV12@@std@@YAPAV?$CStringT@_WV?$StrTraitMFC_DLL@_WV?$ChTraitsCRT@_W@ATL@@@@@ATL@@PAV12@00@Z 10003280 f i dllmain.obj
 0001:000022b0       ??$_Copy@U?$integral_constant@_N$0A@@std@@@?$_Tree@V?$_Tmap_traits@V?$CStringT@_WV?$StrTraitMFC_DLL@_WV?$ChTraitsCRT@_W@ATL@@@@@ATL@@PAVBNC_ReferenceItem@@U?$less@V?$CStringT@_WV?$StrTraitMFC_DLL@_WV?$ChTraitsCRT@_W@ATL@@@@@ATL@@@std@@V?$allocator@U?$pair@$$CBV?$CStringT@_WV?$StrTraitMFC_DLL@_WV?$ChTraitsCRT@_W@ATL@@@@@ATL@@PAVBNC_ReferenceItem@@@std@@@5@$0A@@std@@@std@@IAEXABV01@U?$integral_constant@_N$0A@@1@@Z 100032b0 f i dllmain.obj
 0001:00002330       ??$_Copy_impl@PAV?$shared_ptr@VBNC_FakeRect@@@std@@PAV12@@std@@YAPAV?$shared_ptr@VBNC_FakeRect@@@0@PAV10@00U_Nonscalar_ptr_iterator_tag@0@@Z 10003330 f i dllmain.obj
 0001:000023c0       ??$_Copy_nodes@U?$integral_constant@_N$0A@@std@@@?$_Tree@V?$_Tmap_traits@V?$CStringT@_WV?$StrTraitMFC_DLL@_WV?$ChTraitsCRT@_W@ATL@@@@@ATL@@PAVBNC_ReferenceItem@@U?$less@V?$CStringT@_WV?$StrTraitMFC_DLL@_WV?$ChTraitsCRT@_W@ATL@@@@@ATL@@@std@@V?$allocator@U?$pair@$$CBV?$CStringT@_WV?$StrTraitMFC_DLL@_WV?$ChTraitsCRT@_W@ATL@@@@@ATL@@PAVBNC_ReferenceItem@@@std@@@5@$0A@@std@@@std@@IAEPAU?$_Tree_node@U?$pair@$$CBV?$CStringT@_WV?$StrTraitMFC_DLL@_WV?$ChTraitsCRT@_W@ATL@@@@@ATL@@PAVBNC_ReferenceItem@@@std@@PAX@1@PAU21@0U?$integral_constant@_N$0A@@1@@Z 100033c0 f i dllmain.obj
 0001:00002480       ??$_Destroy_range@U?$_Wrap_alloc@V?$allocator@V?$shared_ptr@VBNC_FakeRect@@@std@@@std@@@std@@@std@@YAXPAV?$shared_ptr@VBNC_FakeRect@@@0@0AAU?$_Wrap_alloc@V?$allocator@V?$shared_ptr@VBNC_FakeRect@@@std@@@std@@@0@U_Nonscalar_ptr_iterator_tag@0@@Z 10003480 f i dllmain.obj
 0001:000024d0       ??1?$shared_ptr@VBNC_FakeModal@@@std@@QAE@XZ 100034d0 f i BNC_BaseDialog.obj
 0001:000024d0       ??1?$shared_ptr@VBNC_AsyncMessageBox@@@std@@QAE@XZ 100034d0 f i IBaronow25.obj
 0001:000024d0       ??1?$shared_ptr@VBNC_FakeRect@@@std@@QAE@XZ 100034d0 f i dllmain.obj
 0001:00002510       ??$_Uninit_copy@PAV?$CStringT@_WV?$StrTraitMFC_DLL@_WV?$ChTraitsCRT@_W@ATL@@@@@ATL@@PAV12@V?$allocator@V?$CStringT@_WV?$StrTraitMFC_DLL@_WV?$ChTraitsCRT@_W@ATL@@@@@ATL@@@std@@@std@@YAPAV?$CStringT@_WV?$StrTraitMFC_DLL@_WV?$ChTraitsCRT@_W@ATL@@@@@ATL@@PAV12@00AAU?$_Wrap_alloc@V?$allocator@V?$CStringT@_WV?$StrTraitMFC_DLL@_WV?$ChTraitsCRT@_W@ATL@@@@@ATL@@@std@@@0@U_Nonscalar_ptr_iterator_tag@0@@Z 10003510 f i dllmain.obj
 0001:00002510       ??$_Uninit_move@PAV?$CStringT@_WV?$StrTraitMFC_DLL@_WV?$ChTraitsCRT@_W@ATL@@@@@ATL@@PAV12@V?$allocator@V?$CStringT@_WV?$StrTraitMFC_DLL@_WV?$ChTraitsCRT@_W@ATL@@@@@ATL@@@std@@V12@@std@@YAPAV?$CStringT@_WV?$StrTraitMFC_DLL@_WV?$ChTraitsCRT@_W@ATL@@@@@ATL@@PAV12@00AAU?$_Wrap_alloc@V?$allocator@V?$CStringT@_WV?$StrTraitMFC_DLL@_WV?$ChTraitsCRT@_W@ATL@@@@@ATL@@@std@@@0@0U_Nonscalar_ptr_iterator_tag@0@@Z 10003510 f i BNC_HyperLink.obj
 0001:00002510       ??$_Uninit_copy@PBV?$CStringT@_WV?$StrTraitMFC_DLL@_WV?$ChTraitsCRT@_W@ATL@@@@@ATL@@PAV12@V?$allocator@V?$CStringT@_WV?$StrTraitMFC_DLL@_WV?$ChTraitsCRT@_W@ATL@@@@@ATL@@@std@@@std@@YAPAV?$CStringT@_WV?$StrTraitMFC_DLL@_WV?$ChTraitsCRT@_W@ATL@@@@@ATL@@PBV12@0PAV12@AAU?$_Wrap_alloc@V?$allocator@V?$CStringT@_WV?$StrTraitMFC_DLL@_WV?$ChTraitsCRT@_W@ATL@@@@@ATL@@@std@@@0@U_Nonscalar_ptr_iterator_tag@0@@Z 10003510 f i dllmain.obj
 0001:000025b0       ??$_Uninit_copy@PAV?$shared_ptr@VBNC_FakeRect@@@std@@PAV12@V?$allocator@V?$shared_ptr@VBNC_FakeRect@@@std@@@2@@std@@YAPAV?$shared_ptr@VBNC_FakeRect@@@0@PAV10@00AAU?$_Wrap_alloc@V?$allocator@V?$shared_ptr@VBNC_FakeRect@@@std@@@std@@@0@U_Nonscalar_ptr_iterator_tag@0@@Z 100035b0 f i dllmain.obj
 0001:000025b0       ??$_Uninit_copy@PBV?$shared_ptr@VBNC_FakeRect@@@std@@PAV12@V?$allocator@V?$shared_ptr@VBNC_FakeRect@@@std@@@2@@std@@YAPAV?$shared_ptr@VBNC_FakeRect@@@0@PBV10@0PAV10@AAU?$_Wrap_alloc@V?$allocator@V?$shared_ptr@VBNC_FakeRect@@@std@@@std@@@0@U_Nonscalar_ptr_iterator_tag@0@@Z 100035b0 f i dllmain.obj
 0001:00002650       ??$_Buynode@U?$pair@V?$CStringT@_WV?$StrTraitMFC_DLL@_WV?$ChTraitsCRT@_W@ATL@@@@@ATL@@PAVBNC_ReferenceItemExOption@@@std@@@?$_Tree_buy@U?$pair@$$CBV?$CStringT@_WV?$StrTraitMFC_DLL@_WV?$ChTraitsCRT@_W@ATL@@@@@ATL@@PAVBNC_ReferenceItemExOption@@@std@@V?$allocator@U?$pair@$$CBV?$CStringT@_WV?$StrTraitMFC_DLL@_WV?$ChTraitsCRT@_W@ATL@@@@@ATL@@PAVBNC_ReferenceItemExOption@@@std@@@2@@std@@QAEPAU?$_Tree_node@U?$pair@$$CBV?$CStringT@_WV?$StrTraitMFC_DLL@_WV?$ChTraitsCRT@_W@ATL@@@@@ATL@@PAVBNC_ReferenceItemExOption@@@std@@PAX@1@$$QAU?$pair@V?$CStringT@_WV?$StrTraitMFC_DLL@_WV?$ChTraitsCRT@_W@ATL@@@@@ATL@@PAVBNC_ReferenceItemExOption@@@1@@Z 10003650 f i BNC_RefListControlEx.obj
 0001:00002650       ??$_Buynode@AAU?$pair@$$CBV?$CStringT@_WV?$StrTraitMFC_DLL@_WV?$ChTraitsCRT@_W@ATL@@@@@ATL@@PAVBNC_ReferenceItem@@@std@@@?$_Tree_buy@U?$pair@$$CBV?$CStringT@_WV?$StrTraitMFC_DLL@_WV?$ChTraitsCRT@_W@ATL@@@@@ATL@@PAVBNC_ReferenceItem@@@std@@V?$allocator@U?$pair@$$CBV?$CStringT@_WV?$StrTraitMFC_DLL@_WV?$ChTraitsCRT@_W@ATL@@@@@ATL@@PAVBNC_ReferenceItem@@@std@@@2@@std@@QAEPAU?$_Tree_node@U?$pair@$$CBV?$CStringT@_WV?$StrTraitMFC_DLL@_WV?$ChTraitsCRT@_W@ATL@@@@@ATL@@PAVBNC_ReferenceItem@@@std@@PAX@1@AAU?$pair@$$CBV?$CStringT@_WV?$StrTraitMFC_DLL@_WV?$ChTraitsCRT@_W@ATL@@@@@ATL@@PAVBNC_ReferenceItem@@@1@@Z 10003650 f i dllmain.obj
 0001:00002650       ??$_Buynode@U?$pair@V?$CStringT@_WV?$StrTraitMFC_DLL@_WV?$ChTraitsCRT@_W@ATL@@@@@ATL@@PAVBNC_ReferenceItem@@@std@@@?$_Tree_buy@U?$pair@$$CBV?$CStringT@_WV?$StrTraitMFC_DLL@_WV?$ChTraitsCRT@_W@ATL@@@@@ATL@@PAVBNC_ReferenceItem@@@std@@V?$allocator@U?$pair@$$CBV?$CStringT@_WV?$StrTraitMFC_DLL@_WV?$ChTraitsCRT@_W@ATL@@@@@ATL@@PAVBNC_ReferenceItem@@@std@@@2@@std@@QAEPAU?$_Tree_node@U?$pair@$$CBV?$CStringT@_WV?$StrTraitMFC_DLL@_WV?$ChTraitsCRT@_W@ATL@@@@@ATL@@PAVBNC_ReferenceItem@@@std@@PAX@1@$$QAU?$pair@V?$CStringT@_WV?$StrTraitMFC_DLL@_WV?$ChTraitsCRT@_W@ATL@@@@@ATL@@PAVBNC_ReferenceItem@@@1@@Z 10003650 f i BNC_RefListControl.obj
 0001:00002650       ??$_Buynode@U?$pair@V?$CStringT@_WV?$StrTraitMFC_DLL@_WV?$ChTraitsCRT@_W@ATL@@@@@ATL@@PAVBNC_ReferenceItemEx@@@std@@@?$_Tree_buy@U?$pair@$$CBV?$CStringT@_WV?$StrTraitMFC_DLL@_WV?$ChTraitsCRT@_W@ATL@@@@@ATL@@PAVBNC_ReferenceItemEx@@@std@@V?$allocator@U?$pair@$$CBV?$CStringT@_WV?$StrTraitMFC_DLL@_WV?$ChTraitsCRT@_W@ATL@@@@@ATL@@PAVBNC_ReferenceItemEx@@@std@@@2@@std@@QAEPAU?$_Tree_node@U?$pair@$$CBV?$CStringT@_WV?$StrTraitMFC_DLL@_WV?$ChTraitsCRT@_W@ATL@@@@@ATL@@PAVBNC_ReferenceItemEx@@@std@@PAX@1@$$QAU?$pair@V?$CStringT@_WV?$StrTraitMFC_DLL@_WV?$ChTraitsCRT@_W@ATL@@@@@ATL@@PAVBNC_ReferenceItemEx@@@1@@Z 10003650 f i BNC_RefListControlEx.obj
 0001:000026e0       ?_Buynode0@?$_Tree_buy@U?$pair@$$CBV?$CStringT@_WV?$StrTraitMFC_DLL@_WV?$ChTraitsCRT@_W@ATL@@@@@ATL@@PAVBNC_ReferenceItemEx@@@std@@V?$allocator@U?$pair@$$CBV?$CStringT@_WV?$StrTraitMFC_DLL@_WV?$ChTraitsCRT@_W@ATL@@@@@ATL@@PAVBNC_ReferenceItemEx@@@std@@@2@@std@@QAEPAU?$_Tree_node@U?$pair@$$CBV?$CStringT@_WV?$StrTraitMFC_DLL@_WV?$ChTraitsCRT@_W@ATL@@@@@ATL@@PAVBNC_ReferenceItemEx@@@std@@PAX@2@XZ 100036e0 f i BNC_RefListControlEx.obj
 0001:000026e0       ?_Buynode0@?$_Tree_buy@U?$pair@$$CBV?$CStringT@_WV?$StrTraitMFC_DLL@_WV?$ChTraitsCRT@_W@ATL@@@@@ATL@@PAVBNC_ReferenceItem@@@std@@V?$allocator@U?$pair@$$CBV?$CStringT@_WV?$StrTraitMFC_DLL@_WV?$ChTraitsCRT@_W@ATL@@@@@ATL@@PAVBNC_ReferenceItem@@@std@@@2@@std@@QAEPAU?$_Tree_node@U?$pair@$$CBV?$CStringT@_WV?$StrTraitMFC_DLL@_WV?$ChTraitsCRT@_W@ATL@@@@@ATL@@PAVBNC_ReferenceItem@@@std@@PAX@2@XZ 100036e0 f i dllmain.obj
 0001:000026e0       ?_Buynode0@?$_Tree_buy@U?$pair@$$CBV?$CStringT@_WV?$StrTraitMFC_DLL@_WV?$ChTraitsCRT@_W@ATL@@@@@ATL@@PAVBNC_ReferenceItemExOption@@@std@@V?$allocator@U?$pair@$$CBV?$CStringT@_WV?$StrTraitMFC_DLL@_WV?$ChTraitsCRT@_W@ATL@@@@@ATL@@PAVBNC_ReferenceItemExOption@@@std@@@2@@std@@QAEPAU?$_Tree_node@U?$pair@$$CBV?$CStringT@_WV?$StrTraitMFC_DLL@_WV?$ChTraitsCRT@_W@ATL@@@@@ATL@@PAVBNC_ReferenceItemExOption@@@std@@PAX@2@XZ 100036e0 f i BNC_RefListControlEx.obj
 0001:000026e0       ?_Buynode0@?$_Tree_buy@U?$pair@$$CBII@std@@V?$allocator@U?$pair@$$CBII@std@@@2@@std@@QAEPAU?$_Tree_node@U?$pair@$$CBII@std@@PAX@2@XZ 100036e0 f i BNC_ReferenceItemExOption.obj
 0001:00002720       ?GetCreateCount@BNC_BaseClient@@SAIXZ 10003720 f   BNC_BaseClient.obj
 0001:00002730       ?GetAliveCount@BNC_BaseClient@@SAIXZ 10003730 f   BNC_BaseClient.obj
 0001:00002740       ?_GetBaseClass@BNC_BaseClient@@KGPAUCRuntimeClass@@XZ 10003740 f   BNC_BaseClient.obj
 0001:00002740       ?_GetBaseClass@BNC_PopupMenu@@KGPAUCRuntimeClass@@XZ 10003740 f   BNC_PopupMenu.obj
 0001:00002740       ?_GetBaseClass@BNC_FadeAnimation@@KGPAUCRuntimeClass@@XZ 10003740 f   BNC_FadeAnimation.obj
 0001:00002740       ?_GetBaseClass@BNC_BaseControl@@KGPAUCRuntimeClass@@XZ 10003740 f   BNC_BaseControl.obj
 0001:00002740       ?_GetBaseClass@BNC_FakeWindow@@KGPAUCRuntimeClass@@XZ 10003740 f   BNC_FakeWindow.obj
 0001:00002750       ?GetRuntimeClass@BNC_BaseClient@@UBEPAUCRuntimeClass@@XZ 10003750 f   BNC_BaseClient.obj
 0001:00002750       ?GetThisClass@BNC_BaseClient@@SGPAUCRuntimeClass@@XZ 10003750 f   BNC_BaseClient.obj
 0001:00002760       ??0BNC_BaseClient@@QAE@XZ  10003760 f   BNC_BaseClient.obj
 0001:00002910       ??1BNC_BaseClient@@UAE@XZ  10003910 f   BNC_BaseClient.obj
 0001:00002a60       ?GetMessageMap@BNC_BaseClient@@MBEPBUAFX_MSGMAP@@XZ 10003a60 f   BNC_BaseClient.obj
 0001:00002a60       ?GetThisMessageMap@BNC_BaseClient@@KGPBUAFX_MSGMAP@@XZ 10003a60 f   BNC_BaseClient.obj
 0001:00002a70       ?Create@BNC_BaseClient@@MAEHPB_W0KABUtagRECT@@PAVCWnd@@IPAUCCreateContext@@@Z 10003a70 f   BNC_BaseClient.obj
 0001:00002a70       ?Create@BNC_PopupMenu@@EAEHPB_W0KABUtagRECT@@PAVCWnd@@IPAUCCreateContext@@@Z 10003a70 f   BNC_PopupMenu.obj
 0001:00002a70       ?Create@BNC_FakeWindow@@UAEHPB_W0KABUtagRECT@@PAVCWnd@@IPAUCCreateContext@@@Z 10003a70 f   BNC_FakeWindow.obj
 0001:00002a70       ?Create@BNC_BaseControl@@MAEHPB_W0KABUtagRECT@@PAVCWnd@@IPAUCCreateContext@@@Z 10003a70 f   BNC_BaseControl.obj
 0001:00002a80       ?CreateEx@BNC_FakeBorder@@EAEHKPB_W0KABUtagRECT@@PAVCWnd@@IPAX@Z 10003a80 f   BNC_FakeBorder.obj
 0001:00002a80       ?CreateEx@BNC_BaseDialog@@UAEHKPB_W0KABUtagRECT@@PAVCWnd@@IPAX@Z 10003a80 f   BNC_BaseDialog.obj
 0001:00002a80       ?CreateEx@BNC_PopupMenu@@EAEHKPB_W0KABUtagRECT@@PAVCWnd@@IPAX@Z 10003a80 f   BNC_PopupMenu.obj
 0001:00002a80       ?CreateEx@BNC_BaseControl@@MAEHKPB_W0KABUtagRECT@@PAVCWnd@@IPAX@Z 10003a80 f   BNC_BaseControl.obj
 0001:00002a80       ?CreateEx@BNC_FakeWindow@@UAEHKPB_W0KABUtagRECT@@PAVCWnd@@IPAX@Z 10003a80 f   BNC_FakeWindow.obj
 0001:00002a80       ?CreateEx@BNC_BaseClient@@MAEHKPB_W0KABUtagRECT@@PAVCWnd@@IPAX@Z 10003a80 f   BNC_BaseClient.obj
 0001:00002a80       ?CreateEx@BNC_BaseLayered@@EAEHKPB_W0KABUtagRECT@@PAVCWnd@@IPAX@Z 10003a80 f   BNC_BaseLayered.obj
 0001:00002a90       ?CreateRoot@BNC_BaseClient@@QAE_NPAVBNC_BaseDialog@@@Z 10003a90 f   BNC_BaseClient.obj
 0001:00002ab0       ?CreateChild@BNC_BaseClient@@QAE_NPAV1@@Z 10003ab0 f   BNC_BaseClient.obj
 0001:00002af0       ?create@BNC_BaseClient@@AAE_NPAVCWnd@@@Z 10003af0 f   BNC_BaseClient.obj
 0001:00002ba0       ?OnCreate@BNC_RefListControlEx@@EAE_NXZ 10003ba0 f   BNC_RefListControlEx.obj
 0001:00002ba0       ?OnCreate@BNC_BaseDialog@@EAE_NXZ 10003ba0 f   BNC_BaseDialog.obj
 0001:00002ba0       ?OnCreate@BNC_TabControl@@EAE_NXZ 10003ba0 f   BNC_TabControl.obj
 0001:00002ba0       ?OnCreate@BNC_RefTreeControl@@EAE_NXZ 10003ba0 f   BNC_RefTreeControl.obj
 0001:00002ba0       ?OnCreate@BNC_Editbox@@MAE_NXZ 10003ba0 f   BNC_Editbox.obj
 0001:00002ba0       ?OnCreate@BNC_BaseSliderCtrl@@EAE_NXZ 10003ba0 f   BNC_BaseSliderCtrl.obj
 0001:00002ba0       ?OnCreate@BNC_DummyListControl@@EAE_NXZ 10003ba0 f   BNC_DummyListControl.obj
 0001:00002ba0       ?OnCreate@BNC_EditboxEx@@EAE_NXZ 10003ba0 f   BNC_EditboxEx.obj
 0001:00002ba0       ?OnCreate@BNC_RefListControl@@EAE_NXZ 10003ba0 f   BNC_RefListControl.obj
 0001:00002ba0       ?OnCreate@BNC_BaseControl@@EAE_NXZ 10003ba0 f   BNC_BaseControl.obj
 0001:00002ba0       ?MouseProcess@BNC_BorderessProc@@AAE_NXZ 10003ba0 f   BNC_BorderessProc.obj
 0001:00002ba0       ?OnCreate@BNC_BaseClient@@EAE_NXZ 10003ba0 f   BNC_BaseClient.obj
 0001:00002bb0       ?OnUpdateSyncPos@BNC_FloatingMessage@@MAEXVCSize@@@Z 10003bb0 f   BNC_FloatingMessage.obj
 0001:00002bb0       ?OnMsgNavigationEnd@BNC_HtmlBrowserThread@@AAEXIJ@Z 10003bb0 f   BNC_HtmlBrowserThread.obj
 0001:00002bb0       ?OnUpdateSize@BNC_EditboxEx@@AAEXHH@Z 10003bb0 f   BNC_EditboxEx.obj
 0001:00002bb0       ?OnUpdateSize@BNC_AsyncMessageBox@@EAEXHH@Z 10003bb0 f   BNC_AsyncMessageBox.obj
 0001:00002bb0       ?OnUpdateSize@BNC_BaseControl@@EAEXHH@Z 10003bb0 f   BNC_BaseControl.obj
 0001:00002bb0       ?OnMouseControlUpdate@BNC_BaseControl@@EAEXW4BNE_MOUSESTATE@@AAVCPoint@@@Z 10003bb0 f   BNC_BaseControl.obj
 0001:00002bb0       ?OnNotifyMouseWheel@BNC_BaseClient@@UAEXIF@Z 10003bb0 f   BNC_BaseClient.obj
 0001:00002bb0       ?OnUpdateClient@BNC_BaseClient@@EAEXHH@Z 10003bb0 f   BNC_BaseClient.obj
 0001:00002bc0       ?OnDraw@BNC_BaseOverlay@@EAE_NPAVCDC@@0@Z 10003bc0 f   BNC_BaseOverlay.obj
 0001:00002bc0       ?OnDrawRootClient@BNC_BaseDialog@@UAE_NPAVCDC@@0@Z 10003bc0 f   BNC_BaseDialog.obj
 0001:00002bc0       ?OnDraw@BNC_RefListViewEx@@MAE_NPAVCDC@@0@Z 10003bc0 f   BNC_RefListViewEx.obj
 0001:00002bc0       ?OnDraw@BNC_BaseControl@@EAE_NPAVCDC@@0@Z 10003bc0 f   BNC_BaseControl.obj
 0001:00002bc0       ?OnDraw@BNC_RefListView@@MAE_NPAVCDC@@0@Z 10003bc0 f   BNC_RefListView.obj
 0001:00002bc0       ?OnDraw@BNC_DummyListView@@MAE_NPAVCDC@@0@Z 10003bc0 f   BNC_DummyListView.obj
 0001:00002bc0       ?OnDraw@BNC_BaseFloating@@EAE_NPAVCDC@@0@Z 10003bc0 f   BNC_BaseFloating.obj
 0001:00002bc0       ?OnDraw@BNC_RefTreeView@@MAE_NPAVCDC@@0@Z 10003bc0 f   BNC_RefTreeView.obj
 0001:00002bc0       ?OnDraw@BNC_BaseClient@@EAE_NPAVCDC@@0@Z 10003bc0 f   BNC_BaseClient.obj
 0001:00002bd0       ?EraseChildClient@BNC_BaseClient@@IAEXPAV1@@Z 10003bd0 f   BNC_BaseClient.obj
 0001:00002cd0       ?OnDragLeave@BNC_BaseRefItemControlEx@@EAE_NPAVBNC_ReferenceItemEx@@@Z 10003cd0 f   BNC_BaseRefItemControlEx.obj
 0001:00002cd0       ?OnPopupMinMaxInfo@BNC_BaseClient@@UAE_NPAUtagMINMAXINFO@@@Z 10003cd0 f   BNC_BaseClient.obj
 0001:00002ce0       ?OnDragEnter@BNC_BaseRefItemControlEx@@EAE_NPAVBNC_ReferenceItemEx@@AAVCPoint@@_N@Z 10003ce0 f   BNC_BaseRefItemControlEx.obj
 0001:00002ce0       ?OnPreVisibleComboList@BNC_BaseClient@@UAE_NIAAVBNC_PopupMenu@@H@Z 10003ce0 f   BNC_BaseClient.obj
 0001:00002cf0       ?Draw@BNC_BaseClient@@QAEXPAVCDC@@PAUtagRECT@@@Z 10003cf0 f   BNC_BaseClient.obj
 0001:00003010       ?OnDestroy@BNC_EditboxEx@@QAEXXZ 10004010 f   BNC_EditboxEx.obj
 0001:00003010       ?OnDestroy@BNC_TabControl@@QAEXXZ 10004010 f   BNC_TabControl.obj
 0001:00003010       ?OnDestroy@BNC_DummyListView@@QAEXXZ 10004010 f   BNC_DummyListView.obj
 0001:00003010       ?OnDestroy@BNC_RefListView@@QAEXXZ 10004010 f   BNC_RefListView.obj
 0001:00003010       ?OnDestroy@BNC_RefListViewEx@@QAEXXZ 10004010 f   BNC_RefListViewEx.obj
 0001:00003010       ?OnDestroy@BNC_BaseClient@@QAEXXZ 10004010 f   BNC_BaseClient.obj
 0001:00003010       ?OnDestroy@BNC_AsyncMessageBoxRoot@@IAEXXZ 10004010 f   BNC_AsyncMessageBox.obj
 0001:00003010       ?OnDestroy@BNC_RefTreeView@@QAEXXZ 10004010 f   BNC_RefTreeView.obj
 0001:00003020       ?OnPaint@BNC_BaseClient@@QAEXXZ 10004020 f   BNC_BaseClient.obj
 0001:000030b0       ?OnEraseBkgnd@BNC_BaseClient@@QAEHPAVCDC@@@Z 100040b0 f   BNC_BaseClient.obj
 0001:000030e0       ?OnSize@BNC_BaseClient@@QAEXIHH@Z 100040e0 f   BNC_BaseClient.obj
 0001:00003140       ?OnWindowPosChanged@BNC_FakeBorder@@QAEXPAUtagWINDOWPOS@@@Z 10004140 f   BNC_FakeBorder.obj
 0001:00003140       ?OnNcActivate@BNC_BaseDialog@@QAEHH@Z 10004140 f   BNC_BaseDialog.obj
 0001:00003140       ?OnWindowPosChanged@BNC_BaseClient@@QAEXPAUtagWINDOWPOS@@@Z 10004140 f   BNC_BaseClient.obj
 0001:00003140       ?OnNcRenderingChanged@BNC_BaseDialog@@QAEXH@Z 10004140 f   BNC_BaseDialog.obj
 0001:00003140       ?OnWindowPosChanged@BNC_FakeWindow@@QAEXPAUtagWINDOWPOS@@@Z 10004140 f   BNC_FakeWindow.obj
 0001:00003140       ?OnWindowPosChanging@BNC_BaseSliderCtrl@@QAEXPAUtagWINDOWPOS@@@Z 10004140 f   BNC_BaseSliderCtrl.obj
 0001:00003140       ?OnWindowPosChanging@BNC_BaseClient@@QAEXPAUtagWINDOWPOS@@@Z 10004140 f   BNC_BaseClient.obj
 0001:00003150       ?UpdateClient@BNC_BaseClient@@AAEXHH@Z 10004150 f   BNC_BaseClient.obj
 0001:000031a0       ?GetCurrentTabstop@BNC_BaseClient@@IAEPAVCWnd@@XZ 100041a0 f   BNC_BaseClient.obj
 0001:000031d0       ?SetSelectClient@BNC_BaseClient@@IAE_NPAV1@@Z 100041d0 f   BNC_BaseClient.obj
 0001:000032c0       ?SendPopupSyscommand@BNC_BaseClient@@IAEJI@Z 100042c0 f   BNC_BaseClient.obj
 0001:000033e0       ?SetNextTabstopFocus@BNC_BaseClient@@IAEXXZ 100043e0 f   BNC_BaseClient.obj
 0001:00003460       ?UpdatePopupStatus@BNC_BaseClient@@QAEXW4BNE_POPUP_STATUS@@@Z 10004460 f   BNC_BaseClient.obj
 0001:00003790       ?Animation@BNC_BaseClient@@QAEX_NN@Z 10004790 f   BNC_BaseClient.obj
 0001:000037a0       ?CopyDC@BNC_BaseClient@@QAEXPAVCDC@@@Z 100047a0 f   BNC_BaseClient.obj
 0001:000038c0       ?GetMemDC@BNC_BaseClient@@QAEPAVCDC@@XZ 100048c0 f   BNC_BaseClient.obj
 0001:000038d0       ?CopyIntersectMemDC@BNC_BaseClient@@QAE_NPAUHWND__@@PAVCDC@@@Z 100048d0 f   BNC_BaseClient.obj
 0001:000039f0       ?PreTranslateMessage@BNC_BaseClient@@MAEHPAUtagMSG@@@Z 100049f0 f   BNC_BaseClient.obj
 0001:00003a40       ?SendMouseEventToPopup@BNC_BaseClient@@AAEJIIAAVCPoint@@@Z 10004a40 f   BNC_BaseClient.obj
 0001:00003b70       ?OnMouseMove@BNC_BaseClient@@QAEXIVCPoint@@@Z 10004b70 f   BNC_BaseClient.obj
 0001:00003ba0       ?OnLButtonDblClk@BNC_BaseClient@@QAEXIVCPoint@@@Z 10004ba0 f   BNC_BaseClient.obj
 0001:00003c80       ?OnLButtonDown@BNC_BaseClient@@QAEXIVCPoint@@@Z 10004c80 f   BNC_BaseClient.obj
 0001:00003cc0       ?OnLButtonUp@BNC_BaseClient@@QAEXIVCPoint@@@Z 10004cc0 f   BNC_BaseClient.obj
 0001:00003d90       ?OnRButtonDown@BNC_BaseClient@@QAEXIVCPoint@@@Z 10004d90 f   BNC_BaseClient.obj
 0001:00003da0       ?OnRButtonUp@BNC_BaseClient@@QAEXIVCPoint@@@Z 10004da0 f   BNC_BaseClient.obj
 0001:00003db0       ?OnNcMouseMove@BNC_BaseClient@@QAEXIVCPoint@@@Z 10004db0 f   BNC_BaseClient.obj
 0001:00003db0       ?OnActivate@BNC_RichEditbox@@QAEXIPAVCWnd@@H@Z 10004db0 f   BNC_RichEditbox.obj
 0001:00003db0       ?OnRButtonDown@BNC_BaseFloating@@QAEXIVCPoint@@@Z 10004db0 f   BNC_BaseFloating.obj
 0001:00003db0       ?OnLButtonDown@BNC_FakeWindow@@QAEXIVCPoint@@@Z 10004db0 f   BNC_FakeWindow.obj
 0001:00003db0       ?OnMouseActivate@BNC_BaseDialog@@QAEHPAVCWnd@@II@Z 10004db0 f   BNC_BaseDialog.obj
 0001:00003db0       ?OnMouseActivate@BNC_BaseModal@@QAEHPAVCWnd@@II@Z 10004db0 f   BNC_BaseModal.obj
 0001:00003db0       ?OnMouseActivate@BNC_BaseInstant@@QAEHPAVCWnd@@II@Z 10004db0 f   BNC_BaseInstant.obj
 0001:00003dc0       ?OnNcLButtonDown@BNC_BaseClient@@QAEXIVCPoint@@@Z 10004dc0 f   BNC_BaseClient.obj
 0001:00003dd0       ?OnNcLButtonUp@BNC_BaseClient@@QAEXIVCPoint@@@Z 10004dd0 f   BNC_BaseClient.obj
 0001:00003de0       ?OnNcRButtonDown@BNC_BaseClient@@QAEXIVCPoint@@@Z 10004de0 f   BNC_BaseClient.obj
 0001:00003df0       ?OnNcRButtonUp@BNC_BaseClient@@QAEXIVCPoint@@@Z 10004df0 f   BNC_BaseClient.obj
 0001:00003e00       ?OnTransparentUpdate@BNC_BaseDialog@@EAEXW4TransparentStep@@EEEM@Z 10004e00 f   BNC_BaseDialog.obj
 0001:00003e00       ?OnDrawChildClient@BNC_BaseClient@@UAEXPBV1@PAVCDC@@1VCSize@@@Z 10004e00 f   BNC_BaseClient.obj
 0001:00003e10       ?OnDrawButton@BNC_AsyncMessageBoxRoot@@EAEXGPAVCDC@@0PAVGraphics@Gdiplus@@HVCSize@@@Z 10004e10 f   BNC_AsyncMessageBox.obj
 0001:00003e10       ?OnDrawButton@BNC_BaseClient@@UAEXGPAVCDC@@0PAVGraphics@Gdiplus@@HVCSize@@@Z 10004e10 f   BNC_BaseClient.obj
 0001:00003e10       ?OnDeferWindowPos@BNC_BaseClient@@UAEXPAXPAUHWND__@@HHHHI@Z 10004e10 f   BNC_BaseClient.obj
 0001:00003e20       ?OnDrawTab@BNC_BaseClient@@UAEXIIPAVCDC@@0PAVGraphics@Gdiplus@@H_NVCSize@@@Z 10004e20 f   BNC_BaseClient.obj
 0001:00003e30       ?OnDrawSlider@BNC_BaseClient@@UAE_NIPAVCDC@@0PAVBNC_MouseControl@@AAVCRect@@2_N2@Z 10004e30 f   BNC_BaseClient.obj
 0001:00003e40       ?OnDrawListNoData@BNC_BaseClient@@UAE_NIPAVCDC@@0VCSize@@@Z 10004e40 f   BNC_BaseClient.obj
 0001:00003e50       ?OnRedraw@BNC_BaseClient@@UAEX_N@Z 10004e50 f   BNC_BaseClient.obj
 0001:00003f10       ?OnDragMove@BNC_BaseRefItemControlEx@@EAE_NPAVBNC_ReferenceItemEx@@AAVCPoint@@@Z 10004f10 f   BNC_BaseRefItemControlEx.obj
 0001:00003f10       ?OnButtonStateAnimation@BNC_BaseClient@@UAE_NGM@Z 10004f10 f   BNC_BaseClient.obj
 0001:00003f10       ?SendKeyDown@BNC_CaptureKeyboardMouse@@QAE_NIPAVBNC_BaseClient@@@Z 10004f10 f   BNC_CaptureKeyboardMouse.obj
 0001:00003f10       ?DrawTransparent@BNC_BorderessProc@@QAE_NPAVCDC@@PAVCRect@@@Z 10004f10 f   BNC_BorderessProc.obj
 0001:00003f20       ?OnTopWndEnable@BNC_BaseClient@@UAEXH@Z 10004f20 f   BNC_BaseClient.obj
 0001:00003f70       ?OnMessageSystray@BNC_BaseClient@@MAEJIJ@Z 10004f70 f   BNC_BaseClient.obj
 0001:00003fb0       ?OnMessageContextMenu@BNC_BaseClient@@MAEJIJ@Z 10004fb0 f   BNC_BaseClient.obj
 0001:00003ff0       ?OnMessageClient@BNC_BaseClient@@MAEJIJ@Z 10004ff0 f   BNC_BaseClient.obj
 0001:00004030       ?OnMessageNotify@BNC_BaseClient@@MAEJIJ@Z 10005030 f   BNC_BaseClient.obj
 0001:00004070       ?Create@BNC_FakeBorder@@EAEHPB_WPAVCWnd@@@Z 10005070 f   BNC_FakeBorder.obj
 0001:00004070       ?OnMessageSystray@BNC_BaseDialog@@EAEJIJ@Z 10005070 f   BNC_BaseDialog.obj
 0001:00004070       ?OnMessageList@BNC_DummyListView@@MAEJIJ@Z 10005070 f   BNC_DummyListView.obj
 0001:00004070       ?Create@BNC_BaseDialog@@UAEHPB_WPAVCWnd@@@Z 10005070 f   BNC_BaseDialog.obj
 0001:00004070       ?OnMessageButton@BNC_BaseDialog@@EAEJIJ@Z 10005070 f   BNC_BaseDialog.obj
 0001:00004070       ?OnMessageFButton@BNC_BaseDialog@@EAEJIJ@Z 10005070 f   BNC_BaseDialog.obj
 0001:00004070       ?OnMessageHtmlWebEvent@BNC_BaseDialog@@EAEJIJ@Z 10005070 f   BNC_BaseDialog.obj
 0001:00004070       ?OnMessageNotify@BNC_BaseDialog@@EAEJIJ@Z 10005070 f   BNC_BaseDialog.obj
 0001:00004070       ?Create@BNC_BaseLayered@@EAEHPB_WPAVCWnd@@@Z 10005070 f   BNC_BaseLayered.obj
 0001:00004070       ?OnDestroyBlock@BNC_BaseClient@@MAEJIJ@Z 10005070 f   BNC_BaseClient.obj
 0001:00004070       ?OnDpiChange@BNC_BaseDialog@@EAEJIJ@Z 10005070 f   BNC_BaseDialog.obj
 0001:00004070       ?CtlColor@BNC_RichEditbox@@QAEPAUHBRUSH__@@PAVCDC@@I@Z 10005070 f   BNC_RichEditbox.obj
 0001:00004070       ?OnMessageCombo@BNC_BaseDialog@@EAEJIJ@Z 10005070 f   BNC_BaseDialog.obj
 0001:00004070       ?OnMessageList@BNC_BaseDialog@@EAEJIJ@Z 10005070 f   BNC_BaseDialog.obj
 0001:00004070       ?OnDisplayChange@BNC_BaseDialog@@EAEJIJ@Z 10005070 f   BNC_BaseDialog.obj
 0001:00004070       ?OnMessageList@BNC_RefListView@@MAEJIJ@Z 10005070 f   BNC_RefListView.obj
 0001:00004070       ?OnMessageEdit@BNC_BaseDialog@@EAEJIJ@Z 10005070 f   BNC_BaseDialog.obj
 0001:00004070       ?OnMessageProgress@BNC_BaseDialog@@EAEJIJ@Z 10005070 f   BNC_BaseDialog.obj
 0001:00004070       ?OnMessageSlider@BNC_BaseDialog@@EAEJIJ@Z 10005070 f   BNC_BaseDialog.obj
 0001:00004070       ?OnMessageTab@BNC_BaseDialog@@EAEJIJ@Z 10005070 f   BNC_BaseDialog.obj
 0001:00004070       ?OnMessageScroll@BNC_BaseDialog@@EAEJIJ@Z 10005070 f   BNC_BaseDialog.obj
 0001:00004070       ?OnMessageClient@BNC_BaseDialog@@EAEJIJ@Z 10005070 f   BNC_BaseDialog.obj
 0001:00004070       ?OnMessageTree@BNC_RefTreeView@@MAEJIJ@Z 10005070 f   BNC_RefTreeView.obj
 0001:00004070       ?OnMessageResizeClient@BNC_BaseClient@@MAEJIJ@Z 10005070 f   BNC_BaseClient.obj
 0001:00004070       ?OnMessageTree@BNC_BaseDialog@@EAEJIJ@Z 10005070 f   BNC_BaseDialog.obj
 0001:00004070       ?OnMessageContextMenu@BNC_BaseDialog@@EAEJIJ@Z 10005070 f   BNC_BaseDialog.obj
 0001:00004080       ?CheckTitlebarEvent@BNC_BaseClient@@QAE_NIJ@Z 10005080 f   BNC_BaseClient.obj
 0001:000040d0       ?GetPopupPtr@BNC_BaseClient@@QAEPAVBNC_BaseDialog@@XZ 100050d0 f   BNC_BaseClient.obj
 0001:000040e0       ?GetOldPopupPtr@BNC_BaseClient@@QAEPAVBNC_BaseDialog@@XZ 100050e0 f   BNC_BaseClient.obj
 0001:000040e0       ?GetTooltipPtr@BNC_BaseControl@@QAEPAVCToolTipCtrl@@XZ 100050e0 f   BNC_BaseControl.obj
 0001:000040f0       ?GetPopupHwnd@BNC_BaseClient@@QAEPAUHWND__@@XZ 100050f0 f   BNC_BaseClient.obj
 0001:00004110       ?GetOldPopupHwnd@BNC_BaseClient@@QAEPAUHWND__@@XZ 10005110 f   BNC_BaseClient.obj
 0001:00004130       ?GetParentClientPtr@BNC_BaseClient@@QAEPAV1@XZ 10005130 f   BNC_BaseClient.obj
 0001:00004140       ?OnMessageButton@BNC_BaseClient@@MAEJIJ@Z 10005140 f   BNC_BaseClient.obj
 0001:000041b0       ?OnMessageCombo@BNC_BaseClient@@MAEJIJ@Z 100051b0 f   BNC_BaseClient.obj
 0001:000041f0       ?OnMessageEdit@BNC_BaseClient@@MAEJIJ@Z 100051f0 f   BNC_BaseClient.obj
 0001:00004230       ?OnMessageList@BNC_RefListViewEx@@MAEJIJ@Z 10005230 f   BNC_RefListViewEx.obj
 0001:00004230       ?OnMessageList@BNC_BaseClient@@MAEJIJ@Z 10005230 f   BNC_BaseClient.obj
 0001:00004270       ?OnMessageProgress@BNC_BaseClient@@MAEJIJ@Z 10005270 f   BNC_BaseClient.obj
 0001:000042b0       ?OnMessageScroll@BNC_BaseClient@@MAEJIJ@Z 100052b0 f   BNC_BaseClient.obj
 0001:000042f0       ?OnMessageSlider@BNC_BaseClient@@MAEJIJ@Z 100052f0 f   BNC_BaseClient.obj
 0001:00004330       ?OnMessageTab@BNC_BaseClient@@MAEJIJ@Z 10005330 f   BNC_BaseClient.obj
 0001:00004370       ?OnMessageTree@BNC_BaseClient@@MAEJIJ@Z 10005370 f   BNC_BaseClient.obj
 0001:000043b0       ?OnMessageFButton@BNC_BaseClient@@MAEJIJ@Z 100053b0 f   BNC_BaseClient.obj
 0001:000043f0       ?OnMessageHtmlWebEvent@BNC_BaseClient@@MAEJIJ@Z 100053f0 f   BNC_BaseClient.obj
 0001:00004430       ?OnMessageTabstop@BNC_BaseClient@@MAEJIJ@Z 10005430 f   BNC_BaseClient.obj
 0001:000044c0       ?OnSetFocus@BNC_BaseClient@@QAEXPAVCWnd@@@Z 100054c0 f   BNC_BaseClient.obj
 0001:000044f0       ?SetChildTabFocus@BNC_BaseClient@@QAEPAVCWnd@@XZ 100054f0 f   BNC_BaseClient.obj
 0001:00004550       ?SetPopupParentPtr@BNC_BaseClient@@QAE_NPAVBNC_BaseDialog@@@Z 10005550 f   BNC_BaseClient.obj
 0001:00004630       ?UpdatePopupPtr@BNC_BaseClient@@AAEXPAVBNC_BaseDialog@@@Z 10005630 f   BNC_BaseClient.obj
 0001:00004690       ?GetClientSize@BNC_BaseClient@@QAE?AVCSize@@XZ 10005690 f   BNC_BaseClient.obj
 0001:000046b0       ?OnNotifyKeyDown@BNC_BaseClient@@UAE_NI@Z 100056b0 f   BNC_BaseClient.obj
 0001:000046d0       ?GetDeferChildCount@BNC_BaseClient@@UAEIXZ 100056d0 f   BNC_BaseClient.obj
 0001:000046d0       ?InitInstance@BNC_HtmlBrowserThread@@UAEHXZ 100056d0 f   BNC_HtmlBrowserThread.obj
 0001:000046e0       ?OnMouseWheel@BNC_BaseClient@@QAEHIFVCPoint@@@Z 100056e0 f   BNC_BaseClient.obj
 0001:00004700       ?DefWindowProcW@BNC_BaseClient@@UAEJIIJ@Z 10005700 f   BNC_BaseClient.obj
 0001:00004880       ?GetThreadID@BNC_BaseClient@@QAEKXZ 10005880 f   BNC_BaseClient.obj
 0001:000048a0       ?GetSyncWindowPosFlag@BNC_BaseClient@@QAEIXZ 100058a0 f   BNC_BaseClient.obj
 0001:000048d0       ?GetSyncWindowPosFlags@BNC_BaseClient@@QAEIK@Z 100058d0 f   BNC_BaseClient.obj
 0001:00004910       ?SetWindowPosEx@BNC_BaseClient@@QAEXPBVCWnd@@HHHHI@Z 10005910 f   BNC_BaseClient.obj
 0001:00004960       ?push_back@?$vector@PAVBNC_DrawString@@V?$allocator@PAVBNC_DrawString@@@std@@@std@@QAEXABQAVBNC_DrawString@@@Z 10005960 f i BNC_MessageBox.obj
 0001:00004960       ?push_back@?$vector@PAVBNC_BaseDialog@@V?$allocator@PAVBNC_BaseDialog@@@std@@@std@@QAEXABQAVBNC_BaseDialog@@@Z 10005960 f i BNC_BaseDialog.obj
 0001:00004960       ?push_back@?$vector@PAVBNC_PopupMenuItem@@V?$allocator@PAVBNC_PopupMenuItem@@@std@@@std@@QAEXABQAVBNC_PopupMenuItem@@@Z 10005960 f i BNC_PopupMenu.obj
 0001:00004960       ?push_back@?$vector@HV?$allocator@H@std@@@std@@QAEXABH@Z 10005960 f i BNC_ReferenceItemExOption.obj
 0001:00004960       ?push_back@?$vector@IV?$allocator@I@std@@@std@@QAEXABI@Z 10005960 f i BNC_FakeBtnSet.obj
 0001:00004960       ?push_back@?$vector@PAVBNC_Button@@V?$allocator@PAVBNC_Button@@@std@@@std@@QAEXABQAVBNC_Button@@@Z 10005960 f i BNC_Titlebar.obj
 0001:00004960       ?push_back@?$vector@PAVImage@Gdiplus@@V?$allocator@PAVImage@Gdiplus@@@std@@@std@@QAEXABQAVImage@Gdiplus@@@Z 10005960 f i BNC_DrawObject.obj
 0001:00004960       ?push_back@?$vector@PAVCBitmap@@V?$allocator@PAVCBitmap@@@std@@@std@@QAEXABQAVCBitmap@@@Z 10005960 f i BNC_DrawObject.obj
 0001:00004960       ?push_back@?$vector@PAVBNC_BaseClient@@V?$allocator@PAVBNC_BaseClient@@@std@@@std@@QAEXABQAVBNC_BaseClient@@@Z 10005960 f i BNC_BaseClient.obj
 0001:00004960       ?push_back@?$vector@PAVBNC_ReferenceItem@@V?$allocator@PAVBNC_ReferenceItem@@@std@@@std@@QAEXABQAVBNC_ReferenceItem@@@Z 10005960 f i BNC_RefListControl.obj
 0001:00004960       ?push_back@?$vector@PAV?$CStringT@_WV?$StrTraitMFC_DLL@_WV?$ChTraitsCRT@_W@ATL@@@@@ATL@@V?$allocator@PAV?$CStringT@_WV?$StrTraitMFC_DLL@_WV?$ChTraitsCRT@_W@ATL@@@@@ATL@@@std@@@std@@QAEXABQAV?$CStringT@_WV?$StrTraitMFC_DLL@_WV?$ChTraitsCRT@_W@ATL@@@@@ATL@@@Z 10005960 f i BNC_ReferenceItem.obj
 0001:00004960       ?push_back@?$vector@PAVCImage@ATL@@V?$allocator@PAVCImage@ATL@@@std@@@std@@QAEXABQAVCImage@ATL@@@Z 10005960 f i BNC_DrawObject.obj
 0001:00004960       ?push_back@?$vector@PAVCBitmap@@V?$allocator@PAVCBitmap@@@std@@@std@@QAEX$$QAPAVCBitmap@@@Z 10005960 f i BNC_DrawObject.obj
 0001:000049d0       ?_Reserve@?$vector@PAVImage@Gdiplus@@V?$allocator@PAVImage@Gdiplus@@@std@@@std@@IAEXI@Z 100059d0 f i BNC_DrawObject.obj
 0001:000049d0       ?_Reserve@?$vector@IV?$allocator@I@std@@@std@@IAEXI@Z 100059d0 f i BNC_FakeBtnSet.obj
 0001:000049d0       ?_Reserve@?$vector@PAVCImage@ATL@@V?$allocator@PAVCImage@ATL@@@std@@@std@@IAEXI@Z 100059d0 f i BNC_DrawObject.obj
 0001:000049d0       ?_Reserve@?$vector@PAVBNC_Button@@V?$allocator@PAVBNC_Button@@@std@@@std@@IAEXI@Z 100059d0 f i BNC_Titlebar.obj
 0001:000049d0       ?_Reserve@?$vector@PAVBNC_PopupMenuItem@@V?$allocator@PAVBNC_PopupMenuItem@@@std@@@std@@IAEXI@Z 100059d0 f i BNC_PopupMenu.obj
 0001:000049d0       ?_Reserve@?$vector@HV?$allocator@H@std@@@std@@IAEXI@Z 100059d0 f i BNC_ReferenceItemExOption.obj
 0001:000049d0       ?_Reserve@?$vector@PAVBNC_BaseDialog@@V?$allocator@PAVBNC_BaseDialog@@@std@@@std@@IAEXI@Z 100059d0 f i BNC_BaseDialog.obj
 0001:000049d0       ?_Reserve@?$vector@PAVBNC_ReferenceItemEx@@V?$allocator@PAVBNC_ReferenceItemEx@@@std@@@std@@IAEXI@Z 100059d0 f i BNC_RefListControlEx.obj
 0001:000049d0       ?_Reserve@?$vector@PAVCBitmap@@V?$allocator@PAVCBitmap@@@std@@@std@@IAEXI@Z 100059d0 f i BNC_DrawObject.obj
 0001:000049d0       ?_Reserve@?$vector@PAVBNC_BaseClient@@V?$allocator@PAVBNC_BaseClient@@@std@@@std@@IAEXI@Z 100059d0 f i BNC_BaseClient.obj
 0001:000049d0       ?_Reserve@?$vector@PAVBNC_ReferenceItem@@V?$allocator@PAVBNC_ReferenceItem@@@std@@@std@@IAEXI@Z 100059d0 f i BNC_RefListControl.obj
 0001:000049d0       ?_Reserve@?$vector@PAV?$CStringT@_WV?$StrTraitMFC_DLL@_WV?$ChTraitsCRT@_W@ATL@@@@@ATL@@V?$allocator@PAV?$CStringT@_WV?$StrTraitMFC_DLL@_WV?$ChTraitsCRT@_W@ATL@@@@@ATL@@@std@@@std@@IAEXI@Z 100059d0 f i BNC_ReferenceItem.obj
 0001:000049d0       ?_Reserve@?$vector@PAVBNC_DrawString@@V?$allocator@PAVBNC_DrawString@@@std@@@std@@IAEXI@Z 100059d0 f i BNC_MessageBox.obj
 0001:00004a40       ?_Reallocate@?$vector@PAVBNC_DrawString@@V?$allocator@PAVBNC_DrawString@@@std@@@std@@IAEXI@Z 10005a40 f i BNC_MessageBox.obj
 0001:00004a40       ?_Reallocate@?$vector@PAVCImage@ATL@@V?$allocator@PAVCImage@ATL@@@std@@@std@@IAEXI@Z 10005a40 f i BNC_DrawObject.obj
 0001:00004a40       ?_Reallocate@?$vector@PAVBNC_ReferenceItem@@V?$allocator@PAVBNC_ReferenceItem@@@std@@@std@@IAEXI@Z 10005a40 f i BNC_RefListControl.obj
 0001:00004a40       ?_Reallocate@?$vector@IV?$allocator@I@std@@@std@@IAEXI@Z 10005a40 f i BNC_FakeBtnSet.obj
 0001:00004a40       ?_Reallocate@?$vector@PAVBNC_SyncRect@@V?$allocator@PAVBNC_SyncRect@@@std@@@std@@IAEXI@Z 10005a40 f i BNC_ReferenceItem.obj
 0001:00004a40       ?_Reallocate@?$vector@PAVBNC_BaseClient@@V?$allocator@PAVBNC_BaseClient@@@std@@@std@@IAEXI@Z 10005a40 f i BNC_BaseClient.obj
 0001:00004a40       ?_Reallocate@?$vector@PAVBNC_PopupMenuItem@@V?$allocator@PAVBNC_PopupMenuItem@@@std@@@std@@IAEXI@Z 10005a40 f i BNC_PopupMenu.obj
 0001:00004a40       ?_Reallocate@?$vector@PAVBNC_Button@@V?$allocator@PAVBNC_Button@@@std@@@std@@IAEXI@Z 10005a40 f i BNC_Titlebar.obj
 0001:00004a40       ?_Reallocate@?$vector@PAVImage@Gdiplus@@V?$allocator@PAVImage@Gdiplus@@@std@@@std@@IAEXI@Z 10005a40 f i BNC_DrawObject.obj
 0001:00004a40       ?_Reallocate@?$vector@HV?$allocator@H@std@@@std@@IAEXI@Z 10005a40 f i BNC_ReferenceItemExOption.obj
 0001:00004a40       ?_Reallocate@?$vector@IV?$allocator@_N@std@@@std@@IAEXI@Z 10005a40 f i BNC_ReferenceItemEx.obj
 0001:00004a40       ?_Reallocate@?$vector@PAVCBitmap@@V?$allocator@PAVCBitmap@@@std@@@std@@IAEXI@Z 10005a40 f i BNC_DrawObject.obj
 0001:00004a40       ?_Reallocate@?$vector@PAVBNC_BaseDialog@@V?$allocator@PAVBNC_BaseDialog@@@std@@@std@@IAEXI@Z 10005a40 f i BNC_BaseDialog.obj
 0001:00004a40       ?_Reallocate@?$vector@PAV?$CStringT@_WV?$StrTraitMFC_DLL@_WV?$ChTraitsCRT@_W@ATL@@@@@ATL@@V?$allocator@PAV?$CStringT@_WV?$StrTraitMFC_DLL@_WV?$ChTraitsCRT@_W@ATL@@@@@ATL@@@std@@@std@@IAEXI@Z 10005a40 f i BNC_ReferenceItem.obj
 0001:00004a40       ?_Reallocate@?$vector@PAVBNC_ReferenceItemEx@@V?$allocator@PAVBNC_ReferenceItemEx@@@std@@@std@@IAEXI@Z 10005a40 f i BNC_RefListControlEx.obj
 0001:00004ac2       ??_9BNC_BaseDialog@@$BBLA@AE 10005ac2 f i BNC_BaseDialog.obj
 0001:00004ac2       ??_9BNC_BaseClient@@$BBLA@AE 10005ac2 f i BNC_BaseClient.obj
 0001:00004aca       ??_9BNC_BaseDialog@@$BBMA@AE 10005aca f i BNC_BaseDialog.obj
 0001:00004aca       ??_9BNC_BaseClient@@$BBMA@AE 10005aca f i BNC_BaseClient.obj
 0001:00004ad2       ??_9BNC_BaseClient@@$BBNA@AE 10005ad2 f i BNC_BaseClient.obj
 0001:00004ad2       ??_9BNC_BaseDialog@@$BBNA@AE 10005ad2 f i BNC_BaseDialog.obj
 0001:00004ada       ??_9BNC_BaseClient@@$BBJE@AE 10005ada f i BNC_BaseClient.obj
 0001:00004ae2       ??_9BNC_BaseClient@@$BBKE@AE 10005ae2 f i BNC_BaseClient.obj
 0001:00004ae2       ??_9BNC_BaseDialog@@$BBKE@AE 10005ae2 f i BNC_BaseDialog.obj
 0001:00004aea       ??_9BNC_BaseClient@@$BBLE@AE 10005aea f i BNC_BaseClient.obj
 0001:00004aea       ??_9BNC_BaseDialog@@$BBLE@AE 10005aea f i BNC_BaseDialog.obj
 0001:00004af2       ??_9BNC_BaseDialog@@$BBME@AE 10005af2 f i BNC_BaseDialog.obj
 0001:00004af2       ??_9BNC_BaseClient@@$BBME@AE 10005af2 f i BNC_BaseClient.obj
 0001:00004afa       ??_9BNC_BaseDialog@@$BBNE@AE 10005afa f i BNC_BaseDialog.obj
 0001:00004afa       ??_9BNC_BaseClient@@$BBNE@AE 10005afa f i BNC_BaseClient.obj
 0001:00004b02       ??_9BNC_BaseClient@@$BBJI@AE 10005b02 f i BNC_BaseClient.obj
 0001:00004b0a       ??_9BNC_BaseClient@@$BBKI@AE 10005b0a f i BNC_BaseClient.obj
 0001:00004b0a       ??_9BNC_BaseDialog@@$BBKI@AE 10005b0a f i BNC_BaseDialog.obj
 0001:00004b12       ??_9BNC_BaseDialog@@$BBLI@AE 10005b12 f i BNC_BaseDialog.obj
 0001:00004b12       ??_9BNC_BaseClient@@$BBLI@AE 10005b12 f i BNC_BaseClient.obj
 0001:00004b1a       ??_9BNC_BaseClient@@$BBMI@AE 10005b1a f i BNC_BaseClient.obj
 0001:00004b1a       ??_9BNC_BaseDialog@@$BBMI@AE 10005b1a f i BNC_BaseDialog.obj
 0001:00004b22       ??_9BNC_BaseClient@@$BBJM@AE 10005b22 f i BNC_BaseClient.obj
 0001:00004b2a       ??_9BNC_BaseDialog@@$BBKM@AE 10005b2a f i BNC_BaseDialog.obj
 0001:00004b2a       ??_9BNC_EditboxEx@@$BBKM@AE 10005b2a f i BNC_EditboxEx.obj
 0001:00004b2a       ??_9BNC_BaseClient@@$BBKM@AE 10005b2a f i BNC_BaseClient.obj
 0001:00004b32       ??_9BNC_BaseDialog@@$BBLM@AE 10005b32 f i BNC_BaseDialog.obj
 0001:00004b32       ??_9BNC_BaseClient@@$BBLM@AE 10005b32 f i BNC_BaseClient.obj
 0001:00004b3a       ??_9BNC_BaseClient@@$BBMM@AE 10005b3a f i BNC_BaseClient.obj
 0001:00004b3a       ??_9BNC_BaseDialog@@$BBMM@AE 10005b3a f i BNC_BaseDialog.obj
 0001:00004b42       ??_9BNC_BaseClient@@$BBJA@AE 10005b42 f i BNC_BaseClient.obj
 0001:00004b4a       ??_9BNC_BaseDialog@@$BBKA@AE 10005b4a f i BNC_BaseDialog.obj
 0001:00004b4a       ??_9BNC_BaseClient@@$BBKA@AE 10005b4a f i BNC_BaseClient.obj
 0001:00004b60       ??_EBNC_BaseClient@@UAEPAXI@Z 10005b60 f i BNC_BaseClient.obj
 0001:00004bc0       ??8CSize@@QBEHUtagSIZE@@@Z 10005bc0 f i BNC_BaseClient.obj
 0001:00004bf0       ??1CRgn@@UAE@XZ            10005bf0 f i BNC_BaseClient.obj
 0001:00004c00       ??_GCRgn@@UAEPAXI@Z        10005c00 f i BNC_BaseClient.obj
 0001:00004c00       ??_ECRgn@@UAEPAXI@Z        10005c00 f i * CIL library *:* CIL module *
 0001:00004c30       ?SelectObject@CDC@@QAEPAVCBitmap@@PAV2@@Z 10005c30 f i BNC_BaseClient.obj
 0001:00004c60       ??1CBitmap@@UAE@XZ         10005c60 f i BNC_BaseClient.obj
 0001:00004c70       ??_GCGdiObject@@UAEPAXI@Z  10005c70 f i BNC_BaseClient.obj
 0001:00004c70       ??_ECGdiObject@@UAEPAXI@Z  10005c70 f i * CIL library *:* CIL module *
 0001:00004ca0       ??1CGdiObject@@UAE@XZ      10005ca0 f i BNC_BaseClient.obj
 0001:00004db0       ??_ECBitmap@@UAEPAXI@Z     10005db0 f i * CIL library *:* CIL module *
 0001:00004db0       ??_GCBitmap@@UAEPAXI@Z     10005db0 f i BNC_BaseClient.obj
 0001:00004de0       ?GetSafeHdc@CDC@@QBEPAUHDC__@@XZ 10005de0 f i BNC_BaseClient.obj
 0001:00004df0       ?GetSafeHwnd@CWnd@@QBEPAUHWND__@@XZ 10005df0 f i BNC_BaseClient.obj
 0001:00004e00       ?GetCreateCount@BNC_BaseControl@@SAIXZ 10005e00 f   BNC_BaseControl.obj
 0001:00004e10       ?GetAliveCount@BNC_BaseControl@@SAIXZ 10005e10 f   BNC_BaseControl.obj
 0001:00004e20       ?_GetBaseClass@BNC_SimpleVScrollbar@@KGPAUCRuntimeClass@@XZ 10005e20 f   BNC_SimpleVScrollbar.obj
 0001:00004e20       ?_GetBaseClass@BNC_SimpleHScrollbar@@KGPAUCRuntimeClass@@XZ 10005e20 f   BNC_SimpleHScrollbar.obj
 0001:00004e20       ?GetRuntimeClass@BNC_BaseControl@@UBEPAUCRuntimeClass@@XZ 10005e20 f   BNC_BaseControl.obj
 0001:00004e20       ?GetThisClass@BNC_BaseControl@@SGPAUCRuntimeClass@@XZ 10005e20 f   BNC_BaseControl.obj
 0001:00004e20       ?_GetBaseClass@BNC_BaseSliderCtrl@@KGPAUCRuntimeClass@@XZ 10005e20 f   BNC_BaseSliderCtrl.obj
 0001:00004e30       ??0BNC_BaseControl@@QAE@XZ 10005e30 f   BNC_BaseControl.obj
 0001:00004eb0       ??1BNC_BaseControl@@UAE@XZ 10005eb0 f   BNC_BaseControl.obj
 0001:00004f40       ?GetThisMessageMap@BNC_BaseControl@@KGPBUAFX_MSGMAP@@XZ 10005f40 f   BNC_BaseControl.obj
 0001:00004f40       ?GetMessageMap@BNC_BaseControl@@MBEPBUAFX_MSGMAP@@XZ 10005f40 f   BNC_BaseControl.obj
 0001:00004f50       ?PreTranslateMessage@BNC_BaseControl@@MAEHPAUtagMSG@@@Z 10005f50 f   BNC_BaseControl.obj
 0001:00004f90       ?OnDestroy@BNC_BaseControl@@QAEXXZ 10005f90 f   BNC_BaseControl.obj
 0001:00004ff0       ?OnCreate@BNC_BaseControl@@QAEHPAUtagCREATESTRUCTW@@@Z 10005ff0 f   BNC_BaseControl.obj
 0001:00005010       ?OnIdle@BNC_HtmlBrowserThread@@UAEHJ@Z 10006010 f   BNC_HtmlBrowserThread.obj
 0001:00005010       ?_Get_deleter@_Ref_count_base@std@@UBEPAXABVtype_info@@@Z 10006010 f   BNC_FakeBtnSet.obj
 0001:00005010       ?OnEraseBkgnd@BNC_FakeBorder@@QAEHPAVCDC@@@Z 10006010 f   BNC_FakeBorder.obj
 0001:00005010       ?GetLinkRectCount@BNC_ReferenceItemEx@@QAEII@Z 10006010 f   BNC_ReferenceItemEx.obj
 0001:00005010       ?OnEraseBkgnd@BNC_BaseControl@@QAEHPAVCDC@@@Z 10006010 f   BNC_BaseControl.obj
 0001:00005010       ?OnEraseBkgnd@BNC_FakeWindow@@QAEHPAVCDC@@@Z 10006010 f   BNC_FakeWindow.obj
 0001:00005010       ?OnEraseBkgnd@BNC_BaseLayered@@QAEHPAVCDC@@@Z 10006010 f   BNC_BaseLayered.obj
 0001:00005010       ?OnHelpInfo@BNC_BaseDialog@@QAEHPAUtagHELPINFO@@@Z 10006010 f   BNC_BaseDialog.obj
 0001:00005020       ?OnPaint@BNC_BaseControl@@QAEXXZ 10006020 f   BNC_BaseControl.obj
 0001:000050a0       ?OnSize@BNC_BaseControl@@QAEXIHH@Z 100060a0 f   BNC_BaseControl.obj
 0001:00005100       ?create@BNC_BaseControl@@QAE_NPAVBNC_BaseClient@@GVCRect@@@Z 10006100 f   BNC_BaseControl.obj
 0001:00005190       ?createEx@BNC_BaseControl@@QAE_NPAVCWnd@@G@Z 10006190 f   BNC_BaseControl.obj
 0001:00005230       ?createTooltip@BNC_BaseControl@@QAE_NV?$CStringT@_WV?$StrTraitMFC_DLL@_WV?$ChTraitsCRT@_W@ATL@@@@@ATL@@@Z 10006230 f   BNC_BaseControl.obj
 0001:00005250       ?MotifyNotiWindow@BNC_BaseControl@@QAEXPAUHWND__@@@Z 10006250 f   BNC_BaseControl.obj
 0001:00005260       ?GetPopupPtr@BNC_BaseControl@@QAEPAVBNC_BaseDialog@@XZ 10006260 f   BNC_BaseControl.obj
 0001:00005270       ?GetPopupHwnd@BNC_BaseControl@@QAEPAUHWND__@@XZ 10006270 f   BNC_BaseControl.obj
 0001:00005290       ?SetFocusCursor@BNC_BaseControl@@QAEXPAUHICON__@@@Z 10006290 f   BNC_BaseControl.obj
 0001:000052c0       ?Draw@BNC_BaseControl@@QAEXPAVCDC@@@Z 100062c0 f   BNC_BaseControl.obj
 0001:00005520       ?CopyParentClientMemDC@BNC_BaseControl@@IAEXPAVCDC@@@Z 10006520 f   BNC_BaseControl.obj
 0001:00005540       ?SendMouseEventToPopup@BNC_BaseControl@@QAEJIIAAVCPoint@@@Z 10006540 f   BNC_BaseControl.obj
 0001:00005640       ?OnLButtonDown@BNC_BaseControl@@QAEXIVCPoint@@@Z 10006640 f   BNC_BaseControl.obj
 0001:00005780       ?OnRButtonDown@BNC_BaseControl@@QAEXIVCPoint@@@Z 10006780 f   BNC_BaseControl.obj
 0001:000057c0       ?OnLButtonUp@BNC_BaseControl@@QAEXIVCPoint@@@Z 100067c0 f   BNC_BaseControl.obj
 0001:000058d0       ?OnLButtonDblClk@BNC_BaseControl@@QAEXIVCPoint@@@Z 100068d0 f   BNC_BaseControl.obj
 0001:000059a0       ?OnMouseMove@BNC_BaseControl@@QAEXIVCPoint@@@Z 100069a0 f   BNC_BaseControl.obj
 0001:00005a30       ?OnCaptureChanged@BNC_BaseControl@@QAEXPAVCWnd@@@Z 10006a30 f   BNC_BaseControl.obj
 0001:00005ab0       ?GetThreadID@BNC_BaseControl@@QAEKXZ 10006ab0 f   BNC_BaseControl.obj
 0001:00005ad0       ?GetSyncWindowPosFlag@BNC_BaseControl@@QAEIXZ 10006ad0 f   BNC_BaseControl.obj
 0001:00005b00       ?GetSyncWindowPosFlags@BNC_BaseControl@@QAEIK@Z 10006b00 f   BNC_BaseControl.obj
 0001:00005b40       ?SetWindowPosEx@BNC_BaseControl@@QAEXPBVCWnd@@HHHHI@Z 10006b40 f   BNC_BaseControl.obj
 0001:00005ba0       ??_EBNC_BaseControl@@UAEPAXI@Z 10006ba0 f i BNC_BaseControl.obj
 0001:00005c00       ??0BNC_BaseDialogTracer@@QAE@U_token@?$TSingleton@VBNC_BaseDialogTracer@@@baro@@@Z 10006c00 f   BNC_BaseDialog.obj
 0001:00005c80       ??1?$set@PAUHWND__@@U?$less@PAUHWND__@@@std@@V?$allocator@PAUHWND__@@@3@@std@@QAE@XZ 10006c80 f i BNC_BaseDialog.obj
 0001:00005c80       ??1?$map@IIU?$less@I@std@@V?$allocator@U?$pair@$$CBII@std@@@2@@std@@QAE@XZ 10006c80 f i BNC_ReferenceItemExOption.obj
 0001:00005c80       ??1?$set@PAVBNC_BaseDialog@@U?$less@PAVBNC_BaseDialog@@@std@@V?$allocator@PAVBNC_BaseDialog@@@3@@std@@QAE@XZ 10006c80 f i BNC_BaseDialog.obj
 0001:00005cb0       ??1BNC_BaseDialogTracer@@UAE@XZ 10006cb0 f   BNC_BaseDialog.obj
 0001:00005d40       ?Insert@BNC_BaseDialogTracer@@AAE_NPAUHWND__@@@Z 10006d40 f   BNC_BaseDialog.obj
 0001:00005de0       ?Delete@BNC_BaseDialogTracer@@AAE_NPAUHWND__@@@Z 10006de0 f   BNC_BaseDialog.obj
 0001:00005eb0       ?IsAlive@BNC_BaseDialogTracer@@QAE_NPAUHWND__@@@Z 10006eb0 f   BNC_BaseDialog.obj
 0001:00005f40       ?FromPopupPtr@BNC_BaseDialogTracer@@QAEPAVBNC_BaseDialog@@PAVCWnd@@@Z 10006f40 f   BNC_BaseDialog.obj
 0001:00005fe0       ?FromPopupHwnd@BNC_BaseDialogTracer@@QAEPAUHWND__@@PAVCWnd@@@Z 10006fe0 f   BNC_BaseDialog.obj
 0001:000060a0       ?GetAliveDialog@BNC_BaseDialogTracer@@QAE?AV?$set@PAUHWND__@@U?$less@PAUHWND__@@@std@@V?$allocator@PAUHWND__@@@3@@std@@XZ 100070a0 f   BNC_BaseDialog.obj
 0001:00006140       ?GetCreateCount@BNC_BaseDialog@@SAIXZ 10007140 f   BNC_BaseDialog.obj
 0001:00006150       ?GetAliveCount@BNC_BaseDialog@@SAIXZ 10007150 f   BNC_BaseDialog.obj
 0001:00006160       ?UpdateDisplayChange@BNC_BaseDialog@@SAXIJ@Z 10007160 f   BNC_BaseDialog.obj
 0001:000063c0       ?ShowSyncDialog@BNC_BaseDialog@@SAXPAV1@NPBVCWnd@@PAUHWND__@@KVCPoint@@@Z 100073c0 f   BNC_BaseDialog.obj
 0001:000067e0       ?GetFixPoint@BNC_BaseDialog@@SA_NAAVCRect@@KAAVCPoint@@AAVCSize@@1PAV2@@Z 100077e0 f   BNC_BaseDialog.obj
 0001:00006990       ?GetMaxMonitorResolution@BNC_BaseDialog@@SA?AVCSize@@XZ 10007990 f   BNC_BaseDialog.obj
 0001:000069b0       ?ShowRestoreWindow@BNC_BaseDialog@@SAXPAUHWND__@@0_N1@Z 100079b0 f   BNC_BaseDialog.obj
 0001:00006ac0       ?_GetBaseClass@BNC_FakeBorder@@KGPAUCRuntimeClass@@XZ 10007ac0 f   BNC_FakeBorder.obj
 0001:00006ac0       ?_GetBaseClass@BNC_BaseDialog@@KGPAUCRuntimeClass@@XZ 10007ac0 f   BNC_BaseDialog.obj
 0001:00006ac0       ?_GetBaseClass@BNC_BaseLayered@@KGPAUCRuntimeClass@@XZ 10007ac0 f   BNC_BaseLayered.obj
 0001:00006ad0       ?GetRuntimeClass@BNC_BaseDialog@@UBEPAUCRuntimeClass@@XZ 10007ad0 f   BNC_BaseDialog.obj
 0001:00006ad0       ?GetThisClass@BNC_BaseDialog@@SGPAUCRuntimeClass@@XZ 10007ad0 f   BNC_BaseDialog.obj
 0001:00006ae0       ??0BNC_BaseDialog@@QAE@IPAVCWnd@@@Z 10007ae0 f   BNC_BaseDialog.obj
 0001:00006eb0       ??0BNC_BaseDialog@@QAE@XZ  10007eb0 f   BNC_BaseDialog.obj
 0001:00007260       ?GetDlgType@BNC_BaseDialog@@QAE?AW4BNE_DIALOG_TYPE@@XZ 10008260 f   BNC_BaseDialog.obj
 0001:00007270       ?GetInitParent@BNC_BaseDialog@@QAEPAVCWnd@@XZ 10008270 f   BNC_BaseDialog.obj
 0001:00007280       ?DefaultParams@BNC_BaseDialog@@AAEXXZ 10008280 f   BNC_BaseDialog.obj
 0001:00007640       ??1BNC_BaseDialog@@UAE@XZ  10008640 f   BNC_BaseDialog.obj
 0001:00007990       ?PostNcDestroy@BNC_BaseDialog@@MAEXXZ 10008990 f   BNC_BaseDialog.obj
 0001:00007ae0       ?GetThisMessageMap@BNC_BaseDialog@@KGPBUAFX_MSGMAP@@XZ 10008ae0 f   BNC_BaseDialog.obj
 0001:00007ae0       ?GetMessageMap@BNC_BaseDialog@@MBEPBUAFX_MSGMAP@@XZ 10008ae0 f   BNC_BaseDialog.obj
 0001:00007af0       ?DestroyWindow@BNC_BaseDialog@@UAEHXZ 10008af0 f   BNC_BaseDialog.obj
 0001:00007e20       ?OnClose@BNC_BaseDialog@@QAEXXZ 10008e20 f   BNC_BaseDialog.obj
 0001:00007f00       ?OnDestroy@BNC_BaseDialog@@QAEXXZ 10008f00 f   BNC_BaseDialog.obj
 0001:00007ff0       ?create@BNC_BaseDialog@@QAE_NIVCRect@@_N1PAVCWnd@@1@Z 10008ff0 f   BNC_BaseDialog.obj
 0001:00008080       ?GetRootClient@BNC_BaseDialog@@QAEPAUHWND__@@XZ 10009080 f   BNC_BaseDialog.obj
 0001:000080a0       ?OnCreate@BNC_BaseDialog@@QAEHPAUtagCREATESTRUCTW@@@Z 100090a0 f   BNC_BaseDialog.obj
 0001:000080a0       ?OnCreate@BNC_RichEditbox@@QAEHPAUtagCREATESTRUCTW@@@Z 100090a0 f   BNC_RichEditbox.obj
 0001:000080c0       ?OnInitDialog@BNC_BaseDialog@@MAEHXZ 100090c0 f   BNC_BaseDialog.obj
 0001:00008570       ?Initialize@BNC_BaseDialog@@AAEX_N00@Z 10009570 f   BNC_BaseDialog.obj
 0001:00008670       ?SetWindowLongEx@BNC_BaseDialog@@IAEXH_NK@Z 10009670 f   BNC_BaseDialog.obj
 0001:000086f0       ?SystemTrayInsert@BNC_BaseDialog@@QAEXPB_WIIV?$CStringT@_WV?$StrTraitMFC_DLL@_WV?$ChTraitsCRT@_W@ATL@@@@@ATL@@@Z 100096f0 f   BNC_BaseDialog.obj
 0001:000088b0       ?SystemTrayDelete@BNC_BaseDialog@@QAEXXZ 100098b0 f   BNC_BaseDialog.obj
 0001:000088f0       ?SystemTrayModify@BNC_BaseDialog@@QAEXI@Z 100098f0 f   BNC_BaseDialog.obj
 0001:00008970       ?SystemTrayCheckRestore@BNC_BaseDialog@@QAEXXZ 10009970 f   BNC_BaseDialog.obj
 0001:00008a50       ?GetSystemTrayData@BNC_BaseDialog@@QAEPBU_NOTIFYICONDATAW@@XZ 10009a50 f   BNC_BaseDialog.obj
 0001:00008a60       ?NotifyRootClient@BNC_BaseDialog@@IAEXW4BNE_POPUP_STATUS@@@Z 10009a60 f   BNC_BaseDialog.obj
 0001:00008aa0       ?UpdateSyncZorder@BNC_BaseDialog@@AAEXXZ 10009aa0 f   BNC_BaseDialog.obj
 0001:00008bf0       ?SetSyncPos@BNC_BaseDialog@@QAEXKVCPoint@@KVCSize@@PAVCWnd@@_N@Z 10009bf0 f   BNC_BaseDialog.obj
 0001:00008d10       ?GetUpdateSyncPos@BNC_BaseDialog@@IAEXHHHHAAVCPoint@@AAVCSize@@AAI@Z 10009d10 f   BNC_BaseDialog.obj
 0001:00008ef0       ?OnSyncWindowPos@BNC_BaseDialog@@MAE_NPAXPBVCWnd@@HHHHI@Z 10009ef0 f   BNC_BaseDialog.obj
 0001:00008f00       ?SetSyncWindowPos@BNC_BaseDialog@@IAEXPAXPBVCWnd@@HHHHI@Z 10009f00 f   BNC_BaseDialog.obj
 0001:00009010       ?UpdateSyncPosition@BNC_BaseDialog@@QAEXXZ 1000a010 f   BNC_BaseDialog.obj
 0001:00009020       ?UpdateSyncPosition@BNC_BaseDialog@@AAEXPAUtagWINDOWPOS@@@Z 1000a020 f   BNC_BaseDialog.obj
 0001:000092c0       ?RegSyncZorder@BNC_BaseDialog@@AAE_N_NPAV1@@Z 1000a2c0 f   BNC_BaseDialog.obj
 0001:000093b0       ?RegSyncPosition@BNC_BaseDialog@@AAE_N_NPAV1@@Z 1000a3b0 f   BNC_BaseDialog.obj
 0001:000095a0       ?ShowWindowSync@BNC_BaseDialog@@QAEXH@Z 1000a5a0 f   BNC_BaseDialog.obj
 0001:00009670       ?EnableWindowSync@BNC_BaseDialog@@QAEXH@Z 1000a670 f   BNC_BaseDialog.obj
 0001:000096d0       ?RegSyncEnable@BNC_BaseDialog@@AAE_N_NPAV1@@Z 1000a6d0 f   BNC_BaseDialog.obj
 0001:000097f0       ?ResetSyncVisible@BNC_BaseDialog@@QAEX_N@Z 1000a7f0 f   BNC_BaseDialog.obj
 0001:000099b0       ?RegSyncVisible@BNC_BaseDialog@@AAE_N_NPAV1@@Z 1000a9b0 f   BNC_BaseDialog.obj
 0001:00009ad0       ?RegSyncBlending@BNC_BaseDialog@@AAE_N_NPAV1@@Z 1000aad0 f   BNC_BaseDialog.obj
 0001:00009bf0       ?SetTransparentAnimationRange@BNC_BaseDialog@@QAEXEE@Z 1000abf0 f   BNC_BaseDialog.obj
 0001:00009c20       ?GetTransparentAnimationRange@BNC_BaseDialog@@QAE?AU?$pair@EE@std@@XZ 1000ac20 f   BNC_BaseDialog.obj
 0001:00009c40       ?RunTransparentAnimation@BNC_BaseDialog@@QAEX_NNPBVCWnd@@0@Z 1000ac40 f   BNC_BaseDialog.obj
 0001:00009cb0       ?IsAnimationVisible@BNC_BaseDialog@@QAE_NXZ 1000acb0 f   BNC_BaseDialog.obj
 0001:00009cf0       ?GetCenterArea@BNC_BaseDialog@@IAE?AVCRect@@PAVCWnd@@HH_N@Z 1000acf0 f   BNC_BaseDialog.obj
 0001:00009e90       ?CheckMonitorArea@BNC_BaseDialog@@IAE?AVCRect@@AAV2@@Z 1000ae90 f   BNC_BaseDialog.obj
 0001:00009f40       ?OnEraseBkgnd@BNC_BaseDialog@@QAEHPAVCDC@@@Z 1000af40 f   BNC_BaseDialog.obj
 0001:00009f60       ?OnPaint@BNC_BaseDialog@@QAEXXZ 1000af60 f   BNC_BaseDialog.obj
 0001:00009ff0       ?Draw@BNC_BaseDialog@@QAEXPAVCDC@@PAUtagRECT@@_N@Z 1000aff0 f   BNC_BaseDialog.obj
 0001:0000a360       ?UpdateClient@BNC_BaseDialog@@AAEXHH@Z 1000b360 f   BNC_BaseDialog.obj
 0001:0000a510       ?OnSize@BNC_BaseDialog@@QAEXIHH@Z 1000b510 f   BNC_BaseDialog.obj
 0001:0000a530       ?OnSizing@BNC_BaseDialog@@QAEXIPAUtagRECT@@@Z 1000b530 f   BNC_BaseDialog.obj
 0001:0000a560       ?OnWindowPosChanging@BNC_BaseDialog@@QAEXPAUtagWINDOWPOS@@@Z 1000b560 f   BNC_BaseDialog.obj
 0001:0000a660       ?OnWindowPosChanged@BNC_BaseDialog@@QAEXPAUtagWINDOWPOS@@@Z 1000b660 f   BNC_BaseDialog.obj
 0001:0000a660       ?OnWindowPosChanged@BNC_BaseOverlay@@QAEXPAUtagWINDOWPOS@@@Z 1000b660 f   BNC_BaseOverlay.obj
 0001:0000a6a0       ?UpdateWindowPos@BNC_BaseDialog@@AAEXPAUtagWINDOWPOS@@@Z 1000b6a0 f   BNC_BaseDialog.obj
 0001:0000a910       ?OnNcCalcSize@BNC_BaseDialog@@QAEXHPAUtagNCCALCSIZE_PARAMS@@@Z 1000b910 f   BNC_BaseDialog.obj
 0001:0000aa40       ?OnGetMinMaxInfo@BNC_BaseDialog@@QAEXPAUtagMINMAXINFO@@@Z 1000ba40 f   BNC_BaseDialog.obj
 0001:0000aaa0       ?DrawOutsideLine@BNC_BaseDialog@@IAEXPAVCDC@@K@Z 1000baa0 f   BNC_BaseDialog.obj
 0001:0000abf0       ?DrawOutsideLine@BNC_BaseDialog@@IAEXPAVCDC@@@Z 1000bbf0 f   BNC_BaseDialog.obj
 0001:0000ac30       ?OnUpdateWindowRgn@BNC_BaseDialog@@UAEXHH@Z 1000bc30 f   BNC_BaseDialog.obj
 0001:0000ace0       ?OnActivate@BNC_BaseDialog@@QAEXIPAVCWnd@@H@Z 1000bce0 f   BNC_BaseDialog.obj
 0001:0000af20       ?MouseMove@BNC_BaseDialog@@IAEXAAIAAVCPoint@@@Z 1000bf20 f   BNC_BaseDialog.obj
 0001:0000b060       ?LButtonDown@BNC_BaseDialog@@IAEXAAIAAVCPoint@@@Z 1000c060 f   BNC_BaseDialog.obj
 0001:0000b0f0       ?LButtonUp@BNC_BaseDialog@@IAEXAAIAAVCPoint@@@Z 1000c0f0 f   BNC_BaseDialog.obj
 0001:0000b140       ?LButtonDblClk@BNC_BaseDialog@@IAEXAAIAAVCPoint@@@Z 1000c140 f   BNC_BaseDialog.obj
 0001:0000b200       ?OnNcLButtonDblClk@BNC_BaseDialog@@QAEXIVCPoint@@@Z 1000c200 f   BNC_BaseDialog.obj
 0001:0000b420       ?OnMouseMove@BNC_BaseDialog@@QAEXIVCPoint@@@Z 1000c420 f   BNC_BaseDialog.obj
 0001:0000b450       ?OnCaptureChanged@BNC_BaseDialog@@QAEXPAVCWnd@@@Z 1000c450 f   BNC_BaseDialog.obj
 0001:0000b4b0       ?OnLButtonDown@BNC_BaseDialog@@QAEXIVCPoint@@@Z 1000c4b0 f   BNC_BaseDialog.obj
 0001:0000b4e0       ?OnLButtonUp@BNC_BaseDialog@@QAEXIVCPoint@@@Z 1000c4e0 f   BNC_BaseDialog.obj
 0001:0000b540       ?OnLButtonDblClk@BNC_BaseDialog@@QAEXIVCPoint@@@Z 1000c540 f   BNC_BaseDialog.obj
 0001:0000b560       ?OnNcLButtonDown@BNC_BaseDialog@@QAEXIVCPoint@@@Z 1000c560 f   BNC_BaseDialog.obj
 0001:0000b5a0       ?OnEnterSizeMove@BNC_BaseDialog@@QAEXXZ 1000c5a0 f   BNC_BaseDialog.obj
 0001:0000b5d0       ?OnMouseLeave@BNC_BaseInstant@@QAEXXZ 1000c5d0 f   BNC_BaseInstant.obj
 0001:0000b5d0       ?OnExitSizeMove@BNC_BaseDialog@@QAEXXZ 1000c5d0 f   BNC_BaseDialog.obj
 0001:0000b5e0       ?SetClickEdge@BNC_BaseDialog@@AAEX_N@Z 1000c5e0 f   BNC_BaseDialog.obj
 0001:0000b660       ?UpdateCursor@BNC_BaseDialog@@AAEXI@Z 1000c660 f   BNC_BaseDialog.obj
 0001:0000b660       ?UpdateCursor@BNC_BorderessProc@@AAEXI@Z 1000c660 f   BNC_BorderessProc.obj
 0001:0000b770       ?OnSysCommand@BNC_BaseDialog@@QAEXIJ@Z 1000c770 f   BNC_BaseDialog.obj
 0001:0000bb80       ?GetHitTest@BNC_BaseDialog@@QAEIXZ 1000cb80 f   BNC_BaseDialog.obj
 0001:0000bbb0       ?IsZoomedEx@BNC_BaseDialog@@QAE_NXZ 1000cbb0 f   BNC_BaseDialog.obj
 0001:0000bbe0       ?CheckHitTest@BNC_BaseDialog@@AAEIVCPoint@@@Z 1000cbe0 f   BNC_BaseDialog.obj
 0001:0000bc40       ?OnOK@BNC_BaseDialog@@MAEXXZ 1000cc40 f   BNC_BaseDialog.obj
 0001:0000bc50       ?OnCancel@BNC_BaseDialog@@MAEXXZ 1000cc50 f   BNC_BaseDialog.obj
 0001:0000bc60       ?WindowProc@BNC_BaseDialog@@MAEJIIJ@Z 1000cc60 f   BNC_BaseDialog.obj
 0001:0000bc70       ?PreTranslateMessage@BNC_BaseDialog@@MAEHPAUtagMSG@@@Z 1000cc70 f   BNC_BaseDialog.obj
 0001:0000bd00       ?DefWindowProcW@BNC_BaseDialog@@MAEJIIJ@Z 1000cd00 f   BNC_BaseDialog.obj
 0001:0000bd50       ?SetRoundCorner@BNC_BaseDialog@@IAEX_N0HH@Z 1000cd50 f   BNC_BaseDialog.obj
 0001:0000c060       ?GetVisiableStatus@BNC_BaseDialog@@QAEIXZ 1000d060 f   BNC_BaseDialog.obj
 0001:0000c0a0       ?EnableTopmost@BNC_BaseDialog@@QAEX_N@Z 1000d0a0 f   BNC_BaseDialog.obj
 0001:0000c2a0       ?Animation@BNC_BaseDialog@@QAEX_NPAVCPoint@@1N@Z 1000d2a0 f   BNC_BaseDialog.obj
 0001:0000c490       ?CopyDC@BNC_BaseDialog@@QAEXPAVCDC@@@Z 1000d490 f   BNC_BaseDialog.obj
 0001:0000c5b0       ?ShowDefaultPos@BNC_BaseDialog@@QAEXXZ 1000d5b0 f   BNC_BaseDialog.obj
 0001:0000c5f0       ?OnUpdateSize@BNC_BaseOverlay@@EAEXHH@Z 1000d5f0 f   BNC_BaseOverlay.obj
 0001:0000c5f0       ?OnUpdateSize@BNC_BaseInstant@@EAEXHH@Z 1000d5f0 f   BNC_BaseInstant.obj
 0001:0000c5f0       ?OnUpdateSize@BNC_BaseModaless@@EAEXHH@Z 1000d5f0 f   BNC_BaseModaless.obj
 0001:0000c5f0       ?OnUpdateSize@BNC_BaseDialog@@EAEXHH@Z 1000d5f0 f   BNC_BaseDialog.obj
 0001:0000c5f0       ?OnUpdateSize@BNC_BaseModal@@EAEXHH@Z 1000d5f0 f   BNC_BaseModal.obj
 0001:0000c630       ?OnDraw@BNC_BaseDialog@@EAE_NPAVCDC@@0@Z 1000d630 f   BNC_BaseDialog.obj
 0001:0000c6f0       ?GetInitWindowStyle@BNC_BaseDialog@@EAEKXZ 1000d6f0 f   BNC_BaseDialog.obj
 0001:0000c6f0       ?GetApplicationUserData@BNC_BaseDialog@@EAEKXZ 1000d6f0 f   BNC_BaseDialog.obj
 0001:0000c6f0       ?GetInitWindowPosFlags@BNC_BaseDialog@@EAEIXZ 1000d6f0 f   BNC_BaseDialog.obj
 0001:0000c6f0       ?GetInitWindowStyleEx@BNC_BaseDialog@@EAEKXZ 1000d6f0 f   BNC_BaseDialog.obj
 0001:0000c700       ?OnMessageForeground@BNC_BaseDialog@@EAEJIJ@Z 1000d700 f   BNC_BaseDialog.obj
 0001:0000c880       ?OnCloseBlock@BNC_BaseDialog@@EAEJIJ@Z 1000d880 f   BNC_BaseDialog.obj
 0001:0000c8d0       ?OnDestroyBlock@BNC_BaseDialog@@EAEJIJ@Z 1000d8d0 f   BNC_BaseDialog.obj
 0001:0000c930       ?OnMessageRedraw@BNC_BaseDialog@@EAEJIJ@Z 1000d930 f   BNC_BaseDialog.obj
 0001:0000c9e0       ?OnMessageTransparent@BNC_BaseDialog@@EAEJIJ@Z 1000d9e0 f   BNC_BaseDialog.obj
 0001:0000ca60       ?UpdateTransparent@BNC_BaseDialog@@QAEEW4TransparentStep@@EEEM@Z 1000da60 f   BNC_BaseDialog.obj
 0001:0000cac0       ?OnSetFocus@BNC_BaseFloating@@QAEXPAVCWnd@@@Z 1000dac0 f   BNC_BaseFloating.obj
 0001:0000cac0       ?OnSetFocus@BNC_BaseDialog@@QAEXPAVCWnd@@@Z 1000dac0 f   BNC_BaseDialog.obj
 0001:0000caf0       ?OnNcMouseMove@BNC_BaseDialog@@QAEXIVCPoint@@@Z 1000daf0 f   BNC_BaseDialog.obj
 0001:0000cb10       ?SetSyncAlpha@BNC_BaseDialog@@QAEXE@Z 1000db10 f   BNC_BaseDialog.obj
 0001:0000cb30       ?GetSystemMessagePtr@BNC_BaseDialog@@QAEPAVBNC_FloatingMessage@@XZ 1000db30 f   BNC_BaseDialog.obj
 0001:0000cb40       ?GetDisableOverlayPtr@BNC_BaseDialog@@QAEPAVBNC_BaseFloating@@XZ 1000db40 f   BNC_BaseDialog.obj
 0001:0000cb50       ?IsEnableTopmost@BNC_BaseDialog@@QBE_NXZ 1000db50 f   BNC_BaseDialog.obj
 0001:0000cb60       ?CreateSystemMessage@BNC_BaseDialog@@AAE_NXZ 1000db60 f   BNC_BaseDialog.obj
 0001:0000ccb0       ?CreateDisableOverlay@BNC_BaseDialog@@AAE_NXZ 1000dcb0 f   BNC_BaseDialog.obj
 0001:0000cdf0       ?CreateInactiveOverlay@BNC_BaseDialog@@AAE_NXZ 1000ddf0 f   BNC_BaseDialog.obj
 0001:0000cf40       ?ShowDisableOverlay@BNC_BaseDialog@@QAEX_N@Z 1000df40 f   BNC_BaseDialog.obj
 0001:0000cfc0       ?HideSystemMessage@BNC_BaseDialog@@QAEX_N@Z 1000dfc0 f   BNC_BaseDialog.obj
 0001:0000cfe0       ?ShowSystemMessage@BNC_BaseDialog@@QAEXIIIPB_W_N1@Z 1000dfe0 f   BNC_BaseDialog.obj
 0001:0000d050       ?ShowSystemMessage@BNC_BaseDialog@@QAEXIIIPB_WK_N1@Z 1000e050 f   BNC_BaseDialog.obj
 0001:0000d090       ?ShowSystemMessage@BNC_BaseDialog@@QAEXIIIPAVCBitmap@@VCPoint@@VCSize@@_N@Z 1000e090 f   BNC_BaseDialog.obj
 0001:0000d110       ?SetLayeredWindowAttributesEx@BNC_BaseDialog@@IAEXE@Z 1000e110 f   BNC_BaseDialog.obj
 0001:0000d1a0       ?EnableWindowLayered@BNC_BaseDialog@@QAEX_N0@Z 1000e1a0 f   BNC_BaseDialog.obj
 0001:0000d250       ?ResetLayerInfo@BNC_BaseDialog@@IAEXXZ 1000e250 f   BNC_BaseDialog.obj
 0001:0000d2e0       ?SetLayerCDC@BNC_BaseDialog@@QAE_NPAVCDC@@VCSize@@@Z 1000e2e0 f   BNC_BaseDialog.obj
 0001:0000d4d0       ?SetLayerBitmap@BNC_BaseDialog@@QAE_NPAVCBitmap@@@Z 1000e4d0 f   BNC_BaseDialog.obj
 0001:0000d6e0       ?SetLayerBitmapEx@BNC_BaseDialog@@QAE_NPAVCBitmap@@VCSize@@@Z 1000e6e0 f   BNC_BaseDialog.obj
 0001:0000d8f0       ?SetLayerImage@BNC_BaseDialog@@QAE_NPAVImage@Gdiplus@@VCPoint@@VCSize@@@Z 1000e8f0 f   BNC_BaseDialog.obj
 0001:0000db20       ?SetLayerImageEx@BNC_BaseDialog@@QAE_NPAVImage@Gdiplus@@VCPoint@@VCSize@@2@Z 1000eb20 f   BNC_BaseDialog.obj
 0001:0000dd40       ?UpdateLayerCDC@BNC_BaseDialog@@IAE_NPAVCDC@@VCSize@@E@Z 1000ed40 f   BNC_BaseDialog.obj
 0001:0000de10       ?UpdateLayerBitmap@BNC_BaseDialog@@IAE_NPAVCBitmap@@VCSize@@E@Z 1000ee10 f   BNC_BaseDialog.obj
 0001:0000dfc0       ?UpdateLayerBitmapEx@BNC_BaseDialog@@IAE_NPAVCBitmap@@VCSize@@1E@Z 1000efc0 f   BNC_BaseDialog.obj
 0001:0000e290       ?UpdateLayerImage@BNC_BaseDialog@@IAE_NPAVImage@Gdiplus@@VCPoint@@VCSize@@E@Z 1000f290 f   BNC_BaseDialog.obj
 0001:0000e560       ?UpdateLayerImageEx@BNC_BaseDialog@@IAE_NPAVImage@Gdiplus@@VCPoint@@VCSize@@2E@Z 1000f560 f   BNC_BaseDialog.obj
 0001:0000e8b0       ?UpdateLayeredWindowEx@BNC_BaseDialog@@IAEHPAVCDC@@PAUtagPOINT@@PAUtagSIZE@@01KPAU_BLENDFUNCTION@@K@Z 1000f8b0 f   BNC_BaseDialog.obj
 0001:0000e960       ?SetAlpha@BNC_BaseDialog@@QAEEE_N@Z 1000f960 f   BNC_BaseDialog.obj
 0001:0000ec70       ?GetAlpha@BNC_BaseDialog@@QAEEXZ 1000fc70 f   BNC_BaseDialog.obj
 0001:0000ecb0       ?GetApplySyncAlpha@BNC_BaseDialog@@QAEEXZ 1000fcb0 f   BNC_BaseDialog.obj
 0001:0000ecf0       ?OnTimer@BNC_BaseDialog@@QAEXI@Z 1000fcf0 f   BNC_BaseDialog.obj
 0001:0000ee00       ?OnShowWindow@BNC_AnimationDialog@@QAEXHI@Z 1000fe00 f   BNC_AnimationDialog.obj
 0001:0000ee00       ?OnShowWindow@BNC_BaseDialog@@QAEXHI@Z 1000fe00 f   BNC_BaseDialog.obj
 0001:0000ee30       ?OnShowWindowSync@BNC_BaseDialog@@AAEXHPAUtagWINDOWPOS@@@Z 1000fe30 f   BNC_BaseDialog.obj
 0001:0000efa0       ?OnEnable@BNC_BaseDialog@@QAEXH@Z 1000ffa0 f   BNC_BaseDialog.obj
 0001:0000f220       ?RegSyncDialog@BNC_BaseDialog@@QAEK_NPAV1@K@Z 10010220 f   BNC_BaseDialog.obj
 0001:0000f320       ?ShowDialog@BNC_BaseDialog@@UAE_NPBVCWnd@@PAUHWND__@@KVCPoint@@1@Z 10010320 f   BNC_BaseDialog.obj
 0001:0000f330       ?ShowDialogDefault@BNC_BaseDialog@@QAEX_NPBVCWnd@@PAUHWND__@@KVCPoint@@N@Z 10010330 f   BNC_BaseDialog.obj
 0001:0000f800       ?ShowAnimation@BNC_BaseDialog@@QAEXPBVCWnd@@AAVCPoint@@N@Z 10010800 f   BNC_BaseDialog.obj
 0001:0000f8e0       ?SetForegroundWindowEx@BNC_BaseDialog@@QAEXXZ 100108e0 f   BNC_BaseDialog.obj
 0001:0000f900       ?SetForegroundWindowEx@BNC_BaseDialog@@SAXPAUHWND__@@@Z 10010900 f   BNC_BaseDialog.obj
 0001:0000f990       ?GetDefaultWnd@BNC_BaseDialog@@QBE?AVCRect@@XZ 10010990 f   BNC_BaseDialog.obj
 0001:0000f9b0       ?IsAutoDelete@BNC_BaseDialog@@QAE_NXZ 100109b0 f   BNC_BaseDialog.obj
 0001:0000f9c0       ?OnMouseWheel@BNC_BaseDialog@@QAEHIFVCPoint@@@Z 100109c0 f   BNC_BaseDialog.obj
 0001:0000f9d0       ?RunFlashEffect@BNC_BaseDialog@@QAEXI@Z 100109d0 f   BNC_BaseDialog.obj
 0001:0000fa60       ?RunCallModal@BNC_BaseDialog@@QAEHAAVBNC_BaseModal@@_NEK@Z 10010a60 f   BNC_BaseDialog.obj
 0001:0000faa0       ?EndCallModal@BNC_BaseDialog@@QAE_NAAVBNC_BaseModal@@@Z 10010aa0 f   BNC_BaseDialog.obj
 0001:0000fb10       ?OnNcDestroy@BNC_BaseDialog@@QAEXXZ 10010b10 f   BNC_BaseDialog.obj
 0001:0000fb40       ?GetHDWP@BNC_BaseDialog@@QAEPAXXZ 10010b40 f   BNC_BaseDialog.obj
 0001:0000fb50       ?OnCompositionChanged@BNC_BaseDialog@@QAEXXZ 10010b50 f   BNC_BaseDialog.obj
 0001:0000fbb0       ?EnableResizing@BNC_BaseDialog@@QAEX_N@Z 10010bb0 f   BNC_BaseDialog.obj
 0001:0000fc30       ?EnableBorderessProc@BNC_BaseDialog@@QAE_N_N@Z 10010c30 f   BNC_BaseDialog.obj
 0001:0000fd10       ?GetNormalRect@BNC_BaseDialog@@QAE?AVCRect@@XZ 10010d10 f   BNC_BaseDialog.obj
 0001:0000fd50       ?BeginFakeModalLoop@BNC_BaseDialog@@QAE_NV?$shared_ptr@VBNC_FakeModal@@@std@@I@Z 10010d50 f   BNC_BaseDialog.obj
 0001:0000ff40       ?EndFakeModalLoop@BNC_BaseDialog@@QAEXPAVBNC_FakeModal@@@Z 10010f40 f   BNC_BaseDialog.obj
 0001:0000ffb0       ?BreakFakeModalLoop@BNC_BaseDialog@@QAEXXZ 10010fb0 f   BNC_BaseDialog.obj
 0001:00010020       ?GetThreadID@BNC_BaseDialog@@QAEKXZ 10011020 f   BNC_BaseDialog.obj
 0001:00010030       ?GetSyncWindowPosFlag@BNC_BaseDialog@@QAEIXZ 10011030 f   BNC_BaseDialog.obj
 0001:00010050       ?GetSyncWindowPosFlags@BNC_BaseDialog@@QAEIK@Z 10011050 f   BNC_BaseDialog.obj
 0001:00010080       ?SetWindowPosEx@BNC_BaseDialog@@QAEXPBVCWnd@@HHHHI@Z 10011080 f   BNC_BaseDialog.obj
 0001:000100f0       ?erase@?$_Tree@V?$_Tset_traits@PAUHWND__@@U?$less@PAUHWND__@@@std@@V?$allocator@PAUHWND__@@@3@$0A@@std@@@std@@QAE?AV?$_Tree_const_iterator@V?$_Tree_val@U?$_Tree_simple_types@PAUHWND__@@@std@@@std@@@2@V32@@Z 100110f0 f i BNC_BaseDialog.obj
 0001:000100f0       ?erase@?$_Tree@V?$_Tset_traits@PAVBNC_BaseDialog@@U?$less@PAVBNC_BaseDialog@@@std@@V?$allocator@PAVBNC_BaseDialog@@@3@$0A@@std@@@std@@QAE?AV?$_Tree_const_iterator@V?$_Tree_val@U?$_Tree_simple_types@PAVBNC_BaseDialog@@@std@@@std@@@2@V32@@Z 100110f0 f i BNC_BaseDialog.obj
 0001:000100f0       ?erase@?$_Tree@V?$_Tset_traits@PAVBNC_ReferenceItemEx@@U?$less@PAVBNC_ReferenceItemEx@@@std@@V?$allocator@PAVBNC_ReferenceItemEx@@@3@$0A@@std@@@std@@QAE?AV?$_Tree_const_iterator@V?$_Tree_val@U?$_Tree_simple_types@PAVBNC_ReferenceItemEx@@@std@@@std@@@2@V32@@Z 100110f0 f i BNC_BaseRefItemControlEx.obj
 0001:000100f0       ?erase@?$_Tree@V?$_Tset_traits@PAVBNC_ReferenceItem@@U?$less@PAVBNC_ReferenceItem@@@std@@V?$allocator@PAVBNC_ReferenceItem@@@3@$0A@@std@@@std@@QAE?AV?$_Tree_const_iterator@V?$_Tree_val@U?$_Tree_simple_types@PAVBNC_ReferenceItem@@@std@@@std@@@2@V32@@Z 100110f0 f i BNC_BaseRefItemControl.obj
 0001:000100f0       ?erase@?$_Tree@V?$_Tmap_traits@IIU?$less@I@std@@V?$allocator@U?$pair@$$CBII@std@@@2@$0A@@std@@@std@@QAE?AV?$_Tree_iterator@V?$_Tree_val@U?$_Tree_simple_types@U?$pair@$$CBII@std@@@std@@@std@@@2@V?$_Tree_const_iterator@V?$_Tree_val@U?$_Tree_simple_types@U?$pair@$$CBII@std@@@std@@@std@@@2@@Z 100110f0 f i BNC_ReferenceItemExOption.obj
 0001:00010360       ?find@?$_Tree@V?$_Tset_traits@PAUHWND__@@U?$less@PAUHWND__@@@std@@V?$allocator@PAUHWND__@@@3@$0A@@std@@@std@@QAE?AV?$_Tree_const_iterator@V?$_Tree_val@U?$_Tree_simple_types@PAUHWND__@@@std@@@std@@@2@ABQAUHWND__@@@Z 10011360 f i BNC_BaseDialog.obj
 0001:00010360       ?find@?$_Tree@V?$_Tset_traits@PAVBNC_ReferenceItemEx@@U?$less@PAVBNC_ReferenceItemEx@@@std@@V?$allocator@PAVBNC_ReferenceItemEx@@@3@$0A@@std@@@std@@QAE?AV?$_Tree_const_iterator@V?$_Tree_val@U?$_Tree_simple_types@PAVBNC_ReferenceItemEx@@@std@@@std@@@2@ABQAVBNC_ReferenceItemEx@@@Z 10011360 f i BNC_BaseRefItemControlEx.obj
 0001:00010360       ?find@?$_Tree@V?$_Tmap_traits@IIU?$less@I@std@@V?$allocator@U?$pair@$$CBII@std@@@2@$0A@@std@@@std@@QAE?AV?$_Tree_iterator@V?$_Tree_val@U?$_Tree_simple_types@U?$pair@$$CBII@std@@@std@@@std@@@2@ABI@Z 10011360 f i BNC_ReferenceItemExOption.obj
 0001:00010360       ?find@?$_Tree@V?$_Tset_traits@PAVBNC_ReferenceItem@@U?$less@PAVBNC_ReferenceItem@@@std@@V?$allocator@PAVBNC_ReferenceItem@@@3@$0A@@std@@@std@@QAE?AV?$_Tree_const_iterator@V?$_Tree_val@U?$_Tree_simple_types@PAVBNC_ReferenceItem@@@std@@@std@@@2@ABQAVBNC_ReferenceItem@@@Z 10011360 f i BNC_BaseRefItemControl.obj
 0001:000103c0       ??4?$shared_ptr@VBNC_FakeModal@@@std@@QAEAAV01@$$QAV01@@Z 100113c0 f i BNC_BaseDialog.obj
 0001:00010430       ??4?$shared_ptr@VBNC_FakeModal@@@std@@QAEAAV01@ABV01@@Z 10011430 f i BNC_BaseDialog.obj
 0001:000104a0       ??0?$_Tree@V?$_Tset_traits@PAVBNC_ReferenceItemEx@@U?$less@PAVBNC_ReferenceItemEx@@@std@@V?$allocator@PAVBNC_ReferenceItemEx@@@3@$0A@@std@@@std@@QAE@ABV01@ABV?$allocator@PAVBNC_ReferenceItemEx@@@1@@Z 100114a0 f i BNC_BaseRefItemControlEx.obj
 0001:000104a0       ??0?$_Tree@V?$_Tset_traits@PAVBNC_ReferenceItem@@U?$less@PAVBNC_ReferenceItem@@@std@@V?$allocator@PAVBNC_ReferenceItem@@@3@$0A@@std@@@std@@QAE@ABV01@ABV?$allocator@PAVBNC_ReferenceItem@@@1@@Z 100114a0 f i BNC_BaseRefItemControl.obj
 0001:000104a0       ??0?$_Tree@V?$_Tset_traits@PAUHWND__@@U?$less@PAUHWND__@@@std@@V?$allocator@PAUHWND__@@@3@$0A@@std@@@std@@QAE@ABV01@ABV?$allocator@PAUHWND__@@@1@@Z 100114a0 f i BNC_BaseDialog.obj
 0001:00010540       ?_Erase@?$_Tree@V?$_Tset_traits@PAVBNC_ReferenceItemEx@@U?$less@PAVBNC_ReferenceItemEx@@@std@@V?$allocator@PAVBNC_ReferenceItemEx@@@3@$0A@@std@@@std@@IAEXPAU?$_Tree_node@PAVBNC_ReferenceItemEx@@PAX@2@@Z 10011540 f i BNC_BaseRefItemControlEx.obj
 0001:00010540       ?_Erase@?$_Tree@V?$_Tset_traits@PAUHWND__@@U?$less@PAUHWND__@@@std@@V?$allocator@PAUHWND__@@@3@$0A@@std@@@std@@IAEXPAU?$_Tree_node@PAUHWND__@@PAX@2@@Z 10011540 f i BNC_BaseDialog.obj
 0001:00010540       ?_Erase@?$_Tree@V?$_Tset_traits@PAVBNC_BaseDialog@@U?$less@PAVBNC_BaseDialog@@@std@@V?$allocator@PAVBNC_BaseDialog@@@3@$0A@@std@@@std@@IAEXPAU?$_Tree_node@PAVBNC_BaseDialog@@PAX@2@@Z 10011540 f i BNC_BaseDialog.obj
 0001:00010540       ?_Erase@?$_Tree@V?$_Tmap_traits@IIU?$less@I@std@@V?$allocator@U?$pair@$$CBII@std@@@2@$0A@@std@@@std@@IAEXPAU?$_Tree_node@U?$pair@$$CBII@std@@PAX@2@@Z 10011540 f i BNC_ReferenceItemExOption.obj
 0001:00010540       ?_Erase@?$_Tree@V?$_Tset_traits@PAVBNC_ReferenceItem@@U?$less@PAVBNC_ReferenceItem@@@std@@V?$allocator@PAVBNC_ReferenceItem@@@3@$0A@@std@@@std@@IAEXPAU?$_Tree_node@PAVBNC_ReferenceItem@@PAX@2@@Z 10011540 f i BNC_BaseRefItemControl.obj
 0001:00010590       ?erase@?$_Tree@V?$_Tset_traits@PAVBNC_ReferenceItemEx@@U?$less@PAVBNC_ReferenceItemEx@@@std@@V?$allocator@PAVBNC_ReferenceItemEx@@@3@$0A@@std@@@std@@QAE?AV?$_Tree_const_iterator@V?$_Tree_val@U?$_Tree_simple_types@PAVBNC_ReferenceItemEx@@@std@@@std@@@2@V32@0@Z 10011590 f i BNC_BaseRefItemControlEx.obj
 0001:00010590       ?erase@?$_Tree@V?$_Tset_traits@PAUHWND__@@U?$less@PAUHWND__@@@std@@V?$allocator@PAUHWND__@@@3@$0A@@std@@@std@@QAE?AV?$_Tree_const_iterator@V?$_Tree_val@U?$_Tree_simple_types@PAUHWND__@@@std@@@std@@@2@V32@0@Z 10011590 f i BNC_BaseDialog.obj
 0001:00010590       ?erase@?$_Tree@V?$_Tset_traits@PAVBNC_ReferenceItem@@U?$less@PAVBNC_ReferenceItem@@@std@@V?$allocator@PAVBNC_ReferenceItem@@@3@$0A@@std@@@std@@QAE?AV?$_Tree_const_iterator@V?$_Tree_val@U?$_Tree_simple_types@PAVBNC_ReferenceItem@@@std@@@std@@@2@V32@0@Z 10011590 f i BNC_BaseRefItemControl.obj
 0001:00010590       ?erase@?$_Tree@V?$_Tmap_traits@IIU?$less@I@std@@V?$allocator@U?$pair@$$CBII@std@@@2@$0A@@std@@@std@@QAE?AV?$_Tree_iterator@V?$_Tree_val@U?$_Tree_simple_types@U?$pair@$$CBII@std@@@std@@@std@@@2@V?$_Tree_const_iterator@V?$_Tree_val@U?$_Tree_simple_types@U?$pair@$$CBII@std@@@std@@@std@@@2@0@Z 10011590 f i BNC_ReferenceItemExOption.obj
 0001:00010590       ?erase@?$_Tree@V?$_Tset_traits@PAVBNC_BaseDialog@@U?$less@PAVBNC_BaseDialog@@@std@@V?$allocator@PAVBNC_BaseDialog@@@3@$0A@@std@@@std@@QAE?AV?$_Tree_const_iterator@V?$_Tree_val@U?$_Tree_simple_types@PAVBNC_BaseDialog@@@std@@@std@@@2@V32@0@Z 10011590 f i BNC_BaseDialog.obj
 0001:00010650       ??0?$_Wrap_alloc@V?$allocator@U?$_Tree_node@U?$pair@$$CBV?$CStringT@_WV?$StrTraitMFC_DLL@_WV?$ChTraitsCRT@_W@ATL@@@@@ATL@@PAUHICON__@@@std@@PAX@std@@@std@@@std@@QAE@XZ 10011650 f i BNC_HtmlMetaInfo.obj
 0001:00010650       ??0?$_Wrap_alloc@V?$allocator@U?$_Tree_node@PAUHWND__@@PAX@std@@@std@@@std@@QAE@XZ 10011650 f i BNC_BaseDialog.obj
 0001:00010650       ??0BNC_ReferenceItemSelecter@@QAE@XZ 10011650 f i BNC_ReferenceItemSelecter.obj
 0001:00010650       ??0BNC_ClipboardImageOLE@@QAE@XZ 10011650 f i BNC_ClipboardImageOLE.obj
 0001:00010650       ??0BNC_DwmColorControl@@QAE@XZ 10011650 f i BNC_DwmColorControl.obj
 0001:00010650       ??0?$_Wrap_alloc@V?$allocator@U?$_Tree_node@U?$pair@$$CBV?$CStringT@_WV?$StrTraitMFC_DLL@_WV?$ChTraitsCRT@_W@ATL@@@@@ATL@@PAVImage@Gdiplus@@@std@@PAX@std@@@std@@@std@@QAE@XZ 10011650 f i BNC_HtmlMetaInfo.obj
 0001:00010660       ?_Buyheadnode@?$_Tree_alloc@$0A@U?$_Tree_base_types@PAVBNC_BaseDialog@@V?$allocator@PAVBNC_BaseDialog@@@std@@@std@@@std@@QAEPAU?$_Tree_node@PAVBNC_BaseDialog@@PAX@2@XZ 10011660 f i BNC_BaseDialog.obj
 0001:00010660       ?_Buyheadnode@?$_Tree_alloc@$0A@U?$_Tree_base_types@PAVBNC_ReferenceItemEx@@V?$allocator@PAVBNC_ReferenceItemEx@@@std@@@std@@@std@@QAEPAU?$_Tree_node@PAVBNC_ReferenceItemEx@@PAX@2@XZ 10011660 f i BNC_BaseRefItemControlEx.obj
 0001:00010660       ?_Buyheadnode@?$_Tree_alloc@$0A@U?$_Tree_base_types@PAUHWND__@@V?$allocator@PAUHWND__@@@std@@@std@@@std@@QAEPAU?$_Tree_node@PAUHWND__@@PAX@2@XZ 10011660 f i BNC_BaseDialog.obj
 0001:00010660       ?_Buyheadnode@?$_Tree_alloc@$0A@U?$_Tree_base_types@PAVBNC_ReferenceItem@@V?$allocator@PAVBNC_ReferenceItem@@@std@@@std@@@std@@QAEPAU?$_Tree_node@PAVBNC_ReferenceItem@@PAX@2@XZ 10011660 f i BNC_BaseRefItemControl.obj
 0001:00010690       ??$_Copy@U?$integral_constant@_N$0A@@std@@@?$_Tree@V?$_Tset_traits@PAUHWND__@@U?$less@PAUHWND__@@@std@@V?$allocator@PAUHWND__@@@3@$0A@@std@@@std@@IAEXABV01@U?$integral_constant@_N$0A@@1@@Z 10011690 f i BNC_BaseDialog.obj
 0001:00010690       ??$_Copy@U?$integral_constant@_N$0A@@std@@@?$_Tree@V?$_Tset_traits@PAVBNC_ReferenceItemEx@@U?$less@PAVBNC_ReferenceItemEx@@@std@@V?$allocator@PAVBNC_ReferenceItemEx@@@3@$0A@@std@@@std@@IAEXABV01@U?$integral_constant@_N$0A@@1@@Z 10011690 f i BNC_BaseRefItemControlEx.obj
 0001:00010690       ??$_Copy@U?$integral_constant@_N$0A@@std@@@?$_Tree@V?$_Tset_traits@PAVBNC_ReferenceItem@@U?$less@PAVBNC_ReferenceItem@@@std@@V?$allocator@PAVBNC_ReferenceItem@@@3@$0A@@std@@@std@@IAEXABV01@U?$integral_constant@_N$0A@@1@@Z 10011690 f i BNC_BaseRefItemControl.obj
 0001:00010710       ??$_Insert_nohint@ABQAVBNC_BaseDialog@@U_Nil@std@@@?$_Tree@V?$_Tset_traits@PAVBNC_BaseDialog@@U?$less@PAVBNC_BaseDialog@@@std@@V?$allocator@PAVBNC_BaseDialog@@@3@$0A@@std@@@std@@IAE?AU?$pair@V?$_Tree_const_iterator@V?$_Tree_val@U?$_Tree_simple_types@PAVBNC_BaseDialog@@@std@@@std@@@std@@_N@1@_NABQAVBNC_BaseDialog@@U_Nil@1@@Z 10011710 f i BNC_BaseDialog.obj
 0001:00010710       ??$_Insert_nohint@ABQAVBNC_ReferenceItemEx@@U_Nil@std@@@?$_Tree@V?$_Tset_traits@PAVBNC_ReferenceItemEx@@U?$less@PAVBNC_ReferenceItemEx@@@std@@V?$allocator@PAVBNC_ReferenceItemEx@@@3@$0A@@std@@@std@@IAE?AU?$pair@V?$_Tree_const_iterator@V?$_Tree_val@U?$_Tree_simple_types@PAVBNC_ReferenceItemEx@@@std@@@std@@@std@@_N@1@_NABQAVBNC_ReferenceItemEx@@U_Nil@1@@Z 10011710 f i BNC_BaseRefItemControlEx.obj
 0001:00010710       ??$_Insert_nohint@ABQAUHWND__@@U_Nil@std@@@?$_Tree@V?$_Tset_traits@PAUHWND__@@U?$less@PAUHWND__@@@std@@V?$allocator@PAUHWND__@@@3@$0A@@std@@@std@@IAE?AU?$pair@V?$_Tree_const_iterator@V?$_Tree_val@U?$_Tree_simple_types@PAUHWND__@@@std@@@std@@@std@@_N@1@_NABQAUHWND__@@U_Nil@1@@Z 10011710 f i BNC_BaseDialog.obj
 0001:00010710       ??$_Insert_nohint@ABQAVBNC_ReferenceItem@@U_Nil@std@@@?$_Tree@V?$_Tset_traits@PAVBNC_ReferenceItem@@U?$less@PAVBNC_ReferenceItem@@@std@@V?$allocator@PAVBNC_ReferenceItem@@@3@$0A@@std@@@std@@IAE?AU?$pair@V?$_Tree_const_iterator@V?$_Tree_val@U?$_Tree_simple_types@PAVBNC_ReferenceItem@@@std@@@std@@@std@@_N@1@_NABQAVBNC_ReferenceItem@@U_Nil@1@@Z 10011710 f i BNC_BaseRefItemControl.obj
 0001:00010820       ??$_Reset@VBNC_FakeModal@@@?$_Ptr_base@VBNC_FakeModal@@@std@@QAEXABV01@@Z 10011820 f i BNC_BaseDialog.obj
 0001:00010820       ??$_Reset@VBNC_AsyncMessageBox@@@?$_Ptr_base@VBNC_FakeModal@@@std@@QAEXABV?$_Ptr_base@VBNC_AsyncMessageBox@@@1@@Z 10011820 f i IBaronow25.obj
 0001:00010890       ??F?$_Tree_unchecked_const_iterator@V?$_Tree_val@U?$_Tree_simple_types@U?$pair@$$CBV?$CStringT@_WV?$StrTraitMFC_DLL@_WV?$ChTraitsCRT@_W@ATL@@@@@ATL@@PAVBNC_ReferenceItemExOption@@@std@@@std@@@std@@U_Iterator_base0@2@@std@@QAEAAV01@XZ 10011890 f i BNC_RefListControlEx.obj
 0001:00010890       ??F?$_Tree_unchecked_const_iterator@V?$_Tree_val@U?$_Tree_simple_types@U?$pair@$$CBV?$CStringT@_WV?$StrTraitMFC_DLL@_WV?$ChTraitsCRT@_W@ATL@@@@@ATL@@PAUHICON__@@@std@@@std@@@std@@U_Iterator_base0@2@@std@@QAEAAV01@XZ 10011890 f i BNC_HtmlMetaInfo.obj
 0001:00010890       ??F?$_Tree_unchecked_const_iterator@V?$_Tree_val@U?$_Tree_simple_types@U?$pair@$$CBV?$CStringT@_WV?$StrTraitMFC_DLL@_WV?$ChTraitsCRT@_W@ATL@@@@@ATL@@PAVBNC_ReferenceItemEx@@@std@@@std@@@std@@U_Iterator_base0@2@@std@@QAEAAV01@XZ 10011890 f i BNC_RefListControlEx.obj
 0001:00010890       ??F?$_Tree_unchecked_const_iterator@V?$_Tree_val@U?$_Tree_simple_types@PAUHWND__@@@std@@@std@@U_Iterator_base0@2@@std@@QAEAAV01@XZ 10011890 f i BNC_BaseDialog.obj
 0001:00010890       ??F?$_Tree_unchecked_const_iterator@V?$_Tree_val@U?$_Tree_simple_types@PAVBNC_ReferenceItem@@@std@@@std@@U_Iterator_base0@2@@std@@QAEAAV01@XZ 10011890 f i BNC_BaseRefItemControl.obj
 0001:00010890       ??F?$_Tree_unchecked_const_iterator@V?$_Tree_val@U?$_Tree_simple_types@PAVBNC_BaseDialog@@@std@@@std@@U_Iterator_base0@2@@std@@QAEAAV01@XZ 10011890 f i BNC_BaseDialog.obj
 0001:00010890       ??F?$_Tree_unchecked_const_iterator@V?$_Tree_val@U?$_Tree_simple_types@U?$pair@$$CBII@std@@@std@@@std@@U_Iterator_base0@2@@std@@QAEAAV01@XZ 10011890 f i BNC_ReferenceItemExOption.obj
 0001:00010890       ??F?$_Tree_unchecked_const_iterator@V?$_Tree_val@U?$_Tree_simple_types@PAVBNC_ReferenceItemEx@@@std@@@std@@U_Iterator_base0@2@@std@@QAEAAV01@XZ 10011890 f i BNC_BaseRefItemControlEx.obj
 0001:00010890       ??F?$_Tree_unchecked_const_iterator@V?$_Tree_val@U?$_Tree_simple_types@U?$pair@$$CBV?$CStringT@_WV?$StrTraitMFC_DLL@_WV?$ChTraitsCRT@_W@ATL@@@@@ATL@@PAVImage@Gdiplus@@@std@@@std@@@std@@U_Iterator_base0@2@@std@@QAEAAV01@XZ 10011890 f i BNC_HtmlMetaInfo.obj
 0001:00010890       ??F?$_Tree_unchecked_const_iterator@V?$_Tree_val@U?$_Tree_simple_types@U?$pair@$$CBV?$CStringT@_WV?$StrTraitMFC_DLL@_WV?$ChTraitsCRT@_W@ATL@@@@@ATL@@PAVBNC_ReferenceItem@@@std@@@std@@@std@@U_Iterator_base0@2@@std@@QAEAAV01@XZ 10011890 f i BNC_RefListControl.obj
 0001:000108f0       ??$_Copy_nodes@U?$integral_constant@_N$0A@@std@@@?$_Tree@V?$_Tset_traits@PAVBNC_ReferenceItemEx@@U?$less@PAVBNC_ReferenceItemEx@@@std@@V?$allocator@PAVBNC_ReferenceItemEx@@@3@$0A@@std@@@std@@IAEPAU?$_Tree_node@PAVBNC_ReferenceItemEx@@PAX@1@PAU21@0U?$integral_constant@_N$0A@@1@@Z 100118f0 f i BNC_BaseRefItemControlEx.obj
 0001:000108f0       ??$_Copy_nodes@U?$integral_constant@_N$0A@@std@@@?$_Tree@V?$_Tset_traits@PAVBNC_ReferenceItem@@U?$less@PAVBNC_ReferenceItem@@@std@@V?$allocator@PAVBNC_ReferenceItem@@@3@$0A@@std@@@std@@IAEPAU?$_Tree_node@PAVBNC_ReferenceItem@@PAX@1@PAU21@0U?$integral_constant@_N$0A@@1@@Z 100118f0 f i BNC_BaseRefItemControl.obj
 0001:000108f0       ??$_Copy_nodes@U?$integral_constant@_N$0A@@std@@@?$_Tree@V?$_Tset_traits@PAUHWND__@@U?$less@PAUHWND__@@@std@@V?$allocator@PAUHWND__@@@3@$0A@@std@@@std@@IAEPAU?$_Tree_node@PAUHWND__@@PAX@1@PAU21@0U?$integral_constant@_N$0A@@1@@Z 100118f0 f i BNC_BaseDialog.obj
 0001:000109b0       ??$_Insert_at@ABQAUHWND__@@U_Nil@std@@@?$_Tree@V?$_Tset_traits@PAUHWND__@@U?$less@PAUHWND__@@@std@@V?$allocator@PAUHWND__@@@3@$0A@@std@@@std@@IAE?AV?$_Tree_const_iterator@V?$_Tree_val@U?$_Tree_simple_types@PAUHWND__@@@std@@@std@@@1@_NPAU?$_Tree_node@PAUHWND__@@PAX@1@ABQAUHWND__@@U_Nil@1@@Z 100119b0 f i BNC_BaseDialog.obj
 0001:000109b0       ??$_Insert_at@ABQAVBNC_ReferenceItem@@U_Nil@std@@@?$_Tree@V?$_Tset_traits@PAVBNC_ReferenceItem@@U?$less@PAVBNC_ReferenceItem@@@std@@V?$allocator@PAVBNC_ReferenceItem@@@3@$0A@@std@@@std@@IAE?AV?$_Tree_const_iterator@V?$_Tree_val@U?$_Tree_simple_types@PAVBNC_ReferenceItem@@@std@@@std@@@1@_NPAU?$_Tree_node@PAVBNC_ReferenceItem@@PAX@1@ABQAVBNC_ReferenceItem@@U_Nil@1@@Z 100119b0 f i BNC_BaseRefItemControl.obj
 0001:000109b0       ??$_Insert_at@ABQAVBNC_ReferenceItemEx@@U_Nil@std@@@?$_Tree@V?$_Tset_traits@PAVBNC_ReferenceItemEx@@U?$less@PAVBNC_ReferenceItemEx@@@std@@V?$allocator@PAVBNC_ReferenceItemEx@@@3@$0A@@std@@@std@@IAE?AV?$_Tree_const_iterator@V?$_Tree_val@U?$_Tree_simple_types@PAVBNC_ReferenceItemEx@@@std@@@std@@@1@_NPAU?$_Tree_node@PAVBNC_ReferenceItemEx@@PAX@1@ABQAVBNC_ReferenceItemEx@@U_Nil@1@@Z 100119b0 f i BNC_BaseRefItemControlEx.obj
 0001:000109b0       ??$_Insert_at@ABQAVBNC_BaseDialog@@U_Nil@std@@@?$_Tree@V?$_Tset_traits@PAVBNC_BaseDialog@@U?$less@PAVBNC_BaseDialog@@@std@@V?$allocator@PAVBNC_BaseDialog@@@3@$0A@@std@@@std@@IAE?AV?$_Tree_const_iterator@V?$_Tree_val@U?$_Tree_simple_types@PAVBNC_BaseDialog@@@std@@@std@@@1@_NPAU?$_Tree_node@PAVBNC_BaseDialog@@PAX@1@ABQAVBNC_BaseDialog@@U_Nil@1@@Z 100119b0 f i BNC_BaseDialog.obj
 0001:00010b80       ??$_Buynode@AAPAVBNC_ReferenceItem@@@?$_Tree_buy@PAVBNC_ReferenceItem@@V?$allocator@PAVBNC_ReferenceItem@@@std@@@std@@QAEPAU?$_Tree_node@PAVBNC_ReferenceItem@@PAX@1@AAPAVBNC_ReferenceItem@@@Z 10011b80 f i BNC_BaseRefItemControl.obj
 0001:00010b80       ??$_Buynode@ABQAVBNC_ReferenceItem@@@?$_Tree_buy@PAVBNC_ReferenceItem@@V?$allocator@PAVBNC_ReferenceItem@@@std@@@std@@QAEPAU?$_Tree_node@PAVBNC_ReferenceItem@@PAX@1@ABQAVBNC_ReferenceItem@@@Z 10011b80 f i BNC_BaseRefItemControl.obj
 0001:00010b80       ??$_Buynode@AAPAUHWND__@@@?$_Tree_buy@PAUHWND__@@V?$allocator@PAUHWND__@@@std@@@std@@QAEPAU?$_Tree_node@PAUHWND__@@PAX@1@AAPAUHWND__@@@Z 10011b80 f i BNC_BaseDialog.obj
 0001:00010b80       ??$_Buynode@ABQAUHWND__@@@?$_Tree_buy@PAUHWND__@@V?$allocator@PAUHWND__@@@std@@@std@@QAEPAU?$_Tree_node@PAUHWND__@@PAX@1@ABQAUHWND__@@@Z 10011b80 f i BNC_BaseDialog.obj
 0001:00010b80       ??$_Buynode@AAPAVBNC_ReferenceItemEx@@@?$_Tree_buy@PAVBNC_ReferenceItemEx@@V?$allocator@PAVBNC_ReferenceItemEx@@@std@@@std@@QAEPAU?$_Tree_node@PAVBNC_ReferenceItemEx@@PAX@1@AAPAVBNC_ReferenceItemEx@@@Z 10011b80 f i BNC_BaseRefItemControlEx.obj
 0001:00010b80       ??$_Buynode@ABQAVBNC_ReferenceItemEx@@@?$_Tree_buy@PAVBNC_ReferenceItemEx@@V?$allocator@PAVBNC_ReferenceItemEx@@@std@@@std@@QAEPAU?$_Tree_node@PAVBNC_ReferenceItemEx@@PAX@1@ABQAVBNC_ReferenceItemEx@@@Z 10011b80 f i BNC_BaseRefItemControlEx.obj
 0001:00010b80       ??$_Buynode@ABQAVBNC_BaseDialog@@@?$_Tree_buy@PAVBNC_BaseDialog@@V?$allocator@PAVBNC_BaseDialog@@@std@@@std@@QAEPAU?$_Tree_node@PAVBNC_BaseDialog@@PAX@1@ABQAVBNC_BaseDialog@@@Z 10011b80 f i BNC_BaseDialog.obj
 0001:00010ba0       ?_Buynode0@?$_Tree_buy@PAVBNC_ReferenceItem@@V?$allocator@PAVBNC_ReferenceItem@@@std@@@std@@QAEPAU?$_Tree_node@PAVBNC_ReferenceItem@@PAX@2@XZ 10011ba0 f i BNC_BaseRefItemControl.obj
 0001:00010ba0       ?_Buynode0@?$_Tree_buy@PAUHWND__@@V?$allocator@PAUHWND__@@@std@@@std@@QAEPAU?$_Tree_node@PAUHWND__@@PAX@2@XZ 10011ba0 f i BNC_BaseDialog.obj
 0001:00010ba0       ?_Buynode0@?$_Tree_buy@PAVBNC_ReferenceItemEx@@V?$allocator@PAVBNC_ReferenceItemEx@@@std@@@std@@QAEPAU?$_Tree_node@PAVBNC_ReferenceItemEx@@PAX@2@XZ 10011ba0 f i BNC_BaseRefItemControlEx.obj
 0001:00010ba0       ?_Buynode0@?$_Tree_buy@PAVBNC_BaseDialog@@V?$allocator@PAVBNC_BaseDialog@@@std@@@std@@QAEPAU?$_Tree_node@PAVBNC_BaseDialog@@PAX@2@XZ 10011ba0 f i BNC_BaseDialog.obj
 0001:00010bd8       ??_9BNC_BaseDialog@@$BBOA@AE 10011bd8 f i BNC_BaseDialog.obj
 0001:00010be0       ??_9BNC_BaseDialog@@$BBPA@AE 10011be0 f i BNC_BaseDialog.obj
 0001:00010be8       ??_9BNC_BaseDialog@@$BBOE@AE 10011be8 f i BNC_BaseDialog.obj
 0001:00010bf0       ??_9BNC_BaseDialog@@$BBPE@AE 10011bf0 f i BNC_BaseDialog.obj
 0001:00010bf8       ??_9BNC_BaseDialog@@$BBNI@AE 10011bf8 f i BNC_BaseDialog.obj
 0001:00010c00       ??_9BNC_BaseDialog@@$BBOI@AE 10011c00 f i BNC_BaseDialog.obj
 0001:00010c08       ??_9BNC_BaseDialog@@$BBNM@AE 10011c08 f i BNC_BaseDialog.obj
 0001:00010c10       ??_9BNC_BaseDialog@@$BBOM@AE 10011c10 f i BNC_BaseDialog.obj
 0001:00010c20       ??_EBNC_BaseDialogTracer@@UAEPAXI@Z 10011c20 f i BNC_BaseDialog.obj
 0001:00010c80       ??_EBNC_BaseDialog@@UAEPAXI@Z 10011c80 f i BNC_BaseDialog.obj
 0001:00010ce0       ?AfxGetMainWnd@@YGPAVCWnd@@XZ 10011ce0 f i BNC_BaseDialog.obj
 0001:00010d00       ?DrawImage@Graphics@Gdiplus@@QAE?AW4Status@2@PAVImage@2@ABVRectF@2@MMMMW4Unit@2@PBVImageAttributes@2@P6GHPAX@Z4@Z 10011d00 f i BNC_BaseDialog.obj
 0001:00010d80       ?DrawImage@Graphics@Gdiplus@@QAE?AW4Status@2@PAVImage@2@HHHHHHW4Unit@2@@Z 10011d80 f i BNC_BaseDialog.obj
 0001:00010dd0       ??1Graphics@Gdiplus@@QAE@XZ 10011dd0 f i BNC_BaseDialog.obj
 0001:00010de0       ?IsChild@CWnd@@QBEHPBV1@@Z 10011de0 f i BNC_BaseDialog.obj
 0001:00010e10       ?SelectObject@CDC@@QAEPAXPAX@Z 10011e10 f i BNC_BaseDialog.obj
 0001:00010e30       ??1CPen@@UAE@XZ            10011e30 f i BNC_BaseDialog.obj
 0001:00010e40       ??_GCPen@@UAEPAXI@Z        10011e40 f i BNC_BaseDialog.obj
 0001:00010e40       ??_ECPen@@UAEPAXI@Z        10011e40 f i * CIL library *:* CIL module *
 0001:00010e70       ??0CPen@@QAE@XZ            10011e70 f i BNC_BaseDialog.obj
 0001:00010e80       _==                        10011e80 f i BNC_BaseDialog.obj
 0001:00010ec0       ?Create@CDialog@@UAEHIPAVCWnd@@@Z 10011ec0 f i BNC_BaseDialog.obj
 0001:00010ee0       ??0BNC_BaseFloating@@QAE@XZ 10011ee0 f   BNC_BaseFloating.obj
 0001:00010f50       ??1BNC_BaseModaless@@UAE@XZ 10011f50 f   BNC_BaseModaless.obj
 0001:00010f50       ??1BNC_BaseFloating@@UAE@XZ 10011f50 f   BNC_BaseFloating.obj
 0001:00010f60       ?GetThisMessageMap@BNC_BaseFloating@@KGPBUAFX_MSGMAP@@XZ 10011f60 f   BNC_BaseFloating.obj
 0001:00010f60       ?GetMessageMap@BNC_BaseFloating@@MBEPBUAFX_MSGMAP@@XZ 10011f60 f   BNC_BaseFloating.obj
 0001:00010f70       ?OnDestroy@BNC_BaseFloating@@QAEXXZ 10011f70 f   BNC_BaseFloating.obj
 0001:00010f70       ?OnDestroy@BNC_BaseInstant@@QAEXXZ 10011f70 f   BNC_BaseInstant.obj
 0001:00010f70       ?OnDestroy@BNC_FloatingMessage@@IAEXXZ 10011f70 f   BNC_FloatingMessage.obj
 0001:00010f70       ?OnDestroy@BNC_BaseModaless@@IAEXXZ 10011f70 f   BNC_BaseModaless.obj
 0001:00010f80       ?OnInitDialog@BNC_BaseFloating@@MAEHXZ 10011f80 f   BNC_BaseFloating.obj
 0001:00010fb0       ?OnWindowPosChanging@BNC_BaseFloating@@QAEXPAUtagWINDOWPOS@@@Z 10011fb0 f   BNC_BaseFloating.obj
 0001:00010fb0       ?OnWindowPosChanging@BNC_BaseModaless@@IAEXPAUtagWINDOWPOS@@@Z 10011fb0 f   BNC_BaseModaless.obj
 0001:00010fc0       ?OnMouseMove@BNC_BaseFloating@@QAEXIVCPoint@@@Z 10011fc0 f   BNC_BaseFloating.obj
 0001:00011090       ?OnLButtonDown@BNC_BaseFloating@@QAEXIVCPoint@@@Z 10012090 f   BNC_BaseFloating.obj
 0001:00011100       ?OnMButtonDown@BNC_BaseFloating@@QAEXIVCPoint@@@Z 10012100 f   BNC_BaseFloating.obj
 0001:00011130       ?PreTranslateMessage@BNC_BaseFloating@@UAEHPAUtagMSG@@@Z 10012130 f   BNC_BaseFloating.obj
 0001:00011130       ?PreTranslateMessage@BNC_BaseModaless@@MAEHPAUtagMSG@@@Z 10012130 f   BNC_BaseModaless.obj
 0001:00011130       ?PreTranslateMessage@BNC_BaseOverlay@@UAEHPAUtagMSG@@@Z 10012130 f   BNC_BaseOverlay.obj
 0001:00011140       ??_EBNC_BaseFloating@@UAEPAXI@Z 10012140 f i BNC_BaseFloating.obj
 0001:000111a0       ??0BNC_BaseInstant@@QAE@XZ 100121a0 f   BNC_BaseInstant.obj
 0001:00011220       ??1BNC_BaseInstant@@UAE@XZ 10012220 f   BNC_BaseInstant.obj
 0001:00011230       ?GetMessageMap@BNC_BaseInstant@@MBEPBUAFX_MSGMAP@@XZ 10012230 f   BNC_BaseInstant.obj
 0001:00011230       ?GetThisMessageMap@BNC_BaseInstant@@KGPBUAFX_MSGMAP@@XZ 10012230 f   BNC_BaseInstant.obj
 0001:00011240       ?OnInitDialog@BNC_BaseInstant@@MAEHXZ 10012240 f   BNC_BaseInstant.obj
 0001:00011270       ?Show@BNC_BaseInstant@@QAE_NPAVCWnd@@HH@Z 10012270 f   BNC_BaseInstant.obj
 0001:00011320       ?OnHide@BNC_BaseInstant@@UAE_NW4BNE_INSTANT_HIDE_REASON@@@Z 10012320 f   BNC_BaseInstant.obj
 0001:00011330       ?Hide@BNC_BaseInstant@@QAE_NW4BNE_INSTANT_HIDE_REASON@@@Z 10012330 f   BNC_BaseInstant.obj
 0001:000113d0       ?GetHideReason@BNC_BaseInstant@@QAE?AW4BNE_INSTANT_HIDE_REASON@@XZ 100123d0 f   BNC_BaseInstant.obj
 0001:000113e0       ?IsFamilyWindow@BNC_BaseInstant@@IAE_NPAVCWnd@@@Z 100123e0 f   BNC_BaseInstant.obj
 0001:00011440       ?CheckCursorWindow@BNC_BaseInstant@@IAE_NXZ 10012440 f   BNC_BaseInstant.obj
 0001:00011460       ?MouseAction@BNC_BaseInstant@@AAEXAAIAAVCPoint@@W4BNE_INSTANT_HIDE_REASON@@@Z 10012460 f   BNC_BaseInstant.obj
 0001:00011470       ?OnMouseMove@BNC_BaseInstant@@QAEXIVCPoint@@@Z 10012470 f   BNC_BaseInstant.obj
 0001:00011500       ?OnLButtonDown@BNC_BaseInstant@@QAEXIVCPoint@@@Z 10012500 f   BNC_BaseInstant.obj
 0001:00011550       ?OnRButtonDown@BNC_BaseInstant@@QAEXIVCPoint@@@Z 10012550 f   BNC_BaseInstant.obj
 0001:00011570       ?OnMButtonDown@BNC_BaseInstant@@QAEXIVCPoint@@@Z 10012570 f   BNC_BaseInstant.obj
 0001:00011590       ?OnXButtonDown@BNC_BaseInstant@@QAEXIIVCPoint@@@Z 10012590 f   BNC_BaseInstant.obj
 0001:000115b0       ?OnCaptureChanged@BNC_BaseInstant@@QAEXPAVCWnd@@@Z 100125b0 f   BNC_BaseInstant.obj
 0001:00011640       ??_EBNC_BaseInstant@@UAEPAXI@Z 10012640 f i BNC_BaseInstant.obj
 0001:000116a0       ?GetRuntimeClass@BNC_BaseLayered@@UBEPAUCRuntimeClass@@XZ 100126a0 f   BNC_BaseLayered.obj
 0001:000116a0       ?GetThisClass@BNC_BaseLayered@@SGPAUCRuntimeClass@@XZ 100126a0 f   BNC_BaseLayered.obj
 0001:000116b0       ??0BNC_BaseLayered@@QAE@XZ 100126b0 f   BNC_BaseLayered.obj
 0001:00011810       ??1recursive_mutex@std@@QAE@XZ 10012810 f i BNC_BaseLayered.obj
 0001:00011820       ??1BNC_BaseLayered@@UAE@XZ 10012820 f   BNC_BaseLayered.obj
 0001:000118d0       ?GetThisMessageMap@BNC_BaseLayered@@KGPBUAFX_MSGMAP@@XZ 100128d0 f   BNC_BaseLayered.obj
 0001:000118d0       ?GetMessageMap@BNC_BaseLayered@@MBEPBUAFX_MSGMAP@@XZ 100128d0 f   BNC_BaseLayered.obj
 0001:000118e0       ?OnDestroy@BNC_FakeBorder@@IAEXXZ 100128e0 f   BNC_FakeBorder.obj
 0001:000118e0       ?OnDestroy@BNC_FadeAnimation@@QAEXXZ 100128e0 f   BNC_FadeAnimation.obj
 0001:000118e0       ?OnDestroy@BNC_BaseLayered@@IAEXXZ 100128e0 f   BNC_BaseLayered.obj
 0001:000118e0       ?OnDestroy@BNC_Edit@@QAEXXZ 100128e0 f   BNC_Edit.obj
 0001:000118f0       ?OnPaint@BNC_BaseLayered@@QAEXXZ 100128f0 f   BNC_BaseLayered.obj
 0001:000118f0       ?OnPaint@BNC_FakeBorder@@QAEXXZ 100128f0 f   BNC_FakeBorder.obj
 0001:00011940       ?create@BNC_BaseLayered@@QAE_NPAVCWnd@@_N@Z 10012940 f   BNC_BaseLayered.obj
 0001:000119d0       ?OnInitDialog@BNC_BaseLayered@@MAEHXZ 100129d0 f   BNC_BaseLayered.obj
 0001:00011a10       ?StopHide@BNC_BaseLayered@@QAEXXZ 10012a10 f   BNC_BaseLayered.obj
 0001:00011a60       ?OnTimer@BNC_BaseLayered@@IAEXI@Z 10012a60 f   BNC_BaseLayered.obj
 0001:00011bc0       ?UpdateLayerImage@BNC_BaseLayered@@QAE_NPAVImage@Gdiplus@@PAEPAVCPoint@@PAVCSize@@32@Z 10012bc0 f   BNC_BaseLayered.obj
 0001:000120b0       ?UpdateLayerBitmap@BNC_BaseLayered@@QAE_NPAVCBitmap@@VCSize@@PAEPAVCPoint@@PAV3@3@Z 100130b0 f   BNC_BaseLayered.obj
 0001:00012320       ?UpdateLayer@BNC_BaseLayered@@QAE_NPAEPAVCPoint@@PAVCSize@@1@Z 10013320 f   BNC_BaseLayered.obj
 0001:00012450       ?CommitLayer@BNC_BaseLayered@@AAE_NEVCPoint@@VCSize@@PAV2@@Z 10013450 f   BNC_BaseLayered.obj
 0001:00012640       ?OnCommitLayer@BNC_BaseLayered@@EAEXPAVCDC@@EVCPoint@@VCSize@@@Z 10013640 f   BNC_BaseLayered.obj
 0001:00012650       ??1?$lock_guard@Vmutex@std@@@std@@QAE@XZ 10013650 f i BNC_HtmlMetaInfo.obj
 0001:00012650       ??1?$lock_guard@Vrecursive_mutex@std@@@std@@QAE@XZ 10013650 f i BNC_BaseLayered.obj
 0001:00012670       ??_EBNC_BaseLayered@@UAEPAXI@Z 10013670 f i BNC_BaseLayered.obj
 0001:000126d0       ?GetAliveModal@BNC_BaseModal@@SA?AV?$set@PAUHWND__@@U?$less@PAUHWND__@@@std@@V?$allocator@PAUHWND__@@@3@@std@@XZ 100136d0 f   BNC_BaseModal.obj
 0001:000126f0       ?GetCreateCount@BNC_BaseModal@@SAIXZ 100136f0 f   BNC_BaseModal.obj
 0001:00012700       ?GetAliveCount@BNC_BaseModal@@SAIXZ 10013700 f   BNC_BaseModal.obj
 0001:00012710       ??0BNC_BaseModal@@QAE@IPAVCWnd@@0PAPAV0@PAVBNC_BaseDialog@@@Z 10013710 f   BNC_BaseModal.obj
 0001:000127f0       ??1BNC_BaseModal@@UAE@XZ   100137f0 f   BNC_BaseModal.obj
 0001:00012800       ?GetThisMessageMap@BNC_BaseModal@@KGPBUAFX_MSGMAP@@XZ 10013800 f   BNC_BaseModal.obj
 0001:00012800       ?GetMessageMap@BNC_BaseModal@@MBEPBUAFX_MSGMAP@@XZ 10013800 f   BNC_BaseModal.obj
 0001:00012810       ?CreateIndirect@BNC_BaseModal@@MAEHPBUDLGTEMPLATE@@PAVCWnd@@PAX@Z 10013810 f   BNC_BaseModal.obj
 0001:00012820       ?OnDestroy@BNC_BaseModal@@QAEXXZ 10013820 f   BNC_BaseModal.obj
 0001:00012890       ?OnClose@BNC_BaseModal@@QAEXXZ 10013890 f   BNC_BaseModal.obj
 0001:000128d0       ?OnOK@BNC_BaseModal@@MAEXXZ 100138d0 f   BNC_BaseModal.obj
 0001:00012920       ?OnCancel@BNC_BaseModal@@MAEXXZ 10013920 f   BNC_BaseModal.obj
 0001:00012970       ?OnInitDialog@BNC_BaseModal@@MAEHXZ 10013970 f   BNC_BaseModal.obj
 0001:00012a50       ?PreTranslateMessage@BNC_BaseModal@@MAEHPAUtagMSG@@@Z 10013a50 f   BNC_BaseModal.obj
 0001:00012ac0       ?Modal@BNC_BaseModal@@QAEH_NEK@Z 10013ac0 f   BNC_BaseModal.obj
 0001:00012cd0       ?ContinueModal@BNC_BaseModal@@EAEHXZ 10013cd0 f   BNC_BaseModal.obj
 0001:00012cf0       ?Break@BNC_BaseModal@@QAEXXZ 10013cf0 f   BNC_BaseModal.obj
 0001:00012d30       ?IsOkClose@BNC_BaseModal@@QAE_NXZ 10013d30 f   BNC_BaseModal.obj
 0001:00012d40       ?OnActivate@BNC_BaseModal@@QAEXIPAVCWnd@@H@Z 10013d40 f   BNC_BaseModal.obj
 0001:00012d40       ?OnActivate@BNC_BaseOverlay@@QAEXIPAVCWnd@@H@Z 10013d40 f   BNC_BaseOverlay.obj
 0001:00012d50       ??_EBNC_BaseModal@@UAEPAXI@Z 10013d50 f i BNC_BaseModal.obj
 0001:00012db0       ?GetCreateCount@BNC_BaseModaless@@SAIXZ 10013db0 f   BNC_BaseModaless.obj
 0001:00012dc0       ?GetAliveCount@BNC_BaseModaless@@SAIXZ 10013dc0 f   BNC_BaseModaless.obj
 0001:00012dd0       ??0BNC_BaseModaless@@QAE@XZ 10013dd0 f   BNC_BaseModaless.obj
 0001:00012e00       ?GetMessageMap@BNC_BaseModaless@@MBEPBUAFX_MSGMAP@@XZ 10013e00 f   BNC_BaseModaless.obj
 0001:00012e00       ?GetThisMessageMap@BNC_BaseModaless@@KGPBUAFX_MSGMAP@@XZ 10013e00 f   BNC_BaseModaless.obj
 0001:00012e10       ?OnInitDialog@BNC_BaseModaless@@MAEHXZ 10013e10 f   BNC_BaseModaless.obj
 0001:00012e40       ?OnClose@BNC_BaseModaless@@QAEXXZ 10013e40 f   BNC_BaseModaless.obj
 0001:00012e50       ??_EBNC_BaseModaless@@UAEPAXI@Z 10013e50 f i BNC_BaseModaless.obj
 0001:00012eb0       ?GetAliveOverlay@BNC_BaseOverlay@@SA?AV?$set@PAUHWND__@@U?$less@PAUHWND__@@@std@@V?$allocator@PAUHWND__@@@3@@std@@XZ 10013eb0 f   BNC_BaseOverlay.obj
 0001:00012ed0       ?GetCreateCount@BNC_BaseOverlay@@SAIXZ 10013ed0 f   BNC_BaseOverlay.obj
 0001:00012ee0       ?GetAliveCount@BNC_BaseOverlay@@SAIXZ 10013ee0 f   BNC_BaseOverlay.obj
 0001:00012ef0       ??0BNC_BaseOverlay@@QAE@IPAVCWnd@@PAVCDialog@@EK@Z 10013ef0 f   BNC_BaseOverlay.obj
 0001:00012fd0       ??1BNC_BaseOverlay@@UAE@XZ 10013fd0 f   BNC_BaseOverlay.obj
 0001:00012fe0       ?GetMessageMap@BNC_BaseOverlay@@MBEPBUAFX_MSGMAP@@XZ 10013fe0 f   BNC_BaseOverlay.obj
 0001:00012fe0       ?GetThisMessageMap@BNC_BaseOverlay@@KGPBUAFX_MSGMAP@@XZ 10013fe0 f   BNC_BaseOverlay.obj
 0001:00013000       ?OnDestroy@BNC_BaseOverlay@@QAEXXZ 10014000 f   BNC_BaseOverlay.obj
 0001:00013070       ?OnCreate@BNC_BaseOverlay@@EAE_NXZ 10014070 f   BNC_BaseOverlay.obj
 0001:00013170       ?OnInitDialog@BNC_BaseOverlay@@MAEHXZ 10014170 f   BNC_BaseOverlay.obj
 0001:000131f0       ?Modal@BNC_BaseOverlay@@QAEH_N@Z 100141f0 f   BNC_BaseOverlay.obj
 0001:000132b0       ?Break@BNC_BaseOverlay@@QAEXXZ 100142b0 f   BNC_BaseOverlay.obj
 0001:000132c0       ?OnTimer@BNC_BaseOverlay@@QAEXI@Z 100142c0 f   BNC_BaseOverlay.obj
 0001:00013340       ?OnWindowPosChanging@BNC_BaseOverlay@@QAEXPAUtagWINDOWPOS@@@Z 10014340 f   BNC_BaseOverlay.obj
 0001:00013360       ?OnSetFocus@BNC_BaseOverlay@@QAEXPAVCWnd@@@Z 10014360 f   BNC_BaseOverlay.obj
 0001:000133a0       ??_EBNC_BaseOverlay@@UAEPAXI@Z 100143a0 f i BNC_BaseOverlay.obj
 0001:00013400       ??0BNC_BaseRefItemControl@@QAE@XZ 10014400 f   BNC_BaseRefItemControl.obj
 0001:00013570       ??1BNC_BaseRefItemControl@@UAE@XZ 10014570 f   BNC_BaseRefItemControl.obj
 0001:000135c0       ?GetThisMessageMap@BNC_BaseRefItemControl@@KGPBUAFX_MSGMAP@@XZ 100145c0 f   BNC_BaseRefItemControl.obj
 0001:000135c0       ?GetMessageMap@BNC_BaseRefItemControl@@MBEPBUAFX_MSGMAP@@XZ 100145c0 f   BNC_BaseRefItemControl.obj
 0001:000135d0       ?OnCaptureChanged@BNC_BaseRefItemControl@@IAEXPAVCWnd@@@Z 100145d0 f   BNC_BaseRefItemControl.obj
 0001:000135d0       ?OnCaptureChanged@BNC_BaseRefItemControlEx@@IAEXPAVCWnd@@@Z 100145d0 f   BNC_BaseRefItemControlEx.obj
 0001:00013620       ?GetNewMouseItem@BNC_BaseRefItemControl@@IAEPBVBNC_ReferenceItem@@XZ 10014620 f   BNC_BaseRefItemControl.obj
 0001:00013630       ?GetResourceLine@BNC_Button@@QAEIXZ 10014630 f   BNC_Button.obj
 0001:00013630       ?GetOldMouseItem@BNC_BaseRefItemControl@@IAEPBVBNC_ReferenceItem@@XZ 10014630 f   BNC_BaseRefItemControl.obj
 0001:00013640       ?GetLastSelectItem@BNC_BaseRefItemControl@@IAEPBVBNC_ReferenceItem@@XZ 10014640 f   BNC_BaseRefItemControl.obj
 0001:00013640       ?GetSelectItem@BNC_BaseRefItemControl@@QAEPAVBNC_ReferenceItem@@XZ 10014640 f   BNC_BaseRefItemControl.obj
 0001:00013650       ?GetSelectItemList@BNC_BaseRefItemControl@@IAE?BV?$set@PAVBNC_ReferenceItem@@U?$less@PAVBNC_ReferenceItem@@@std@@V?$allocator@PAVBNC_ReferenceItem@@@3@@std@@XZ 10014650 f   BNC_BaseRefItemControl.obj
 0001:00013680       ?ClearMouseItem@BNC_BaseRefItemControl@@IAEX_N@Z 10014680 f   BNC_BaseRefItemControl.obj
 0001:000138c0       ?DrawMouseActionItem@BNC_BaseRefItemControl@@EAEX_N@Z 100148c0 f   BNC_BaseRefItemControl.obj
 0001:00013b00       ?DefaultDrawItem@BNC_BaseRefItemControl@@IAEXPAVCDC@@0PBVBNC_ReferenceItem@@W4BNE_REFITEM_STATE@@ABVCSize@@@Z 10014b00 f   BNC_BaseRefItemControl.obj
 0001:00013ca0       ?GetItemState@BNC_BaseRefItemControl@@MAE?AW4BNE_REFITEM_STATE@@PAVBNC_ReferenceItem@@@Z 10014ca0 f   BNC_BaseRefItemControl.obj
 0001:00013db0       ?UpdateMouseItem@BNC_BaseRefItemControl@@AAEXPAVBNC_ReferenceItem@@@Z 10014db0 f   BNC_BaseRefItemControl.obj
 0001:00013e80       ?IsCompareMouseAction@BNC_BaseRefItemControl@@AAE_NPAVBNC_ReferenceItem@@0@Z 10014e80 f   BNC_BaseRefItemControl.obj
 0001:00013ec0       ?UpdateDeleteItem@BNC_BaseRefItemControl@@IAEXPAVBNC_ReferenceItem@@@Z 10014ec0 f   BNC_BaseRefItemControl.obj
 0001:00013f70       ?SetSelectItem@BNC_BaseRefItemControl@@QAEXPAVBNC_ReferenceItem@@@Z 10014f70 f   BNC_BaseRefItemControl.obj
 0001:00013fe0       ?ResetMouseRectIndex@BNC_BaseRefItemControl@@QAEXPAVBNC_ReferenceItem@@_N@Z 10014fe0 f   BNC_BaseRefItemControl.obj
 0001:00014020       ?OnMouseMove@BNC_BaseRefItemControl@@IAEXIVCPoint@@@Z 10015020 f   BNC_BaseRefItemControl.obj
 0001:000140a0       ?OnLButtonDown@BNC_BaseRefItemControl@@IAEXIVCPoint@@@Z 100150a0 f   BNC_BaseRefItemControl.obj
 0001:000140d0       ?OnRButtonDown@BNC_BaseRefItemControl@@IAEXIVCPoint@@@Z 100150d0 f   BNC_BaseRefItemControl.obj
 0001:00014120       ?OnLButtonUp@BNC_BaseRefItemControl@@IAEXIVCPoint@@@Z 10015120 f   BNC_BaseRefItemControl.obj
 0001:00014150       ?OnRButtonUp@BNC_BaseRefItemControl@@IAEXIVCPoint@@@Z 10015150 f   BNC_BaseRefItemControl.obj
 0001:00014180       ?OnLButtonDblClk@BNC_BaseRefItemControl@@IAEXIVCPoint@@@Z 10015180 f   BNC_BaseRefItemControl.obj
 0001:000141b0       ?UpdateMouseAction@BNC_BaseRefItemControl@@AAEXIW4BNE_MOUSEACTION@@AAVCPoint@@@Z 100151b0 f   BNC_BaseRefItemControl.obj
 0001:00014490       ?UpdateLBtnSelect@BNC_BaseRefItemControl@@AAE_NIPAVBNC_ReferenceItem@@AAVCPoint@@@Z 10015490 f   BNC_BaseRefItemControl.obj
 0001:00014600       ?UpdateRBtnSelect@BNC_BaseRefItemControl@@AAE_NIPAVBNC_ReferenceItem@@AAVCPoint@@@Z 10015600 f   BNC_BaseRefItemControl.obj
 0001:00014640       ??HATL@@YA?AV?$CStringT@_WV?$StrTraitMFC_DLL@_WV?$ChTraitsCRT@_W@ATL@@@@@0@PB_WABV10@@Z 10015640 f i BNC_BaseRefItemControl.obj
 0001:000146e0       ??_EBNC_BaseRefItemControl@@UAEPAXI@Z 100156e0 f i BNC_BaseRefItemControl.obj
 0001:00014780       ??0BNC_BaseRefItemControlEx@@QAE@XZ 10015780 f   BNC_BaseRefItemControlEx.obj
 0001:00014950       ??1BNC_BaseRefItemControlEx@@UAE@XZ 10015950 f   BNC_BaseRefItemControlEx.obj
 0001:000149a0       ?GetThisMessageMap@BNC_BaseRefItemControlEx@@KGPBUAFX_MSGMAP@@XZ 100159a0 f   BNC_BaseRefItemControlEx.obj
 0001:000149a0       ?GetMessageMap@BNC_BaseRefItemControlEx@@MBEPBUAFX_MSGMAP@@XZ 100159a0 f   BNC_BaseRefItemControlEx.obj
 0001:000149b0       ?GetNewMouseItem@BNC_BaseRefItemControlEx@@IAEPBVBNC_ReferenceItemEx@@XZ 100159b0 f   BNC_BaseRefItemControlEx.obj
 0001:000149c0       ?GetOldMouseItem@BNC_BaseRefItemControlEx@@IAEPBVBNC_ReferenceItemEx@@XZ 100159c0 f   BNC_BaseRefItemControlEx.obj
 0001:000149d0       ?GetLastSelectItem@BNC_BaseRefItemControlEx@@IAEPBVBNC_ReferenceItemEx@@XZ 100159d0 f   BNC_BaseRefItemControlEx.obj
 0001:000149e0       ?GetSelectItemList@BNC_BaseRefItemControlEx@@IAE?BV?$set@PAVBNC_ReferenceItemEx@@U?$less@PAVBNC_ReferenceItemEx@@@std@@V?$allocator@PAVBNC_ReferenceItemEx@@@3@@std@@XZ 100159e0 f   BNC_BaseRefItemControlEx.obj
 0001:00014a10       ?ClearMouseItem@BNC_BaseRefItemControlEx@@IAEX_N@Z 10015a10 f   BNC_BaseRefItemControlEx.obj
 0001:00014c20       ?DrawMouseActionItem@BNC_BaseRefItemControlEx@@EAEX_N@Z 10015c20 f   BNC_BaseRefItemControlEx.obj
 0001:00014fb0       ?DefaultDrawItem@BNC_BaseRefItemControlEx@@IAEXPAVCDC@@0PAVBNC_ReferenceItemEx@@W4BNE_REFITEM_STATE@@VCSize@@@Z 10015fb0 f   BNC_BaseRefItemControlEx.obj
 0001:00015160       ?GetItemState@BNC_BaseRefItemControlEx@@MAE?AW4BNE_REFITEM_STATE@@PAVBNC_ReferenceItemEx@@@Z 10016160 f   BNC_BaseRefItemControlEx.obj
 0001:00015280       ?UpdateMouseItem@BNC_BaseRefItemControlEx@@AAEXPAVBNC_ReferenceItemEx@@@Z 10016280 f   BNC_BaseRefItemControlEx.obj
 0001:00015310       ?IsCompareMouseAction@BNC_BaseRefItemControlEx@@AAE_NPAVBNC_ReferenceItemEx@@0@Z 10016310 f   BNC_BaseRefItemControlEx.obj
 0001:00015370       ?UpdateDeleteItem@BNC_BaseRefItemControlEx@@IAEXPAVBNC_ReferenceItemEx@@@Z 10016370 f   BNC_BaseRefItemControlEx.obj
 0001:00015460       ?SetSelectItem@BNC_BaseRefItemControlEx@@QAEXPAVBNC_ReferenceItemEx@@@Z 10016460 f   BNC_BaseRefItemControlEx.obj
 0001:000154d0       ?OnMouseMove@BNC_BaseRefItemControlEx@@IAEXIVCPoint@@@Z 100164d0 f   BNC_BaseRefItemControlEx.obj
 0001:00015570       ?OnLButtonDown@BNC_BaseRefItemControlEx@@IAEXIVCPoint@@@Z 10016570 f   BNC_BaseRefItemControlEx.obj
 0001:000155b0       ?OnRButtonDown@BNC_BaseRefItemControlEx@@IAEXIVCPoint@@@Z 100165b0 f   BNC_BaseRefItemControlEx.obj
 0001:00015610       ?OnLButtonUp@BNC_BaseRefItemControlEx@@IAEXIVCPoint@@@Z 10016610 f   BNC_BaseRefItemControlEx.obj
 0001:00015650       ?OnRButtonUp@BNC_BaseRefItemControlEx@@IAEXIVCPoint@@@Z 10016650 f   BNC_BaseRefItemControlEx.obj
 0001:000156a0       ?OnLButtonDblClk@BNC_BaseRefItemControlEx@@IAEXIVCPoint@@@Z 100166a0 f   BNC_BaseRefItemControlEx.obj
 0001:000156f0       ?UpdateMouseAction@BNC_BaseRefItemControlEx@@AAEXIW4BNE_MOUSEACTION@@AAVCPoint@@@Z 100166f0 f   BNC_BaseRefItemControlEx.obj
 0001:00015a90       ?UpdateLBtnSelect@BNC_BaseRefItemControlEx@@AAE_NIPAVBNC_ReferenceItemEx@@AAVCPoint@@@Z 10016a90 f   BNC_BaseRefItemControlEx.obj
 0001:00015c00       ?UpdateRBtnSelect@BNC_BaseRefItemControlEx@@AAE_NIPAVBNC_ReferenceItemEx@@AAVCPoint@@@Z 10016c00 f   BNC_BaseRefItemControlEx.obj
 0001:00015c40       ?DragEnter@BNC_BaseRefItemControlEx@@AAEXPAVBNC_ReferenceItemEx@@AAVCPoint@@1_N@Z 10016c40 f   BNC_BaseRefItemControlEx.obj
 0001:00015da0       ?DragMove@BNC_BaseRefItemControlEx@@AAEXAAVCPoint@@@Z 10016da0 f   BNC_BaseRefItemControlEx.obj
 0001:00015f60       ?DragLeave@BNC_BaseRefItemControlEx@@QAEXXZ 10016f60 f   BNC_BaseRefItemControlEx.obj
 0001:00015fc0       ?OnDestroy@BNC_BaseRefItemControlEx@@IAEXXZ 10016fc0 f   BNC_BaseRefItemControlEx.obj
 0001:00015fc0       ?OnDestroy@BNC_RefListControlEx@@QAEXXZ 10016fc0 f   BNC_RefListControlEx.obj
 0001:00015fe0       ??_EBNC_BaseRefItemControlEx@@UAEPAXI@Z 10016fe0 f i BNC_BaseRefItemControlEx.obj
 0001:00016080       ??9CPoint@@QBEHUtagPOINT@@@Z 10017080 f i BNC_BaseRefItemControlEx.obj
 0001:000160b0       ?GetRuntimeClass@BNC_BaseSliderCtrl@@UBEPAUCRuntimeClass@@XZ 100170b0 f   BNC_BaseSliderCtrl.obj
 0001:000160b0       ?GetThisClass@BNC_BaseSliderCtrl@@SGPAUCRuntimeClass@@XZ 100170b0 f   BNC_BaseSliderCtrl.obj
 0001:000160c0       ??0BNC_BaseSliderCtrl@@QAE@XZ 100170c0 f   BNC_BaseSliderCtrl.obj
 0001:00016260       ??1BNC_BaseSliderCtrl@@UAE@XZ 10017260 f   BNC_BaseSliderCtrl.obj
 0001:00016270       ?GetMessageMap@BNC_BaseSliderCtrl@@MBEPBUAFX_MSGMAP@@XZ 10017270 f   BNC_BaseSliderCtrl.obj
 0001:00016270       ?GetThisMessageMap@BNC_BaseSliderCtrl@@KGPBUAFX_MSGMAP@@XZ 10017270 f   BNC_BaseSliderCtrl.obj
 0001:00016280       ?OnDestroy@BNC_BaseSliderCtrl@@QAEXXZ 10017280 f   BNC_BaseSliderCtrl.obj
 0001:00016280       ?OnDestroy@BNC_SimpleVScrollbar@@QAEXXZ 10017280 f   BNC_SimpleVScrollbar.obj
 0001:00016280       ?OnDestroy@BNC_RefTreeControl@@QAEXXZ 10017280 f   BNC_RefTreeControl.obj
 0001:00016280       ?OnDestroy@BNC_SimpleHScrollbar@@QAEXXZ 10017280 f   BNC_SimpleHScrollbar.obj
 0001:00016280       ?OnDestroy@BNC_RefListControl@@QAEXXZ 10017280 f   BNC_RefListControl.obj
 0001:00016280       ?OnDestroy@BNC_DummyListControl@@IAEXXZ 10017280 f   BNC_DummyListControl.obj
 0001:00016280       ?OnDestroy@BNC_Editbox@@QAEXXZ 10017280 f   BNC_Editbox.obj
 0001:00016290       ?OnCreate@BNC_BaseSliderCtrl@@QAEHPAUtagCREATESTRUCTW@@@Z 10017290 f   BNC_BaseSliderCtrl.obj
 0001:00016380       ?OnUpdateSize@BNC_BaseSliderCtrl@@EAEXHH@Z 10017380 f   BNC_BaseSliderCtrl.obj
 0001:00016490       ?OnMouseControlUpdate@BNC_BaseSliderCtrl@@EAEXW4BNE_MOUSESTATE@@AAVCPoint@@@Z 10017490 f   BNC_BaseSliderCtrl.obj
 0001:00016500       ?OnDraw@BNC_BaseSliderCtrl@@EAE_NPAVCDC@@0@Z 10017500 f   BNC_BaseSliderCtrl.obj
 0001:000165f0       ?OnMouseMove@BNC_BaseSliderCtrl@@QAEXIVCPoint@@@Z 100175f0 f   BNC_BaseSliderCtrl.obj
 0001:00016640       ?SendNotify@BNC_BaseSliderCtrl@@AAEXXZ 10017640 f   BNC_BaseSliderCtrl.obj
 0001:00016680       ?UpdateDrawArea@BNC_BaseSliderCtrl@@AAEXXZ 10017680 f   BNC_BaseSliderCtrl.obj
 0001:00016810       ?UpdatePosRatio@BNC_BaseSliderCtrl@@AAEXAAVCPoint@@_N1@Z 10017810 f   BNC_BaseSliderCtrl.obj
 0001:00016920       ?UpdatePosRatio@BNC_BaseSliderCtrl@@AAEX_N@Z 10017920 f   BNC_BaseSliderCtrl.obj
 0001:00016a60       ?Initialize@BNC_BaseSliderCtrl@@QAEX_N00VCRect@@@Z 10017a60 f   BNC_BaseSliderCtrl.obj
 0001:00016a90       ?SetRange@BNC_BaseSliderCtrl@@QAEXHH_N@Z 10017a90 f   BNC_BaseSliderCtrl.obj
 0001:00016ac0       ?SetPos@BNC_BaseSliderCtrl@@QAEXH_N@Z 10017ac0 f   BNC_BaseSliderCtrl.obj
 0001:00016ae0       ?SetPosRatio@BNC_BaseSliderCtrl@@QAE_NM_N@Z 10017ae0 f   BNC_BaseSliderCtrl.obj
 0001:00016b70       ?GetPos@BNC_BaseSliderCtrl@@QAEHXZ 10017b70 f   BNC_BaseSliderCtrl.obj
 0001:00016b70       ?GetTrackingID@CFrameWnd@@UAEIXZ 10017b70 f   BNC_HtmlBrowserFrame.obj
 0001:00016b80       ?GetLength@BNC_BaseSliderCtrl@@QAEHXZ 10017b80 f   BNC_BaseSliderCtrl.obj
 0001:00016ba0       ?GetPosRatio@BNC_BaseSliderCtrl@@QAEMXZ 10017ba0 f   BNC_BaseSliderCtrl.obj
 0001:00016bb0       ?OnEnable@BNC_BaseSliderCtrl@@QAEXH@Z 10017bb0 f   BNC_BaseSliderCtrl.obj
 0001:00016bd0       ??_EBNC_BaseSliderCtrl@@UAEPAXI@Z 10017bd0 f i BNC_BaseSliderCtrl.obj
 0001:00016c30       ??0BNC_DummyListView@@QAE@XZ 10017c30 f   BNC_DummyListView.obj
 0001:00016d10       ??1BNC_DummyListView@@UAE@XZ 10017d10 f   BNC_DummyListView.obj
 0001:00016db0       ?GetThisMessageMap@BNC_RefListView@@KGPBUAFX_MSGMAP@@XZ 10017db0 f   BNC_RefListView.obj
 0001:00016db0       ?GetMessageMap@BNC_RefListView@@MBEPBUAFX_MSGMAP@@XZ 10017db0 f   BNC_RefListView.obj
 0001:00016db0       ?GetMessageMap@BNC_DummyListView@@MBEPBUAFX_MSGMAP@@XZ 10017db0 f   BNC_DummyListView.obj
 0001:00016db0       ?GetThisMessageMap@BNC_DummyListView@@KGPBUAFX_MSGMAP@@XZ 10017db0 f   BNC_DummyListView.obj
 0001:00016dc0       ?OnCreate@BNC_DummyListView@@MAE_NXZ 10017dc0 f   BNC_DummyListView.obj
 0001:00016e20       ?OnUpdateClient@BNC_DummyListView@@MAEXHH@Z 10017e20 f   BNC_DummyListView.obj
 0001:00016e40       ?OnNotifyMouseWheel@BNC_DummyListView@@UAEXIF@Z 10017e40 f   BNC_DummyListView.obj
 0001:00016eb0       ?OnNotifyKeyDown@BNC_DummyListView@@UAE_NI@Z 10017eb0 f   BNC_DummyListView.obj
 0001:00016ee0       ?OnMouseWheel@BNC_RefListView@@QAEHIFVCPoint@@@Z 10017ee0 f   BNC_RefListView.obj
 0001:00016ee0       ?OnMouseWheel@BNC_DummyListView@@QAEHIFVCPoint@@@Z 10017ee0 f   BNC_DummyListView.obj
 0001:00016ee0       ?OnMouseWheel@BNC_RefListViewEx@@QAEHIFVCPoint@@@Z 10017ee0 f   BNC_RefListViewEx.obj
 0001:00016f20       ?OnMessageScroll@BNC_DummyListView@@MAEJIJ@Z 10017f20 f   BNC_DummyListView.obj
 0001:00016f50       ?OnRedraw@BNC_DummyListView@@UAEX_N@Z 10017f50 f   BNC_DummyListView.obj
 0001:00016f60       ?UpdateScroll@BNC_DummyListView@@QAEXXZ 10017f60 f   BNC_DummyListView.obj
 0001:00016fb0       ?SetListScroll@BNC_DummyListView@@QAEXH@Z 10017fb0 f   BNC_DummyListView.obj
 0001:00017020       ?GetListScroll@BNC_DummyListView@@QAEHXZ 10018020 f   BNC_DummyListView.obj
 0001:00017030       ?GetItemTopPos@BNC_DummyListView@@QAEHH@Z 10018030 f   BNC_DummyListView.obj
 0001:00017050       ?GetDeferChildCount@BNC_DummyListView@@UAEIXZ 10018050 f   BNC_DummyListView.obj
 0001:00017060       ?UpdateControl@BNC_DummyListView@@IAEXHH_N@Z 10018060 f   BNC_DummyListView.obj
 0001:000171b0       ?OnDrawNoData@BNC_RefListViewEx@@UAEXPAVCDC@@0@Z 100181b0 f   BNC_RefListViewEx.obj
 0001:000171b0       ?OnDrawNoData@BNC_RefTreeView@@UAEXPAVCDC@@0@Z 100181b0 f   BNC_RefTreeView.obj
 0001:000171b0       ?OnDrawNoData@BNC_DummyListView@@UAEXPAVCDC@@0@Z 100181b0 f   BNC_DummyListView.obj
 0001:00017230       ?OnDrawBackground@BNC_DummyListView@@UAEXPAVCDC@@0_N@Z 10018230 f   BNC_DummyListView.obj
 0001:000172b0       ?Clear@BNC_DummyListView@@QAEX_N@Z 100182b0 f   BNC_DummyListView.obj
 0001:000172f0       ?Reset@BNC_DummyListView@@QAEXIIAAVBNC_ReferenceItem@@_N1@Z 100182f0 f   BNC_DummyListView.obj
 0001:00017360       ?UpdateVisibleIndex@BNC_DummyListView@@QAEXXZ 10018360 f   BNC_DummyListView.obj
 0001:00017390       ??_EBNC_DummyListView@@UAEPAXI@Z 10018390 f i BNC_DummyListView.obj
 0001:000173f0       ??0BNC_EditboxEx@@QAE@XZ   100183f0 f   BNC_EditboxEx.obj
 0001:000176a0       ??1BNC_EditboxEx@@UAE@XZ   100186a0 f   BNC_EditboxEx.obj
 0001:000177a0       ?GetMessageMap@BNC_EditboxEx@@MBEPBUAFX_MSGMAP@@XZ 100187a0 f   BNC_EditboxEx.obj
 0001:000177a0       ?GetThisMessageMap@BNC_EditboxEx@@KGPBUAFX_MSGMAP@@XZ 100187a0 f   BNC_EditboxEx.obj
 0001:000177b0       ?CreateEdit@BNC_EditboxEx@@QAE_NGVCRect@@V?$CStringT@_WV?$StrTraitMFC_DLL@_WV?$ChTraitsCRT@_W@ATL@@@@@ATL@@HK_N@Z 100187b0 f   BNC_EditboxEx.obj
 0001:00017a30       ?CreateClearButtonBm@BNC_EditboxEx@@QAE_NGVCPoint@@PAVCBitmap@@0VCSize@@@Z 10018a30 f   BNC_EditboxEx.obj
 0001:00017af0       ?CreateClearButtonImg@BNC_EditboxEx@@QAE_NGVCPoint@@PAVImage@Gdiplus@@0VCSize@@K@Z 10018af0 f   BNC_EditboxEx.obj
 0001:00017bd0       ?SetClearBtnTooltip@BNC_EditboxEx@@QAEXV?$CStringT@_WV?$StrTraitMFC_DLL@_WV?$ChTraitsCRT@_W@ATL@@@@@ATL@@@Z 10018bd0 f   BNC_EditboxEx.obj
 0001:00017c30       ?SetGuideBitmap@BNC_EditboxEx@@QAEXPAVCBitmap@@VCPoint@@1VCSize@@@Z 10018c30 f   BNC_EditboxEx.obj
 0001:00017ce0       ?SetGuideImage@BNC_EditboxEx@@QAEXPAVImage@Gdiplus@@VCPoint@@1VCSize@@@Z 10018ce0 f   BNC_EditboxEx.obj
 0001:00017d80       ?SetGuideBitmapFocus@BNC_EditboxEx@@QAEXPAVCBitmap@@VCPoint@@1VCSize@@@Z 10018d80 f   BNC_EditboxEx.obj
 0001:00017dd0       ?SetGuideImageFocus@BNC_EditboxEx@@QAEXPAVImage@Gdiplus@@VCPoint@@1VCSize@@@Z 10018dd0 f   BNC_EditboxEx.obj
 0001:00017e20       ?OnSize@BNC_EditboxEx@@QAEXIHH@Z 10018e20 f   BNC_EditboxEx.obj
 0001:00017fc0       ?OnDraw@BNC_EditboxEx@@EAE_NPAVCDC@@0@Z 10018fc0 f   BNC_EditboxEx.obj
 0001:000182c0       ?OnEnable@BNC_EditboxEx@@QAEXH@Z 100192c0 f   BNC_EditboxEx.obj
 0001:00018310       ?OnWindowPosChanging@BNC_EditboxEx@@QAEXPAUtagWINDOWPOS@@@Z 10019310 f   BNC_EditboxEx.obj
 0001:00018340       ?SetTextColor@BNC_EditboxEx@@QAEXKK_N@Z 10019340 f   BNC_EditboxEx.obj
 0001:000183a0       ?SetBkColor@BNC_EditboxEx@@QAEXKK_N@Z 100193a0 f   BNC_EditboxEx.obj
 0001:000183d0       ?SetEdgeColor@BNC_EditboxEx@@QAEXKK_N@Z 100193d0 f   BNC_EditboxEx.obj
 0001:00018460       ?SetLimitText@BNC_EditboxEx@@QAEXI@Z 10019460 f   BNC_EditboxEx.obj
 0001:00018490       ?AddEOL@BNC_EditboxEx@@QAEXV?$CStringT@_WV?$StrTraitMFC_DLL@_WV?$ChTraitsCRT@_W@ATL@@@@@ATL@@_N1@Z 10019490 f   BNC_EditboxEx.obj
 0001:000185a0       ?ShowClearButton@BNC_EditboxEx@@QAEX_N@Z 100195a0 f   BNC_EditboxEx.obj
 0001:00018610       ?GetLastPressKey@BNC_EditboxEx@@QAEIXZ 10019610 f   BNC_EditboxEx.obj
 0001:00018620       ?GetText@BNC_EditboxEx@@QAE?AV?$CStringT@_WV?$StrTraitMFC_DLL@_WV?$ChTraitsCRT@_W@ATL@@@@@ATL@@XZ 10019620 f   BNC_EditboxEx.obj
 0001:00018650       ?GetTextLength@BNC_EditboxEx@@QAEHXZ 10019650 f   BNC_EditboxEx.obj
 0001:00018660       ?GetNumber@BNC_EditboxEx@@QAEHXZ 10019660 f   BNC_EditboxEx.obj
 0001:000186a0       ?SetText@BNC_EditboxEx@@QAEXV?$CStringT@_WV?$StrTraitMFC_DLL@_WV?$ChTraitsCRT@_W@ATL@@@@@ATL@@_N1@Z 100196a0 f   BNC_EditboxEx.obj
 0001:00018710       ?SetState@BNC_EditboxEx@@QAEXAAVBNC_EditState@@_N11@Z 10019710 f   BNC_EditboxEx.obj
 0001:00018790       ?GetState@BNC_EditboxEx@@QAEXAAVBNC_EditState@@@Z 10019790 f   BNC_EditboxEx.obj
 0001:00018810       ?UpdateTextExtent@BNC_EditboxEx@@AAEXQAUHDC__@@ABV?$CStringT@_WV?$StrTraitMFC_DLL@_WV?$ChTraitsCRT@_W@ATL@@@@@ATL@@AAV34@H@Z 10019810 f   BNC_EditboxEx.obj
 0001:00018810       ?UpdateTextExtent@BNC_Editbox@@AAEXQAUHDC__@@ABV?$CStringT@_WV?$StrTraitMFC_DLL@_WV?$ChTraitsCRT@_W@ATL@@@@@ATL@@AAV34@H@Z 10019810 f   BNC_Editbox.obj
 0001:00018a00       ?SetGuideText@BNC_EditboxEx@@QAEXV?$CStringT@_WV?$StrTraitMFC_DLL@_WV?$ChTraitsCRT@_W@ATL@@@@@ATL@@@Z 10019a00 f   BNC_EditboxEx.obj
 0001:00018a80       ?SetGuideText@BNC_EditboxEx@@QAEXV?$CStringT@_WV?$StrTraitMFC_DLL@_WV?$ChTraitsCRT@_W@ATL@@@@@ATL@@KPAVCFont@@@Z 10019a80 f   BNC_EditboxEx.obj
 0001:00018b10       ?SetGuideTextAdd@BNC_EditboxEx@@QAEXV?$CStringT@_WV?$StrTraitMFC_DLL@_WV?$ChTraitsCRT@_W@ATL@@@@@ATL@@K@Z 10019b10 f   BNC_EditboxEx.obj
 0001:00018b90       ?OnMessageButton@BNC_EditboxEx@@EAEJIJ@Z 10019b90 f   BNC_EditboxEx.obj
 0001:00018bf0       ?OnMessageEdit@BNC_EditboxEx@@EAEJIJ@Z 10019bf0 f   BNC_EditboxEx.obj
 0001:00018d10       ?UpdateDeleteButton@BNC_EditboxEx@@AAEXXZ 10019d10 f   BNC_EditboxEx.obj
 0001:00018d70       ?OnSetFocus@BNC_EditboxEx@@QAEXPAVCWnd@@@Z 10019d70 f   BNC_EditboxEx.obj
 0001:00018dd0       ?OnMouseWheel@BNC_EditboxEx@@QAEHIFVCPoint@@@Z 10019dd0 f   BNC_EditboxEx.obj
 0001:00018dd0       ?OnMouseWheel@BNC_Editbox@@QAEHIFVCPoint@@@Z 10019dd0 f   BNC_Editbox.obj
 0001:00018dd0       ?OnMouseWheel@BNC_RichEditbox@@QAEHIFVCPoint@@@Z 10019dd0 f   BNC_RichEditbox.obj
 0001:00018e70       ?PreTranslateMessage@BNC_EditboxEx@@UAEHPAUtagMSG@@@Z 10019e70 f   BNC_EditboxEx.obj
 0001:00018f00       ??HATL@@YA?AV?$CStringT@_WV?$StrTraitMFC_DLL@_WV?$ChTraitsCRT@_W@ATL@@@@@0@ABV10@0@Z 10019f00 f i BNC_EditboxEx.obj
 0001:00018f90       ??HATL@@YA?AV?$CStringT@_WV?$StrTraitMFC_DLL@_WV?$ChTraitsCRT@_W@ATL@@@@@0@ABV10@PB_W@Z 10019f90 f i BNC_EditboxEx.obj
 0001:00019030       ??_EBNC_EditboxEx@@UAEPAXI@Z 1001a030 f i BNC_EditboxEx.obj
 0001:00019090       ??1CFont@@UAE@XZ           1001a090 f i BNC_EditboxEx.obj
 0001:000190a0       ??_ECFont@@UAEPAXI@Z       1001a0a0 f i * CIL library *:* CIL module *
 0001:000190a0       ??_GCFont@@UAEPAXI@Z       1001a0a0 f i BNC_EditboxEx.obj
 0001:000190d0       ??0CFont@@QAE@XZ           1001a0d0 f i BNC_EditboxEx.obj
 0001:000190e0       ??0BNC_HtmlBrowser@@QAE@XZ 1001a0e0 f   BNC_HtmlBrowser.obj
 0001:00019140       ??1BNC_HtmlBrowser@@UAE@XZ 1001a140 f   BNC_HtmlBrowser.obj
 0001:00019150       ?GetThisMessageMap@BNC_HtmlBrowser@@KGPBUAFX_MSGMAP@@XZ 1001a150 f   BNC_HtmlBrowser.obj
 0001:00019150       ?GetMessageMap@BNC_HtmlBrowser@@MBEPBUAFX_MSGMAP@@XZ 1001a150 f   BNC_HtmlBrowser.obj
 0001:00019160       ?OnDestroy@BNC_HtmlBrowser@@IAEXXZ 1001a160 f   BNC_HtmlBrowser.obj
 0001:00019190       ?OnCreate@BNC_HtmlBrowser@@EAE_NXZ 1001a190 f   BNC_HtmlBrowser.obj
 0001:000191e0       ?OnUpdateClient@BNC_HtmlBrowser@@EAEXHH@Z 1001a1e0 f   BNC_HtmlBrowser.obj
 0001:00019220       ?OnDraw@BNC_HtmlBrowser@@EAE_NPAVCDC@@0@Z 1001a220 f   BNC_HtmlBrowser.obj
 0001:00019260       ?ReleaseThread@BNC_HtmlBrowser@@AAE_NXZ 1001a260 f   BNC_HtmlBrowser.obj
 0001:00019300       ?Navigation@BNC_HtmlBrowser@@QAE_NV?$CStringT@_WV?$StrTraitMFC_DLL@_WV?$ChTraitsCRT@_W@ATL@@@@@ATL@@@Z 1001a300 f   BNC_HtmlBrowser.obj
 0001:000193d0       ?GetTitle@BNC_HtmlBrowser@@QAE?AV?$CStringT@_WV?$StrTraitMFC_DLL@_WV?$ChTraitsCRT@_W@ATL@@@@@ATL@@XZ 1001a3d0 f   BNC_HtmlBrowser.obj
 0001:00019410       ?GetURL@BNC_HtmlBrowser@@QAE?AV?$CStringT@_WV?$StrTraitMFC_DLL@_WV?$ChTraitsCRT@_W@ATL@@@@@ATL@@XZ 1001a410 f   BNC_HtmlBrowser.obj
 0001:00019450       ?OnMessageHtmlWebEvent@BNC_HtmlBrowser@@EAEJIJ@Z 1001a450 f   BNC_HtmlBrowser.obj
 0001:00019570       ??_EBNC_HtmlBrowser@@UAEPAXI@Z 1001a570 f i BNC_HtmlBrowser.obj
 0001:000195d0       ?GetRefererURL@BNC_HtmlBrowserClient@@SA?AV?$CStringT@_WV?$StrTraitMFC_DLL@_WV?$ChTraitsCRT@_W@ATL@@@@@ATL@@V23@@Z 1001a5d0 f   BNC_HtmlBrowserClient.obj
 0001:00019770       ?CreateObject@BNC_HtmlBrowserClient@@SGPAVCObject@@XZ 1001a770 f   BNC_HtmlBrowserClient.obj
 0001:000197f0       ?_GetBaseClass@BNC_HtmlBrowserClient@@KGPAUCRuntimeClass@@XZ 1001a7f0 f   BNC_HtmlBrowserClient.obj
 0001:00019800       ?GetRuntimeClass@BNC_HtmlBrowserClient@@UBEPAUCRuntimeClass@@XZ 1001a800 f   BNC_HtmlBrowserClient.obj
 0001:00019800       ?GetThisClass@BNC_HtmlBrowserClient@@SGPAUCRuntimeClass@@XZ 1001a800 f   BNC_HtmlBrowserClient.obj
 0001:00019810       ??0BNC_HtmlBrowserClient@@IAE@XZ 1001a810 f   BNC_HtmlBrowserClient.obj
 0001:00019870       ??1BNC_HtmlBrowserClient@@MAE@XZ 1001a870 f   BNC_HtmlBrowserClient.obj
 0001:000198a0       ?GetThisMessageMap@BNC_HtmlBrowserClient@@KGPBUAFX_MSGMAP@@XZ 1001a8a0 f   BNC_HtmlBrowserClient.obj
 0001:000198a0       ?GetMessageMap@BNC_HtmlBrowserClient@@MBEPBUAFX_MSGMAP@@XZ 1001a8a0 f   BNC_HtmlBrowserClient.obj
 0001:000198b0       ?OnDestroy@BNC_HtmlBrowserClient@@QAEXXZ 1001a8b0 f   BNC_HtmlBrowserClient.obj
 0001:000198c0       ?SetNotify@BNC_HtmlBrowserClient@@QAEXPAUHWND__@@@Z 1001a8c0 f   BNC_HtmlBrowserClient.obj
 0001:000198d0       ?Navigation@BNC_HtmlBrowserClient@@QAEXIV?$CStringT@_WV?$StrTraitMFC_DLL@_WV?$ChTraitsCRT@_W@ATL@@@@@ATL@@@Z 1001a8d0 f   BNC_HtmlBrowserClient.obj
 0001:00019980       ?GetTitle@BNC_HtmlBrowserClient@@QAE?AV?$CStringT@_WV?$StrTraitMFC_DLL@_WV?$ChTraitsCRT@_W@ATL@@@@@ATL@@XZ 1001a980 f   BNC_HtmlBrowserClient.obj
 0001:000199c0       ?GetURL@BNC_HtmlBrowserClient@@QAE?AV?$CStringT@_WV?$StrTraitMFC_DLL@_WV?$ChTraitsCRT@_W@ATL@@@@@ATL@@XZ 1001a9c0 f   BNC_HtmlBrowserClient.obj
 0001:000199f0       ?OnStatusTextChange@BNC_HtmlBrowserClient@@UAEXPB_W@Z 1001a9f0 f   BNC_HtmlBrowserClient.obj
 0001:00019a00       ?OnProgressChange@BNC_HtmlBrowserClient@@UAEXJJ@Z 1001aa00 f   BNC_HtmlBrowserClient.obj
 0001:00019a10       ?OnCommandStateChange@BNC_HtmlBrowserClient@@UAEXJH@Z 1001aa10 f   BNC_HtmlBrowserClient.obj
 0001:00019a20       ?OnDownloadBegin@BNC_HtmlBrowserClient@@UAEXXZ 1001aa20 f   BNC_HtmlBrowserClient.obj
 0001:00019a30       ?OnDownloadComplete@BNC_HtmlBrowserClient@@UAEXXZ 1001aa30 f   BNC_HtmlBrowserClient.obj
 0001:00019a40       ?OnPropertyChange@BNC_HtmlBrowserClient@@UAEXPB_W@Z 1001aa40 f   BNC_HtmlBrowserClient.obj
 0001:00019a50       ?OnDocumentComplete@BNC_HtmlBrowserClient@@UAEXPB_W@Z 1001aa50 f   BNC_HtmlBrowserClient.obj
 0001:00019a60       ?OnToolBar@BNC_HtmlBrowserClient@@UAEXH@Z 1001aa60 f   BNC_HtmlBrowserClient.obj
 0001:00019a70       ?OnMenuBar@BNC_HtmlBrowserClient@@UAEXH@Z 1001aa70 f   BNC_HtmlBrowserClient.obj
 0001:00019a80       ?OnStatusBar@BNC_HtmlBrowserClient@@UAEXH@Z 1001aa80 f   BNC_HtmlBrowserClient.obj
 0001:00019a90       ?OnFullScreen@BNC_HtmlBrowserClient@@UAEXH@Z 1001aa90 f   BNC_HtmlBrowserClient.obj
 0001:00019aa0       ?OnTheaterMode@BNC_HtmlBrowserClient@@UAEXH@Z 1001aaa0 f   BNC_HtmlBrowserClient.obj
 0001:00019ab0       ?OnAmbientProperty@BNC_HtmlBrowserClient@@UAEHPAVCOleControlSite@@JPAUtagVARIANT@@@Z 1001aab0 f   BNC_HtmlBrowserClient.obj
 0001:00019af0       ?OnNewWindow2@BNC_HtmlBrowserClient@@UAEXPAPAUIDispatch@@PAH@Z 1001aaf0 f   BNC_HtmlBrowserClient.obj
 0001:00019cd0       ?OnNewWindow3@BNC_HtmlBrowserClient@@AAEJIJ@Z 1001acd0 f   BNC_HtmlBrowserClient.obj
 0001:00019d90       ?OnQuit@BNC_HtmlBrowserClient@@UAEXXZ 1001ad90 f   BNC_HtmlBrowserClient.obj
 0001:00019da0       ?OnVisible@BNC_HtmlBrowserClient@@UAEXH@Z 1001ada0 f   BNC_HtmlBrowserClient.obj
 0001:00019db0       ?OnBeforeNavigate2@BNC_HtmlBrowserClient@@UAEXPB_WK0AAVCByteArray@@0PAH@Z 1001adb0 f   BNC_HtmlBrowserClient.obj
 0001:00019f10       ?OnTitleChange@BNC_HtmlBrowserClient@@UAEXPB_W@Z 1001af10 f   BNC_HtmlBrowserClient.obj
 0001:00019fe0       ?OnNavigateComplete2@BNC_HtmlBrowserClient@@UAEXPB_W@Z 1001afe0 f   BNC_HtmlBrowserClient.obj
 0001:0001a0e0       ?OnNavigateError@BNC_HtmlBrowserClient@@UAEXPB_W0KPAH@Z 1001b0e0 f   BNC_HtmlBrowserClient.obj
 0001:0001a170       ?OnEraseBkgnd@BNC_PopupMenu@@QAEHPAVCDC@@@Z 1001b170 f   BNC_PopupMenu.obj
 0001:0001a170       ?OnEraseBkgnd@BNC_Edit@@QAEHPAVCDC@@@Z 1001b170 f   BNC_Edit.obj
 0001:0001a170       ?OnEraseBkgnd@BNC_HtmlBrowserClient@@QAEHPAVCDC@@@Z 1001b170 f   BNC_HtmlBrowserClient.obj
 0001:0001a180       ?PostNcDestroy@BNC_HtmlBrowserClient@@UAEXXZ 1001b180 f   BNC_HtmlBrowserClient.obj
 0001:0001a190       ?PreTranslateMessage@BNC_HtmlBrowserClient@@UAEHPAUtagMSG@@@Z 1001b190 f   BNC_HtmlBrowserClient.obj
 0001:0001a1c0       ??$?0V<lambda_a5b0efdf5ad7d873a596f4e45feb52e1>@@$$$V@thread@std@@QAE@$$QAV<lambda_a5b0efdf5ad7d873a596f4e45feb52e1>@@@Z 1001b1c0 f i BNC_HtmlBrowserClient.obj
 0001:0001a260       ??1?$_LaunchPad@V?$_Bind@$0A@XV<lambda_a5b0efdf5ad7d873a596f4e45feb52e1>@@$$$V@std@@@std@@QAE@XZ 1001b260 f i BNC_HtmlBrowserClient.obj
 0001:0001a270       ?_Go@?$_LaunchPad@V?$_Bind@$0A@XV<lambda_a5b0efdf5ad7d873a596f4e45feb52e1>@@$$$V@std@@@std@@UAEIXZ 1001b270 f i BNC_HtmlBrowserClient.obj
 0001:0001a2c0       ?accHitTest@CFormView@@UAEJJJPAUtagVARIANT@@@Z 1001b2c0 f i BNC_HtmlBrowserClient.obj
 0001:0001a2d0       ?accLocation@CFormView@@UAEJPAJ000UtagVARIANT@@@Z 1001b2d0 f i BNC_HtmlBrowserClient.obj
 0001:0001a300       ?get_accName@CFormView@@UAEJUtagVARIANT@@PAPA_W@Z 1001b300 f i BNC_HtmlBrowserClient.obj
 0001:0001a320       ?get_accChild@CFormView@@UAEJUtagVARIANT@@PAPAUIDispatch@@@Z 1001b320 f i BNC_HtmlBrowserClient.obj
 0001:0001a340       ?get_accChildCount@CFormView@@UAEJPAJ@Z 1001b340 f i BNC_HtmlBrowserClient.obj
 0001:0001a360       ??_EBNC_HtmlBrowserClient@@MAEPAXI@Z 1001b360 f i BNC_HtmlBrowserClient.obj
 0001:0001a3e0       ??1thread@std@@QAE@XZ      1001b3e0 f i BNC_HtmlBrowserClient.obj
 0001:0001a3f0       ??_EBNC_HtmlBrowserFrame@@MAEPAXI@Z 1001b3f0 f i BNC_HtmlBrowserFrame.obj
 0001:0001a460       ?CreateObject@BNC_HtmlBrowserFrame@@SGPAVCObject@@XZ 1001b460 f   BNC_HtmlBrowserFrame.obj
 0001:0001a4f0       ?_GetBaseClass@BNC_HtmlBrowserFrame@@KGPAUCRuntimeClass@@XZ 1001b4f0 f   BNC_HtmlBrowserFrame.obj
 0001:0001a500       ?GetRuntimeClass@BNC_HtmlBrowserFrame@@UBEPAUCRuntimeClass@@XZ 1001b500 f   BNC_HtmlBrowserFrame.obj
 0001:0001a500       ?GetThisClass@BNC_HtmlBrowserFrame@@SGPAUCRuntimeClass@@XZ 1001b500 f   BNC_HtmlBrowserFrame.obj
 0001:0001a510       ??0BNC_HtmlBrowserFrame@@IAE@XZ 1001b510 f   BNC_HtmlBrowserFrame.obj
 0001:0001a530       ??1BNC_HtmlBrowserFrame@@MAE@XZ 1001b530 f   BNC_HtmlBrowserFrame.obj
 0001:0001a540       ?GetMessageMap@BNC_HtmlBrowserFrame@@MBEPBUAFX_MSGMAP@@XZ 1001b540 f   BNC_HtmlBrowserFrame.obj
 0001:0001a540       ?GetThisMessageMap@BNC_HtmlBrowserFrame@@KGPBUAFX_MSGMAP@@XZ 1001b540 f   BNC_HtmlBrowserFrame.obj
 0001:0001a550       ?CreateObject@BNC_HtmlBrowserThread@@SGPAVCObject@@XZ 1001b550 f   BNC_HtmlBrowserThread.obj
 0001:0001a5d0       ?_GetBaseClass@BNC_HtmlBrowserThread@@KGPAUCRuntimeClass@@XZ 1001b5d0 f   BNC_HtmlBrowserThread.obj
 0001:0001a5e0       ?GetRuntimeClass@BNC_HtmlBrowserThread@@UBEPAUCRuntimeClass@@XZ 1001b5e0 f   BNC_HtmlBrowserThread.obj
 0001:0001a5e0       ?GetThisClass@BNC_HtmlBrowserThread@@SGPAUCRuntimeClass@@XZ 1001b5e0 f   BNC_HtmlBrowserThread.obj
 0001:0001a5f0       ??0BNC_HtmlBrowserThread@@IAE@XZ 1001b5f0 f   BNC_HtmlBrowserThread.obj
 0001:0001a680       ??1BNC_HtmlBrowserThread@@MAE@XZ 1001b680 f   BNC_HtmlBrowserThread.obj
 0001:0001a6a0       ?ExitInstance@BNC_HtmlBrowserThread@@UAEHXZ 1001b6a0 f   BNC_HtmlBrowserThread.obj
 0001:0001a700       ?GetThisMessageMap@BNC_HtmlBrowserThread@@KGPBUAFX_MSGMAP@@XZ 1001b700 f   BNC_HtmlBrowserThread.obj
 0001:0001a700       ?GetMessageMap@BNC_HtmlBrowserThread@@MBEPBUAFX_MSGMAP@@XZ 1001b700 f   BNC_HtmlBrowserThread.obj
 0001:0001a710       ?DestroyView@BNC_HtmlBrowserThread@@AAEXXZ 1001b710 f   BNC_HtmlBrowserThread.obj
 0001:0001a770       ?PreDestroyView@BNC_HtmlBrowserThread@@QAEXXZ 1001b770 f   BNC_HtmlBrowserThread.obj
 0001:0001a7c0       ?OnMsgInitialize@BNC_HtmlBrowserThread@@AAEXIJ@Z 1001b7c0 f   BNC_HtmlBrowserThread.obj
 0001:0001a840       ?OnMsgRelease@BNC_HtmlBrowserThread@@AAEXIJ@Z 1001b840 f   BNC_HtmlBrowserThread.obj
 0001:0001a930       ?OnMsgNavigation@BNC_HtmlBrowserThread@@AAEXIJ@Z 1001b930 f   BNC_HtmlBrowserThread.obj
 0001:0001a9d0       ?OnMsgUpdateView@BNC_HtmlBrowserThread@@AAEXIJ@Z 1001b9d0 f   BNC_HtmlBrowserThread.obj
 0001:0001aab0       ?GetTitle@BNC_HtmlBrowserThread@@QAE?AV?$CStringT@_WV?$StrTraitMFC_DLL@_WV?$ChTraitsCRT@_W@ATL@@@@@ATL@@XZ 1001bab0 f   BNC_HtmlBrowserThread.obj
 0001:0001aaf0       ?GetURL@BNC_HtmlBrowserThread@@QAE?AV?$CStringT@_WV?$StrTraitMFC_DLL@_WV?$ChTraitsCRT@_W@ATL@@@@@ATL@@XZ 1001baf0 f   BNC_HtmlBrowserThread.obj
 0001:0001ab30       ??_EBNC_HtmlBrowserThread@@MAEPAXI@Z 1001bb30 f i BNC_HtmlBrowserThread.obj
 0001:0001aba0       ??1AFX_EXCEPTION_LINK@@QAE@XZ 1001bba0 f i BNC_HtmlBrowserThread.obj
 0001:0001abb0       ??0BNC_RefListView@@QAE@XZ 1001bbb0 f   BNC_RefListView.obj
 0001:0001ac50       ??1BNC_RefListView@@UAE@XZ 1001bc50 f   BNC_RefListView.obj
 0001:0001acd0       ?OnCreate@BNC_RefListView@@MAE_NXZ 1001bcd0 f   BNC_RefListView.obj
 0001:0001ad40       ?OnUpdateClient@BNC_RefListViewEx@@MAEXHH@Z 1001bd40 f   BNC_RefListViewEx.obj
 0001:0001ad40       ?OnUpdateClient@BNC_RefListView@@MAEXHH@Z 1001bd40 f   BNC_RefListView.obj
 0001:0001ad60       ?OnNotifyMouseWheel@BNC_RefListView@@UAEXIF@Z 1001bd60 f   BNC_RefListView.obj
 0001:0001add0       ?OnNotifyKeyDown@BNC_RefListView@@UAE_NI@Z 1001bdd0 f   BNC_RefListView.obj
 0001:0001ae00       ?OnMessageScroll@BNC_RefListView@@MAEJIJ@Z 1001be00 f   BNC_RefListView.obj
 0001:0001ae30       ?EnableItemIdx@BNC_RefListView@@QAEXI_N0@Z 1001be30 f   BNC_RefListView.obj
 0001:0001ae40       ?EnableItemPtr@BNC_RefListView@@QAEXPAVBNC_ReferenceItem@@_N1@Z 1001be40 f   BNC_RefListView.obj
 0001:0001ae50       ?IsItemIdxEnable@BNC_RefListView@@QAE_NI@Z 1001be50 f   BNC_RefListView.obj
 0001:0001ae60       ?IsItemPtrEnable@BNC_RefListView@@QAE_NPAVBNC_ReferenceItem@@@Z 1001be60 f   BNC_RefListView.obj
 0001:0001af00       ?RedrawItem@BNC_RefListView@@QAEXV?$CStringT@_WV?$StrTraitMFC_DLL@_WV?$ChTraitsCRT@_W@ATL@@@@@ATL@@@Z 1001bf00 f   BNC_RefListView.obj
 0001:0001af70       ?RedrawItem@BNC_RefListView@@QAEXPAVBNC_ReferenceItem@@@Z 1001bf70 f   BNC_RefListView.obj
 0001:0001afa0       ?UpdateOnlyVisibleIndex@BNC_RefListView@@QAEXXZ 1001bfa0 f   BNC_RefListView.obj
 0001:0001b010       ?SetSyncRectWindow@BNC_RefListView@@QAEXPAVBNC_BaseClient@@PAVBNC_ReferenceItem@@I@Z 1001c010 f   BNC_RefListView.obj
 0001:0001b060       ?OnRedraw@BNC_RefListViewEx@@UAEX_N@Z 1001c060 f   BNC_RefListViewEx.obj
 0001:0001b060       ?OnRedraw@BNC_RefTreeView@@UAEX_N@Z 1001c060 f   BNC_RefTreeView.obj
 0001:0001b060       ?OnRedraw@BNC_RefListView@@UAEX_N@Z 1001c060 f   BNC_RefListView.obj
 0001:0001b090       ?UpdateScroll@BNC_RefListView@@QAEXXZ 1001c090 f   BNC_RefListView.obj
 0001:0001b0e0       ?SetListScroll@BNC_RefListView@@QAEXH@Z 1001c0e0 f   BNC_RefListView.obj
 0001:0001b140       ?GetDeferChildCount@BNC_RefListView@@UAEIXZ 1001c140 f   BNC_RefListView.obj
 0001:0001b150       ?UpdateControl@BNC_RefListView@@UAEXHH_N@Z 1001c150 f   BNC_RefListView.obj
 0001:0001b3d0       ?OnDrawNoData@BNC_RefListView@@UAEXPAVCDC@@0@Z 1001c3d0 f   BNC_RefListView.obj
 0001:0001b480       ?GetItemPtr@BNC_RefListView@@QAEPAVBNC_ReferenceItem@@I@Z 1001c480 f   BNC_RefListView.obj
 0001:0001b530       ?GetItemPtr@BNC_RefListView@@QAEPAVBNC_ReferenceItem@@V?$CStringT@_WV?$StrTraitMFC_DLL@_WV?$ChTraitsCRT@_W@ATL@@@@@ATL@@@Z 1001c530 f   BNC_RefListView.obj
 0001:0001b590       ?GetItemList@BNC_RefListView@@QAE_NAAV?$vector@PAVBNC_ReferenceItem@@V?$allocator@PAVBNC_ReferenceItem@@@std@@@std@@@Z 1001c590 f   BNC_RefListView.obj
 0001:0001b5a0       ?GetItemCount@BNC_RefListView@@QAEHXZ 1001c5a0 f   BNC_RefListView.obj
 0001:0001b5b0       ?GetVerticalScrollCtl@BNC_RefListView@@QAEPBVBNC_SimpleVScrollbar@@XZ 1001c5b0 f   BNC_RefListView.obj
 0001:0001b5c0       ?Insert@BNC_RefListView@@QAEHV?$CStringT@_WV?$StrTraitMFC_DLL@_WV?$ChTraitsCRT@_W@ATL@@@@@ATL@@PBXAAVBNC_ReferenceItem@@_N@Z 1001c5c0 f   BNC_RefListView.obj
 0001:0001b640       ?UpdateAfterInsert@BNC_RefListView@@QAEXH_N0@Z 1001c640 f   BNC_RefListView.obj
 0001:0001b6b0       ?ClearItem@BNC_RefListView@@QAEX_N@Z 1001c6b0 f   BNC_RefListView.obj
 0001:0001b710       ?DeleteItemFromIndex@BNC_RefListView@@QAEHI_N@Z 1001c710 f   BNC_RefListView.obj
 0001:0001b750       ?DeleteItemFromPtr@BNC_RefListView@@QAEHPBVBNC_ReferenceItem@@I_N@Z 1001c750 f   BNC_RefListView.obj
 0001:0001b790       ?DeleteItemFromKey@BNC_RefListView@@QAEHV?$CStringT@_WV?$StrTraitMFC_DLL@_WV?$ChTraitsCRT@_W@ATL@@@@@ATL@@I_N1@Z 1001c790 f   BNC_RefListView.obj
 0001:0001b810       ?DeleteItemFromSequnece@BNC_RefListView@@QAEHII_N@Z 1001c810 f   BNC_RefListView.obj
 0001:0001b850       ?ModifySortString@BNC_RefListView@@QAE_NPB_WI0@Z 1001c850 f   BNC_RefListView.obj
 0001:0001b860       ?SortString@BNC_RefListView@@QAEXI_NH0@Z 1001c860 f   BNC_RefListView.obj
 0001:0001b8d0       ?SortSequence@BNC_RefListView@@QAEX_N@Z 1001c8d0 f   BNC_RefListView.obj
 0001:0001b930       ?SetUseStaySelect@BNC_RefListView@@QAEX_N@Z 1001c930 f   BNC_RefListView.obj
 0001:0001b930       ?SetUseStaySelect@BNC_RefTreeView@@QAEX_N@Z 1001c930 f   BNC_RefTreeView.obj
 0001:0001b940       ?SetSelectItem@BNC_RefListView@@QAEHV?$CStringT@_WV?$StrTraitMFC_DLL@_WV?$ChTraitsCRT@_W@ATL@@@@@ATL@@_N@Z 1001c940 f   BNC_RefListView.obj
 0001:0001ba10       ?GetSelectItem@BNC_RefListView@@QAEPAVBNC_ReferenceItem@@XZ 1001ca10 f   BNC_RefListView.obj
 0001:0001ba20       ?ResetMouseRectIndex@BNC_RefListView@@QAEXPAVBNC_ReferenceItem@@_N@Z 1001ca20 f   BNC_RefListView.obj
 0001:0001ba70       ??_EBNC_RefListView@@UAEPAXI@Z 1001ca70 f i BNC_RefListView.obj
 0001:0001bb40       ??0BNC_RefListViewEx@@QAE@XZ 1001cb40 f   BNC_RefListViewEx.obj
 0001:0001bc00       ??1BNC_RefListViewEx@@UAE@XZ 1001cc00 f   BNC_RefListViewEx.obj
 0001:0001bc80       ?GetThisMessageMap@BNC_RefListViewEx@@KGPBUAFX_MSGMAP@@XZ 1001cc80 f   BNC_RefListViewEx.obj
 0001:0001bc80       ?GetMessageMap@BNC_RefListViewEx@@MBEPBUAFX_MSGMAP@@XZ 1001cc80 f   BNC_RefListViewEx.obj
 0001:0001bc90       ?OnCreate@BNC_RefListViewEx@@MAE_NXZ 1001cc90 f   BNC_RefListViewEx.obj
 0001:0001bd00       ?OnNotifyMouseWheel@BNC_RefListViewEx@@UAEXIF@Z 1001cd00 f   BNC_RefListViewEx.obj
 0001:0001bd70       ?OnNotifyKeyDown@BNC_RefListViewEx@@UAE_NI@Z 1001cd70 f   BNC_RefListViewEx.obj
 0001:0001bda0       ?OnMessageScroll@BNC_RefListViewEx@@MAEJIJ@Z 1001cda0 f   BNC_RefListViewEx.obj
 0001:0001bdd0       ?RedrawItem@BNC_RefListViewEx@@QAE_NV?$CStringT@_WV?$StrTraitMFC_DLL@_WV?$ChTraitsCRT@_W@ATL@@@@@ATL@@@Z 1001cdd0 f   BNC_RefListViewEx.obj
 0001:0001be50       ?SetSyncRectWindow@BNC_RefListViewEx@@QAEXPAVBNC_BaseClient@@PAVBNC_ReferenceItemEx@@I@Z 1001ce50 f   BNC_RefListViewEx.obj
 0001:0001bea0       ?UpdateScroll@BNC_RefListViewEx@@QAEXXZ 1001cea0 f   BNC_RefListViewEx.obj
 0001:0001bef0       ?SetListScroll@BNC_RefListViewEx@@QAEXH@Z 1001cef0 f   BNC_RefListViewEx.obj
 0001:0001bf60       ?GetListScroll@BNC_RefListViewEx@@QAEIXZ 1001cf60 f   BNC_RefListViewEx.obj
 0001:0001bf70       ?GetEndScroll@BNC_RefListViewEx@@QAEIXZ 1001cf70 f   BNC_RefListViewEx.obj
 0001:0001bf90       ?IsEndScroll@BNC_RefListViewEx@@QAE_NXZ 1001cf90 f   BNC_RefListViewEx.obj
 0001:0001bfc0       ?GetDeferChildCount@BNC_RefListViewEx@@UAEIXZ 1001cfc0 f   BNC_RefListViewEx.obj
 0001:0001bfd0       ?OnUpdatePopupStatus@BNC_RefListViewEx@@MAEXW4BNE_POPUP_STATUS@@@Z 1001cfd0 f   BNC_RefListViewEx.obj
 0001:0001c020       ?UpdateControl@BNC_RefListViewEx@@MAEXHH_N@Z 1001d020 f   BNC_RefListViewEx.obj
 0001:0001c320       ?GetItemPtr@BNC_RefListViewEx@@IAEPBVBNC_ReferenceItemEx@@I@Z 1001d320 f   BNC_RefListViewEx.obj
 0001:0001c3d0       ?GetItemPtr@BNC_RefListViewEx@@IAEPBVBNC_ReferenceItemEx@@V?$CStringT@_WV?$StrTraitMFC_DLL@_WV?$ChTraitsCRT@_W@ATL@@@@@ATL@@@Z 1001d3d0 f   BNC_RefListViewEx.obj
 0001:0001c430       ?Insert@BNC_RefListViewEx@@QAEHAAV?$CStringT@_WV?$StrTraitMFC_DLL@_WV?$ChTraitsCRT@_W@ATL@@@@@ATL@@PAXAAVBNC_ReferenceItemEx@@_N3@Z 1001d430 f   BNC_RefListViewEx.obj
 0001:0001c470       ?UpdateAfterInsert@BNC_RefListViewEx@@QAEXH_N0@Z 1001d470 f   BNC_RefListViewEx.obj
 0001:0001c500       ?ClearItem@BNC_RefListViewEx@@QAEX_N@Z 1001d500 f   BNC_RefListViewEx.obj
 0001:0001c570       ?DeleteItemFromIndex@BNC_RefListViewEx@@QAEHI_N@Z 1001d570 f   BNC_RefListViewEx.obj
 0001:0001c5b0       ?DeleteItemFromPtr@BNC_RefListViewEx@@QAEHPBVBNC_ReferenceItemEx@@I_N@Z 1001d5b0 f   BNC_RefListViewEx.obj
 0001:0001c5f0       ?DeleteItemFromKey@BNC_RefListViewEx@@QAEHV?$CStringT@_WV?$StrTraitMFC_DLL@_WV?$ChTraitsCRT@_W@ATL@@@@@ATL@@I_N1@Z 1001d5f0 f   BNC_RefListViewEx.obj
 0001:0001c670       ?DeleteItemFromSequnece@BNC_RefListViewEx@@QAEHII_N@Z 1001d670 f   BNC_RefListViewEx.obj
 0001:0001c6b0       ?SortString@BNC_RefListViewEx@@QAEXI_NH0@Z 1001d6b0 f   BNC_RefListViewEx.obj
 0001:0001c720       ?SortSequence@BNC_RefListViewEx@@QAEX_N@Z 1001d720 f   BNC_RefListViewEx.obj
 0001:0001c790       ?PreTranslateMessage@BNC_RefListViewEx@@UAEHPAUtagMSG@@@Z 1001d790 f   BNC_RefListViewEx.obj
 0001:0001c860       ?OnSetFocus@BNC_RefListViewEx@@QAEXPAVCWnd@@@Z 1001d860 f   BNC_RefListViewEx.obj
 0001:0001c8b0       ??_EBNC_RefListViewEx@@UAEPAXI@Z 1001d8b0 f i BNC_RefListViewEx.obj
 0001:0001c980       ??0BNC_RefTreeView@@QAE@XZ 1001d980 f   BNC_RefTreeView.obj
 0001:0001ca40       ??1BNC_RefTreeView@@UAE@XZ 1001da40 f   BNC_RefTreeView.obj
 0001:0001cad0       ?GetMessageMap@BNC_RefTreeView@@MBEPBUAFX_MSGMAP@@XZ 1001dad0 f   BNC_RefTreeView.obj
 0001:0001cad0       ?GetThisMessageMap@BNC_RefTreeView@@KGPBUAFX_MSGMAP@@XZ 1001dad0 f   BNC_RefTreeView.obj
 0001:0001cae0       ?OnCreate@BNC_RefTreeView@@MAE_NXZ 1001dae0 f   BNC_RefTreeView.obj
 0001:0001cb80       ?OnUpdateClient@BNC_RefTreeView@@MAEXHH@Z 1001db80 f   BNC_RefTreeView.obj
 0001:0001cbd0       ?OnNotifyMouseWheel@BNC_RefTreeView@@UAEXIF@Z 1001dbd0 f   BNC_RefTreeView.obj
 0001:0001cc50       ?OnNotifyKeyDown@BNC_RefTreeView@@UAE_NI@Z 1001dc50 f   BNC_RefTreeView.obj
 0001:0001cc80       ?OnMouseWheel@BNC_RefTreeView@@QAEHIFVCPoint@@@Z 1001dc80 f   BNC_RefTreeView.obj
 0001:0001ccb0       ?OnMessageScroll@BNC_RefTreeView@@MAEJIJ@Z 1001dcb0 f   BNC_RefTreeView.obj
 0001:0001cd00       ?GetDeferChildCount@BNC_RefTreeView@@UAEIXZ 1001dd00 f   BNC_RefTreeView.obj
 0001:0001cd40       ?UpdateControl@BNC_RefTreeView@@MAEXHH_N@Z 1001dd40 f   BNC_RefTreeView.obj
 0001:0001cfc0       ?UpdateControlEx@BNC_RefTreeView@@IAEXHH_N@Z 1001dfc0 f   BNC_RefTreeView.obj
 0001:0001d1f0       ?GetRealTopPos@BNC_RefTreeView@@IAEHPBVBNC_ReferenceItem@@@Z 1001e1f0 f   BNC_RefTreeView.obj
 0001:0001d220       ?GetItemPtr@BNC_RefTreeView@@IAEPAVBNC_ReferenceItem@@V?$CStringT@_WV?$StrTraitMFC_DLL@_WV?$ChTraitsCRT@_W@ATL@@@@@ATL@@@Z 1001e220 f   BNC_RefTreeView.obj
 0001:0001d280       ?Insert@BNC_RefTreeView@@QAE_N_NV?$CStringT@_WV?$StrTraitMFC_DLL@_WV?$ChTraitsCRT@_W@ATL@@@@@ATL@@1PAXAAVBNC_ReferenceItem@@00I@Z 1001e280 f   BNC_RefTreeView.obj
 0001:0001d310       ?UpdateAfterInsert@BNC_RefTreeView@@QAEXPAVBNC_ReferenceItem@@_N1@Z 1001e310 f   BNC_RefTreeView.obj
 0001:0001d340       ?ClearItem@BNC_RefTreeView@@QAEX_N@Z 1001e340 f   BNC_RefTreeView.obj
 0001:0001d370       ?Delete@BNC_RefTreeView@@QAE_NV?$CStringT@_WV?$StrTraitMFC_DLL@_WV?$ChTraitsCRT@_W@ATL@@@@@ATL@@_N@Z 1001e370 f   BNC_RefTreeView.obj
 0001:0001d3f0       ?SetTreeScroll@BNC_RefTreeView@@QAEXH@Z 1001e3f0 f   BNC_RefTreeView.obj
 0001:0001d490       ?IsEndScroll@BNC_RefTreeView@@QAE_NXZ 1001e490 f   BNC_RefTreeView.obj
 0001:0001d4b0       ?SetSyncRectWindow@BNC_RefTreeView@@QAEXPAVBNC_BaseClient@@PAVBNC_ReferenceItem@@I@Z 1001e4b0 f   BNC_RefTreeView.obj
 0001:0001d500       ?RedrawItem@BNC_RefTreeView@@QAEXV?$CStringT@_WV?$StrTraitMFC_DLL@_WV?$ChTraitsCRT@_W@ATL@@@@@ATL@@@Z 1001e500 f   BNC_RefTreeView.obj
 0001:0001d570       ?UpdateScroll@BNC_RefTreeView@@QAEXXZ 1001e570 f   BNC_RefTreeView.obj
 0001:0001d630       ?SortString@BNC_RefTreeView@@QAEXPAVBNC_ReferenceItem@@I_N1H1@Z 1001e630 f   BNC_RefTreeView.obj
 0001:0001d660       ?ExtendItem@BNC_RefTreeView@@QAE_NPAVBNC_ReferenceItem@@_N1@Z 1001e660 f   BNC_RefTreeView.obj
 0001:0001d680       ?ExtendItem@BNC_RefTreeView@@QAE_NV?$CStringT@_WV?$StrTraitMFC_DLL@_WV?$ChTraitsCRT@_W@ATL@@@@@ATL@@_N1@Z 1001e680 f   BNC_RefTreeView.obj
 0001:0001d6f0       ?SetSelectItem@BNC_RefTreeView@@QAEHV?$CStringT@_WV?$StrTraitMFC_DLL@_WV?$ChTraitsCRT@_W@ATL@@@@@ATL@@_N@Z 1001e6f0 f   BNC_RefTreeView.obj
 0001:0001d7e0       ?GetFolderCount@BNC_RefTreeView@@QAEIXZ 1001e7e0 f   BNC_RefTreeView.obj
 0001:0001d7f0       ?GetFileCount@BNC_RefTreeView@@QAEIXZ 1001e7f0 f   BNC_RefTreeView.obj
 0001:0001d800       ??_EBNC_RefTreeView@@UAEPAXI@Z 1001e800 f i BNC_RefTreeView.obj
 0001:0001d860       ?GetBase64Key@BNC_Base64Low@@CAHPADD@Z 1001e860 f   BNC_Base64Low.obj
 0001:0001d880       ?base64_encode@BNC_Base64Low@@CAHPADHPAPAD@Z 1001e880 f   BNC_Base64Low.obj
 0001:0001d9d0       ?base64_decode@BNC_Base64Low@@CAHPADPAEH@Z 1001e9d0 f   BNC_Base64Low.obj
 0001:0001da90       ?Encode@BNC_Base64Low@@SA_NAAV?$CStringT@_WV?$StrTraitMFC_DLL@_WV?$ChTraitsCRT@_W@ATL@@@@@ATL@@0@Z 1001ea90 f   BNC_Base64Low.obj
 0001:0001dc90       ??1?$CAutoPtrArray@_W@ATL@@QAE@XZ 1001ec90 f i BNC_Base64Low.obj
 0001:0001dc90       ??1?$CAutoPtrArray@D@ATL@@QAE@XZ 1001ec90 f i BNC_Base64Low.obj
 0001:0001dca0       ?Decode@BNC_Base64Low@@SA_NAAV?$CStringT@_WV?$StrTraitMFC_DLL@_WV?$ChTraitsCRT@_W@ATL@@@@@ATL@@0@Z 1001eca0 f   BNC_Base64Low.obj
 0001:0001dea0       ??1?$CAtlArray@V?$CAutoPtr@D@ATL@@V?$CAutoPtrElementTraits@D@2@@ATL@@QAE@XZ 1001eea0 f i BNC_Base64Low.obj
 0001:0001dea0       ??1?$CAtlArray@V?$CAutoPtr@_W@ATL@@V?$CAutoPtrElementTraits@_W@2@@ATL@@QAE@XZ 1001eea0 f i BNC_Base64Low.obj
 0001:0001def0       ?WndProc@BNC_BorderessProc@@CGJPAUHWND__@@IIJ@Z 1001eef0 f   BNC_BorderessProc.obj
 0001:0001df50       ?KeyboardProc@BNC_BorderessProc@@CGJHIJ@Z 1001ef50 f   BNC_BorderessProc.obj
 0001:0001dfa0       ?MouseProc@BNC_BorderessProc@@CGJHIJ@Z 1001efa0 f   BNC_BorderessProc.obj
 0001:0001dfc0       ??0BNC_BorderessProc@@QAE@XZ 1001efc0 f   BNC_BorderessProc.obj
 0001:0001e0f0       ??1BNC_BorderessProc@@QAE@XZ 1001f0f0 f   BNC_BorderessProc.obj
 0001:0001e150       ?Clear@BNC_BorderessProc@@QAEXXZ 1001f150 f   BNC_BorderessProc.obj
 0001:0001e2c0       ?Initialize@BNC_BorderessProc@@QAE_NPAUHWND__@@0PAUBNS_BorderessProcAttribute@@@Z 1001f2c0 f   BNC_BorderessProc.obj
 0001:0001e460       ?UpdateLayered@BNC_BorderessProc@@QAE_NE@Z 1001f460 f   BNC_BorderessProc.obj
 0001:0001e4f0       ?IsEnable@BNC_BorderessProc@@QBE_NXZ 1001f4f0 f   BNC_BorderessProc.obj
 0001:0001e500       ?GetHiddenFrameSize@BNC_BorderessProc@@QBEHXZ 1001f500 f   BNC_BorderessProc.obj
 0001:0001e500       ?GetVisibleIndex@BNC_ReferenceItemEx@@QBEHXZ 1001f500 f   BNC_ReferenceItemEx.obj
 0001:0001e510       ?GetAttribute@BNC_BorderessProc@@QAEPBUBNS_BorderessProcAttribute@@XZ 1001f510 f   BNC_BorderessProc.obj
 0001:0001e520       ?AssertValid@BNC_BorderessProc@@CA_NPAV1@PAUHWND__@@@Z 1001f520 f   BNC_BorderessProc.obj
 0001:0001e550       ?UpdateState@BNC_BorderessProc@@AAEXHK@Z 1001f550 f i BNC_BorderessProc.obj
 0001:0001e570       ?CheckState@BNC_BorderessProc@@QBE_NK@Z 1001f570 f i BNC_BorderessProc.obj
 0001:0001e590       ?IsAutoHideBar@BNC_BorderessProc@@AAE_NIVCRect@@@Z 1001f590 f   BNC_BorderessProc.obj
 0001:0001e640       ?UpdateRegion@BNC_BorderessProc@@AAEXXZ 1001f640 f   BNC_BorderessProc.obj
 0001:0001e720       ?DefWindowProcW@BNC_BorderessProc@@AAEJPAUHWND__@@IIJ@Z 1001f720 f   BNC_BorderessProc.obj
 0001:0001ebd0       ?OldWndProc@BNC_BorderessProc@@AAEJPAUHWND__@@IIJ@Z 1001fbd0 f   BNC_BorderessProc.obj
 0001:0001ebd0       ?OnSizing@BNC_BorderessProc@@AAEJPAUHWND__@@IIJ@Z 1001fbd0 f   BNC_BorderessProc.obj
 0001:0001ebe0       ?OnDestroy@BNC_BorderessProc@@AAEJPAUHWND__@@IIJ@Z 1001fbe0 f   BNC_BorderessProc.obj
 0001:0001ec10       ?OnEraseBkgnd@BNC_BorderessProc@@AAEJPAUHWND__@@IIJ@Z 1001fc10 f   BNC_BorderessProc.obj
 0001:0001eda0       ?OnPaint@BNC_BorderessProc@@AAEJPAUHWND__@@IIJ@Z 1001fda0 f   BNC_BorderessProc.obj
 0001:0001ee00       ?OnNcActivate@BNC_BorderessProc@@AAEJPAUHWND__@@IIJ@Z 1001fe00 f   BNC_BorderessProc.obj
 0001:0001ee10       ?OnNcCalcSize@BNC_BorderessProc@@AAEJPAUHWND__@@IIJ@Z 1001fe10 f   BNC_BorderessProc.obj
 0001:0001efe0       ?OnNcHitTest@BNC_BorderessProc@@AAEJPAUHWND__@@IIJ@Z 1001ffe0 f   BNC_BorderessProc.obj
 0001:0001f040       ?UpdateMouseCaption@BNC_BorderessProc@@QAEX_NH@Z 10020040 f   BNC_BorderessProc.obj
 0001:0001f060       ?OnNcPaint@BNC_BorderessProc@@AAEJPAUHWND__@@IIJ@Z 10020060 f   BNC_BorderessProc.obj
 0001:0001f080       ?OnNcMouseMove@BNC_BorderessProc@@AAEJPAUHWND__@@IIJ@Z 10020080 f   BNC_BorderessProc.obj
 0001:0001f090       ?OnNcLBtnDown@BNC_BorderessProc@@AAEJPAUHWND__@@IIJ@Z 10020090 f   BNC_BorderessProc.obj
 0001:0001f0b0       ?OnThemeChanged@BNC_BorderessProc@@AAEJPAUHWND__@@IIJ_N@Z 100200b0 f   BNC_BorderessProc.obj
 0001:0001f110       ?OnDwmCompositionChanged@BNC_BorderessProc@@AAEJPAUHWND__@@IIJ_N1@Z 10020110 f   BNC_BorderessProc.obj
 0001:0001f240       ?OnDwmColorizationColorChanged@BNC_BorderessProc@@AAEJPAUHWND__@@IIJ_N@Z 10020240 f   BNC_BorderessProc.obj
 0001:0001f2e0       ?OnSetIcon@BNC_BorderessProc@@AAEJPAUHWND__@@IIJ@Z 100202e0 f   BNC_BorderessProc.obj
 0001:0001f360       ?OnSetText@BNC_BorderessProc@@AAEJPAUHWND__@@IIJ@Z 10020360 f   BNC_BorderessProc.obj
 0001:0001f370       ?OnWindowPosChanging@BNC_BorderessProc@@AAEJPAUHWND__@@IIJ@Z 10020370 f   BNC_BorderessProc.obj
 0001:0001f3c0       ?OnWindowPosChanged@BNC_BorderessProc@@AAEJPAUHWND__@@IIJ@Z 100203c0 f   BNC_BorderessProc.obj
 0001:0001f4d0       ?UpdateNonClientClick@BNC_BorderessProc@@AAEX_N@Z 100204d0 f   BNC_BorderessProc.obj
 0001:0001f5d0       ?GetHitTest@BNC_BorderessProc@@QAEIXZ 100205d0 f   BNC_BorderessProc.obj
 0001:0001f5e0       ?GetHitTest@BNC_BorderessProc@@AAEIABVCPoint@@@Z 100205e0 f   BNC_BorderessProc.obj
 0001:0001f680       ?GetHitTest@BNC_BorderessProc@@QAEIABVCPoint@@ABVCSize@@@Z 10020680 f   BNC_BorderessProc.obj
 0001:0001f6a0       ?PtOutMonitor@BNC_BorderessProc@@AAEHAAVCPoint@@H@Z 100206a0 f   BNC_BorderessProc.obj
 0001:0001f7d0       ?TransformNcCustomToDefault@BNC_BorderessProc@@AAE_NPAUHWND__@@AAVCPoint@@1@Z 100207d0 f   BNC_BorderessProc.obj
 0001:0001f930       ?TransformNcDefaultToCustom@BNC_BorderessProc@@AAE_NPAUHWND__@@IIJ@Z 10020930 f   BNC_BorderessProc.obj
 0001:0001fa70       ?OnMouseMove@BNC_BorderessProc@@AAEJPAUHWND__@@IIJ@Z 10020a70 f   BNC_BorderessProc.obj
 0001:0001fcf0       ?UpdateResizing@BNC_BorderessProc@@AAE_NVCPoint@@@Z 10020cf0 f   BNC_BorderessProc.obj
 0001:00020190       ?OnLBtnDown@BNC_BorderessProc@@AAEJPAUHWND__@@IIJ@Z 10021190 f   BNC_BorderessProc.obj
 0001:00020390       ?OnLBtnUp@BNC_BorderessProc@@AAEJPAUHWND__@@IIJ@Z 10021390 f   BNC_BorderessProc.obj
 0001:00020450       ?OnLButtonDblClk@BNC_BorderessProc@@AAEJPAUHWND__@@IIJ@Z 10021450 f   BNC_BorderessProc.obj
 0001:00020510       ?OnCaptureChanged@BNC_BorderessProc@@AAEJPAUHWND__@@IIJ@Z 10021510 f   BNC_BorderessProc.obj
 0001:000205c0       ?OnGetMinMaxInfo@BNC_BorderessProc@@AAEJPAUHWND__@@IIJ@Z 100215c0 f   BNC_BorderessProc.obj
 0001:00020600       ?KeydownProcess@BNC_BorderessProc@@AAE_NK@Z 10021600 f   BNC_BorderessProc.obj
 0001:000206d0       ?UpdateHook@BNC_BorderessProc@@AAEX_N@Z 100216d0 f   BNC_BorderessProc.obj
 0001:00020750       ?IsWindowsVersionOrGreater@@YA_NGGG@Z 10021750 f i BNC_BorderessProc.obj
 0001:00020820       ??1CBrush@@UAE@XZ          10021820 f i BNC_BorderessProc.obj
 0001:00020830       ??_ECBrush@@UAEPAXI@Z      10021830 f i * CIL library *:* CIL module *
 0001:00020830       ??_GCBrush@@UAEPAXI@Z      10021830 f i BNC_BorderessProc.obj
 0001:00020860       ??0BNC_CaptureKeyboardMouse@@QAE@XZ 10021860 f   BNC_CaptureKeyboardMouse.obj
 0001:00020880       ??1BNC_CaptureKeyboardMouse@@QAE@XZ 10021880 f   BNC_CaptureKeyboardMouse.obj
 0001:00020890       ?SetCaptureClient@BNC_CaptureKeyboardMouse@@QAEXPAVBNC_BaseClient@@@Z 10021890 f   BNC_CaptureKeyboardMouse.obj
 0001:000208a0       ?IsAvailable@BNC_CaptureKeyboardMouse@@QAE_NXZ 100218a0 f   BNC_CaptureKeyboardMouse.obj
 0001:000208e0       ?SendMouseWheel@BNC_CaptureKeyboardMouse@@QAE_NIFAAVCPoint@@PAVBNC_BaseClient@@@Z 100218e0 f   BNC_CaptureKeyboardMouse.obj
 0001:000208f0       ?GetWheelValue@BNC_CaptureKeyboardMouse@@SAFF@Z 100218f0 f   BNC_CaptureKeyboardMouse.obj
 0001:00020970       ??0BNC_ClipboardImage@@QAE@XZ 10021970 f   BNC_ClipboardImage.obj
 0001:00020970       ??0?$BNC_Instance@VBNC_FakeRect@@@@IAE@XZ 10021970 f   BNC_FakeRect.obj
 0001:00020980       ??1BNC_ClipboardImage@@QAE@XZ 10021980 f   BNC_ClipboardImage.obj
 0001:000209a0       ?IsAvailable@BNC_ClipboardImage@@QAE_NXZ 100219a0 f   BNC_ClipboardImage.obj
 0001:000209f0       ?IsLoad@BNC_ClipboardImage@@QAE_NXZ 100219f0 f   BNC_ClipboardImage.obj
 0001:00020a00       ?Clone@BNC_ClipboardImage@@QAE_NPAPAVImage@Gdiplus@@_N@Z 10021a00 f   BNC_ClipboardImage.obj
 0001:00020a60       ?HBitmapToBitmap@BNC_ClipboardImage@@IAE?AW4Status@Gdiplus@@PAUHBITMAP__@@HPAPAVBitmap@3@@Z 10021a60 f   BNC_ClipboardImage.obj
 0001:00020c20       ?Load@BNC_ClipboardImage@@QAE_NXZ 10021c20 f   BNC_ClipboardImage.obj
 0001:00020d90       ?Update2@BNC_ClipboardImage@@IAE_NPAUHBITMAP__@@@Z 10021d90 f   BNC_ClipboardImage.obj
 0001:00020ee0       ?Update@BNC_ClipboardImage@@IAE_NPAUHBITMAP__@@@Z 10021ee0 f   BNC_ClipboardImage.obj
 0001:00021150       ?LoadBitmapW@BNC_ClipboardImage@@IAE_NXZ 10022150 f   BNC_ClipboardImage.obj
 0001:000211a0       ?GetEncoderCLSID@BNC_ClipboardImage@@IAEHQB_WAAU_GUID@@@Z 100221a0 f   BNC_ClipboardImage.obj
 0001:000212c0       ?LoadImageW@BNC_ClipboardImage@@IAE_NXZ 100222c0 f   BNC_ClipboardImage.obj
 0001:00021410       ?CreateBitmapFromClipboard@BNC_ClipboardImage@@AAE_NAAVCBitmap@@@Z 10022410 f   BNC_ClipboardImage.obj
 0001:00021620       ?CreateBitmapFromClipboard@BNC_ClipboardImage@@AAE_NPAPAVBitmap@Gdiplus@@@Z 10022620 f   BNC_ClipboardImage.obj
 0001:000216f0       ?CreateImageFromClipboard@BNC_ClipboardImage@@AAE_NPAPAVImage@Gdiplus@@@Z 100226f0 f   BNC_ClipboardImage.obj
 0001:00021890       ??0Bitmap@Gdiplus@@QAE@PBUtagBITMAPINFO@@PAX@Z 10022890 f i BNC_ClipboardImage.obj
 0001:000218e0       ?FromBITMAPINFO@Bitmap@Gdiplus@@SAPAV12@PBUtagBITMAPINFO@@PAX@Z 100228e0 f i BNC_ClipboardImage.obj
 0001:00021960       ?Init@CInitGDIPlus@CImage@ATL@@QAE_NXZ 10022960 f i BNC_ClipboardImage.obj
 0001:000219f0       ?_AtlVerifyStackAvailable@_ATL_SAFE_ALLOCA_IMPL@ATL@@YA_NK@Z 100229f0 f i BNC_ClipboardImage.obj
 0001:00021ab0       ?AtlThrowImpl@ATL@@YGXJ@Z  10022ab0 f i BNC_ClipboardImage.obj
 0001:00021ad0       ?FindCodecForFileType@CImage@ATL@@CA?AU_GUID@@ABU3@PBVImageCodecInfo@Gdiplus@@I@Z 10022ad0 f i BNC_ClipboardImage.obj
 0001:00021b50       ??0Bitmap@Gdiplus@@QAE@HHHHPAE@Z 10022b50 f i BNC_ClipboardImage.obj
 0001:00021bb0       ?Save@CImage@ATL@@QBEJPAUIStream@@ABU_GUID@@@Z 10022bb0 f i BNC_ClipboardImage.obj
 0001:00021d70       ?UpdateBitmapInfo@CImage@ATL@@AAEXW4DIBOrientation@12@@Z 10022d70 f i BNC_ClipboardImage.obj
 0001:00021e60       ??1CImage@ATL@@UAE@XZ      10022e60 f i BNC_ClipboardImage.obj
 0001:00021f30       ??_ECImage@ATL@@UAEPAXI@Z  10022f30 f i * CIL library *:* CIL module *
 0001:00021f30       ??_GCImage@ATL@@UAEPAXI@Z  10022f30 f i BNC_ClipboardImage.obj
 0001:00021f60       ??0CImage@ATL@@QAE@XZ      10022f60 f i BNC_ClipboardImage.obj
 0001:00022000       ??0Image@Gdiplus@@QAE@PAUIStream@@H@Z 10023000 f i BNC_ClipboardImage.obj
 0001:00022030       ??1Bitmap@Gdiplus@@UAE@XZ  10023030 f i BNC_ClipboardImage.obj
 0001:00022040       ??_EBitmap@Gdiplus@@UAEPAXI@Z 10023040 f i * CIL library *:* CIL module *
 0001:00022040       ??_GImage@Gdiplus@@UAEPAXI@Z 10023040 f i BNC_ClipboardImage.obj
 0001:00022040       ??_EImage@Gdiplus@@UAEPAXI@Z 10023040 f i * CIL library *:* CIL module *
 0001:00022040       ??_GBitmap@Gdiplus@@UAEPAXI@Z 10023040 f i BNC_ClipboardImage.obj
 0001:00022070       ?Save@Image@Gdiplus@@QAE?AW4Status@2@PAUIStream@@PBU_GUID@@PBVEncoderParameters@2@@Z 10023070 f i BNC_ClipboardImage.obj
 0001:000220a0       ?Clone@Image@Gdiplus@@UAEPAV12@XZ 100230a0 f i BNC_ClipboardImage.obj
 0001:00022120       ?GetBitmap@BNC_ClipboardImageOLE@@QBEPAUHBITMAP__@@XZ 10023120 f   BNC_ClipboardImageOLE.obj
 0001:000221f0       ?GetBitmapFromDDB@BNC_ClipboardImageOLE@@ABEPAUHBITMAP__@@PAVCOleDataObject@@@Z 100231f0 f   BNC_ClipboardImageOLE.obj
 0001:000222b0       ?GetData@BNC_ClipboardImageOLE@@ABEPAXPAVCOleDataObject@@GAAIPAUtagFORMATETC@@@Z 100232b0 f   BNC_ClipboardImageOLE.obj
 0001:00022390       ?GetBitmapFromDIB@BNC_ClipboardImageOLE@@ABEPAUHBITMAP__@@PAVCOleDataObject@@@Z 10023390 f   BNC_ClipboardImageOLE.obj
 0001:00022520       ?GetBitmapFromImage@BNC_ClipboardImageOLE@@ABEPAUHBITMAP__@@PAVCOleDataObject@@@Z 10023520 f   BNC_ClipboardImageOLE.obj
 0001:00022790       ?GetBitmapFromImage@BNC_ClipboardImageOLE@@ABEPAUHBITMAP__@@PAVCOleDataObject@@G@Z 10023790 f   BNC_ClipboardImageOLE.obj
 0001:00022900       ??$AtlConvAllocMemory@_W@ATL@@YAXPAPA_WHPA_WH@Z 10023900 f i BNC_ClipboardImageOLE.obj
 0001:000229a0       ??0?$CW2WEX@$0IA@@ATL@@QAE@PB_W@Z 100239a0 f i BNC_ClipboardImageOLE.obj
 0001:00022a10       ?Load@CImage@ATL@@QAEJPB_W@Z 10023a10 f i BNC_ClipboardImageOLE.obj
 0001:00022b10       ?CreateEx@CImage@ATL@@QAEHHHHKPBKK@Z 10023b10 f i BNC_ClipboardImageOLE.obj
 0001:00022c00       ?GetDC@CImage@ATL@@QBEPAUHDC__@@XZ 10023c00 f i BNC_ClipboardImageOLE.obj
 0001:00022c70       ?ReleaseDC@CImage@ATL@@QBEXXZ 10023c70 f i BNC_ClipboardImageOLE.obj
 0001:00022ce0       ?AfxCrtErrorCheck@@YAHH@Z  10023ce0 f i BNC_ClipboardImageOLE.obj
 0001:00022d70       ?CreateFromGdiplusBitmap@CImage@ATL@@AAEJAAVBitmap@Gdiplus@@@Z 10023d70 f i BNC_ClipboardImageOLE.obj
 0001:000231a0       ?Load@CImage@ATL@@QAEJPAUIStream@@@Z 100241a0 f i BNC_ClipboardImageOLE.obj
 0001:00023280       ??1COleDataObject@@QAE@XZ  10024280 f i BNC_ClipboardImageOLE.obj
 0001:00023290       ??0BNC_DrawObject@@QAE@XZ  10024290 f   BNC_DrawObject.obj
 0001:000235b0       ??1BNC_DrawObject@@UAE@XZ  100245b0 f   BNC_DrawObject.obj
 0001:00023a40       ?ClearGdiImage@BNC_DrawObject@@QAEXXZ 10024a40 f   BNC_DrawObject.obj
 0001:00023a90       ?ClearCdcImage@BNC_DrawObject@@QAEXXZ 10024a90 f   BNC_DrawObject.obj
 0001:00023b40       ?LoadFromFile@BNC_DrawObject@@SA_NPAPAVImage@Gdiplus@@PB_W@Z 10024b40 f   BNC_DrawObject.obj
 0001:00023ba0       ?LoadFromResource@BNC_DrawObject@@SA_NIPAPAVCImage@ATL@@PAPAVCBitmap@@AAVCSize@@PB_WPAUHINSTANCE__@@@Z 10024ba0 f   BNC_DrawObject.obj
 0001:00023c80       ?LoadFromResource@BNC_DrawObject@@SA_NAAVCImage@ATL@@IPB_WPAUHINSTANCE__@@@Z 10024c80 f   BNC_DrawObject.obj
 0001:00023d80       ?LoadFromResource@BNC_DrawObject@@SA_NPAPAVImage@Gdiplus@@IPB_WPAUHINSTANCE__@@@Z 10024d80 f   BNC_DrawObject.obj
 0001:00023ef0       ?CreateFontW@BNC_DrawObject@@SAXAAVCFont@@PB_WII_NH@Z 10024ef0 f   BNC_DrawObject.obj
 0001:00023fb0       ?Create@BNC_DrawObject@@QAEXPB_W@Z 10024fb0 f   BNC_DrawObject.obj
 0001:000240f0       ?AddGdiImage@BNC_DrawObject@@QAEHI@Z 100250f0 f   BNC_DrawObject.obj
 0001:000241d0       ?AddGdiImage@BNC_DrawObject@@QAEHPAVImage@Gdiplus@@@Z 100251d0 f   BNC_DrawObject.obj
 0001:00024270       ?ReplaceGdiImage@BNC_DrawObject@@QAEXIPAVImage@Gdiplus@@@Z 10025270 f   BNC_DrawObject.obj
 0001:000242b0       ?AddCdcImage@BNC_DrawObject@@QAEHI@Z 100252b0 f   BNC_DrawObject.obj
 0001:000243e0       ?AddCdcImage@BNC_DrawObject@@QAEHPAVCImage@ATL@@@Z 100253e0 f   BNC_DrawObject.obj
 0001:000244a0       ?ReplaceCdcImage@BNC_DrawObject@@QAEXIPAVCImage@ATL@@@Z 100254a0 f   BNC_DrawObject.obj
 0001:00024530       ?GetGdiImage@BNC_DrawObject@@QAEPAVImage@Gdiplus@@I@Z 10025530 f   BNC_DrawObject.obj
 0001:00024560       ?GetCdcBitmap@BNC_DrawObject@@QAEPAVCBitmap@@I@Z 10025560 f   BNC_DrawObject.obj
 0001:00024590       ?GetGdiImageSize@BNC_DrawObject@@QAE?AVCSize@@I@Z 10025590 f   BNC_DrawObject.obj
 0001:000245d0       ?GetCdcBitmapSize@BNC_DrawObject@@QAE?AVCSize@@I@Z 100255d0 f   BNC_DrawObject.obj
 0001:00024610       ?GetAlphaMatrix@BNC_DrawObject@@SAXEAAUColorMatrix@Gdiplus@@@Z 10025610 f   BNC_DrawObject.obj
 0001:00024650       ?GetFitStringAddDot@BNC_DrawObject@@SA?AV?$CStringT@_WV?$StrTraitMFC_DLL@_WV?$ChTraitsCRT@_W@ATL@@@@@ATL@@PAUHDC__@@PB_WHAAVCSize@@@Z 10025650 f   BNC_DrawObject.obj
 0001:000247f0       ?GetFitStringAddDotEx@BNC_DrawObject@@SA?AV?$CStringT@_WV?$StrTraitMFC_DLL@_WV?$ChTraitsCRT@_W@ATL@@@@@ATL@@PAUHDC__@@PB_W1HAAVCSize@@@Z 100257f0 f   BNC_DrawObject.obj
 0001:00024a30       ?CreateBitmapFromImage@BNC_DrawObject@@SAXPAVCDC@@KPAVImage@Gdiplus@@PAPAVCBitmap@@@Z 10025a30 f   BNC_DrawObject.obj
 0001:00024c90       ?CreateClipBitmapFromImage@BNC_DrawObject@@SAXPAVCDC@@KVCSize@@PAVImage@Gdiplus@@PAPAVCBitmap@@@Z 10025c90 f   BNC_DrawObject.obj
 0001:00024fc0       ?CreateStretchBitmapFromImage@BNC_DrawObject@@SAXPAVCDC@@KVCSize@@_NPAVImage@Gdiplus@@PAPAVCBitmap@@@Z 10025fc0 f   BNC_DrawObject.obj
 0001:00025320       ?push_back@?$vector@VCSize@@V?$allocator@VCSize@@@std@@@std@@QAEX$$QAVCSize@@@Z 10026320 f i BNC_DrawObject.obj
 0001:00025390       ?_Reserve@?$vector@VCSize@@V?$allocator@VCSize@@@std@@@std@@IAEXI@Z 10026390 f i BNC_DrawObject.obj
 0001:00025400       ?_Reallocate@?$vector@VCPoint@@V?$allocator@VCPoint@@@std@@@std@@IAEXI@Z 10026400 f i BNC_ReferenceItemExOption.obj
 0001:00025400       ?_Reallocate@?$vector@VCSize@@V?$allocator@VCSize@@@std@@@std@@IAEXI@Z 10026400 f i BNC_DrawObject.obj
 0001:00025480       ??$_Uninit_copy@PAVCPoint@@PAV1@V?$allocator@VCPoint@@@std@@@std@@YAPAVCPoint@@PAV1@00AAU?$_Wrap_alloc@V?$allocator@VCPoint@@@std@@@0@U_Nonscalar_ptr_iterator_tag@0@@Z 10026480 f i BNC_ReferenceItemExOption.obj
 0001:00025480       ??$_Uninit_move@PAVCPoint@@PAV1@V?$allocator@VCPoint@@@std@@V1@@std@@YAPAVCPoint@@PAV1@00AAU?$_Wrap_alloc@V?$allocator@VCPoint@@@std@@@0@0U_Nonscalar_ptr_iterator_tag@0@@Z 10026480 f i BNC_ReferenceItemExOption.obj
 0001:00025480       ??$_Uninit_move@PAVCSize@@PAV1@V?$allocator@VCSize@@@std@@V1@@std@@YAPAVCSize@@PAV1@00AAU?$_Wrap_alloc@V?$allocator@VCSize@@@std@@@0@0U_Nonscalar_ptr_iterator_tag@0@@Z 10026480 f i BNC_DrawObject.obj
 0001:000254b0       ??_EBNC_DrawObject@@UAEPAXI@Z 100264b0 f i BNC_DrawObject.obj
 0001:00025510       ??0BNC_DrawString@@QAE@XZ  10026510 f   BNC_DrawString.obj
 0001:00025550       ??0BNC_DrawString@@QAE@PB_W@Z 10026550 f   BNC_DrawString.obj
 0001:000255d0       ?Default@BNC_DrawString@@QAEXXZ 100265d0 f   BNC_DrawString.obj
 0001:00025600       ?GetDrawArea@BNC_DrawString@@QAE?AVCSize@@PAVCDC@@@Z 10026600 f   BNC_DrawString.obj
 0001:00025650       ?Draw@BNC_DrawString@@QAEX_NPAVCDC@@H@Z 10026650 f   BNC_DrawString.obj
 0001:00025760       ?GetColorParam@BNC_DwmColorControl@@SA_NPB_WPAK@Z 10026760 f   BNC_DwmColorControl.obj
 0001:000257f0       ?InitWindowsThemeColorApi@BNC_DwmColorControl@@QAEXXZ 100267f0 f   BNC_DwmColorControl.obj
 0001:000258a0       ?GetDwmColorizationColor@BNC_DwmColorControl@@QAEKXZ 100268a0 f   BNC_DwmColorControl.obj
 0001:00025900       ?SetDwmColorizationColor@BNC_DwmColorControl@@QAEXK@Z 10026900 f   BNC_DwmColorControl.obj
 0001:00025980       ?GetAccentColor@BNC_DwmColorControl@@QAEKXZ 10026980 f   BNC_DwmColorControl.obj
 0001:000259c0       ?SetAccentColor@BNC_DwmColorControl@@QAEXK_N@Z 100269c0 f   BNC_DwmColorControl.obj
 0001:00025a60       ?IsNewAutoColorAccentAlgorithm@BNC_DwmColorControl@@QAE_NXZ 10026a60 f   BNC_DwmColorControl.obj
 0001:00025bb0       ?SetAutoColorAccentAlgorithm@BNC_DwmColorControl@@QAEX_N@Z 10026bb0 f   BNC_DwmColorControl.obj
 0001:00025ca0       ?RegCreateKeyExW@CAtlTransactionManager@ATL@@QAEJPAUHKEY__@@PB_WKPA_WKKQAU_SECURITY_ATTRIBUTES@@PAPAU3@PAK@Z 10026ca0 f i BNC_DwmColorControl.obj
 0001:00025d40       ?Create@CRegKey@ATL@@QAEJPAUHKEY__@@PB_WPA_WKKPAU_SECURITY_ATTRIBUTES@@PAK@Z 10026d40 f i BNC_DwmColorControl.obj
 0001:00025dd0       ?AtlHresultFromWin32@ATL@@YAJK@Z 10026dd0 f i BNC_DwmColorControl.obj
 0001:00025de0       ?RegOpenKeyExW@CAtlTransactionManager@ATL@@QAEJPAUHKEY__@@PB_WKKPAPAU3@@Z 10026de0 f i BNC_DwmColorControl.obj
 0001:00025e60       ?Open@CRegKey@ATL@@QAEJPAUHKEY__@@PB_WK@Z 10026e60 f i BNC_DwmColorControl.obj
 0001:00025ee0       ??1CRegKey@ATL@@QAE@XZ     10026ee0 f i BNC_DwmColorControl.obj
 0001:00025f00       ?AtlHresultFromLastError@ATL@@YAJXZ 10026f00 f i BNC_DwmColorControl.obj
 0001:00025f20       ??0BNC_FakeBtnSet@@QAE@XZ  10026f20 f   BNC_FakeBtnSet.obj
 0001:00025f40       ??1BNC_FakeBtnSet@@QAE@XZ  10026f40 f   BNC_FakeBtnSet.obj
 0001:00025f80       ?Initialize@BNC_FakeBtnSet@@QAEXPAVBNC_BaseClient@@IV?$function@$$A6AXAAVGraphics@Gdiplus@@PAVCDC@@1AAVBNC_FakeRect@@@Z@std@@V?$function@$$A6AXHHH_N@Z@4@@Z 10026f80 f   BNC_FakeBtnSet.obj
 0001:00026100       ?InitButton@BNC_FakeBtnSet@@QAE_NIVCSize@@_N1@Z 10027100 f   BNC_FakeBtnSet.obj
 0001:00026180       ?Move@BNC_FakeBtnSet@@QAEXIVCPoint@@_N@Z 10027180 f   BNC_FakeBtnSet.obj
 0001:000261b0       ?MoveEx@BNC_FakeBtnSet@@QAEXIVCPoint@@_NH@Z 100271b0 f   BNC_FakeBtnSet.obj
 0001:000261f0       ?Show@BNC_FakeBtnSet@@QAEXI_N@Z 100271f0 f   BNC_FakeBtnSet.obj
 0001:00026230       ?GetRect@BNC_FakeBtnSet@@QAE?AVCRect@@I@Z 10027230 f   BNC_FakeBtnSet.obj
 0001:00026280       ?DrawAll@BNC_FakeBtnSet@@QAEXAAVGraphics@Gdiplus@@PAVCDC@@1_N@Z 10027280 f   BNC_FakeBtnSet.obj
 0001:00026550       ?Draw@BNC_FakeBtnSet@@QAEXIAAVGraphics@Gdiplus@@PAVCDC@@1@Z 10027550 f   BNC_FakeBtnSet.obj
 0001:000265c0       ?SortFromID@BNC_FakeBtnSet@@QAEXXZ 100275c0 f   BNC_FakeBtnSet.obj
 0001:000265f0       ?MouseMove@BNC_FakeBtnSet@@QAE_NIVCPoint@@@Z 100275f0 f   BNC_FakeBtnSet.obj
 0001:00026700       ?MouseLBtnDown@BNC_FakeBtnSet@@QAE_NIVCPoint@@@Z 10027700 f   BNC_FakeBtnSet.obj
 0001:00026810       ?MouseLBtnUp@BNC_FakeBtnSet@@QAE_NIVCPoint@@@Z 10027810 f   BNC_FakeBtnSet.obj
 0001:00026920       ?MouseReset@BNC_FakeBtnSet@@QAEXI@Z 10027920 f   BNC_FakeBtnSet.obj
 0001:00026950       ?MouseReset@BNC_FakeBtnSet@@QAEXXZ 10027950 f   BNC_FakeBtnSet.obj
 0001:000269c0       ??1?$function@$$A6AXHHH_N@Z@std@@QAE@XZ 100279c0 f i BNC_FakeBtnSet.obj
 0001:000269c0       ??1?$function@$$A6AXAAVGraphics@Gdiplus@@PAVCDC@@1AAVBNC_FakeRect@@@Z@std@@QAE@XZ 100279c0 f i BNC_FakeBtnSet.obj
 0001:000269c0       ??1?$function@$$A6AXXZ@std@@QAE@XZ 100279c0 f i BNC_FakeModal.obj
 0001:000269c0       ??1?$function@$$A6AXH@Z@std@@QAE@XZ 100279c0 f i IBaronow25.obj
 0001:000269c0       ??1?$function@$$A6AXHAAVBNC_FakeModal@@@Z@std@@QAE@XZ 100279c0 f i BNC_FakeModal.obj
 0001:00026a00       ??1?$_Func_class@XH@std@@QAE@XZ 10027a00 f i IBaronow25.obj
 0001:00026a00       ??1?$_Func_class@XHHH_N@std@@QAE@XZ 10027a00 f i BNC_FakeBtnSet.obj
 0001:00026a00       ??1?$_Func_class@XAAVGraphics@Gdiplus@@PAVCDC@@PAV3@AAVBNC_FakeRect@@@std@@QAE@XZ 10027a00 f i BNC_FakeBtnSet.obj
 0001:00026a00       ??1?$_Func_class@XHAAVBNC_FakeModal@@@std@@QAE@XZ 10027a00 f i BNC_FakeModal.obj
 0001:00026a30       ?_Reserve@?$vector@V?$shared_ptr@VBNC_FakeRect@@@std@@V?$allocator@V?$shared_ptr@VBNC_FakeRect@@@std@@@2@@std@@IAEXI@Z 10027a30 f i BNC_FakeBtnSet.obj
 0001:00026aa0       ?_Reallocate@?$vector@V?$shared_ptr@VBNC_FakeRect@@@std@@V?$allocator@V?$shared_ptr@VBNC_FakeRect@@@std@@@2@@std@@IAEXI@Z 10027aa0 f i BNC_FakeBtnSet.obj
 0001:00026b30       ??$make_shared@VBNC_FakeRect@@PAUHWND__@@AAV?$function@$$A6AXAAVGraphics@Gdiplus@@PAVCDC@@1AAVBNC_FakeRect@@@Z@std@@AAV?$function@$$A6AXHHH_N@Z@4@@std@@YA?AV?$shared_ptr@VBNC_FakeRect@@@0@$$QAPAUHWND__@@AAV?$function@$$A6AXAAVGraphics@Gdiplus@@PAVCDC@@1AAVBNC_FakeRect@@@Z@0@AAV?$function@$$A6AXHHH_N@Z@0@@Z 10027b30 f i BNC_FakeBtnSet.obj
 0001:00026bc0       ?_Destroy@?$_Ref_count_obj@VBNC_FakeRect@@@std@@EAEXXZ 10027bc0 f i BNC_FakeBtnSet.obj
 0001:00026bd0       ?_Delete_this@?$_Ref_count_obj@VBNC_FakeRect@@@std@@EAEXXZ 10027bd0 f i BNC_FakeBtnSet.obj
 0001:00026bd0       ?_Delete_this@?$_Ref_count_obj@VBNC_AsyncMessageBox@@@std@@EAEXXZ 10027bd0 f i IBaronow25.obj
 0001:00026be0       ??$?0PAUHWND__@@AAV?$function@$$A6AXAAVGraphics@Gdiplus@@PAVCDC@@1AAVBNC_FakeRect@@@Z@std@@AAV?$function@$$A6AXHHH_N@Z@2@@?$_Ref_count_obj@VBNC_FakeRect@@@std@@QAE@$$QAPAUHWND__@@AAV?$function@$$A6AXAAVGraphics@Gdiplus@@PAVCDC@@1AAVBNC_FakeRect@@@Z@1@AAV?$function@$$A6AXHHH_N@Z@1@@Z 10027be0 f i BNC_FakeBtnSet.obj
 0001:00026cd0       ??$_Sort@PAV?$shared_ptr@VBNC_FakeRect@@@std@@HV<lambda_7ce23148b5fee2027ad36ebef1ba7dcd>@@@std@@YAXPAV?$shared_ptr@VBNC_FakeRect@@@0@0HV<lambda_7ce23148b5fee2027ad36ebef1ba7dcd>@@@Z 10027cd0 f i BNC_FakeBtnSet.obj
 0001:00026dc0       ??_E?$_Ref_count_obj@VBNC_AsyncMessageBox@@@std@@UAEPAXI@Z 10027dc0 f i * CIL library *:* CIL module *
 0001:00026dc0       ??_E_Ref_count_base@std@@UAEPAXI@Z 10027dc0 f i * CIL library *:* CIL module *
 0001:00026dc0       ??_G?$_Ref_count_obj@VBNC_AsyncMessageBox@@@std@@UAEPAXI@Z 10027dc0 f i IBaronow25.obj
 0001:00026dc0       ??_E?$_Ref_count_obj@VBNC_FakeRect@@@std@@UAEPAXI@Z 10027dc0 f i * CIL library *:* CIL module *
 0001:00026dc0       ??_G_Ref_count_base@std@@UAEPAXI@Z 10027dc0 f i BNC_FakeBtnSet.obj
 0001:00026dc0       ??_G?$_Ref_count_obj@VBNC_FakeRect@@@std@@UAEPAXI@Z 10027dc0 f i BNC_FakeBtnSet.obj
 0001:00026df0       ??$_Unguarded_partition@PAV?$shared_ptr@VBNC_FakeRect@@@std@@V<lambda_7ce23148b5fee2027ad36ebef1ba7dcd>@@@std@@YA?AU?$pair@PAV?$shared_ptr@VBNC_FakeRect@@@std@@PAV12@@0@PAV?$shared_ptr@VBNC_FakeRect@@@0@0V<lambda_7ce23148b5fee2027ad36ebef1ba7dcd>@@@Z 10027df0 f i BNC_FakeBtnSet.obj
 0001:00026ff0       ??$_Median@PAV?$shared_ptr@VBNC_FakeRect@@@std@@V<lambda_7ce23148b5fee2027ad36ebef1ba7dcd>@@@std@@YAXPAV?$shared_ptr@VBNC_FakeRect@@@0@00V<lambda_7ce23148b5fee2027ad36ebef1ba7dcd>@@@Z 10027ff0 f i BNC_FakeBtnSet.obj
 0001:00027090       ??$_Make_heap@PAV?$shared_ptr@VBNC_FakeRect@@@std@@HV12@V<lambda_7ce23148b5fee2027ad36ebef1ba7dcd>@@@std@@YAXPAV?$shared_ptr@VBNC_FakeRect@@@0@0V<lambda_7ce23148b5fee2027ad36ebef1ba7dcd>@@PAH0@Z 10028090 f i BNC_FakeBtnSet.obj
 0001:00027160       ??$_Sort_heap@PAV?$shared_ptr@VBNC_FakeRect@@@std@@V<lambda_7ce23148b5fee2027ad36ebef1ba7dcd>@@@std@@YAXPAV?$shared_ptr@VBNC_FakeRect@@@0@0V<lambda_7ce23148b5fee2027ad36ebef1ba7dcd>@@@Z 10028160 f i BNC_FakeBtnSet.obj
 0001:00027290       ??$_Insertion_sort1@PAV?$shared_ptr@VBNC_FakeRect@@@std@@V<lambda_7ce23148b5fee2027ad36ebef1ba7dcd>@@V12@@std@@YAXPAV?$shared_ptr@VBNC_FakeRect@@@0@0V<lambda_7ce23148b5fee2027ad36ebef1ba7dcd>@@0@Z 10028290 f i BNC_FakeBtnSet.obj
 0001:000273e0       ??$_Uninit_move@PAV?$shared_ptr@VBNC_FakeRect@@@std@@PAV12@V?$allocator@V?$shared_ptr@VBNC_FakeRect@@@std@@@2@V12@@std@@YAPAV?$shared_ptr@VBNC_FakeRect@@@0@PAV10@00AAU?$_Wrap_alloc@V?$allocator@V?$shared_ptr@VBNC_FakeRect@@@std@@@std@@@0@0U_Nonscalar_ptr_iterator_tag@0@@Z 100283e0 f i BNC_FakeBtnSet.obj
 0001:00027430       ??$_Med3@PAV?$shared_ptr@VBNC_FakeRect@@@std@@V<lambda_7ce23148b5fee2027ad36ebef1ba7dcd>@@@std@@YAXPAV?$shared_ptr@VBNC_FakeRect@@@0@00V<lambda_7ce23148b5fee2027ad36ebef1ba7dcd>@@@Z 10028430 f i BNC_FakeBtnSet.obj
 0001:000274b0       ??$_Adjust_heap@PAV?$shared_ptr@VBNC_FakeRect@@@std@@HV12@V<lambda_7ce23148b5fee2027ad36ebef1ba7dcd>@@@std@@YAXPAV?$shared_ptr@VBNC_FakeRect@@@0@HH$$QAV10@V<lambda_7ce23148b5fee2027ad36ebef1ba7dcd>@@@Z 100284b0 f i BNC_FakeBtnSet.obj
 0001:000275f0       ??$_Push_heap@PAV?$shared_ptr@VBNC_FakeRect@@@std@@HV12@V<lambda_7ce23148b5fee2027ad36ebef1ba7dcd>@@@std@@YAXPAV?$shared_ptr@VBNC_FakeRect@@@0@HH$$QAV10@V<lambda_7ce23148b5fee2027ad36ebef1ba7dcd>@@@Z 100285f0 f i BNC_FakeBtnSet.obj
 0001:00027710       ??$_Move_backward@PAV?$shared_ptr@VBNC_FakeRect@@@std@@PAV12@@std@@YAPAV?$shared_ptr@VBNC_FakeRect@@@0@PAV10@00U_Nonscalar_ptr_iterator_tag@0@@Z 10028710 f i BNC_FakeBtnSet.obj
 0001:00027790       ??1_Ref_count_base@std@@UAE@XZ 10028790 f i BNC_FakeBtnSet.obj
 0001:000277a0       ??0BNC_FakeRect@@QAE@PAUHWND__@@V?$function@$$A6AXAAVGraphics@Gdiplus@@PAVCDC@@1AAVBNC_FakeRect@@@Z@std@@V?$function@$$A6AXHHH_N@Z@3@@Z 100287a0 f   BNC_FakeRect.obj
 0001:00027990       ??1BNC_FakeRect@@QAE@XZ    10028990 f   BNC_FakeRect.obj
 0001:00027aa0       ?Initialize@BNC_FakeRect@@QAEXHVCPoint@@VCSize@@PAUHICON__@@K@Z 10028aa0 f   BNC_FakeRect.obj
 0001:00027b50       ?Move@BNC_FakeRect@@QAEXVCPoint@@_N@Z 10028b50 f   BNC_FakeRect.obj
 0001:00027be0       ?MoveEx@BNC_FakeRect@@QAEXVCPoint@@_NH@Z 10028be0 f   BNC_FakeRect.obj
 0001:00027c10       ?Show@BNC_FakeRect@@QAEX_N@Z 10028c10 f   BNC_FakeRect.obj
 0001:00027c30       ?Draw@BNC_FakeRect@@QAEXAAVGraphics@Gdiplus@@PAVCDC@@1@Z 10028c30 f   BNC_FakeRect.obj
 0001:00027c80       ?UpdateCommand@BNC_FakeRect@@AAE_NHH_N@Z 10028c80 f   BNC_FakeRect.obj
 0001:00027d00       ?CheckEntry@BNC_FakeRect@@AAE_NAAVCPoint@@@Z 10028d00 f   BNC_FakeRect.obj
 0001:00027d60       ?GetLeftTextImagePtr@BNC_PopupMenuItem@@QAEPAUBNS_ImageInfo@@XZ 10028d60 f   BNC_PopupMenuItem.obj
 0001:00027d60       ?GetID@BNC_FakeRect@@QBEHXZ 10028d60 f   BNC_FakeRect.obj
 0001:00027d70       ?GetRightImagePtr@BNC_PopupMenuItem@@QAEPAUBNS_ImageInfo@@XZ 10028d70 f   BNC_PopupMenuItem.obj
 0001:00027d70       ?GetChildFileCount@BNC_RefTreeItemOption@@QBEIXZ 10028d70 f   BNC_RefTreeItemOption.obj
 0001:00027d70       ?GetCommand@BNC_FakeRect@@QBEHXZ 10028d70 f   BNC_FakeRect.obj
 0001:00027d80       ?GetState@BNC_FakeRect@@QBEKXZ 10028d80 f   BNC_FakeRect.obj
 0001:00027d80       ?GetItemHeight@BNC_ReferenceItem@@QBEIXZ 10028d80 f   BNC_ReferenceItem.obj
 0001:00027d90       ?MouseMove@BNC_FakeRect@@QAE_NIVCPoint@@@Z 10028d90 f   BNC_FakeRect.obj
 0001:00027e60       ?MouseLBtnDown@BNC_FakeRect@@QAE_NIVCPoint@@@Z 10028e60 f   BNC_FakeRect.obj
 0001:00027f40       ?MouseLBtnUp@BNC_FakeRect@@QAE_NIVCPoint@@@Z 10028f40 f   BNC_FakeRect.obj
 0001:00028040       ?MouseReset@BNC_FakeRect@@QAEXXZ 10029040 f   BNC_FakeRect.obj
 0001:00028050       ?AddInstnace@?$BNC_Instance@VBNC_FakeRect@@@@IAEIXZ 10029050 f i BNC_FakeRect.obj
 0001:00028070       ?ReleaseInstance@?$BNC_Instance@VBNC_FakeRect@@@@IAEIXZ 10029070 f i BNC_FakeRect.obj
 0001:000280a0       ??0BNC_GDI@@QAE@PAUHWND__@@@Z 100290a0 f   BNC_GDI.obj
 0001:00028140       ??1BNC_GDI@@QAE@XZ         10029140 f   BNC_GDI.obj
 0001:00028200       ?Reset@BNC_GDI@@AAEXXZ     10029200 f   BNC_GDI.obj
 0001:00028250       ?Begin@BNC_GDI@@QAEXPAVCDC@@PAUtagRECT@@K@Z 10029250 f   BNC_GDI.obj
 0001:000283c0       ?End@BNC_GDI@@QAEXXZ       100293c0 f   BNC_GDI.obj
 0001:00028440       ?GetMemDC@BNC_GDI@@QAEPAVCDC@@XZ 10029440 f i BNC_GDI.obj
 0001:00028450       ?GetResDC@BNC_GDI@@QAEPAVCDC@@XZ 10029450 f i BNC_GDI.obj
 0001:00028460       ?GetWidth@BNC_GDI@@QAEHXZ  10029460 f i BNC_GDI.obj
 0001:00028460       ?GetItem@BNC_RefTreeItemOption@@QAEPBVBNC_ReferenceItem@@XZ 10029460 f i BNC_RefTreeItemOption.obj
 0001:00028460       ?GetType@BNC_PopupMenuItem@@QAE?AW4BNE_POPUPITEM_TYPE@@XZ 10029460 f i BNC_PopupMenuItem.obj
 0001:00028470       ?GetHeight@BNC_GDI@@QAEHXZ 10029470 f i BNC_GDI.obj
 0001:00028470       ?GetChildMenu@BNC_PopupMenuItem@@QAEPAVBNC_PopupMenu@@XZ 10029470 f i BNC_PopupMenuItem.obj
 0001:00028480       ??0BNC_Graphics@@QAE@PAVCDC@@@Z 10029480 f   BNC_Graphics.obj
 0001:00028510       ??0BNC_Graphics@@QAE@PAVGraphics@Gdiplus@@@Z 10029510 f   BNC_Graphics.obj
 0001:00028530       ??1BNC_Graphics@@QAE@XZ    10029530 f   BNC_Graphics.obj
 0001:00028590       ?GradationRoundRect@BNC_Graphics@@QAEXABVRect@Gdiplus@@IVColor@3@11@Z 10029590 f   BNC_Graphics.obj
 0001:000289d0       ?GradationRect@BNC_Graphics@@QAEXABVRect@Gdiplus@@IVColor@3@11@Z 100299d0 f   BNC_Graphics.obj
 0001:00028d00       ?GradationRect@BNC_Graphics@@QAEXABVRect@Gdiplus@@MVColor@3@1@Z 10029d00 f   BNC_Graphics.obj
 0001:00028de0       ?GradationEllipse@BNC_Graphics@@QAEXABVRect@Gdiplus@@VColor@3@1@Z 10029de0 f   BNC_Graphics.obj
 0001:00028f00       ?FillRect@BNC_Graphics@@QAEXABVRect@Gdiplus@@VColor@3@@Z 10029f00 f   BNC_Graphics.obj
 0001:00028f70       ?FillRoundRect@BNC_Graphics@@QAEXABVRect@Gdiplus@@IVColor@3@@Z 10029f70 f   BNC_Graphics.obj
 0001:00029210       ?TransparentBlt@BNC_Graphics@@SAXPAUHDC__@@HHHHPAUHBITMAP__@@HHKPAUHPALETTE__@@@Z 1002a210 f   BNC_Graphics.obj
 0001:000295b0       ??_GLinearGradientBrush@Gdiplus@@UAEPAXI@Z 1002a5b0 f i BNC_Graphics.obj
 0001:000295b0       ??_EBrush@Gdiplus@@UAEPAXI@Z 1002a5b0 f i * CIL library *:* CIL module *
 0001:000295b0       ??_GPathGradientBrush@Gdiplus@@UAEPAXI@Z 1002a5b0 f i BNC_Graphics.obj
 0001:000295b0       ??_EPathGradientBrush@Gdiplus@@UAEPAXI@Z 1002a5b0 f i * CIL library *:* CIL module *
 0001:000295b0       ??_ELinearGradientBrush@Gdiplus@@UAEPAXI@Z 1002a5b0 f i * CIL library *:* CIL module *
 0001:000295b0       ??_GBrush@Gdiplus@@UAEPAXI@Z 1002a5b0 f i BNC_Graphics.obj
 0001:000295e0       ?SetSurroundColors@PathGradientBrush@Gdiplus@@QAE?AW4Status@2@PBVColor@2@PAH@Z 1002a5e0 f i BNC_Graphics.obj
 0001:000296f0       ??1PathGradientBrush@Gdiplus@@UAE@XZ 1002a6f0 f i BNC_Graphics.obj
 0001:00029700       ?Clone@Brush@Gdiplus@@UBEPAV12@XZ 1002a700 f i BNC_Graphics.obj
 0001:00029790       ??1GraphicsPath@Gdiplus@@QAE@XZ 1002a790 f i BNC_Graphics.obj
 0001:000297a0       ?AddRefCacheImage@BNC_HtmlMetaInfo@@CAPAVImage@Gdiplus@@V?$CStringT@_WV?$StrTraitMFC_DLL@_WV?$ChTraitsCRT@_W@ATL@@@@@ATL@@VCSize@@@Z 1002a7a0 f   BNC_HtmlMetaInfo.obj
 0001:00029b70       ?AddRefCacheFavicon@BNC_HtmlMetaInfo@@CAPAUHICON__@@V?$CStringT@_WV?$StrTraitMFC_DLL@_WV?$ChTraitsCRT@_W@ATL@@@@@ATL@@_N@Z 1002ab70 f   BNC_HtmlMetaInfo.obj
 0001:00029d20       ?ReleaseCache@BNC_HtmlMetaInfo@@SAXXZ 1002ad20 f   BNC_HtmlMetaInfo.obj
 0001:00029ee0       ?GetString@BNC_HtmlMetaInfo@@SA?AV?$CStringT@_WV?$StrTraitMFC_DLL@_WV?$ChTraitsCRT@_W@ATL@@@@@ATL@@AAV23@HV23@1@Z 1002aee0 f   BNC_HtmlMetaInfo.obj
 0001:00029f90       ?GetProperty@BNC_HtmlMetaInfo@@SA?AV?$CStringT@_WV?$StrTraitMFC_DLL@_WV?$ChTraitsCRT@_W@ATL@@@@@ATL@@AAV23@HV23@@Z 1002af90 f   BNC_HtmlMetaInfo.obj
 0001:0002a170       ??0BNC_HtmlMetaInfo@@QAE@V?$CStringT@_WV?$StrTraitMFC_DLL@_WV?$ChTraitsCRT@_W@ATL@@@@@ATL@@@Z 1002b170 f   BNC_HtmlMetaInfo.obj
 0001:0002a260       ??1BNC_HtmlMetaInfo@@QAE@XZ 1002b260 f   BNC_HtmlMetaInfo.obj
 0001:0002a2b0       ?Load@BNC_HtmlMetaInfo@@AAE_NAAV?$CStringT@_WV?$StrTraitMFC_DLL@_WV?$ChTraitsCRT@_W@ATL@@@@@ATL@@0@Z 1002b2b0 f   BNC_HtmlMetaInfo.obj
 0001:0002a670       ?Update@BNC_HtmlMetaInfo@@AAEXAAV?$CStringT@_WV?$StrTraitMFC_DLL@_WV?$ChTraitsCRT@_W@ATL@@@@@ATL@@@Z 1002b670 f   BNC_HtmlMetaInfo.obj
 0001:0002abf0       ?DownLoad@BNC_HtmlMetaInfo@@AAE_NV?$CStringT@_WV?$StrTraitMFC_DLL@_WV?$ChTraitsCRT@_W@ATL@@@@@ATL@@0@Z 1002bbf0 f   BNC_HtmlMetaInfo.obj
 0001:0002af70       ?DownloadImage@BNC_HtmlMetaInfo@@QAE_NV?$CStringT@_WV?$StrTraitMFC_DLL@_WV?$ChTraitsCRT@_W@ATL@@@@@ATL@@VCSize@@@Z 1002bf70 f   BNC_HtmlMetaInfo.obj
 0001:0002b080       ?DownloadFavicon@BNC_HtmlMetaInfo@@QAE_NV?$CStringT@_WV?$StrTraitMFC_DLL@_WV?$ChTraitsCRT@_W@ATL@@@@@ATL@@@Z 1002c080 f   BNC_HtmlMetaInfo.obj
 0001:0002b190       ?DownloadFavicon2@BNC_HtmlMetaInfo@@QAE_NV?$CStringT@_WV?$StrTraitMFC_DLL@_WV?$ChTraitsCRT@_W@ATL@@@@@ATL@@@Z 1002c190 f   BNC_HtmlMetaInfo.obj
 0001:0002b2a0       ?erase@?$_Tree@V?$_Tmap_traits@V?$CStringT@_WV?$StrTraitMFC_DLL@_WV?$ChTraitsCRT@_W@ATL@@@@@ATL@@PAVImage@Gdiplus@@U?$less@V?$CStringT@_WV?$StrTraitMFC_DLL@_WV?$ChTraitsCRT@_W@ATL@@@@@ATL@@@std@@V?$allocator@U?$pair@$$CBV?$CStringT@_WV?$StrTraitMFC_DLL@_WV?$ChTraitsCRT@_W@ATL@@@@@ATL@@PAVImage@Gdiplus@@@std@@@6@$0A@@std@@@std@@QAE?AV?$_Tree_iterator@V?$_Tree_val@U?$_Tree_simple_types@U?$pair@$$CBV?$CStringT@_WV?$StrTraitMFC_DLL@_WV?$ChTraitsCRT@_W@ATL@@@@@ATL@@PAVImage@Gdiplus@@@std@@@std@@@std@@@2@V?$_Tree_const_iterator@V?$_Tree_val@U?$_Tree_simple_types@U?$pair@$$CBV?$CStringT@_WV?$StrTraitMFC_DLL@_WV?$ChTraitsCRT@_W@ATL@@@@@ATL@@PAVImage@Gdiplus@@@std@@@std@@@std@@@2@0@Z 1002c2a0 f i BNC_HtmlMetaInfo.obj
 0001:0002b370       ?_Lbound@?$_Tree@V?$_Tmap_traits@V?$CStringT@_WV?$StrTraitMFC_DLL@_WV?$ChTraitsCRT@_W@ATL@@@@@ATL@@PAVImage@Gdiplus@@U?$less@V?$CStringT@_WV?$StrTraitMFC_DLL@_WV?$ChTraitsCRT@_W@ATL@@@@@ATL@@@std@@V?$allocator@U?$pair@$$CBV?$CStringT@_WV?$StrTraitMFC_DLL@_WV?$ChTraitsCRT@_W@ATL@@@@@ATL@@PAVImage@Gdiplus@@@std@@@6@$0A@@std@@@std@@IAEPAU?$_Tree_node@U?$pair@$$CBV?$CStringT@_WV?$StrTraitMFC_DLL@_WV?$ChTraitsCRT@_W@ATL@@@@@ATL@@PAVImage@Gdiplus@@@std@@PAX@2@ABV?$CStringT@_WV?$StrTraitMFC_DLL@_WV?$ChTraitsCRT@_W@ATL@@@@@ATL@@@Z 1002c370 f i BNC_HtmlMetaInfo.obj
 0001:0002b3c0       ?erase@?$_Tree@V?$_Tmap_traits@V?$CStringT@_WV?$StrTraitMFC_DLL@_WV?$ChTraitsCRT@_W@ATL@@@@@ATL@@PAUHICON__@@U?$less@V?$CStringT@_WV?$StrTraitMFC_DLL@_WV?$ChTraitsCRT@_W@ATL@@@@@ATL@@@std@@V?$allocator@U?$pair@$$CBV?$CStringT@_WV?$StrTraitMFC_DLL@_WV?$ChTraitsCRT@_W@ATL@@@@@ATL@@PAUHICON__@@@std@@@5@$0A@@std@@@std@@QAE?AV?$_Tree_iterator@V?$_Tree_val@U?$_Tree_simple_types@U?$pair@$$CBV?$CStringT@_WV?$StrTraitMFC_DLL@_WV?$ChTraitsCRT@_W@ATL@@@@@ATL@@PAUHICON__@@@std@@@std@@@std@@@2@V?$_Tree_const_iterator@V?$_Tree_val@U?$_Tree_simple_types@U?$pair@$$CBV?$CStringT@_WV?$StrTraitMFC_DLL@_WV?$ChTraitsCRT@_W@ATL@@@@@ATL@@PAUHICON__@@@std@@@std@@@std@@@2@0@Z 1002c3c0 f i BNC_HtmlMetaInfo.obj
 0001:0002b490       ?_Lbound@?$_Tree@V?$_Tmap_traits@V?$CStringT@_WV?$StrTraitMFC_DLL@_WV?$ChTraitsCRT@_W@ATL@@@@@ATL@@PAUHICON__@@U?$less@V?$CStringT@_WV?$StrTraitMFC_DLL@_WV?$ChTraitsCRT@_W@ATL@@@@@ATL@@@std@@V?$allocator@U?$pair@$$CBV?$CStringT@_WV?$StrTraitMFC_DLL@_WV?$ChTraitsCRT@_W@ATL@@@@@ATL@@PAUHICON__@@@std@@@5@$0A@@std@@@std@@IAEPAU?$_Tree_node@U?$pair@$$CBV?$CStringT@_WV?$StrTraitMFC_DLL@_WV?$ChTraitsCRT@_W@ATL@@@@@ATL@@PAUHICON__@@@std@@PAX@2@ABV?$CStringT@_WV?$StrTraitMFC_DLL@_WV?$ChTraitsCRT@_W@ATL@@@@@ATL@@@Z 1002c490 f i BNC_HtmlMetaInfo.obj
 0001:0002b4e0       ?erase@?$_Tree@V?$_Tmap_traits@V?$CStringT@_WV?$StrTraitMFC_DLL@_WV?$ChTraitsCRT@_W@ATL@@@@@ATL@@PAVImage@Gdiplus@@U?$less@V?$CStringT@_WV?$StrTraitMFC_DLL@_WV?$ChTraitsCRT@_W@ATL@@@@@ATL@@@std@@V?$allocator@U?$pair@$$CBV?$CStringT@_WV?$StrTraitMFC_DLL@_WV?$ChTraitsCRT@_W@ATL@@@@@ATL@@PAVImage@Gdiplus@@@std@@@6@$0A@@std@@@std@@QAE?AV?$_Tree_iterator@V?$_Tree_val@U?$_Tree_simple_types@U?$pair@$$CBV?$CStringT@_WV?$StrTraitMFC_DLL@_WV?$ChTraitsCRT@_W@ATL@@@@@ATL@@PAVImage@Gdiplus@@@std@@@std@@@std@@@2@V?$_Tree_const_iterator@V?$_Tree_val@U?$_Tree_simple_types@U?$pair@$$CBV?$CStringT@_WV?$StrTraitMFC_DLL@_WV?$ChTraitsCRT@_W@ATL@@@@@ATL@@PAVImage@Gdiplus@@@std@@@std@@@std@@@2@@Z 1002c4e0 f i BNC_HtmlMetaInfo.obj
 0001:0002b750       ?erase@?$_Tree@V?$_Tmap_traits@V?$CStringT@_WV?$StrTraitMFC_DLL@_WV?$ChTraitsCRT@_W@ATL@@@@@ATL@@PAUHICON__@@U?$less@V?$CStringT@_WV?$StrTraitMFC_DLL@_WV?$ChTraitsCRT@_W@ATL@@@@@ATL@@@std@@V?$allocator@U?$pair@$$CBV?$CStringT@_WV?$StrTraitMFC_DLL@_WV?$ChTraitsCRT@_W@ATL@@@@@ATL@@PAUHICON__@@@std@@@5@$0A@@std@@@std@@QAE?AV?$_Tree_iterator@V?$_Tree_val@U?$_Tree_simple_types@U?$pair@$$CBV?$CStringT@_WV?$StrTraitMFC_DLL@_WV?$ChTraitsCRT@_W@ATL@@@@@ATL@@PAUHICON__@@@std@@@std@@@std@@@2@V?$_Tree_const_iterator@V?$_Tree_val@U?$_Tree_simple_types@U?$pair@$$CBV?$CStringT@_WV?$StrTraitMFC_DLL@_WV?$ChTraitsCRT@_W@ATL@@@@@ATL@@PAUHICON__@@@std@@@std@@@std@@@2@@Z 1002c750 f i BNC_HtmlMetaInfo.obj
 0001:0002b9c0       ?_Lrotate@?$_Tree@V?$_Tmap_traits@V?$CStringT@_WV?$StrTraitMFC_DLL@_WV?$ChTraitsCRT@_W@ATL@@@@@ATL@@PAVImage@Gdiplus@@U?$less@V?$CStringT@_WV?$StrTraitMFC_DLL@_WV?$ChTraitsCRT@_W@ATL@@@@@ATL@@@std@@V?$allocator@U?$pair@$$CBV?$CStringT@_WV?$StrTraitMFC_DLL@_WV?$ChTraitsCRT@_W@ATL@@@@@ATL@@PAVImage@Gdiplus@@@std@@@6@$0A@@std@@@std@@IAEXPAU?$_Tree_node@U?$pair@$$CBV?$CStringT@_WV?$StrTraitMFC_DLL@_WV?$ChTraitsCRT@_W@ATL@@@@@ATL@@PAVImage@Gdiplus@@@std@@PAX@2@@Z 1002c9c0 f i BNC_HtmlMetaInfo.obj
 0001:0002ba20       ?_Rrotate@?$_Tree@V?$_Tmap_traits@V?$CStringT@_WV?$StrTraitMFC_DLL@_WV?$ChTraitsCRT@_W@ATL@@@@@ATL@@PAVImage@Gdiplus@@U?$less@V?$CStringT@_WV?$StrTraitMFC_DLL@_WV?$ChTraitsCRT@_W@ATL@@@@@ATL@@@std@@V?$allocator@U?$pair@$$CBV?$CStringT@_WV?$StrTraitMFC_DLL@_WV?$ChTraitsCRT@_W@ATL@@@@@ATL@@PAVImage@Gdiplus@@@std@@@6@$0A@@std@@@std@@IAEXPAU?$_Tree_node@U?$pair@$$CBV?$CStringT@_WV?$StrTraitMFC_DLL@_WV?$ChTraitsCRT@_W@ATL@@@@@ATL@@PAVImage@Gdiplus@@@std@@PAX@2@@Z 1002ca20 f i BNC_HtmlMetaInfo.obj
 0001:0002ba80       ?_Lrotate@?$_Tree@V?$_Tmap_traits@V?$CStringT@_WV?$StrTraitMFC_DLL@_WV?$ChTraitsCRT@_W@ATL@@@@@ATL@@PAUHICON__@@U?$less@V?$CStringT@_WV?$StrTraitMFC_DLL@_WV?$ChTraitsCRT@_W@ATL@@@@@ATL@@@std@@V?$allocator@U?$pair@$$CBV?$CStringT@_WV?$StrTraitMFC_DLL@_WV?$ChTraitsCRT@_W@ATL@@@@@ATL@@PAUHICON__@@@std@@@5@$0A@@std@@@std@@IAEXPAU?$_Tree_node@U?$pair@$$CBV?$CStringT@_WV?$StrTraitMFC_DLL@_WV?$ChTraitsCRT@_W@ATL@@@@@ATL@@PAUHICON__@@@std@@PAX@2@@Z 1002ca80 f i BNC_HtmlMetaInfo.obj
 0001:0002bae0       ?_Rrotate@?$_Tree@V?$_Tmap_traits@V?$CStringT@_WV?$StrTraitMFC_DLL@_WV?$ChTraitsCRT@_W@ATL@@@@@ATL@@PAUHICON__@@U?$less@V?$CStringT@_WV?$StrTraitMFC_DLL@_WV?$ChTraitsCRT@_W@ATL@@@@@ATL@@@std@@V?$allocator@U?$pair@$$CBV?$CStringT@_WV?$StrTraitMFC_DLL@_WV?$ChTraitsCRT@_W@ATL@@@@@ATL@@PAUHICON__@@@std@@@5@$0A@@std@@@std@@IAEXPAU?$_Tree_node@U?$pair@$$CBV?$CStringT@_WV?$StrTraitMFC_DLL@_WV?$ChTraitsCRT@_W@ATL@@@@@ATL@@PAUHICON__@@@std@@PAX@2@@Z 1002cae0 f i BNC_HtmlMetaInfo.obj
 0001:0002bb40       ??$make_pair@AAV?$CStringT@_WV?$StrTraitMFC_DLL@_WV?$ChTraitsCRT@_W@ATL@@@@@ATL@@AAPAUHICON__@@@std@@YA?AU?$pair@V?$CStringT@_WV?$StrTraitMFC_DLL@_WV?$ChTraitsCRT@_W@ATL@@@@@ATL@@PAUHICON__@@@0@AAV?$CStringT@_WV?$StrTraitMFC_DLL@_WV?$ChTraitsCRT@_W@ATL@@@@@ATL@@AAPAUHICON__@@@Z 1002cb40 f i BNC_HtmlMetaInfo.obj
 0001:0002bb40       ??$make_pair@AAV?$CStringT@_WV?$StrTraitMFC_DLL@_WV?$ChTraitsCRT@_W@ATL@@@@@ATL@@AAPAVImage@Gdiplus@@@std@@YA?AU?$pair@V?$CStringT@_WV?$StrTraitMFC_DLL@_WV?$ChTraitsCRT@_W@ATL@@@@@ATL@@PAVImage@Gdiplus@@@0@AAV?$CStringT@_WV?$StrTraitMFC_DLL@_WV?$ChTraitsCRT@_W@ATL@@@@@ATL@@AAPAVImage@Gdiplus@@@Z 1002cb40 f i BNC_HtmlMetaInfo.obj
 0001:0002bb40       ??$make_pair@AAV?$CStringT@_WV?$StrTraitMFC_DLL@_WV?$ChTraitsCRT@_W@ATL@@@@@ATL@@AAPAVBNC_ReferenceItemExOption@@@std@@YA?AU?$pair@V?$CStringT@_WV?$StrTraitMFC_DLL@_WV?$ChTraitsCRT@_W@ATL@@@@@ATL@@PAVBNC_ReferenceItemExOption@@@0@AAV?$CStringT@_WV?$StrTraitMFC_DLL@_WV?$ChTraitsCRT@_W@ATL@@@@@ATL@@AAPAVBNC_ReferenceItemExOption@@@Z 1002cb40 f i BNC_RefListControlEx.obj
 0001:0002bb70       ??$_Buynode@U?$pair@V?$CStringT@_WV?$StrTraitMFC_DLL@_WV?$ChTraitsCRT@_W@ATL@@@@@ATL@@PAVImage@Gdiplus@@@std@@@?$_Tree_buy@U?$pair@$$CBV?$CStringT@_WV?$StrTraitMFC_DLL@_WV?$ChTraitsCRT@_W@ATL@@@@@ATL@@PAVImage@Gdiplus@@@std@@V?$allocator@U?$pair@$$CBV?$CStringT@_WV?$StrTraitMFC_DLL@_WV?$ChTraitsCRT@_W@ATL@@@@@ATL@@PAVImage@Gdiplus@@@std@@@2@@std@@QAEPAU?$_Tree_node@U?$pair@$$CBV?$CStringT@_WV?$StrTraitMFC_DLL@_WV?$ChTraitsCRT@_W@ATL@@@@@ATL@@PAVImage@Gdiplus@@@std@@PAX@1@$$QAU?$pair@V?$CStringT@_WV?$StrTraitMFC_DLL@_WV?$ChTraitsCRT@_W@ATL@@@@@ATL@@PAVImage@Gdiplus@@@1@@Z 1002cb70 f i BNC_HtmlMetaInfo.obj
 0001:0002bc00       ??$_Insert_nohint@AAU?$pair@$$CBV?$CStringT@_WV?$StrTraitMFC_DLL@_WV?$ChTraitsCRT@_W@ATL@@@@@ATL@@PAVImage@Gdiplus@@@std@@PAU?$_Tree_node@U?$pair@$$CBV?$CStringT@_WV?$StrTraitMFC_DLL@_WV?$ChTraitsCRT@_W@ATL@@@@@ATL@@PAVImage@Gdiplus@@@std@@PAX@2@@?$_Tree@V?$_Tmap_traits@V?$CStringT@_WV?$StrTraitMFC_DLL@_WV?$ChTraitsCRT@_W@ATL@@@@@ATL@@PAVImage@Gdiplus@@U?$less@V?$CStringT@_WV?$StrTraitMFC_DLL@_WV?$ChTraitsCRT@_W@ATL@@@@@ATL@@@std@@V?$allocator@U?$pair@$$CBV?$CStringT@_WV?$StrTraitMFC_DLL@_WV?$ChTraitsCRT@_W@ATL@@@@@ATL@@PAVImage@Gdiplus@@@std@@@6@$0A@@std@@@std@@IAE?AU?$pair@V?$_Tree_iterator@V?$_Tree_val@U?$_Tree_simple_types@U?$pair@$$CBV?$CStringT@_WV?$StrTraitMFC_DLL@_WV?$ChTraitsCRT@_W@ATL@@@@@ATL@@PAVImage@Gdiplus@@@std@@@std@@@std@@@std@@_N@1@_NAAU?$pair@$$CBV?$CStringT@_WV?$StrTraitMFC_DLL@_WV?$ChTraitsCRT@_W@ATL@@@@@ATL@@PAVImage@Gdiplus@@@1@PAU?$_Tree_node@U?$pair@$$CBV?$CStringT@_WV?$StrTraitMFC_DLL@_WV?$ChTraitsCRT@_W@ATL@@@@@ATL@@PAVImage@Gdiplus@@@std@@PAX@1@@Z 1002cc00 f i BNC_HtmlMetaInfo.obj
 0001:0002bd50       ??$_Buynode@U?$pair@V?$CStringT@_WV?$StrTraitMFC_DLL@_WV?$ChTraitsCRT@_W@ATL@@@@@ATL@@PAUHICON__@@@std@@@?$_Tree_buy@U?$pair@$$CBV?$CStringT@_WV?$StrTraitMFC_DLL@_WV?$ChTraitsCRT@_W@ATL@@@@@ATL@@PAUHICON__@@@std@@V?$allocator@U?$pair@$$CBV?$CStringT@_WV?$StrTraitMFC_DLL@_WV?$ChTraitsCRT@_W@ATL@@@@@ATL@@PAUHICON__@@@std@@@2@@std@@QAEPAU?$_Tree_node@U?$pair@$$CBV?$CStringT@_WV?$StrTraitMFC_DLL@_WV?$ChTraitsCRT@_W@ATL@@@@@ATL@@PAUHICON__@@@std@@PAX@1@$$QAU?$pair@V?$CStringT@_WV?$StrTraitMFC_DLL@_WV?$ChTraitsCRT@_W@ATL@@@@@ATL@@PAUHICON__@@@1@@Z 1002cd50 f i BNC_HtmlMetaInfo.obj
 0001:0002bde0       ??$_Insert_nohint@AAU?$pair@$$CBV?$CStringT@_WV?$StrTraitMFC_DLL@_WV?$ChTraitsCRT@_W@ATL@@@@@ATL@@PAUHICON__@@@std@@PAU?$_Tree_node@U?$pair@$$CBV?$CStringT@_WV?$StrTraitMFC_DLL@_WV?$ChTraitsCRT@_W@ATL@@@@@ATL@@PAUHICON__@@@std@@PAX@2@@?$_Tree@V?$_Tmap_traits@V?$CStringT@_WV?$StrTraitMFC_DLL@_WV?$ChTraitsCRT@_W@ATL@@@@@ATL@@PAUHICON__@@U?$less@V?$CStringT@_WV?$StrTraitMFC_DLL@_WV?$ChTraitsCRT@_W@ATL@@@@@ATL@@@std@@V?$allocator@U?$pair@$$CBV?$CStringT@_WV?$StrTraitMFC_DLL@_WV?$ChTraitsCRT@_W@ATL@@@@@ATL@@PAUHICON__@@@std@@@5@$0A@@std@@@std@@IAE?AU?$pair@V?$_Tree_iterator@V?$_Tree_val@U?$_Tree_simple_types@U?$pair@$$CBV?$CStringT@_WV?$StrTraitMFC_DLL@_WV?$ChTraitsCRT@_W@ATL@@@@@ATL@@PAUHICON__@@@std@@@std@@@std@@@std@@_N@1@_NAAU?$pair@$$CBV?$CStringT@_WV?$StrTraitMFC_DLL@_WV?$ChTraitsCRT@_W@ATL@@@@@ATL@@PAUHICON__@@@1@PAU?$_Tree_node@U?$pair@$$CBV?$CStringT@_WV?$StrTraitMFC_DLL@_WV?$ChTraitsCRT@_W@ATL@@@@@ATL@@PAUHICON__@@@std@@PAX@1@@Z 1002cde0 f i BNC_HtmlMetaInfo.obj
 0001:0002bf30       ?_Destroy_if_not_nil@?$_Tree@V?$_Tmap_traits@V?$CStringT@_WV?$StrTraitMFC_DLL@_WV?$ChTraitsCRT@_W@ATL@@@@@ATL@@PAVBNC_ReferenceItem@@U?$less@V?$CStringT@_WV?$StrTraitMFC_DLL@_WV?$ChTraitsCRT@_W@ATL@@@@@ATL@@@std@@V?$allocator@U?$pair@$$CBV?$CStringT@_WV?$StrTraitMFC_DLL@_WV?$ChTraitsCRT@_W@ATL@@@@@ATL@@PAVBNC_ReferenceItem@@@std@@@5@$0A@@std@@@std@@IAEXPAU?$_Tree_node@U?$pair@$$CBV?$CStringT@_WV?$StrTraitMFC_DLL@_WV?$ChTraitsCRT@_W@ATL@@@@@ATL@@PAVBNC_ReferenceItem@@@std@@PAX@2@@Z 1002cf30 f i BNC_RefListControl.obj
 0001:0002bf30       ?_Destroy_if_not_nil@?$_Tree@V?$_Tmap_traits@V?$CStringT@_WV?$StrTraitMFC_DLL@_WV?$ChTraitsCRT@_W@ATL@@@@@ATL@@PAVBNC_ReferenceItemExOption@@U?$less@V?$CStringT@_WV?$StrTraitMFC_DLL@_WV?$ChTraitsCRT@_W@ATL@@@@@ATL@@@std@@V?$allocator@U?$pair@$$CBV?$CStringT@_WV?$StrTraitMFC_DLL@_WV?$ChTraitsCRT@_W@ATL@@@@@ATL@@PAVBNC_ReferenceItemExOption@@@std@@@5@$0A@@std@@@std@@IAEXPAU?$_Tree_node@U?$pair@$$CBV?$CStringT@_WV?$StrTraitMFC_DLL@_WV?$ChTraitsCRT@_W@ATL@@@@@ATL@@PAVBNC_ReferenceItemExOption@@@std@@PAX@2@@Z 1002cf30 f i BNC_RefListControlEx.obj
 0001:0002bf30       ?_Destroy_if_not_nil@?$_Tree@V?$_Tmap_traits@V?$CStringT@_WV?$StrTraitMFC_DLL@_WV?$ChTraitsCRT@_W@ATL@@@@@ATL@@PAVImage@Gdiplus@@U?$less@V?$CStringT@_WV?$StrTraitMFC_DLL@_WV?$ChTraitsCRT@_W@ATL@@@@@ATL@@@std@@V?$allocator@U?$pair@$$CBV?$CStringT@_WV?$StrTraitMFC_DLL@_WV?$ChTraitsCRT@_W@ATL@@@@@ATL@@PAVImage@Gdiplus@@@std@@@6@$0A@@std@@@std@@IAEXPAU?$_Tree_node@U?$pair@$$CBV?$CStringT@_WV?$StrTraitMFC_DLL@_WV?$ChTraitsCRT@_W@ATL@@@@@ATL@@PAVImage@Gdiplus@@@std@@PAX@2@@Z 1002cf30 f i BNC_HtmlMetaInfo.obj
 0001:0002bf30       ?_Destroy_if_not_nil@?$_Tree@V?$_Tmap_traits@V?$CStringT@_WV?$StrTraitMFC_DLL@_WV?$ChTraitsCRT@_W@ATL@@@@@ATL@@PAVBNC_ReferenceItemEx@@U?$less@V?$CStringT@_WV?$StrTraitMFC_DLL@_WV?$ChTraitsCRT@_W@ATL@@@@@ATL@@@std@@V?$allocator@U?$pair@$$CBV?$CStringT@_WV?$StrTraitMFC_DLL@_WV?$ChTraitsCRT@_W@ATL@@@@@ATL@@PAVBNC_ReferenceItemEx@@@std@@@5@$0A@@std@@@std@@IAEXPAU?$_Tree_node@U?$pair@$$CBV?$CStringT@_WV?$StrTraitMFC_DLL@_WV?$ChTraitsCRT@_W@ATL@@@@@ATL@@PAVBNC_ReferenceItemEx@@@std@@PAX@2@@Z 1002cf30 f i BNC_RefListControlEx.obj
 0001:0002bf30       ?_Destroy_if_not_nil@?$_Tree@V?$_Tmap_traits@V?$CStringT@_WV?$StrTraitMFC_DLL@_WV?$ChTraitsCRT@_W@ATL@@@@@ATL@@PAUHICON__@@U?$less@V?$CStringT@_WV?$StrTraitMFC_DLL@_WV?$ChTraitsCRT@_W@ATL@@@@@ATL@@@std@@V?$allocator@U?$pair@$$CBV?$CStringT@_WV?$StrTraitMFC_DLL@_WV?$ChTraitsCRT@_W@ATL@@@@@ATL@@PAUHICON__@@@std@@@5@$0A@@std@@@std@@IAEXPAU?$_Tree_node@U?$pair@$$CBV?$CStringT@_WV?$StrTraitMFC_DLL@_WV?$ChTraitsCRT@_W@ATL@@@@@ATL@@PAUHICON__@@@std@@PAX@2@@Z 1002cf30 f i BNC_HtmlMetaInfo.obj
 0001:0002bf50       ?_Buynode0@?$_Tree_buy@U?$pair@$$CBV?$CStringT@_WV?$StrTraitMFC_DLL@_WV?$ChTraitsCRT@_W@ATL@@@@@ATL@@PAVImage@Gdiplus@@@std@@V?$allocator@U?$pair@$$CBV?$CStringT@_WV?$StrTraitMFC_DLL@_WV?$ChTraitsCRT@_W@ATL@@@@@ATL@@PAVImage@Gdiplus@@@std@@@2@@std@@QAEPAU?$_Tree_node@U?$pair@$$CBV?$CStringT@_WV?$StrTraitMFC_DLL@_WV?$ChTraitsCRT@_W@ATL@@@@@ATL@@PAVImage@Gdiplus@@@std@@PAX@2@XZ 1002cf50 f i BNC_HtmlMetaInfo.obj
 0001:0002bf90       ?_Buynode0@?$_Tree_buy@U?$pair@$$CBV?$CStringT@_WV?$StrTraitMFC_DLL@_WV?$ChTraitsCRT@_W@ATL@@@@@ATL@@PAUHICON__@@@std@@V?$allocator@U?$pair@$$CBV?$CStringT@_WV?$StrTraitMFC_DLL@_WV?$ChTraitsCRT@_W@ATL@@@@@ATL@@PAUHICON__@@@std@@@2@@std@@QAEPAU?$_Tree_node@U?$pair@$$CBV?$CStringT@_WV?$StrTraitMFC_DLL@_WV?$ChTraitsCRT@_W@ATL@@@@@ATL@@PAUHICON__@@@std@@PAX@2@XZ 1002cf90 f i BNC_HtmlMetaInfo.obj
 0001:0002bfe0       ??$_Insert_at@AAU?$pair@$$CBV?$CStringT@_WV?$StrTraitMFC_DLL@_WV?$ChTraitsCRT@_W@ATL@@@@@ATL@@PAVImage@Gdiplus@@@std@@PAU?$_Tree_node@U?$pair@$$CBV?$CStringT@_WV?$StrTraitMFC_DLL@_WV?$ChTraitsCRT@_W@ATL@@@@@ATL@@PAVImage@Gdiplus@@@std@@PAX@2@@?$_Tree@V?$_Tmap_traits@V?$CStringT@_WV?$StrTraitMFC_DLL@_WV?$ChTraitsCRT@_W@ATL@@@@@ATL@@PAVImage@Gdiplus@@U?$less@V?$CStringT@_WV?$StrTraitMFC_DLL@_WV?$ChTraitsCRT@_W@ATL@@@@@ATL@@@std@@V?$allocator@U?$pair@$$CBV?$CStringT@_WV?$StrTraitMFC_DLL@_WV?$ChTraitsCRT@_W@ATL@@@@@ATL@@PAVImage@Gdiplus@@@std@@@6@$0A@@std@@@std@@IAE?AV?$_Tree_iterator@V?$_Tree_val@U?$_Tree_simple_types@U?$pair@$$CBV?$CStringT@_WV?$StrTraitMFC_DLL@_WV?$ChTraitsCRT@_W@ATL@@@@@ATL@@PAVImage@Gdiplus@@@std@@@std@@@std@@@1@_NPAU?$_Tree_node@U?$pair@$$CBV?$CStringT@_WV?$StrTraitMFC_DLL@_WV?$ChTraitsCRT@_W@ATL@@@@@ATL@@PAVImage@Gdiplus@@@std@@PAX@1@AAU?$pair@$$CBV?$CStringT@_WV?$StrTraitMFC_DLL@_WV?$ChTraitsCRT@_W@ATL@@@@@ATL@@PAVImage@Gdiplus@@@1@1@Z 1002cfe0 f i BNC_HtmlMetaInfo.obj
 0001:0002c1a0       ??$_Insert_at@AAU?$pair@$$CBV?$CStringT@_WV?$StrTraitMFC_DLL@_WV?$ChTraitsCRT@_W@ATL@@@@@ATL@@PAUHICON__@@@std@@PAU?$_Tree_node@U?$pair@$$CBV?$CStringT@_WV?$StrTraitMFC_DLL@_WV?$ChTraitsCRT@_W@ATL@@@@@ATL@@PAUHICON__@@@std@@PAX@2@@?$_Tree@V?$_Tmap_traits@V?$CStringT@_WV?$StrTraitMFC_DLL@_WV?$ChTraitsCRT@_W@ATL@@@@@ATL@@PAUHICON__@@U?$less@V?$CStringT@_WV?$StrTraitMFC_DLL@_WV?$ChTraitsCRT@_W@ATL@@@@@ATL@@@std@@V?$allocator@U?$pair@$$CBV?$CStringT@_WV?$StrTraitMFC_DLL@_WV?$ChTraitsCRT@_W@ATL@@@@@ATL@@PAUHICON__@@@std@@@5@$0A@@std@@@std@@IAE?AV?$_Tree_iterator@V?$_Tree_val@U?$_Tree_simple_types@U?$pair@$$CBV?$CStringT@_WV?$StrTraitMFC_DLL@_WV?$ChTraitsCRT@_W@ATL@@@@@ATL@@PAUHICON__@@@std@@@std@@@std@@@1@_NPAU?$_Tree_node@U?$pair@$$CBV?$CStringT@_WV?$StrTraitMFC_DLL@_WV?$ChTraitsCRT@_W@ATL@@@@@ATL@@PAUHICON__@@@std@@PAX@1@AAU?$pair@$$CBV?$CStringT@_WV?$StrTraitMFC_DLL@_WV?$ChTraitsCRT@_W@ATL@@@@@ATL@@PAUHICON__@@@1@1@Z 1002d1a0 f i BNC_HtmlMetaInfo.obj
 0001:0002c360       ?AtlW2AHelper@@YGPADPADPB_WHI@Z 1002d360 f i BNC_HtmlMetaInfo.obj
 0001:0002c3a0       ??0BNC_HyperLink@@QAE@XZ   1002d3a0 f   BNC_HyperLink.obj
 0001:0002c7c0       ??1BNC_HyperLink@@QAE@XZ   1002d7c0 f   BNC_HyperLink.obj
 0001:0002c830       ?GetHyperLink@BNC_HyperLink@@QAE_NV?$CStringT@_WV?$StrTraitMFC_DLL@_WV?$ChTraitsCRT@_W@ATL@@@@@ATL@@AAV23@@Z 1002d830 f   BNC_HyperLink.obj
 0001:0002ccf0       ?GetHyperLinkTrim@BNC_HyperLink@@QAE_NAAV?$CStringT@_WV?$StrTraitMFC_DLL@_WV?$ChTraitsCRT@_W@ATL@@@@@ATL@@AAH1@Z 1002dcf0 f   BNC_HyperLink.obj
 0001:0002d040       ?GetHyperLinkTrimEx@BNC_HyperLink@@QAE_NAAV?$CStringT@_WV?$StrTraitMFC_DLL@_WV?$ChTraitsCRT@_W@ATL@@@@@ATL@@AAH1@Z 1002e040 f   BNC_HyperLink.obj
 0001:0002d3f0       ?push_back@?$vector@V?$CStringT@_WV?$StrTraitMFC_DLL@_WV?$ChTraitsCRT@_W@ATL@@@@@ATL@@V?$allocator@V?$CStringT@_WV?$StrTraitMFC_DLL@_WV?$ChTraitsCRT@_W@ATL@@@@@ATL@@@std@@@std@@QAEX$$QAV?$CStringT@_WV?$StrTraitMFC_DLL@_WV?$ChTraitsCRT@_W@ATL@@@@@ATL@@@Z 1002e3f0 f i BNC_HyperLink.obj
 0001:0002d3f0       ?push_back@?$vector@V?$CStringT@_WV?$StrTraitMFC_DLL@_WV?$ChTraitsCRT@_W@ATL@@@@@ATL@@V?$allocator@V?$CStringT@_WV?$StrTraitMFC_DLL@_WV?$ChTraitsCRT@_W@ATL@@@@@ATL@@@std@@@std@@QAEXABV?$CStringT@_WV?$StrTraitMFC_DLL@_WV?$ChTraitsCRT@_W@ATL@@@@@ATL@@@Z 1002e3f0 f i BNC_ReferenceItemEx.obj
 0001:0002d490       ?_Reallocate@?$vector@V?$CStringT@_WV?$StrTraitMFC_DLL@_WV?$ChTraitsCRT@_W@ATL@@@@@ATL@@V?$allocator@V?$CStringT@_WV?$StrTraitMFC_DLL@_WV?$ChTraitsCRT@_W@ATL@@@@@ATL@@@std@@@std@@IAEXI@Z 1002e490 f i BNC_HyperLink.obj
 0001:0002d580       ?_Reserve@?$vector@V?$CStringT@_WV?$StrTraitMFC_DLL@_WV?$ChTraitsCRT@_W@ATL@@@@@ATL@@V?$allocator@V?$CStringT@_WV?$StrTraitMFC_DLL@_WV?$ChTraitsCRT@_W@ATL@@@@@ATL@@@std@@@std@@IAEXI@Z 1002e580 f i BNC_HyperLink.obj
 0001:0002d5f0       ?SetMonitorInfo@BNC_MagnetEffect@@SAXXZ 1002e5f0 f   BNC_MagnetEffect.obj
 0001:0002d660       ?AddTargetWindow@BNC_MagnetEffect@@CAXVCRect@@@Z 1002e660 f   BNC_MagnetEffect.obj
 0001:0002d970       ?FindTargetWindowProc@BNC_MagnetEffect@@CGHPAUHWND__@@J@Z 1002e970 f   BNC_MagnetEffect.obj
 0001:0002da60       ?CheckMagnetSegment@BNC_MagnetEffect@@CAXXZ 1002ea60 f   BNC_MagnetEffect.obj
 0001:0002dc00       ?OnWindowPosChanging@BNC_MagnetEffect@@SA_NPAUtagWINDOWPOS@@_NK@Z 1002ec00 f   BNC_MagnetEffect.obj
 0001:0002deb0       ?OnSizing@BNC_MagnetEffect@@SA_NPAVCWnd@@IPAUtagRECT@@_NK@Z 1002eeb0 f   BNC_MagnetEffect.obj
 0001:0002e1a0       ??0BNC_MouseControl@@QAE@PAUHWND__@@@Z 1002f1a0 f   BNC_MouseControl.obj
 0001:0002e210       ?IsPointIn@BNC_MouseControl@@QAE_NAAVCPoint@@@Z 1002f210 f   BNC_MouseControl.obj
 0001:0002e280       ?Update@BNC_MouseControl@@QAE_NW4BNE_MOUSESTATE@@@Z 1002f280 f   BNC_MouseControl.obj
 0001:0002e2a0       ?OnLButtonDown@BNC_MouseControl@@QAE_NIAAVCPoint@@@Z 1002f2a0 f   BNC_MouseControl.obj
 0001:0002e300       ?OnLButtonUp@BNC_MouseControl@@QAE_NIAAVCPoint@@@Z 1002f300 f   BNC_MouseControl.obj
 0001:0002e3a0       ?OnMouseMove@BNC_MouseControl@@QAE_NIAAVCPoint@@@Z 1002f3a0 f   BNC_MouseControl.obj
 0001:0002e440       ?OnCaptureChanged@BNC_MouseControl@@QAE_NPAVCWnd@@@Z 1002f440 f   BNC_MouseControl.obj
 0001:0002e480       ??0BNC_PopupMenuItem@@QAE@IW4BNE_POPUPITEM_TYPE@@IIIIIII_W@Z 1002f480 f   BNC_PopupMenuItem.obj
 0001:0002e530       ??1BNC_PopupMenuItem@@QAE@XZ 1002f530 f   BNC_PopupMenuItem.obj
 0001:0002e5d0       ?GetID@BNC_PopupMenuItem@@QAEIXZ 1002f5d0 f   BNC_PopupMenuItem.obj
 0001:0002e5e0       ?GetArea@BNC_PopupMenuItem@@QAE?AVCRect@@XZ 1002f5e0 f   BNC_PopupMenuItem.obj
 0001:0002e600       ?IsEnable@BNC_PopupMenuItem@@QAE_NXZ 1002f600 f   BNC_PopupMenuItem.obj
 0001:0002e610       ?IsCheck@BNC_PopupMenuItem@@QAE_NXZ 1002f610 f   BNC_PopupMenuItem.obj
 0001:0002e620       ?Draw@BNC_PopupMenuItem@@QAEXPAVCDC@@PAVGraphics@Gdiplus@@IHPAUBNS_TextInfo@@@Z 1002f620 f   BNC_PopupMenuItem.obj
 0001:0002e6d0       ?SetChildMenu@BNC_PopupMenuItem@@QAEXPAPAVBNC_PopupMenu@@@Z 1002f6d0 f   BNC_PopupMenuItem.obj
 0001:0002e700       ?SetText@BNC_PopupMenuItem@@QAE_NIPAUBNS_TextInfo@@PAVCDC@@_N@Z 1002f700 f   BNC_PopupMenuItem.obj
 0001:0002e900       ?SetImage@BNC_PopupMenuItem@@QAE_NIPAUBNS_ImageInfo@@@Z 1002f900 f   BNC_PopupMenuItem.obj
 0001:0002e9d0       ?GetLeftTextPtr@BNC_PopupMenuItem@@QAEPAUBNS_TextInfo@@XZ 1002f9d0 f   BNC_PopupMenuItem.obj
 0001:0002e9e0       ?GetRightTextPtr@BNC_PopupMenuItem@@QAEPAUBNS_TextInfo@@XZ 1002f9e0 f   BNC_PopupMenuItem.obj
 0001:0002e9f0       ?GetLeftImagePtr@BNC_PopupMenuItem@@QAEPAUBNS_ImageInfo@@XZ 1002f9f0 f   BNC_PopupMenuItem.obj
 0001:0002e9f0       ?GetChildFolderCount@BNC_RefTreeItemOption@@QBEIXZ 1002f9f0 f   BNC_RefTreeItemOption.obj
 0001:0002ea00       ?GetCreateCount@BNC_ReferenceItem@@SAIXZ 1002fa00 f   BNC_ReferenceItem.obj
 0001:0002ea10       ?GetAliveCount@BNC_ReferenceItem@@SAIXZ 1002fa10 f   BNC_ReferenceItem.obj
 0001:0002ea20       ??0BNC_ReferenceItem@@QAE@XZ 1002fa20 f   BNC_ReferenceItem.obj
 0001:0002eb20       ??0BNC_ReferenceItem@@QAE@III@Z 1002fb20 f   BNC_ReferenceItem.obj
 0001:0002ee90       ??0BNC_ReferenceItem@@QAE@ABV0@@Z 1002fe90 f   BNC_ReferenceItem.obj
 0001:0002ef70       ??4BNC_ReferenceItem@@QAEAAV0@ABV0@@Z 1002ff70 f   BNC_ReferenceItem.obj
 0001:0002f440       ?Clear@BNC_ReferenceItem@@AAEXXZ 10030440 f   BNC_ReferenceItem.obj
 0001:0002f520       ?ClearVarTextLine@BNC_ReferenceItem@@QAEXXZ 10030520 f   BNC_ReferenceItem.obj
 0001:0002f580       ?PushVarText@BNC_ReferenceItem@@QAEXPB_W@Z 10030580 f   BNC_ReferenceItem.obj
 0001:0002f5e0       ??1BNC_ReferenceItem@@UAE@XZ 100305e0 f   BNC_ReferenceItem.obj
 0001:0002f6d0       ?IsEnable@BNC_ReferenceItem@@QBE_NXZ 100306d0 f   BNC_ReferenceItem.obj
 0001:0002f6e0       ?SetEnable@BNC_ReferenceItem@@QAE_N_N@Z 100306e0 f   BNC_ReferenceItem.obj
 0001:0002f740       ?SetSyncRectEnable@BNC_ReferenceItem@@QAE_NI_N@Z 10030740 f   BNC_ReferenceItem.obj
 0001:0002f770       ?GetSequenceNumber@BNC_ReferenceItem@@QBEIXZ 10030770 f   BNC_ReferenceItem.obj
 0001:0002f770       ?GetExOption@BNC_ReferenceItemEx@@QBEPAVBNC_ReferenceItemExOption@@XZ 10030770 f   BNC_ReferenceItemEx.obj
 0001:0002f780       ?GetVisibleIndex@BNC_ReferenceItem@@QBEHXZ 10030780 f   BNC_ReferenceItem.obj
 0001:0002f780       ?GetExHeight@BNC_RefTreeItemOption@@QBEHXZ 10030780 f   BNC_RefTreeItemOption.obj
 0001:0002f780       ?GetSequenceNumber@BNC_ReferenceItemEx@@QBEIXZ 10030780 f   BNC_ReferenceItemEx.obj
 0001:0002f790       ?GetReferenceData@BNC_ReferenceItemEx@@QBEPAXXZ 10030790 f   BNC_ReferenceItemEx.obj
 0001:0002f790       ?GetReferenceData@BNC_ReferenceItem@@QBEPBXXZ 10030790 f   BNC_ReferenceItem.obj
 0001:0002f7a0       ?GetTextLength@BNC_Edit@@QAEHXZ 100307a0 f   BNC_Edit.obj
 0001:0002f7a0       ?GetOption@BNC_ReferenceItem@@QBEPAXXZ 100307a0 f   BNC_ReferenceItem.obj
 0001:0002f7b0       ?GetTemplate@BNC_ReferenceItem@@QBEPAXXZ 100307b0 f   BNC_ReferenceItem.obj
 0001:0002f7c0       ?GetParentItem@BNC_RefTreeItemOption@@QAEPBVBNC_ReferenceItem@@XZ 100307c0 f   BNC_RefTreeItemOption.obj
 0001:0002f7c0       ?GetSortStringCount@BNC_ReferenceItem@@QBEIXZ 100307c0 f   BNC_ReferenceItem.obj
 0001:0002f7d0       ?GetSyncRectCount@BNC_ReferenceItem@@QBEIXZ 100307d0 f   BNC_ReferenceItem.obj
 0001:0002f7d0       ?GetSortStringCount@BNC_ReferenceItemEx@@QBEIXZ 100307d0 f   BNC_ReferenceItemEx.obj
 0001:0002f7e0       ?GetItemKey@BNC_ReferenceItem@@QBEPBV?$CStringT@_WV?$StrTraitMFC_DLL@_WV?$ChTraitsCRT@_W@ATL@@@@@ATL@@XZ 100307e0 f   BNC_ReferenceItem.obj
 0001:0002f7e0       ?_Get@?$_Func_impl@U?$_Callable_obj@V<lambda_da052bd7831dd3249c270935677a0115>@@$0A@@std@@V?$allocator@V?$_Func_class@XHAAVBNC_FakeModal@@@std@@@2@XHAAVBNC_FakeModal@@@std@@EBEPBXXZ 100307e0 f   IBaronow25.obj
 0001:0002f7e0       ?GetItemKey@BNC_ReferenceItemEx@@QBEPBV?$CStringT@_WV?$StrTraitMFC_DLL@_WV?$ChTraitsCRT@_W@ATL@@@@@ATL@@XZ 100307e0 f   BNC_ReferenceItemEx.obj
 0001:0002f7f0       ?GetItemPKey@BNC_ReferenceItem@@QBEPBV?$CStringT@_WV?$StrTraitMFC_DLL@_WV?$ChTraitsCRT@_W@ATL@@@@@ATL@@XZ 100307f0 f   BNC_ReferenceItem.obj
 0001:0002f7f0       ?GetItemPKey@BNC_ReferenceItemEx@@QBEPBV?$CStringT@_WV?$StrTraitMFC_DLL@_WV?$ChTraitsCRT@_W@ATL@@@@@ATL@@XZ 100307f0 f   BNC_ReferenceItemEx.obj
 0001:0002f800       ?SetSortString@BNC_ReferenceItem@@QAE_NIV?$CStringT@_WV?$StrTraitMFC_DLL@_WV?$ChTraitsCRT@_W@ATL@@@@@ATL@@@Z 10030800 f   BNC_ReferenceItem.obj
 0001:0002f870       ?SetSyncRect@BNC_ReferenceItem@@QAE_NIAAVBNC_SyncRect@@@Z 10030870 f   BNC_ReferenceItem.obj
 0001:0002f8d0       ?ModifySyncRect@BNC_ReferenceItem@@QAE_NIAAVCRect@@@Z 100308d0 f   BNC_ReferenceItem.obj
 0001:0002f910       ?ModifySyncRect@BNC_ReferenceItem@@QAE_NIAAVCRect@@AAVCPoint@@@Z 10030910 f   BNC_ReferenceItem.obj
 0001:0002f960       ?SetItemPos@BNC_ReferenceItem@@QAEXI@Z 10030960 f   BNC_ReferenceItem.obj
 0001:0002f980       ?GetItemTop@BNC_ReferenceItem@@QBEIXZ 10030980 f   BNC_ReferenceItem.obj
 0001:0002f990       ?GetItemBottom@BNC_ReferenceItem@@QBEIXZ 10030990 f   BNC_ReferenceItem.obj
 0001:0002f9a0       ?GetSortString@BNC_ReferenceItem@@QBEPBV?$CStringT@_WV?$StrTraitMFC_DLL@_WV?$ChTraitsCRT@_W@ATL@@@@@ATL@@I@Z 100309a0 f   BNC_ReferenceItem.obj
 0001:0002f9c0       ?GetSyncRect@BNC_ReferenceItem@@QBEPBVCRect@@I@Z 100309c0 f   BNC_ReferenceItem.obj
 0001:0002f9e0       ?GetSyncRectPtr@BNC_ReferenceItem@@QBEPBVBNC_SyncRect@@I@Z 100309e0 f   BNC_ReferenceItem.obj
 0001:0002fa00       ?SetSyncRectCursor@BNC_ReferenceItem@@QBE_NI@Z 10030a00 f   BNC_ReferenceItem.obj
 0001:0002fa50       ?UpdateMouseAction@BNC_ReferenceItem@@QAE_NW4BNE_MOUSEACTION@@ABVCPoint@@@Z 10030a50 f   BNC_ReferenceItem.obj
 0001:0002fb10       ?UpdateSyncRect@BNC_ReferenceItem@@QBEXH@Z 10030b10 f   BNC_ReferenceItem.obj
 0001:0002fc70       ?GetMouseAction@BNC_ReferenceItem@@QBE?AW4BNE_MOUSEACTION@@XZ 10030c70 f   BNC_ReferenceItem.obj
 0001:0002fc80       ?GetMouseActionOld@BNC_ReferenceItem@@QBE?AW4BNE_MOUSEACTION@@XZ 10030c80 f   BNC_ReferenceItem.obj
 0001:0002fc90       ?GetParentMenu@BNC_PopupMenu@@QAEPAV1@XZ 10030c90 f   BNC_PopupMenu.obj
 0001:0002fc90       ?GetMouseRectIndex@BNC_ReferenceItem@@QBEHXZ 10030c90 f   BNC_ReferenceItem.obj
 0001:0002fca0       ?GetMouseRectIndexOld@BNC_ReferenceItem@@QBEHXZ 10030ca0 f   BNC_ReferenceItem.obj
 0001:0002fcb0       ??_EBNC_ReferenceItem@@UAEPAXI@Z 10030cb0 f i BNC_ReferenceItem.obj
 0001:0002fd10       ?GetCreateCount@BNC_ReferenceItemEx@@SAIXZ 10030d10 f   BNC_ReferenceItemEx.obj
 0001:0002fd20       ?GetAliveCount@BNC_ReferenceItemEx@@SAIXZ 10030d20 f   BNC_ReferenceItemEx.obj
 0001:0002fd30       ?GetCreateCount@BNC_ReferenceItemExOptionLine@@SAIXZ 10030d30 f   BNC_ReferenceItemEx.obj
 0001:0002fd40       ?GetAliveCount@BNC_ReferenceItemExOptionLine@@SAIXZ 10030d40 f   BNC_ReferenceItemEx.obj
 0001:0002fd50       ??0BNC_ReferenceItemExOptionLine@@QAE@XZ 10030d50 f   BNC_ReferenceItemEx.obj
 0001:0002fe80       ??1BNC_ReferenceItemExOptionLine@@UAE@XZ 10030e80 f   BNC_ReferenceItemEx.obj
 0001:0002ffa0       ??0BNC_ReferenceItemExOptionLine@@QAE@ABV0@@Z 10030fa0 f   BNC_ReferenceItemEx.obj
 0001:000300e0       ??4BNC_ReferenceItemExOptionLine@@QAEAAV0@ABV0@@Z 100310e0 f   BNC_ReferenceItemEx.obj
 0001:00030160       ?Reset@BNC_ReferenceItemExOptionLine@@QAEXXZ 10031160 f   BNC_ReferenceItemEx.obj
 0001:000302d0       ?Add@BNC_ReferenceItemExOptionLine@@QAEXV?$CStringT@_WV?$StrTraitMFC_DLL@_WV?$ChTraitsCRT@_W@ATL@@@@@ATL@@_N11I@Z 100312d0 f   BNC_ReferenceItemEx.obj
 0001:00030360       ??0BNC_ReferenceItemExOptionDrag@@QAE@XZ 10031360 f   BNC_ReferenceItemEx.obj
 0001:00030380       ??4BNC_ReferenceItemExOptionDrag@@QAEAAV0@ABV0@@Z 10031380 f   BNC_ReferenceItemEx.obj
 0001:00030380       ??0BNC_ReferenceItemExOptionDrag@@QAE@ABV0@@Z 10031380 f   BNC_ReferenceItemEx.obj
 0001:000303b0       ??8BNC_ReferenceItemExOptionDrag@@QBE_NABV0@@Z 100313b0 f   BNC_ReferenceItemEx.obj
 0001:000303e0       ?Reset@BNC_ReferenceItemExOptionDrag@@QAEXXZ 100313e0 f   BNC_ReferenceItemEx.obj
 0001:00030400       ?IsValid@BNC_ReferenceItemExOptionDrag@@QAE_NXZ 10031400 f   BNC_ReferenceItemEx.obj
 0001:00030430       ?IsSelect@BNC_ReferenceItemExOptionDrag@@QAE_NXZ 10031430 f   BNC_ReferenceItemEx.obj
 0001:00030470       ??0BNC_ReferenceItemEx@@QAE@XZ 10031470 f   BNC_ReferenceItemEx.obj
 0001:000305a0       ??0BNC_ReferenceItemEx@@QAE@IIPAVBNC_ReferenceItemExOption@@@Z 100315a0 f   BNC_ReferenceItemEx.obj
 0001:00030950       ??0BNC_ReferenceItemEx@@QAE@ABV0@@Z 10031950 f   BNC_ReferenceItemEx.obj
 0001:00030a60       ??4BNC_ReferenceItemEx@@QAEAAV0@ABV0@@Z 10031a60 f   BNC_ReferenceItemEx.obj
 0001:00030e30       ?Clear@BNC_ReferenceItemEx@@AAEXXZ 10031e30 f   BNC_ReferenceItemEx.obj
 0001:00030ed0       ??1BNC_ReferenceItemEx@@UAE@XZ 10031ed0 f   BNC_ReferenceItemEx.obj
 0001:00030f90       ?TargetWidthToIndex@BNC_ReferenceItemEx@@QAEIH@Z 10031f90 f   BNC_ReferenceItemEx.obj
 0001:00030fc0       ?IsEnable@BNC_ReferenceItemEx@@QBE_NXZ 10031fc0 f   BNC_ReferenceItemEx.obj
 0001:00030fd0       ?SetEnable@BNC_ReferenceItemEx@@QAE_N_N@Z 10031fd0 f   BNC_ReferenceItemEx.obj
 0001:00031050       ?SetSyncRectEnable@BNC_ReferenceItemEx@@QAE_NI_N@Z 10032050 f   BNC_ReferenceItemEx.obj
 0001:00031080       ?GetSyncRectCount@BNC_ReferenceItemEx@@QBEIXZ 10032080 f   BNC_ReferenceItemEx.obj
 0001:00031090       ?SetOptionPtr@BNC_ReferenceItemEx@@QAEXPAVBNC_ReferenceItemExOption@@@Z 10032090 f   BNC_ReferenceItemEx.obj
 0001:000310a0       ?SetSortString@BNC_ReferenceItemEx@@QAE_NIV?$CStringT@_WV?$StrTraitMFC_DLL@_WV?$ChTraitsCRT@_W@ATL@@@@@ATL@@@Z 100320a0 f   BNC_ReferenceItemEx.obj
 0001:00031100       ?SetSyncRect@BNC_ReferenceItemEx@@QAE_NIAAVBNC_SyncRect@@@Z 10032100 f   BNC_ReferenceItemEx.obj
 0001:00031160       ?ModifySyncRect@BNC_ReferenceItemEx@@QAE_NIABVCRect@@@Z 10032160 f   BNC_ReferenceItemEx.obj
 0001:000311b0       ?ModifySyncRect@BNC_ReferenceItemEx@@QAE_NIABVCRect@@ABVCPoint@@@Z 100321b0 f   BNC_ReferenceItemEx.obj
 0001:00031210       ?SetItemTop@BNC_ReferenceItemEx@@QAEXII@Z 10032210 f   BNC_ReferenceItemEx.obj
 0001:00031240       ?GetItemTop@BNC_ReferenceItemEx@@QBEII@Z 10032240 f   BNC_ReferenceItemEx.obj
 0001:00031270       ?GetItemBottom@BNC_ReferenceItemEx@@QBEII@Z 10032270 f   BNC_ReferenceItemEx.obj
 0001:000312c0       ?GetItemHeight@BNC_ReferenceItemEx@@QBEII@Z 100322c0 f   BNC_ReferenceItemEx.obj
 0001:00031300       ?SetItemIdxTop@BNC_ReferenceItemEx@@QAEXII@Z 10032300 f   BNC_ReferenceItemEx.obj
 0001:00031320       ?GetItemIdxTop@BNC_ReferenceItemEx@@QBEII@Z 10032320 f   BNC_ReferenceItemEx.obj
 0001:00031330       ?GetItemIdxBottom@BNC_ReferenceItemEx@@QBEII@Z 10032330 f   BNC_ReferenceItemEx.obj
 0001:00031350       ?GetItemIdxHeight@BNC_ReferenceItemEx@@QBEII@Z 10032350 f   BNC_ReferenceItemEx.obj
 0001:00031370       ?GetIntersect@BNC_ReferenceItemEx@@QBE?AW4BNE_VERTICAL_INTERSECT@@IHH@Z 10032370 f   BNC_ReferenceItemEx.obj
 0001:000313b0       ?GetSortString@BNC_ReferenceItemEx@@QBEPBV?$CStringT@_WV?$StrTraitMFC_DLL@_WV?$ChTraitsCRT@_W@ATL@@@@@ATL@@I@Z 100323b0 f   BNC_ReferenceItemEx.obj
 0001:000313d0       ?GetSyncRect@BNC_ReferenceItemEx@@QBEPBVCRect@@I@Z 100323d0 f   BNC_ReferenceItemEx.obj
 0001:000313f0       ?SetSyncRectCursor@BNC_ReferenceItemEx@@QBE_NI@Z 100323f0 f   BNC_ReferenceItemEx.obj
 0001:00031440       ?GetSyncRectPtr@BNC_ReferenceItemEx@@QAEPAVBNC_SyncRect@@I@Z 10032440 f   BNC_ReferenceItemEx.obj
 0001:00031460       ?UpdateMouseAction@BNC_ReferenceItemEx@@QAE_NW4BNE_MOUSEACTION@@AAVCPoint@@@Z 10032460 f   BNC_ReferenceItemEx.obj
 0001:000315d0       ?UpdateSyncRect@BNC_ReferenceItemEx@@QBEXH@Z 100325d0 f   BNC_ReferenceItemEx.obj
 0001:00031660       ?GetMouseAction@BNC_ReferenceItemEx@@QBE?AW4BNE_MOUSEACTION@@XZ 10032660 f   BNC_ReferenceItemEx.obj
 0001:00031670       ?GetMouseActionOld@BNC_ReferenceItemEx@@QBE?AW4BNE_MOUSEACTION@@XZ 10032670 f   BNC_ReferenceItemEx.obj
 0001:00031680       ?GetMouseRectIndex@BNC_ReferenceItemEx@@QBEHXZ 10032680 f   BNC_ReferenceItemEx.obj
 0001:00031690       ?GetMouseRectIndexOld@BNC_ReferenceItemEx@@QBEHXZ 10032690 f   BNC_ReferenceItemEx.obj
 0001:000316a0       ?GetMouseRectIndexPoint@BNC_ReferenceItemEx@@QBE?AVCPoint@@XZ 100326a0 f   BNC_ReferenceItemEx.obj
 0001:000316c0       ?GetMouseRectIndexPointOld@BNC_ReferenceItemEx@@QBE?AVCPoint@@XZ 100326c0 f   BNC_ReferenceItemEx.obj
 0001:000316e0       ?ResetLinkInfo@BNC_ReferenceItemEx@@QAEXIAAV?$vector@VCRect@@V?$allocator@VCRect@@@std@@@std@@V?$vector@IV?$allocator@I@std@@@3@@Z 100326e0 f   BNC_ReferenceItemEx.obj
 0001:00031790       ?SetLinkFocus@BNC_ReferenceItemEx@@QAEXH@Z 10032790 f   BNC_ReferenceItemEx.obj
 0001:000317b0       ?GetFocusLinkString@BNC_ReferenceItemEx@@QBE?AV?$CStringT@_WV?$StrTraitMFC_DLL@_WV?$ChTraitsCRT@_W@ATL@@@@@ATL@@XZ 100327b0 f   BNC_ReferenceItemEx.obj
 0001:00031800       ?DrawTextW@BNC_ReferenceItemEx@@QAEHPAVCDC@@HVCSize@@HVCPoint@@PAVCFont@@KKKKKH@Z 10032800 f   BNC_ReferenceItemEx.obj
 0001:00031d30       ?SetTextRect@BNC_ReferenceItemEx@@QAE_NHVCPoint@@@Z 10032d30 f   BNC_ReferenceItemEx.obj
 0001:00031e20       ?UpdateTextOffset@BNC_ReferenceItemEx@@QAE_NVCPoint@@@Z 10032e20 f   BNC_ReferenceItemEx.obj
 0001:00031e40       ?UpdateTextRect@BNC_ReferenceItemEx@@ABE_NXZ 10032e40 f   BNC_ReferenceItemEx.obj
 0001:00031ee0       ?OnDragAll@BNC_ReferenceItemEx@@QAE_NXZ 10032ee0 f   BNC_ReferenceItemEx.obj
 0001:00031f10       ?OnDragCopy@BNC_ReferenceItemEx@@QAE_NXZ 10032f10 f   BNC_ReferenceItemEx.obj
 0001:00031f40       ?OnDragEnter@BNC_ReferenceItemEx@@AAE_NAAVCPoint@@AAVCSize@@_N@Z 10032f40 f   BNC_ReferenceItemEx.obj
 0001:00031fa0       ?OnDragMove@BNC_ReferenceItemEx@@AAE_NAAVCPoint@@AAVCSize@@@Z 10032fa0 f   BNC_ReferenceItemEx.obj
 0001:00031fc0       ?OnDragLeave@BNC_ReferenceItemEx@@AAE_NXZ 10032fc0 f   BNC_ReferenceItemEx.obj
 0001:00031fd0       ??1?$vector@_NV?$allocator@_N@std@@@std@@QAE@XZ 10032fd0 f i BNC_ReferenceItemEx.obj
 0001:00032000       ?push_back@?$vector@_NV?$allocator@_N@std@@@std@@QAEXAB_N@Z 10033000 f i BNC_ReferenceItemEx.obj
 0001:00032070       ?push_back@?$vector@VCRect@@V?$allocator@VCRect@@@std@@@std@@QAEXABVCRect@@@Z 10033070 f i BNC_ReferenceItemEx.obj
 0001:000320d0       ?erase@?$vector@_NV?$allocator@_N@std@@@std@@QAE?AV?$_Vb_iterator@U?$_Wrap_alloc@V?$allocator@I@std@@@std@@@2@V?$_Vb_const_iterator@U?$_Wrap_alloc@V?$allocator@I@std@@@std@@@2@0@Z 100330d0 f i BNC_ReferenceItemEx.obj
 0001:00032280       ?_Reserve@?$vector@VCRect@@V?$allocator@VCRect@@@std@@@std@@IAEXI@Z 10033280 f i BNC_ReferenceItemEx.obj
 0001:000322f0       ?_Insert_n@?$vector@_NV?$allocator@_N@std@@@std@@QAE?AV?$_Vb_iterator@U?$_Wrap_alloc@V?$allocator@I@std@@@std@@@2@V?$_Vb_const_iterator@U?$_Wrap_alloc@V?$allocator@I@std@@@std@@@2@IAB_N@Z 100332f0 f i BNC_ReferenceItemEx.obj
 0001:00032400       ?_Trim@?$vector@_NV?$allocator@_N@std@@@std@@QAEXI@Z 10033400 f i BNC_ReferenceItemEx.obj
 0001:00032470       ?_Reallocate@?$vector@VCRect@@V?$allocator@VCRect@@@std@@@std@@IAEXI@Z 10033470 f i BNC_ReferenceItemEx.obj
 0001:000324f0       ??H?$_Vb_iterator@U?$_Wrap_alloc@V?$allocator@I@std@@@std@@@std@@QBE?AV01@H@Z 100334f0 f i BNC_ReferenceItemEx.obj
 0001:00032550       ?_Insert_x@?$vector@_NV?$allocator@_N@std@@@std@@QAEIV?$_Vb_const_iterator@U?$_Wrap_alloc@V?$allocator@I@std@@@std@@@2@I@Z 10033550 f i BNC_ReferenceItemEx.obj
 0001:000326a0       ?_Construct_n@?$vector@IV?$allocator@_N@std@@@std@@QAEXIPBI@Z 100336a0 f i BNC_ReferenceItemEx.obj
 0001:000326e0       ?erase@?$vector@IV?$allocator@_N@std@@@std@@QAE?AV?$_Vector_iterator@V?$_Vector_val@U?$_Simple_types@I@std@@@std@@@2@V?$_Vector_const_iterator@V?$_Vector_val@U?$_Simple_types@I@std@@@std@@@2@0@Z 100336e0 f i BNC_ReferenceItemEx.obj
 0001:00032770       ?resize@?$vector@IV?$allocator@_N@std@@@std@@QAEXIABI@Z 10033770 f i BNC_ReferenceItemEx.obj
 0001:00032810       ?_Reserve@?$vector@IV?$allocator@_N@std@@@std@@IAEXI@Z 10033810 f i BNC_ReferenceItemEx.obj
 0001:00032890       ??$_Fill@V?$_Vb_iterator@U?$_Wrap_alloc@V?$allocator@I@std@@@std@@@std@@_N@std@@YAXV?$_Vb_iterator@U?$_Wrap_alloc@V?$allocator@I@std@@@std@@@0@0AB_N@Z 10033890 f i BNC_ReferenceItemEx.obj
 0001:000328e0       ??$_Copy_impl@V?$_Vb_iterator@U?$_Wrap_alloc@V?$allocator@I@std@@@std@@@std@@V12@@std@@YA?AV?$_Vb_iterator@U?$_Wrap_alloc@V?$allocator@I@std@@@std@@@0@V10@00U_Nonscalar_ptr_iterator_tag@0@@Z 100338e0 f i BNC_ReferenceItemEx.obj
 0001:00032960       ??$_Copy_backward@V?$_Vb_iterator@U?$_Wrap_alloc@V?$allocator@I@std@@@std@@@std@@V12@@std@@YA?AV?$_Vb_iterator@U?$_Wrap_alloc@V?$allocator@I@std@@@std@@@0@V10@00U_Nonscalar_ptr_iterator_tag@0@@Z 10033960 f i BNC_ReferenceItemEx.obj
 0001:000329f0       ??$_Uninit_copy@PAVCRect@@PAV1@V?$allocator@VCRect@@@std@@@std@@YAPAVCRect@@PAV1@00AAU?$_Wrap_alloc@V?$allocator@VCRect@@@std@@@0@U_Nonscalar_ptr_iterator_tag@0@@Z 100339f0 f i BNC_SyncRect.obj
 0001:000329f0       ??$_Uninit_move@PAVCRect@@PAV1@V?$allocator@VCRect@@@std@@V1@@std@@YAPAVCRect@@PAV1@00AAU?$_Wrap_alloc@V?$allocator@VCRect@@@std@@@0@0U_Nonscalar_ptr_iterator_tag@0@@Z 100339f0 f i BNC_ReferenceItemEx.obj
 0001:00032a20       ??_EBNC_ReferenceItemExOptionLine@@UAEPAXI@Z 10033a20 f i BNC_ReferenceItemEx.obj
 0001:00032a80       ??_EBNC_ReferenceItemEx@@UAEPAXI@Z 10033a80 f i BNC_ReferenceItemEx.obj
 0001:00032ae0       ?GetCreateCount@BNC_ReferenceItemExOption@@SAIXZ 10033ae0 f   BNC_ReferenceItemExOption.obj
 0001:00032af0       ?GetAliveCount@BNC_ReferenceItemExOption@@SAIXZ 10033af0 f   BNC_ReferenceItemExOption.obj
 0001:00032b00       ??0BNC_ReferenceItemExOption@@QAE@XZ 10033b00 f   BNC_ReferenceItemExOption.obj
 0001:00032e20       ??0BNC_ReferenceItemExOption@@QAE@ABV0@@Z 10033e20 f   BNC_ReferenceItemExOption.obj
 0001:000330a0       ??1BNC_ReferenceItemExOption@@UAE@XZ 100340a0 f   BNC_ReferenceItemExOption.obj
 0001:00033380       ??4BNC_ReferenceItemExOption@@QAEAAV0@ABV0@@Z 10034380 f   BNC_ReferenceItemExOption.obj
 0001:00033680       ?GetLastUpdateSize@BNC_ReferenceItemExOption@@QBE?AVCSize@@XZ 10034680 f   BNC_ReferenceItemExOption.obj
 0001:000336a0       ?GetHeight@BNC_ReferenceItemExOption@@QBEII@Z 100346a0 f   BNC_ReferenceItemExOption.obj
 0001:000336e0       ?GetIdxHeight@BNC_ReferenceItemExOption@@QBEII@Z 100346e0 f   BNC_ReferenceItemExOption.obj
 0001:00033700       ?GetLineCount@BNC_ReferenceItemExOption@@QBEIXZ 10034700 f   BNC_ReferenceItemExOption.obj
 0001:00033710       ?FindCharCut@BNC_ReferenceItemExOption@@QBE_NV?$CStringT@_WV?$StrTraitMFC_DLL@_WV?$ChTraitsCRT@_W@ATL@@@@@ATL@@_WAAV23@2@Z 10034710 f   BNC_ReferenceItemExOption.obj
 0001:000337f0       ?InitializeString@BNC_ReferenceItemExOption@@QAEXPAVCDC@@@Z 100347f0 f   BNC_ReferenceItemExOption.obj
 0001:00033c40       ?UpdateStringPos@BNC_ReferenceItemExOption@@QAE?AVCSize@@PAVCDC@@H@Z 10034c40 f   BNC_ReferenceItemExOption.obj
 0001:00034320       ?GetLineTop@BNC_ReferenceItemExOption@@QBEHI@Z 10035320 f   BNC_ReferenceItemExOption.obj
 0001:00034350       ?GetLineInfo@BNC_ReferenceItemExOption@@QBE_NIAAV?$CStringT@_WV?$StrTraitMFC_DLL@_WV?$ChTraitsCRT@_W@ATL@@@@@ATL@@AAH@Z 10035350 f   BNC_ReferenceItemExOption.obj
 0001:000344a0       ?SplitSpace@BNC_ReferenceItemExOption@@QAE_NABV?$CStringT@_WV?$StrTraitMFC_DLL@_WV?$ChTraitsCRT@_W@ATL@@@@@ATL@@AAV23@AAH@Z 100354a0 f   BNC_ReferenceItemExOption.obj
 0001:000345e0       ?InitializeLinkInfo@BNC_ReferenceItemExOption@@AAEXXZ 100355e0 f   BNC_ReferenceItemExOption.obj
 0001:000349d0       ?AddDragInfo@BNC_ReferenceItemExOption@@AAE_NHV?$CStringT@_WV?$StrTraitMFC_DLL@_WV?$ChTraitsCRT@_W@ATL@@@@@ATL@@HH_N1I@Z 100359d0 f   BNC_ReferenceItemExOption.obj
 0001:00034ba0       ?GetLineInfoEx@BNC_ReferenceItemExOption@@QAE_NIPAPBVBNC_ReferenceItemExOptionLine@@@Z 10035ba0 f   BNC_ReferenceItemExOption.obj
 0001:00034ee0       ?GetLinkCount@BNC_ReferenceItemExOption@@QBEIXZ 10035ee0 f   BNC_ReferenceItemExOption.obj
 0001:00034ef0       ?GetLinkString@BNC_ReferenceItemExOption@@QBE?AV?$CStringT@_WV?$StrTraitMFC_DLL@_WV?$ChTraitsCRT@_W@ATL@@@@@ATL@@I@Z 10035ef0 f   BNC_ReferenceItemExOption.obj
 0001:00034fd0       ?GetLineIndex@BNC_ReferenceItemExOption@@AAEHVCPoint@@AA_N@Z 10035fd0 f   BNC_ReferenceItemExOption.obj
 0001:00035040       ?GetDragPoint@BNC_ReferenceItemExOption@@AAEXVCPoint@@_NAAVBNC_ReferenceItemExOptionDrag@@@Z 10036040 f   BNC_ReferenceItemExOption.obj
 0001:00035470       ?GetDragVisibleFromDragSource@BNC_ReferenceItemExOption@@AAE_NHHHAAH0@Z 10036470 f   BNC_ReferenceItemExOption.obj
 0001:00035540       ?UpdateDragReference@BNC_ReferenceItemExOption@@AAE_NXZ 10036540 f   BNC_ReferenceItemExOption.obj
 0001:000355e0       ?UpdateDragData@BNC_ReferenceItemExOption@@AAE_NVBNC_ReferenceItemExOptionDrag@@@Z 100365e0 f   BNC_ReferenceItemExOption.obj
 0001:00035670       ?OnDragAll@BNC_ReferenceItemExOption@@AAE_NXZ 10036670 f   BNC_ReferenceItemExOption.obj
 0001:00035760       ?OnDragCopy@BNC_ReferenceItemExOption@@AAE_NXZ 10036760 f   BNC_ReferenceItemExOption.obj
 0001:00035770       ?OnDragEnter@BNC_ReferenceItemExOption@@AAE_NAAVCPoint@@AAVCSize@@_N@Z 10036770 f   BNC_ReferenceItemExOption.obj
 0001:00035830       ?OnDragMove@BNC_ReferenceItemExOption@@AAE_NAAVCPoint@@AAVCSize@@@Z 10036830 f   BNC_ReferenceItemExOption.obj
 0001:00035980       ?OnDragLeave@BNC_ReferenceItemExOption@@AAE_NXZ 10036980 f   BNC_ReferenceItemExOption.obj
 0001:00035a10       ?SetTextArea@BNC_ReferenceItemExOption@@AAEXVCRect@@VCPoint@@@Z 10036a10 f   BNC_ReferenceItemExOption.obj
 0001:00035a50       ?IsSelectAll@BNC_ReferenceItemExOption@@QAE_NXZ 10036a50 f   BNC_ReferenceItemExOption.obj
 0001:00035b40       ?IsDragSelect@BNC_ReferenceItemExOption@@QAE_NXZ 10036b40 f   BNC_ReferenceItemExOption.obj
 0001:00035ba0       ?DragStringToClipboard@BNC_ReferenceItemExOption@@QAE_NXZ 10036ba0 f   BNC_ReferenceItemExOption.obj
 0001:00035cb0       ?GetDragString@BNC_ReferenceItemExOption@@QAE?AV?$CStringT@_WV?$StrTraitMFC_DLL@_WV?$ChTraitsCRT@_W@ATL@@@@@ATL@@XZ 10036cb0 f   BNC_ReferenceItemExOption.obj
 0001:00035ee0       ?push_back@?$vector@FV?$allocator@F@std@@@std@@QAEX$$QAF@Z 10036ee0 f i BNC_ReferenceItemExOption.obj
 0001:00035f50       ??4?$vector@FV?$allocator@F@std@@@std@@QAEAAV01@ABV01@@Z 10036f50 f i BNC_ReferenceItemExOption.obj
 0001:00036060       ??4?$vector@EV?$allocator@E@std@@@std@@QAEAAV01@ABV01@@Z 10037060 f i BNC_ReferenceItemExOption.obj
 0001:00036150       ??4?$vector@VCPoint@@V?$allocator@VCPoint@@@std@@@std@@QAEAAV01@ABV01@@Z 10037150 f i BNC_ReferenceItemExOption.obj
 0001:00036240       ?_Buy@?$vector@FV?$allocator@F@std@@@std@@IAE_NI@Z 10037240 f i BNC_ReferenceItemExOption.obj
 0001:000362b0       ?_Reserve@?$vector@FV?$allocator@F@std@@@std@@IAEXI@Z 100372b0 f i BNC_ReferenceItemExOption.obj
 0001:00036320       ?_Buy@?$vector@EV?$allocator@E@std@@@std@@IAE_NI@Z 10037320 f i BNC_ReferenceItemExOption.obj
 0001:00036390       ?_Reserve@?$vector@EV?$allocator@E@std@@@std@@IAEXI@Z 10037390 f i BNC_ReferenceItemExOption.obj
 0001:000363f0       ?_Reallocate@?$vector@FV?$allocator@F@std@@@std@@IAEXI@Z 100373f0 f i BNC_ReferenceItemExOption.obj
 0001:00036470       ?_Reallocate@?$vector@EV?$allocator@E@std@@@std@@IAEXI@Z 10037470 f i BNC_ReferenceItemExOption.obj
 0001:000364f0       ??$_Copy_impl@PAVCPoint@@PAV1@@std@@YAPAVCPoint@@PAV1@00@Z 100374f0 f i BNC_ReferenceItemExOption.obj
 0001:00036520       ??$_Copy@U?$integral_constant@_N$0A@@std@@@?$_Tree@V?$_Tmap_traits@IIU?$less@I@std@@V?$allocator@U?$pair@$$CBII@std@@@2@$0A@@std@@@std@@IAEXABV01@U?$integral_constant@_N$0A@@1@@Z 10037520 f i BNC_ReferenceItemExOption.obj
 0001:000365a0       ??$_Buynode@U?$pair@II@std@@@?$_Tree_buy@U?$pair@$$CBII@std@@V?$allocator@U?$pair@$$CBII@std@@@2@@std@@QAEPAU?$_Tree_node@U?$pair@$$CBII@std@@PAX@1@$$QAU?$pair@II@1@@Z 100375a0 f i BNC_ReferenceItemExOption.obj
 0001:000365a0       ??$_Buynode@AAU?$pair@$$CBII@std@@@?$_Tree_buy@U?$pair@$$CBII@std@@V?$allocator@U?$pair@$$CBII@std@@@2@@std@@QAEPAU?$_Tree_node@U?$pair@$$CBII@std@@PAX@1@AAU?$pair@$$CBII@1@@Z 100375a0 f i BNC_ReferenceItemExOption.obj
 0001:000365d0       ??$_Insert_nohint@AAU?$pair@$$CBII@std@@PAU?$_Tree_node@U?$pair@$$CBII@std@@PAX@2@@?$_Tree@V?$_Tmap_traits@IIU?$less@I@std@@V?$allocator@U?$pair@$$CBII@std@@@2@$0A@@std@@@std@@IAE?AU?$pair@V?$_Tree_iterator@V?$_Tree_val@U?$_Tree_simple_types@U?$pair@$$CBII@std@@@std@@@std@@@std@@_N@1@_NAAU?$pair@$$CBII@1@PAU?$_Tree_node@U?$pair@$$CBII@std@@PAX@1@@Z 100375d0 f i BNC_ReferenceItemExOption.obj
 0001:000366f0       ??$_Copy_nodes@U?$integral_constant@_N$0A@@std@@@?$_Tree@V?$_Tmap_traits@IIU?$less@I@std@@V?$allocator@U?$pair@$$CBII@std@@@2@$0A@@std@@@std@@IAEPAU?$_Tree_node@U?$pair@$$CBII@std@@PAX@1@PAU21@0U?$integral_constant@_N$0A@@1@@Z 100376f0 f i BNC_ReferenceItemExOption.obj
 0001:000367b0       ??$_Insert_at@AAU?$pair@$$CBII@std@@PAU?$_Tree_node@U?$pair@$$CBII@std@@PAX@2@@?$_Tree@V?$_Tmap_traits@IIU?$less@I@std@@V?$allocator@U?$pair@$$CBII@std@@@2@$0A@@std@@@std@@IAE?AV?$_Tree_iterator@V?$_Tree_val@U?$_Tree_simple_types@U?$pair@$$CBII@std@@@std@@@std@@@1@_NPAU?$_Tree_node@U?$pair@$$CBII@std@@PAX@1@AAU?$pair@$$CBII@1@1@Z 100377b0 f i BNC_ReferenceItemExOption.obj
 0001:00036980       ??_EBNC_ReferenceItemExOption@@UAEPAXI@Z 10037980 f i BNC_ReferenceItemExOption.obj
 0001:000369e0       ??0BNC_ReferenceItemTreeSort@@QAE@AAUBNS_ReferenceItemSortOption@@@Z 100379e0 f   BNC_ReferenceItemSort.obj
 0001:000369e0       ??0BNC_ReferenceItemSort@@QAE@AAUBNS_ReferenceItemSortOption@@@Z 100379e0 f   BNC_ReferenceItemSort.obj
 0001:00036a10       ??0BNC_ReferenceItemSort@@QAE@I_NH0@Z 10037a10 f   BNC_ReferenceItemSort.obj
 0001:00036a10       ??0BNC_ReferenceItemTreeSort@@QAE@I_NH0@Z 10037a10 f   BNC_ReferenceItemSort.obj
 0001:00036a30       ?sort@BNC_ReferenceItemSort@@AAE_NPBVBNC_ReferenceItem@@0@Z 10037a30 f   BNC_ReferenceItemSort.obj
 0001:00036b60       ?sort@BNC_ReferenceItemSort@@AAE_NPBVBNC_ReferenceItemEx@@0@Z 10037b60 f   BNC_ReferenceItemSort.obj
 0001:00036c90       ??RBNC_ReferenceItemSort@@QAE_NPBVBNC_ReferenceItem@@0@Z 10037c90 f   BNC_ReferenceItemSort.obj
 0001:00036ca0       ??RBNC_ReferenceItemSort@@QAE_NPBVBNC_ReferenceItemEx@@0@Z 10037ca0 f   BNC_ReferenceItemSort.obj
 0001:00036cb0       ??0BNC_ReferenceItemSeqSort@@QAE@_N@Z 10037cb0 f   BNC_ReferenceItemSort.obj
 0001:00036cc0       ??RBNC_ReferenceItemSeqSort@@QAE_NPBVBNC_ReferenceItem@@0@Z 10037cc0 f   BNC_ReferenceItemSort.obj
 0001:00036cf0       ??RBNC_ReferenceItemSeqSort@@QAE_NPBVBNC_ReferenceItemEx@@0@Z 10037cf0 f   BNC_ReferenceItemSort.obj
 0001:00036d20       ?sort@BNC_ReferenceItemTreeSort@@AAE_NPBVBNC_ReferenceItem@@0@Z 10037d20 f   BNC_ReferenceItemSort.obj
 0001:00036e80       ??RBNC_ReferenceItemTreeSort@@QAE_NPBVBNC_ReferenceItem@@0@Z 10037e80 f   BNC_ReferenceItemSort.obj
 0001:00036e90       ??0BNC_RefTreeItemOption@@QAE@PAVBNC_ReferenceItem@@@Z 10037e90 f   BNC_RefTreeItemOption.obj
 0001:00036f50       ??1BNC_RefTreeItemOption@@UAE@XZ 10037f50 f   BNC_RefTreeItemOption.obj
 0001:00037020       ?IsFolder@BNC_RefTreeItemOption@@QBE_NXZ 10038020 f   BNC_RefTreeItemOption.obj
 0001:00037030       ?IsExtended@BNC_RefTreeItemOption@@QBE_NXZ 10038030 f   BNC_RefTreeItemOption.obj
 0001:00037040       ?GetDepth@BNC_RefTreeItemOption@@QBEHXZ 10038040 f   BNC_RefTreeItemOption.obj
 0001:00037050       ?GetSysBtnCount@BNC_Titlebar@@QAEIXZ 10038050 f   BNC_Titlebar.obj
 0001:00037050       ?GetChildCount@BNC_RefTreeItemOption@@QBEIXZ 10038050 f   BNC_RefTreeItemOption.obj
 0001:00037060       ?GetChildFolderBegin@BNC_RefTreeItemOption@@QBE?AV?$_Tree_const_iterator@V?$_Tree_val@U?$_Tree_simple_types@U?$pair@$$CBV?$CStringT@_WV?$StrTraitMFC_DLL@_WV?$ChTraitsCRT@_W@ATL@@@@@ATL@@PAVBNC_ReferenceItem@@@std@@@std@@@std@@@std@@XZ 10038060 f   BNC_RefTreeItemOption.obj
 0001:00037080       ?GetChildFolderEnd@BNC_RefTreeItemOption@@QBE?AV?$_Tree_const_iterator@V?$_Tree_val@U?$_Tree_simple_types@U?$pair@$$CBV?$CStringT@_WV?$StrTraitMFC_DLL@_WV?$ChTraitsCRT@_W@ATL@@@@@ATL@@PAVBNC_ReferenceItem@@@std@@@std@@@std@@@std@@XZ 10038080 f   BNC_RefTreeItemOption.obj
 0001:00037090       ?GetChildFileBegin@BNC_RefTreeItemOption@@QBE?AV?$_Tree_const_iterator@V?$_Tree_val@U?$_Tree_simple_types@U?$pair@$$CBV?$CStringT@_WV?$StrTraitMFC_DLL@_WV?$ChTraitsCRT@_W@ATL@@@@@ATL@@PAVBNC_ReferenceItem@@@std@@@std@@@std@@@std@@XZ 10038090 f   BNC_RefTreeItemOption.obj
 0001:000370b0       ?GetChildFileEnd@BNC_RefTreeItemOption@@QBE?AV?$_Tree_const_iterator@V?$_Tree_val@U?$_Tree_simple_types@U?$pair@$$CBV?$CStringT@_WV?$StrTraitMFC_DLL@_WV?$ChTraitsCRT@_W@ATL@@@@@ATL@@PAVBNC_ReferenceItem@@@std@@@std@@@std@@@std@@XZ 100380b0 f   BNC_RefTreeItemOption.obj
 0001:000370c0       ??0BNC_StaticObject@@AAE@XZ 100380c0 f   BNC_StaticObject.obj
 0001:00037130       ??1BNC_StaticObject@@AAE@XZ 10038130 f   BNC_StaticObject.obj
 0001:00037170       ?InitInstance@BNC_StaticObject@@SAXXZ 10038170 f   BNC_StaticObject.obj
 0001:000371b0       ?GetInstance@BNC_StaticObject@@SAPAV1@XZ 100381b0 f   BNC_StaticObject.obj
 0001:000371f0       ?ExitInstance@BNC_StaticObject@@SAXXZ 100381f0 f   BNC_StaticObject.obj
 0001:00037210       ??_GBNC_StaticObject@@AAEPAXI@Z 10038210 f i BNC_StaticObject.obj
 0001:00037260       ?CreateRichEditMenu@BNC_StaticObject@@AAEXXZ 10038260 f   BNC_StaticObject.obj
 0001:00037480       ?ShowRichEditMenu@BNC_StaticObject@@SAXPAUHWND__@@_N1@Z 10038480 f   BNC_StaticObject.obj
 0001:00037530       ?ShowRichEditMenu@BNC_StaticObject@@SAXPAUHWND__@@_N1VCPoint@@@Z 10038530 f   BNC_StaticObject.obj
 0001:000375e0       ?GetCreateCount@BNC_SyncRect@@SAIXZ 100385e0 f   BNC_SyncRect.obj
 0001:000375f0       ?GetAliveCount@BNC_SyncRect@@SAIXZ 100385f0 f   BNC_SyncRect.obj
 0001:00037600       ??0BNC_SyncRect@@QAE@XZ    10038600 f   BNC_SyncRect.obj
 0001:00037700       ??1BNC_SyncRect@@UAE@XZ    10038700 f   BNC_SyncRect.obj
 0001:00037770       ??0BNC_SyncRect@@QAE@ABV0@@Z 10038770 f   BNC_SyncRect.obj
 0001:00037850       ??4BNC_SyncRect@@QAEAAV0@ABV0@@Z 10038850 f   BNC_SyncRect.obj
 0001:000378c0       ?Update@BNC_SyncRect@@QAEXAAVCSize@@_N@Z 100388c0 f   BNC_SyncRect.obj
 0001:00037a30       ?SetRect@BNC_SyncRect@@QAEXVCRect@@KVCPoint@@VCSize@@_N@Z 10038a30 f   BNC_SyncRect.obj
 0001:00037a80       ?ModifyRect@BNC_SyncRect@@QAEXABVCRect@@@Z 10038a80 f   BNC_SyncRect.obj
 0001:00037aa0       ?ModifyRect@BNC_SyncRect@@QAEXABVCRect@@ABVCPoint@@@Z 10038aa0 f   BNC_SyncRect.obj
 0001:00037ad0       ?SetRect@BNC_SyncRect@@QAEXAAV1@@Z 10038ad0 f   BNC_SyncRect.obj
 0001:00037b20       ?SetEnable@BNC_SyncRect@@QAEX_N@Z 10038b20 f   BNC_SyncRect.obj
 0001:00037b30       ?IsEnable@BNC_SyncRect@@QBE_NXZ 10038b30 f   BNC_SyncRect.obj
 0001:00037b40       ?IsInit@BNC_SyncRect@@QBE_NXZ 10038b40 f   BNC_SyncRect.obj
 0001:00037b50       ?PtInSyncRect@BNC_SyncRect@@QAE_NAAVCSize@@AAVCPoint@@@Z 10038b50 f   BNC_SyncRect.obj
 0001:00037b90       ?GetSyncRect@BNC_SyncRect@@QBEPBVCRect@@XZ 10038b90 f   BNC_SyncRect.obj
 0001:00037ba0       ?ModifyOffset@BNC_SyncRect@@QAEXVCPoint@@@Z 10038ba0 f   BNC_SyncRect.obj
 0001:00037bf0       ?SetForceRect@BNC_SyncRect@@QAEXAAVCRect@@@Z 10038bf0 f   BNC_SyncRect.obj
 0001:00037c10       ?GetChildRectCount@BNC_SyncRect@@QAEIXZ 10038c10 f   BNC_SyncRect.obj
 0001:00037c20       ?ResetChildRect@BNC_SyncRect@@QAEXAAV?$vector@VCRect@@V?$allocator@VCRect@@@std@@@std@@V?$vector@IV?$allocator@I@std@@@3@@Z 10038c20 f   BNC_SyncRect.obj
 0001:00037ca0       ?PtInChild@BNC_SyncRect@@QAEHAAVCPoint@@@Z 10038ca0 f   BNC_SyncRect.obj
 0001:00037d20       ??4?$vector@VCRect@@V?$allocator@VCRect@@@std@@@std@@QAEAAV01@ABV01@@Z 10038d20 f i BNC_SyncRect.obj
 0001:00037e10       ?_Buy@?$vector@VCRect@@V?$allocator@VCRect@@@std@@@std@@IAE_NI@Z 10038e10 f i BNC_SyncRect.obj
 0001:00037e80       ??$_Copy_impl@PAVCRect@@PAV1@@std@@YAPAVCRect@@PAV1@00@Z 10038e80 f i BNC_SyncRect.obj
 0001:00037eb0       ??_EBNC_SyncRect@@UAEPAXI@Z 10038eb0 f i BNC_SyncRect.obj
 0001:00037f10       ?OnProcess@BNC_TransparentAnimation@@CAIPAX@Z 10038f10 f   BNC_TransparentAnimation.obj
 0001:00037f50       ??0BNC_TransparentAnimation@@QAE@PAVBNC_BaseDialog@@@Z 10038f50 f   BNC_TransparentAnimation.obj
 0001:00038000       ??1BNC_TransparentAnimation@@UAE@XZ 10039000 f   BNC_TransparentAnimation.obj
 0001:00038080       ?WaitProcess@BNC_TransparentAnimation@@QAEXK@Z 10039080 f   BNC_TransparentAnimation.obj
 0001:000380a0       ?IsValid@BNC_TransparentAnimation@@AAE_NXZ 100390a0 f   BNC_TransparentAnimation.obj
 0001:000380d0       ?Run@BNC_TransparentAnimation@@AAE_NXZ 100390d0 f   BNC_TransparentAnimation.obj
 0001:00038280       ?Update@BNC_TransparentAnimation@@AAE_NXZ 10039280 f   BNC_TransparentAnimation.obj
 0001:00038380       ?End@BNC_TransparentAnimation@@AAEXXZ 10039380 f   BNC_TransparentAnimation.obj
 0001:00038470       ?UpdateTransparent@BNC_TransparentAnimation@@AAE_NW4TransparentStep@@EMPAE@Z 10039470 f   BNC_TransparentAnimation.obj
 0001:00038510       ?OnCreate@BNC_TransparentAnimation@@QAEXXZ 10039510 f   BNC_TransparentAnimation.obj
 0001:00038520       ?OnDestroy@BNC_TransparentAnimation@@QAEXXZ 10039520 f   BNC_TransparentAnimation.obj
 0001:00038540       ?SetRange@BNC_TransparentAnimation@@QAE_NEE@Z 10039540 f   BNC_TransparentAnimation.obj
 0001:00038570       ?GetRange@BNC_TransparentAnimation@@QAE?AU?$pair@EE@std@@XZ 10039570 f   BNC_TransparentAnimation.obj
 0001:00038590       ?Show@BNC_TransparentAnimation@@QAE_NNPBVCWnd@@_N@Z 10039590 f   BNC_TransparentAnimation.obj
 0001:000386a0       ?Hide@BNC_TransparentAnimation@@QAE_NN@Z 100396a0 f   BNC_TransparentAnimation.obj
 0001:00038790       ?GetState@BNC_TransparentAnimation@@QAEHXZ 10039790 f   BNC_TransparentAnimation.obj
 0001:000387b0       ??_EBNC_TransparentAnimation@@UAEPAXI@Z 100397b0 f i BNC_TransparentAnimation.obj
 0001:00038880       ??0BNC_WindowLayered@@QAE@PAVCWnd@@@Z 10039880 f   BNC_WindowLayered.obj
 0001:00038880       ??0BNC_WindowSync@@QAE@PAVBNC_BaseDialog@@@Z 10039880 f   BNC_WindowSync.obj
 0001:00038890       ??0BNS_ImageInfo@@QAE@XZ   10039890 f   BNS_ImageInfo.obj
 0001:00038920       ?SetSinglePosition@BNS_ImageInfo@@QAEXVCPoint@@@Z 10039920 f   BNS_ImageInfo.obj
 0001:00038950       ?Draw@BNS_ImageInfo@@QAEXPAVGraphics@Gdiplus@@IH@Z 10039950 f   BNS_ImageInfo.obj
 0001:00038ae0       ??0BNS_TextInfo@@QAE@XZ    10039ae0 f   BNS_TextInfo.obj
 0001:00038b30       ??1BNS_TextInfo@@QAE@XZ    10039b30 f   BNS_TextInfo.obj
 0001:00038b40       ??0BNS_TextInfo@@QAE@ABU0@@Z 10039b40 f   BNS_TextInfo.obj
 0001:00038be0       ??4BNS_TextInfo@@QAEAAU0@ABU0@@Z 10039be0 f   BNS_TextInfo.obj
 0001:00038c30       ?Draw@BNS_TextInfo@@QAEXPAVCDC@@IH@Z 10039c30 f   BNS_TextInfo.obj
 0001:00038c80       ?Draw@BNS_TextInfo@@QAEXPAVCDC@@IHPAU1@@Z 10039c80 f   BNS_TextInfo.obj
 0001:00038cf0       ??0BNC_Button@@QAE@XZ      10039cf0 f   BNC_Button.obj
 0001:00038fd0       ??1BNC_Button@@UAE@XZ      10039fd0 f   BNC_Button.obj
 0001:00039090       ?GetThisMessageMap@BNC_Button@@KGPBUAFX_MSGMAP@@XZ 1003a090 f   BNC_Button.obj
 0001:00039090       ?GetMessageMap@BNC_Button@@MBEPBUAFX_MSGMAP@@XZ 1003a090 f   BNC_Button.obj
 0001:000390a0       ?OnDestroy@BNC_Button@@IAEXXZ 1003a0a0 f   BNC_Button.obj
 0001:000390f0       ?OnEnable@BNC_Button@@IAEXH@Z 1003a0f0 f   BNC_Button.obj
 0001:00039180       ?SetCursor@BNC_Button@@QAEXPAUHICON__@@@Z 1003a180 f   BNC_Button.obj
 0001:000391b0       ?SetUseParentBk@BNC_Button@@QAEX_N@Z 1003a1b0 f   BNC_Button.obj
 0001:000391e0       ?SetBkColor@BNC_Button@@QAEXK_N@Z 1003a1e0 f   BNC_Button.obj
 0001:00039210       ?SetBkColor@BNC_Button@@QAEXKKKK_N@Z 1003a210 f   BNC_Button.obj
 0001:00039250       ?SetEdgeColor@BNC_Button@@QAEXK@Z 1003a250 f   BNC_Button.obj
 0001:00039270       ?SetBitmapResource@BNC_Button@@QAEXPAVCBitmap@@VCPoint@@VCSize@@_N@Z 1003a270 f   BNC_Button.obj
 0001:000392e0       ?SetImageResource@BNC_Button@@QAEXPAVImage@Gdiplus@@VCPoint@@VCSize@@_N@Z 1003a2e0 f   BNC_Button.obj
 0001:00039350       ?SetTextBlank@BNC_Button@@QAEXVCRect@@@Z 1003a350 f   BNC_Button.obj
 0001:00039370       ?GetText@BNC_Button@@QAE?AV?$CStringT@_WV?$StrTraitMFC_DLL@_WV?$ChTraitsCRT@_W@ATL@@@@@ATL@@XZ 1003a370 f   BNC_Button.obj
 0001:000393a0       ?SetTextResource@BNC_Button@@QAEXV?$CStringT@_WV?$StrTraitMFC_DLL@_WV?$ChTraitsCRT@_W@ATL@@@@@ATL@@_N1@Z 1003a3a0 f   BNC_Button.obj
 0001:00039420       ?SetTextAlign@BNC_Button@@QAEXI@Z 1003a420 f   BNC_Button.obj
 0001:00039430       ?SetTextResource@BNC_Button@@QAEXV?$CStringT@_WV?$StrTraitMFC_DLL@_WV?$ChTraitsCRT@_W@ATL@@@@@ATL@@VCRect@@H_N2@Z 1003a430 f   BNC_Button.obj
 0001:000395b0       ?SetTextFont@BNC_Button@@QAEXPB_WIH_N@Z 1003a5b0 f   BNC_Button.obj
 0001:00039650       ?SetTextFontStyle@BNC_Button@@QAEXW4BNE_FONT_STYLE@@000_N@Z 1003a650 f   BNC_Button.obj
 0001:00039690       ?SetTextColor@BNC_Button@@QAEXKKKK_N@Z 1003a690 f   BNC_Button.obj
 0001:000396d0       ?SetTextColor@BNC_Button@@QAEXK_N@Z 1003a6d0 f   BNC_Button.obj
 0001:00039700       ?GetTextDisplaySize@BNC_Button@@QAE?AVCSize@@XZ 1003a700 f   BNC_Button.obj
 0001:00039740       ?SetWindowPosFromText@BNC_Button@@QAEXXZ 1003a740 f   BNC_Button.obj
 0001:00039780       ?SetResourceLine@BNC_Button@@QAEXI_N@Z 1003a780 f   BNC_Button.obj
 0001:000397a0       ?OnDraw@BNC_Button@@MAE_NPAVCDC@@0@Z 1003a7a0 f   BNC_Button.obj
 0001:00039c30       ?OnDrawEx@BNC_Button@@MAE_NPAVCDC@@0PAVGraphics@Gdiplus@@I@Z 1003ac30 f   BNC_Button.obj
 0001:00039c40       ?UpdateState@BNC_Button@@IAEJW4BNE_BTN_STATE@@ABVCPoint@@_N2@Z 1003ac40 f   BNC_Button.obj
 0001:00039d70       ?OnMouseMove@BNC_Button@@IAEXIVCPoint@@@Z 1003ad70 f   BNC_Button.obj
 0001:00039e40       ?OnLButtonDown@BNC_Button@@IAEXIVCPoint@@@Z 1003ae40 f   BNC_Button.obj
 0001:00039ec0       ?OnLButtonUp@BNC_Button@@IAEXIVCPoint@@@Z 1003aec0 f   BNC_Button.obj
 0001:00039fe0       ?OnRButtonDown@BNC_Button@@IAEXIVCPoint@@@Z 1003afe0 f   BNC_Button.obj
 0001:0003a030       ?OnRButtonUp@BNC_Button@@IAEXIVCPoint@@@Z 1003b030 f   BNC_Button.obj
 0001:0003a0c0       ?OnCaptureChanged@BNC_Button@@IAEXPAVCWnd@@@Z 1003b0c0 f   BNC_Button.obj
 0001:0003a140       ?EnableAlwaysDown@BNC_Button@@QAEX_N0@Z 1003b140 f   BNC_Button.obj
 0001:0003a170       ?SetState@BNC_Button@@QAEXW4BNE_BTN_STATE@@@Z 1003b170 f   BNC_Button.obj
 0001:0003a1a0       ?SetStateAnimation@BNC_Button@@QAEXW4BNE_BTN_STATE@@0I@Z 1003b1a0 f   BNC_Button.obj
 0001:0003a200       ?GetState@BNC_Button@@QAE?AW4BNE_BTN_STATE@@XZ 1003b200 f   BNC_Button.obj
 0001:0003a210       ?EnableDownStateProgress@BNC_Button@@QAEX_NI@Z 1003b210 f   BNC_Button.obj
 0001:0003a230       ?GetStateAnimationRatio@BNC_Button@@QAEMXZ 1003b230 f   BNC_Button.obj
 0001:0003a240       ?OnTimer@BNC_Button@@IAEXI@Z 1003b240 f   BNC_Button.obj
 0001:0003a350       ?OnShowWindow@BNC_Button@@IAEXHI@Z 1003b350 f   BNC_Button.obj
 0001:0003a370       ??_EBNC_Button@@UAEPAXI@Z  1003b370 f i BNC_Button.obj
 0001:0003a3d0       ??0BNC_ButtonEx@@QAE@XZ    1003b3d0 f   BNC_ButtonEx.obj
 0001:0003a590       ??1BNC_ButtonEx@@UAE@XZ    1003b590 f   BNC_ButtonEx.obj
 0001:0003a610       ?GetMessageMap@BNC_ButtonEx@@MBEPBUAFX_MSGMAP@@XZ 1003b610 f   BNC_ButtonEx.obj
 0001:0003a610       ?GetThisMessageMap@BNC_ButtonEx@@KGPBUAFX_MSGMAP@@XZ 1003b610 f   BNC_ButtonEx.obj
 0001:0003a620       ?OnDestroy@BNC_ButtonEx@@IAEXXZ 1003b620 f   BNC_ButtonEx.obj
 0001:0003a670       ?OnDrawEx@BNC_ButtonEx@@MAE_NPAVCDC@@PAVGraphics@Gdiplus@@I@Z 1003b670 f   BNC_ButtonEx.obj
 0001:0003a750       ?UpdateBoardTextPos@BNC_ButtonEx@@IAEXXZ 1003b750 f   BNC_ButtonEx.obj
 0001:0003a860       ?SetDrawEnable@BNC_ButtonEx@@QAEX_N@Z 1003b860 f   BNC_ButtonEx.obj
 0001:0003a880       ?SetBoardImage@BNC_ButtonEx@@QAEXPAVImage@Gdiplus@@_NVCPoint@@VCSize@@21@Z 1003b880 f   BNC_ButtonEx.obj
 0001:0003a910       ?SetBoardText@BNC_ButtonEx@@QAEXV?$CStringT@_WV?$StrTraitMFC_DLL@_WV?$ChTraitsCRT@_W@ATL@@@@@ATL@@_N@Z 1003b910 f   BNC_ButtonEx.obj
 0001:0003a980       ?SetBoardText@BNC_ButtonEx@@QAEXI_N@Z 1003b980 f   BNC_ButtonEx.obj
 0001:0003a9c0       ?GetBoardText@BNC_ButtonEx@@QAE?AV?$CStringT@_WV?$StrTraitMFC_DLL@_WV?$ChTraitsCRT@_W@ATL@@@@@ATL@@XZ 1003b9c0 f   BNC_ButtonEx.obj
 0001:0003a9f0       ?SetBoardTextFont@BNC_ButtonEx@@QAEXPB_WII_N@Z 1003b9f0 f   BNC_ButtonEx.obj
 0001:0003aaa0       ?SetBoardTextColor@BNC_ButtonEx@@QAEXKKKK_N@Z 1003baa0 f   BNC_ButtonEx.obj
 0001:0003aae0       ??_EBNC_ButtonEx@@UAEPAXI@Z 1003bae0 f i BNC_ButtonEx.obj
 0001:0003abb0       ??0BNC_DummyListControl@@QAE@XZ 1003bbb0 f   BNC_DummyListControl.obj
 0001:0003ac40       ??1BNC_DummyListControl@@UAE@XZ 1003bc40 f   BNC_DummyListControl.obj
 0001:0003aca0       ?GetThisMessageMap@BNC_DummyListControl@@KGPBUAFX_MSGMAP@@XZ 1003bca0 f   BNC_DummyListControl.obj
 0001:0003aca0       ?GetMessageMap@BNC_DummyListControl@@MBEPBUAFX_MSGMAP@@XZ 1003bca0 f   BNC_DummyListControl.obj
 0001:0003acb0       ?Clear@BNC_DummyListControl@@QAEX_N@Z 1003bcb0 f   BNC_DummyListControl.obj
 0001:0003ad80       ?OnUpdateSize@BNC_DummyListControl@@EAEXHH@Z 1003bd80 f   BNC_DummyListControl.obj
 0001:0003adf0       ?OnDraw@BNC_DummyListControl@@EAE_NPAVCDC@@0@Z 1003bdf0 f   BNC_DummyListControl.obj
 0001:0003b080       ?GetListScroll@BNC_DummyListControl@@QAEIXZ 1003c080 f   BNC_DummyListControl.obj
 0001:0003b090       ?SetListScroll@BNC_DummyListControl@@QAEIH_N0@Z 1003c090 f   BNC_DummyListControl.obj
 0001:0003b1c0       ?GetLastIndexBottom@BNC_DummyListControl@@QAEIXZ 1003c1c0 f   BNC_DummyListControl.obj
 0001:0003b1d0       ?Reset@BNC_DummyListControl@@QAEXIIAAVBNC_ReferenceItem@@_N1@Z 1003c1d0 f   BNC_DummyListControl.obj
 0001:0003b290       ?UpdateVisibleIndex@BNC_DummyListControl@@QAEXXZ 1003c290 f   BNC_DummyListControl.obj
 0001:0003b300       ?MouseActionToItemState@BNC_DummyListControl@@QAE?AW4BNE_REFITEM_STATE@@W4BNE_MOUSEACTION@@@Z 1003c300 f   BNC_DummyListControl.obj
 0001:0003b360       ?RedrawIndex@BNC_DummyListControl@@AAEXHW4BNE_REFITEM_STATE@@PAVBNC_ReferenceItem@@@Z 1003c360 f   BNC_DummyListControl.obj
 0001:0003b580       ?UpdateMouseIndex@BNC_DummyListControl@@AAE_NW4BNE_MOUSEACTION@@H@Z 1003c580 f   BNC_DummyListControl.obj
 0001:0003b610       ?ClearMouse@BNC_DummyListControl@@AAEXXZ 1003c610 f   BNC_DummyListControl.obj
 0001:0003b6e0       ?UpdateMouseAction@BNC_DummyListControl@@AAE_NIW4BNE_MOUSEACTION@@AAVCPoint@@@Z 1003c6e0 f   BNC_DummyListControl.obj
 0001:0003b860       ?OnLButtonDown@BNC_DummyListControl@@IAEXIVCPoint@@@Z 1003c860 f   BNC_DummyListControl.obj
 0001:0003b8a0       ?OnLButtonUp@BNC_DummyListControl@@IAEXIVCPoint@@@Z 1003c8a0 f   BNC_DummyListControl.obj
 0001:0003b8e0       ?OnRButtonDown@BNC_DummyListControl@@IAEXIVCPoint@@@Z 1003c8e0 f   BNC_DummyListControl.obj
 0001:0003b940       ?OnRButtonUp@BNC_DummyListControl@@IAEXIVCPoint@@@Z 1003c940 f   BNC_DummyListControl.obj
 0001:0003b970       ?OnLButtonDblClk@BNC_DummyListControl@@IAEXIVCPoint@@@Z 1003c970 f   BNC_DummyListControl.obj
 0001:0003b9b0       ?OnMouseMove@BNC_DummyListControl@@IAEXIVCPoint@@@Z 1003c9b0 f   BNC_DummyListControl.obj
 0001:0003ba50       ?OnCaptureChanged@BNC_DummyListControl@@IAEXPAVCWnd@@@Z 1003ca50 f   BNC_DummyListControl.obj
 0001:0003ba90       ??_EBNC_DummyListControl@@UAEPAXI@Z 1003ca90 f i BNC_DummyListControl.obj
 0001:0003bb50       ?_GetBaseClass@BNC_Edit@@KGPAUCRuntimeClass@@XZ 1003cb50 f   BNC_Edit.obj
 0001:0003bb60       ?GetRuntimeClass@BNC_Edit@@UBEPAUCRuntimeClass@@XZ 1003cb60 f   BNC_Edit.obj
 0001:0003bb60       ?GetThisClass@BNC_Edit@@SGPAUCRuntimeClass@@XZ 1003cb60 f   BNC_Edit.obj
 0001:0003bb70       ??0BNC_Edit@@QAE@XZ        1003cb70 f   BNC_Edit.obj
 0001:0003bd50       ??1BNC_Edit@@UAE@XZ        1003cd50 f   BNC_Edit.obj
 0001:0003be50       ?GetThisMessageMap@BNC_Edit@@KGPBUAFX_MSGMAP@@XZ 1003ce50 f   BNC_Edit.obj
 0001:0003be50       ?GetMessageMap@BNC_Edit@@MBEPBUAFX_MSGMAP@@XZ 1003ce50 f   BNC_Edit.obj
 0001:0003be60       ?OnPaint@BNC_Edit@@QAEXXZ  1003ce60 f   BNC_Edit.obj
 0001:0003bef0       ?DrawGuideText@BNC_Edit@@AAEXXZ 1003cef0 f   BNC_Edit.obj
 0001:0003c110       ?DrawGuideText@BNC_Edit@@QAEXPAVCDC@@AAVCPoint@@@Z 1003d110 f   BNC_Edit.obj
 0001:0003c190       ?DrawGuideText@BNC_Edit@@AAEXPAVCDC@@@Z 1003d190 f   BNC_Edit.obj
 0001:0003c290       ?DrawGuideTextFinish@BNC_Edit@@AAEXPAVCDC@@HHAAV?$CStringT@_WV?$StrTraitMFC_DLL@_WV?$ChTraitsCRT@_W@ATL@@@@@ATL@@@Z 1003d290 f   BNC_Edit.obj
 0001:0003c570       ?SetSelectFont@BNC_Edit@@AAEXPAVCFont@@_N@Z 1003d570 f   BNC_Edit.obj
 0001:0003c5a0       ?OnEnUpdate@BNC_Edit@@QAEXXZ 1003d5a0 f   BNC_Edit.obj
 0001:0003c620       ?OnEnSetfocus@BNC_Edit@@QAEXXZ 1003d620 f   BNC_Edit.obj
 0001:0003c680       ?OnEnKillfocus@BNC_Edit@@QAEXXZ 1003d680 f   BNC_Edit.obj
 0001:0003c6e0       ?PreTranslateMessage@BNC_Edit@@MAEHPAUtagMSG@@@Z 1003d6e0 f   BNC_Edit.obj
 0001:0003c990       ?AddEOL@BNC_Edit@@QAEXXZ   1003d990 f   BNC_Edit.obj
 0001:0003c9e0       ?IsDialKey@BNC_Edit@@AAE_NI@Z 1003d9e0 f   BNC_Edit.obj
 0001:0003cac0       ?SetFontPtr@BNC_Edit@@QAEXPAVCFont@@0_N@Z 1003dac0 f   BNC_Edit.obj
 0001:0003cb20       ?SetText@BNC_Edit@@QAEXPB_W_N@Z 1003db20 f   BNC_Edit.obj
 0001:0003cbb0       ?GetText@BNC_Edit@@QAE?AV?$CStringT@_WV?$StrTraitMFC_DLL@_WV?$ChTraitsCRT@_W@ATL@@@@@ATL@@XZ 1003dbb0 f   BNC_Edit.obj
 0001:0003cbe0       ?SetGuideText@BNC_Edit@@QAEXV?$CStringT@_WV?$StrTraitMFC_DLL@_WV?$ChTraitsCRT@_W@ATL@@@@@ATL@@@Z 1003dbe0 f   BNC_Edit.obj
 0001:0003cc40       ?SetGuideText@BNC_Edit@@QAEXV?$CStringT@_WV?$StrTraitMFC_DLL@_WV?$ChTraitsCRT@_W@ATL@@@@@ATL@@KPAVCFont@@_N@Z 1003dc40 f   BNC_Edit.obj
 0001:0003ccc0       ?SetGuideTextAdd@BNC_Edit@@QAEXV?$CStringT@_WV?$StrTraitMFC_DLL@_WV?$ChTraitsCRT@_W@ATL@@@@@ATL@@K@Z 1003dcc0 f   BNC_Edit.obj
 0001:0003cd20       ?GetBkColor@BNC_Edit@@QAEKXZ 1003dd20 f   BNC_Edit.obj
 0001:0003cd40       ?SetTextColor@BNC_Edit@@QAEXKK_N@Z 1003dd40 f   BNC_Edit.obj
 0001:0003cd80       ?SetBkColor@BNC_Edit@@QAEXKK_N@Z 1003dd80 f   BNC_Edit.obj
 0001:0003ce10       ?OnMouseWheel@BNC_RefListControlEx@@QAEHIFVCPoint@@@Z 1003de10 f   BNC_RefListControlEx.obj
 0001:0003ce10       ?OnMouseWheel@BNC_RefListControl@@QAEHIFVCPoint@@@Z 1003de10 f   BNC_RefListControl.obj
 0001:0003ce10       ?OnMouseWheel@BNC_Edit@@QAEHIFVCPoint@@@Z 1003de10 f   BNC_Edit.obj
 0001:0003ce10       ?OnMouseWheel@BNC_RefTreeControl@@QAEHIFVCPoint@@@Z 1003de10 f   BNC_RefTreeControl.obj
 0001:0003ce20       ?CtlColor@BNC_Edit@@QAEPAUHBRUSH__@@PAVCDC@@I@Z 1003de20 f   BNC_Edit.obj
 0001:0003cf50       ?OnSize@BNC_Edit@@QAEXIHH@Z 1003df50 f   BNC_Edit.obj
 0001:0003cf70       ?OnSetFocus@BNC_Edit@@QAEXPAVCWnd@@@Z 1003df70 f   BNC_Edit.obj
 0001:0003cf80       ??_EBNC_Edit@@UAEPAXI@Z    1003df80 f i BNC_Edit.obj
 0001:0003cfe0       ??0BNC_Editbox@@QAE@XZ     1003dfe0 f   BNC_Editbox.obj
 0001:0003d140       ??1BNC_Editbox@@UAE@XZ     1003e140 f   BNC_Editbox.obj
 0001:0003d230       ?GetThisMessageMap@BNC_Editbox@@KGPBUAFX_MSGMAP@@XZ 1003e230 f   BNC_Editbox.obj
 0001:0003d230       ?GetMessageMap@BNC_Editbox@@MBEPBUAFX_MSGMAP@@XZ 1003e230 f   BNC_Editbox.obj
 0001:0003d240       ?Initialize@BNC_Editbox@@QAE_NVCRect@@V?$CStringT@_WV?$StrTraitMFC_DLL@_WV?$ChTraitsCRT@_W@ATL@@@@@ATL@@HK@Z 1003e240 f   BNC_Editbox.obj
 0001:0003d4d0       ?OnUpdateSize@BNC_Editbox@@MAEXHH@Z 1003e4d0 f   BNC_Editbox.obj
 0001:0003d5b0       ?OnDraw@BNC_Editbox@@MAE_NPAVCDC@@0@Z 1003e5b0 f   BNC_Editbox.obj
 0001:0003d6a0       ?OnEnable@BNC_Editbox@@QAEXH@Z 1003e6a0 f   BNC_Editbox.obj
 0001:0003d710       ?OnWindowPosChanging@BNC_Editbox@@QAEXPAUtagWINDOWPOS@@@Z 1003e710 f   BNC_Editbox.obj
 0001:0003d750       ?SetTextColor@BNC_Editbox@@QAEXKK_N@Z 1003e750 f   BNC_Editbox.obj
 0001:0003d7b0       ?SetBkColor@BNC_Editbox@@QAEXKK_N@Z 1003e7b0 f   BNC_Editbox.obj
 0001:0003d7e0       ?SetEdgeColor@BNC_Editbox@@QAEXKK_N@Z 1003e7e0 f   BNC_Editbox.obj
 0001:0003d870       ?SetLimitText@BNC_Editbox@@QAEXI@Z 1003e870 f   BNC_Editbox.obj
 0001:0003d8a0       ?GetLastPressKey@BNC_Editbox@@QAEIXZ 1003e8a0 f   BNC_Editbox.obj
 0001:0003d8b0       ?GetText@BNC_Editbox@@QAE?AV?$CStringT@_WV?$StrTraitMFC_DLL@_WV?$ChTraitsCRT@_W@ATL@@@@@ATL@@XZ 1003e8b0 f   BNC_Editbox.obj
 0001:0003d8e0       ?GetNumber@BNC_Editbox@@QAEHXZ 1003e8e0 f   BNC_Editbox.obj
 0001:0003d920       ?GetTextLength@BNC_Editbox@@QAEHXZ 1003e920 f   BNC_Editbox.obj
 0001:0003d930       ?SetText@BNC_Editbox@@QAEXV?$CStringT@_WV?$StrTraitMFC_DLL@_WV?$ChTraitsCRT@_W@ATL@@@@@ATL@@_N@Z 1003e930 f   BNC_Editbox.obj
 0001:0003d990       ?SetGuideText@BNC_Editbox@@QAEXV?$CStringT@_WV?$StrTraitMFC_DLL@_WV?$ChTraitsCRT@_W@ATL@@@@@ATL@@@Z 1003e990 f   BNC_Editbox.obj
 0001:0003da10       ?SetGuideText@BNC_Editbox@@QAEXV?$CStringT@_WV?$StrTraitMFC_DLL@_WV?$ChTraitsCRT@_W@ATL@@@@@ATL@@KPAVCFont@@@Z 1003ea10 f   BNC_Editbox.obj
 0001:0003daa0       ?OnMessageEdit@BNC_Editbox@@MAEJIJ@Z 1003eaa0 f   BNC_Editbox.obj
 0001:0003dbc0       ?UpdateEditExtend@BNC_Editbox@@IAEXXZ 1003ebc0 f   BNC_Editbox.obj
 0001:0003dc60       ?OnSetFocus@BNC_Editbox@@QAEXPAVCWnd@@@Z 1003ec60 f   BNC_Editbox.obj
 0001:0003dc90       ?PreTranslateMessage@BNC_Editbox@@UAEHPAUtagMSG@@@Z 1003ec90 f   BNC_Editbox.obj
 0001:0003dcfd       ??_9BNC_Editbox@@$BBHI@AE  1003ecfd f i BNC_Editbox.obj
 0001:0003dd10       ??_EBNC_Editbox@@UAEPAXI@Z 1003ed10 f i BNC_Editbox.obj
 0001:0003dd70       ?GetAliveModal@BNC_FakeModal@@SA?AV?$set@PAUHWND__@@U?$less@PAUHWND__@@@std@@V?$allocator@PAUHWND__@@@3@@std@@XZ 1003ed70 f   BNC_FakeModal.obj
 0001:0003dd90       ?GetCreateCount@BNC_FakeModal@@SAIXZ 1003ed90 f   BNC_FakeModal.obj
 0001:0003dda0       ?GetAliveCount@BNC_FakeModal@@SAIXZ 1003eda0 f   BNC_FakeModal.obj
 0001:0003ddb0       ??0BNC_FakeModal@@QAE@PAVBNC_BaseDialog@@PAPAV0@_N@Z 1003edb0 f   BNC_FakeModal.obj
 0001:0003de70       ??1BNC_FakeModal@@UAE@XZ   1003ee70 f   BNC_FakeModal.obj
 0001:0003df50       ?GetThisMessageMap@BNC_FakeModal@@KGPBUAFX_MSGMAP@@XZ 1003ef50 f   BNC_FakeModal.obj
 0001:0003df50       ?GetMessageMap@BNC_FakeModal@@MBEPBUAFX_MSGMAP@@XZ 1003ef50 f   BNC_FakeModal.obj
 0001:0003df60       ?OnDestroy@BNC_AsyncMessageBox@@IAEXXZ 1003ef60 f   BNC_AsyncMessageBox.obj
 0001:0003df60       ?OnDestroy@BNC_FakeModal@@IAEXXZ 1003ef60 f   BNC_FakeModal.obj
 0001:0003df70       ?PostNcDestroy@BNC_FakeModal@@MAEXXZ 1003ef70 f   BNC_FakeModal.obj
 0001:0003e0f0       ?OnCancel@BNC_FakeModal@@MAEXXZ 1003f0f0 f   BNC_FakeModal.obj
 0001:0003e0f0       ?OnClose@BNC_FakeModal@@IAEXXZ 1003f0f0 f   BNC_FakeModal.obj
 0001:0003e100       ?OnOK@BNC_FakeModal@@MAEXXZ 1003f100 f   BNC_FakeModal.obj
 0001:0003e110       ?Create@BNC_FakeModal@@AAE_NI@Z 1003f110 f   BNC_FakeModal.obj
 0001:0003e180       ?GetLastActive@BNC_FakeModal@@AAEPAVBNC_BaseDialog@@XZ 1003f180 f   BNC_FakeModal.obj
 0001:0003e1b0       ?OnInitDialog@BNC_FakeModal@@MAEHXZ 1003f1b0 f   BNC_FakeModal.obj
 0001:0003e1b0       ?OnInitDialog@BNC_AsyncMessageBox@@MAEHXZ 1003f1b0 f   BNC_AsyncMessageBox.obj
 0001:0003e1e0       ?Run@BNC_FakeModal@@SA_NV?$shared_ptr@VBNC_FakeModal@@@std@@V?$function@$$A6AXHAAVBNC_FakeModal@@@Z@3@V?$function@$$A6AXXZ@3@HI@Z 1003f1e0 f   BNC_FakeModal.obj
 0001:0003e3a0       ?Break@BNC_FakeModal@@QAEXH@Z 1003f3a0 f   BNC_FakeModal.obj
 0001:0003e630       ?GetInitTarget@BNC_FakeModal@@QBEPAVBNC_BaseDialog@@XZ 1003f630 f   BNC_FakeModal.obj
 0001:0003e640       ?IsAlawaysOK@BNC_FakeModal@@QBE_NXZ 1003f640 f   BNC_FakeModal.obj
 0001:0003e650       ?PreTranslateMessage@BNC_FakeModal@@MAEHPAUtagMSG@@@Z 1003f650 f   BNC_FakeModal.obj
 0001:0003e6c0       ??4?$function@$$A6AXXZ@std@@QAEAAV01@AAV01@@Z 1003f6c0 f i BNC_FakeModal.obj
 0001:0003e6c0       ??4?$function@$$A6AXHAAVBNC_FakeModal@@@Z@std@@QAEAAV01@AAV01@@Z 1003f6c0 f i BNC_FakeModal.obj
 0001:0003e720       ??R?$_Func_class@XHAAVBNC_FakeModal@@@std@@QBEXHAAVBNC_FakeModal@@@Z 1003f720 f i BNC_FakeModal.obj
 0001:0003e750       ??_EBNC_FakeModal@@UAEPAXI@Z 1003f750 f i BNC_FakeModal.obj
 0001:0003e7b0       ??0BNC_FloatingButton@@QAE@XZ 1003f7b0 f   BNC_FloatingButton.obj
 0001:0003e860       ??1BNC_FloatingButton@@UAE@XZ 1003f860 f   BNC_FloatingButton.obj
 0001:0003e8a0       ?GetThisMessageMap@BNC_FloatingButton@@KGPBUAFX_MSGMAP@@XZ 1003f8a0 f   BNC_FloatingButton.obj
 0001:0003e8a0       ?GetMessageMap@BNC_FloatingButton@@MBEPBUAFX_MSGMAP@@XZ 1003f8a0 f   BNC_FloatingButton.obj
 0001:0003e8b0       ?OnDestroy@BNC_FloatingButton@@QAEXXZ 1003f8b0 f   BNC_FloatingButton.obj
 0001:0003e8e0       ?OnInitDialog@BNC_FloatingButton@@UAEHXZ 1003f8e0 f   BNC_FloatingButton.obj
 0001:0003e9c0       ?OnLButtonDown@BNC_FloatingButton@@QAEXIVCPoint@@@Z 1003f9c0 f   BNC_FloatingButton.obj
 0001:0003ea50       ?OnLButtonUp@BNC_FloatingButton@@QAEXIVCPoint@@@Z 1003fa50 f   BNC_FloatingButton.obj
 0001:0003eae0       ?OnLButtonDblClk@BNC_FloatingButton@@QAEXIVCPoint@@@Z 1003fae0 f   BNC_FloatingButton.obj
 0001:0003eb20       ?OnMouseMove@BNC_FloatingButton@@QAEXIVCPoint@@@Z 1003fb20 f   BNC_FloatingButton.obj
 0001:0003eb90       ?OnCaptureChanged@BNC_FloatingButton@@QAEXPAVCWnd@@@Z 1003fb90 f   BNC_FloatingButton.obj
 0001:0003ec50       ?SetCursor@BNC_FloatingButton@@QAEXPAUHICON__@@@Z 1003fc50 f   BNC_FloatingButton.obj
 0001:0003ec80       ?SetNotify@BNC_FloatingButton@@QAEXPAUHWND__@@I@Z 1003fc80 f   BNC_FloatingButton.obj
 0001:0003eca0       ?SendNotify@BNC_FloatingButton@@AAEXXZ 1003fca0 f   BNC_FloatingButton.obj
 0001:0003ecf0       ?OnMouseControlUpdate@BNC_FloatingButton@@AAEXW4BNE_MOUSESTATE@@ABVCPoint@@@Z 1003fcf0 f   BNC_FloatingButton.obj
 0001:0003ed40       ?OnEnable@BNC_FloatingButton@@QAEXH@Z 1003fd40 f   BNC_FloatingButton.obj
 0001:0003ed60       ?SetStateOffset@BNC_FloatingButton@@QAEXVCPoint@@00_N@Z 1003fd60 f   BNC_FloatingButton.obj
 0001:0003edb0       ?SetStateAlpha@BNC_FloatingButton@@QAEXEEEE_N@Z 1003fdb0 f   BNC_FloatingButton.obj
 0001:0003ee00       ?UpdateImageLayer@BNC_FloatingButton@@QAEXXZ 1003fe00 f   BNC_FloatingButton.obj
 0001:0003ef80       ??_EBNC_FloatingButton@@UAEPAXI@Z 1003ff80 f i BNC_FloatingButton.obj
 0001:0003f010       ??0BNC_RefListControl@@QAE@XZ 10040010 f   BNC_RefListControl.obj
 0001:0003f0f0       ??1BNC_RefListControl@@UAE@XZ 100400f0 f   BNC_RefListControl.obj
 0001:0003f1e0       ?Clear@BNC_RefListControl@@AAEX_N0@Z 100401e0 f   BNC_RefListControl.obj
 0001:0003f400       ?GetMessageMap@BNC_RefTreeControl@@MBEPBUAFX_MSGMAP@@XZ 10040400 f   BNC_RefTreeControl.obj
 0001:0003f400       ?GetMessageMap@BNC_RefListControl@@MBEPBUAFX_MSGMAP@@XZ 10040400 f   BNC_RefListControl.obj
 0001:0003f400       ?GetThisMessageMap@BNC_RefTreeControl@@KGPBUAFX_MSGMAP@@XZ 10040400 f   BNC_RefTreeControl.obj
 0001:0003f400       ?GetThisMessageMap@BNC_RefListControl@@KGPBUAFX_MSGMAP@@XZ 10040400 f   BNC_RefListControl.obj
 0001:0003f410       ?OnUpdateSize@BNC_RefListControl@@EAEXHH@Z 10040410 f   BNC_RefListControl.obj
 0001:0003f490       ?OnDraw@BNC_RefListControl@@EAE_NPAVCDC@@0@Z 10040490 f   BNC_RefListControl.obj
 0001:0003f7b0       ?OnDrawMouseItem@BNC_RefListControl@@EAEXPAVCDC@@00PAVBNC_ReferenceItem@@@Z 100407b0 f   BNC_RefListControl.obj
 0001:0003f860       ?UpdateItemPos@BNC_RefListControl@@AAEX_NH@Z 10040860 f   BNC_RefListControl.obj
 0001:0003f9b0       ?UpdateOnlyVisibleIndex@BNC_RefListControl@@QAEXXZ 100409b0 f   BNC_RefListControl.obj
 0001:0003fa00       ?UpdateVisibleIndex@BNC_RefListControl@@AAEXXZ 10040a00 f   BNC_RefListControl.obj
 0001:0003fae0       ?Insert@BNC_RefListControl@@AAEHAAV?$CStringT@_WV?$StrTraitMFC_DLL@_WV?$ChTraitsCRT@_W@ATL@@@@@ATL@@PBXAAVBNC_ReferenceItem@@_N@Z 10040ae0 f   BNC_RefListControl.obj
 0001:0003fd00       ?DeleteRefernce@BNC_RefListControl@@AAEXPAVBNC_ReferenceItem@@@Z 10040d00 f   BNC_RefListControl.obj
 0001:0003fd80       ?DeleteFromIndex@BNC_RefListControl@@AAEHI_N@Z 10040d80 f   BNC_RefListControl.obj
 0001:0003feb0       ?DeleteFromPtr@BNC_RefListControl@@AAEHPBVBNC_ReferenceItem@@I_N@Z 10040eb0 f   BNC_RefListControl.obj
 0001:00040080       ?DeleteFromKey@BNC_RefListControl@@AAEHV?$CStringT@_WV?$StrTraitMFC_DLL@_WV?$ChTraitsCRT@_W@ATL@@@@@ATL@@I_N1@Z 10041080 f   BNC_RefListControl.obj
 0001:00040280       ?DeleteFromSequnece@BNC_RefListControl@@AAEHII_N@Z 10041280 f   BNC_RefListControl.obj
 0001:00040460       ?UpdateAfterInsert@BNC_RefListControl@@AAEXI_N0@Z 10041460 f   BNC_RefListControl.obj
 0001:000405b0       ?ModifySortString@BNC_RefListControl@@AAE_NPB_WI0@Z 100415b0 f   BNC_RefListControl.obj
 0001:00040700       ?SortString@BNC_RefListControl@@AAEXI_NH0@Z 10041700 f   BNC_RefListControl.obj
 0001:00040820       ?SortSequence@BNC_RefListControl@@AAEX_N@Z 10041820 f   BNC_RefListControl.obj
 0001:00040960       ?EnableItemIdx@BNC_RefListControl@@QAEXI_N0@Z 10041960 f   BNC_RefListControl.obj
 0001:00040a80       ?EnableItemPtr@BNC_RefListControl@@QAEXPAVBNC_ReferenceItem@@_N1@Z 10041a80 f   BNC_RefListControl.obj
 0001:00040b50       ?IsItemIdxEnable@BNC_RefListControl@@QAE_NI@Z 10041b50 f   BNC_RefListControl.obj
 0001:00040c30       ?IsItemPtrEnable@BNC_RefListControl@@QAE_NPAVBNC_ReferenceItem@@@Z 10041c30 f   BNC_RefListControl.obj
 0001:00040cc0       ?RedrawItem@BNC_RefListControl@@QAEXV?$CStringT@_WV?$StrTraitMFC_DLL@_WV?$ChTraitsCRT@_W@ATL@@@@@ATL@@@Z 10041cc0 f   BNC_RefListControl.obj
 0001:00040d70       ?RedrawItem@BNC_RefListControl@@QAEXPAVBNC_ReferenceItem@@@Z 10041d70 f   BNC_RefListControl.obj
 0001:00040e10       ?OnRedrawItem@BNC_RefListControl@@EAEXPAVBNC_ReferenceItem@@W4BNE_REFITEM_STATE@@@Z 10041e10 f   BNC_RefListControl.obj
 0001:00041040       ?GetItemPtr@BNC_RefListControl@@AAEPAVBNC_ReferenceItem@@I@Z 10042040 f   BNC_RefListControl.obj
 0001:000410e0       ?GetItemPtr@BNC_RefListControl@@AAEPAVBNC_ReferenceItem@@AAV?$CStringT@_WV?$StrTraitMFC_DLL@_WV?$ChTraitsCRT@_W@ATL@@@@@ATL@@@Z 100420e0 f   BNC_RefListControl.obj
 0001:000411b0       ?GetItemList@BNC_RefListControl@@AAE_NAAV?$vector@PAVBNC_ReferenceItem@@V?$allocator@PAVBNC_ReferenceItem@@@std@@@std@@@Z 100421b0 f   BNC_RefListControl.obj
 0001:00041260       ?GetItemCount@BNC_RefListControl@@AAEHXZ 10042260 f   BNC_RefListControl.obj
 0001:00041270       ?GetVisibleTopItem@BNC_RefListControl@@QAEPAVBNC_ReferenceItem@@XZ 10042270 f   BNC_RefListControl.obj
 0001:00041310       ?OnUpdateEvent@BNC_RefListControl@@EAEXW4BNE_MOUSEACTION@@PAVBNC_ReferenceItem@@@Z 10042310 f   BNC_RefListControl.obj
 0001:00041310       ?OnUpdateEvent@BNC_RefListControlEx@@EAEXW4BNE_MOUSEACTION@@PAVBNC_ReferenceItemEx@@@Z 10042310 f   BNC_RefListControlEx.obj
 0001:00041350       ?OnFindItem@BNC_RefListControl@@EAE_NAAVCPoint@@PAPAVBNC_ReferenceItem@@@Z 10042350 f   BNC_RefListControl.obj
 0001:00041480       ?GetTreeScroll@BNC_RefTreeControl@@QAEIXZ 10042480 f   BNC_RefTreeControl.obj
 0001:00041480       ?GetListScroll@BNC_RefListControl@@QAEIXZ 10042480 f   BNC_RefListControl.obj
 0001:00041490       ?SetListScroll@BNC_RefListControl@@QAEIH_N0@Z 10042490 f   BNC_RefListControl.obj
 0001:000415c0       ?GetItemTotalHeight@BNC_RefListControl@@QAEIXZ 100425c0 f   BNC_RefListControl.obj
 0001:000415d0       ?SyncWindowClear@BNC_RefListControl@@QAEXXZ 100425d0 f   BNC_RefListControl.obj
 0001:00041630       ?SyncWindowHide@BNC_RefListControl@@QAEXXZ 10042630 f   BNC_RefListControl.obj
 0001:000416a0       ?SyncWindowUpdate@BNC_RefListControl@@QAEXXZ 100426a0 f   BNC_RefListControl.obj
 0001:00041750       ?find@?$_Tree@V?$_Tmap_traits@V?$CStringT@_WV?$StrTraitMFC_DLL@_WV?$ChTraitsCRT@_W@ATL@@@@@ATL@@PAVBNC_ReferenceItem@@U?$less@V?$CStringT@_WV?$StrTraitMFC_DLL@_WV?$ChTraitsCRT@_W@ATL@@@@@ATL@@@std@@V?$allocator@U?$pair@$$CBV?$CStringT@_WV?$StrTraitMFC_DLL@_WV?$ChTraitsCRT@_W@ATL@@@@@ATL@@PAVBNC_ReferenceItem@@@std@@@5@$0A@@std@@@std@@QAE?AV?$_Tree_iterator@V?$_Tree_val@U?$_Tree_simple_types@U?$pair@$$CBV?$CStringT@_WV?$StrTraitMFC_DLL@_WV?$ChTraitsCRT@_W@ATL@@@@@ATL@@PAVBNC_ReferenceItem@@@std@@@std@@@std@@@2@ABV?$CStringT@_WV?$StrTraitMFC_DLL@_WV?$ChTraitsCRT@_W@ATL@@@@@ATL@@@Z 10042750 f i BNC_RefListControl.obj
 0001:000417b0       ?_Lbound@?$_Tree@V?$_Tmap_traits@V?$CStringT@_WV?$StrTraitMFC_DLL@_WV?$ChTraitsCRT@_W@ATL@@@@@ATL@@PAVBNC_ReferenceItem@@U?$less@V?$CStringT@_WV?$StrTraitMFC_DLL@_WV?$ChTraitsCRT@_W@ATL@@@@@ATL@@@std@@V?$allocator@U?$pair@$$CBV?$CStringT@_WV?$StrTraitMFC_DLL@_WV?$ChTraitsCRT@_W@ATL@@@@@ATL@@PAVBNC_ReferenceItem@@@std@@@5@$0A@@std@@@std@@IAEPAU?$_Tree_node@U?$pair@$$CBV?$CStringT@_WV?$StrTraitMFC_DLL@_WV?$ChTraitsCRT@_W@ATL@@@@@ATL@@PAVBNC_ReferenceItem@@@std@@PAX@2@ABV?$CStringT@_WV?$StrTraitMFC_DLL@_WV?$ChTraitsCRT@_W@ATL@@@@@ATL@@@Z 100427b0 f i BNC_RefListControl.obj
 0001:000417b0       ?_Lbound@?$_Tree@V?$_Tmap_traits@V?$CStringT@_WV?$StrTraitMFC_DLL@_WV?$ChTraitsCRT@_W@ATL@@@@@ATL@@PAVBNC_ReferenceItemEx@@U?$less@V?$CStringT@_WV?$StrTraitMFC_DLL@_WV?$ChTraitsCRT@_W@ATL@@@@@ATL@@@std@@V?$allocator@U?$pair@$$CBV?$CStringT@_WV?$StrTraitMFC_DLL@_WV?$ChTraitsCRT@_W@ATL@@@@@ATL@@PAVBNC_ReferenceItemEx@@@std@@@5@$0A@@std@@@std@@IAEPAU?$_Tree_node@U?$pair@$$CBV?$CStringT@_WV?$StrTraitMFC_DLL@_WV?$ChTraitsCRT@_W@ATL@@@@@ATL@@PAVBNC_ReferenceItemEx@@@std@@PAX@2@ABV?$CStringT@_WV?$StrTraitMFC_DLL@_WV?$ChTraitsCRT@_W@ATL@@@@@ATL@@@Z 100427b0 f i BNC_RefListControlEx.obj
 0001:000417f0       ??$_Insert_nohint@AAU?$pair@$$CBV?$CStringT@_WV?$StrTraitMFC_DLL@_WV?$ChTraitsCRT@_W@ATL@@@@@ATL@@PAVBNC_ReferenceItemExOption@@@std@@PAU?$_Tree_node@U?$pair@$$CBV?$CStringT@_WV?$StrTraitMFC_DLL@_WV?$ChTraitsCRT@_W@ATL@@@@@ATL@@PAVBNC_ReferenceItemExOption@@@std@@PAX@2@@?$_Tree@V?$_Tmap_traits@V?$CStringT@_WV?$StrTraitMFC_DLL@_WV?$ChTraitsCRT@_W@ATL@@@@@ATL@@PAVBNC_ReferenceItemExOption@@U?$less@V?$CStringT@_WV?$StrTraitMFC_DLL@_WV?$ChTraitsCRT@_W@ATL@@@@@ATL@@@std@@V?$allocator@U?$pair@$$CBV?$CStringT@_WV?$StrTraitMFC_DLL@_WV?$ChTraitsCRT@_W@ATL@@@@@ATL@@PAVBNC_ReferenceItemExOption@@@std@@@5@$0A@@std@@@std@@IAE?AU?$pair@V?$_Tree_iterator@V?$_Tree_val@U?$_Tree_simple_types@U?$pair@$$CBV?$CStringT@_WV?$StrTraitMFC_DLL@_WV?$ChTraitsCRT@_W@ATL@@@@@ATL@@PAVBNC_ReferenceItemExOption@@@std@@@std@@@std@@@std@@_N@1@_NAAU?$pair@$$CBV?$CStringT@_WV?$StrTraitMFC_DLL@_WV?$ChTraitsCRT@_W@ATL@@@@@ATL@@PAVBNC_ReferenceItemExOption@@@1@PAU?$_Tree_node@U?$pair@$$CBV?$CStringT@_WV?$StrTraitMFC_DLL@_WV?$ChTraitsCRT@_W@ATL@@@@@ATL@@PAVBNC_ReferenceItemExOption@@@std@@PAX@1@@Z 100427f0 f i BNC_RefListControlEx.obj
 0001:000417f0       ??$_Insert_nohint@AAU?$pair@$$CBV?$CStringT@_WV?$StrTraitMFC_DLL@_WV?$ChTraitsCRT@_W@ATL@@@@@ATL@@PAVBNC_ReferenceItemEx@@@std@@PAU?$_Tree_node@U?$pair@$$CBV?$CStringT@_WV?$StrTraitMFC_DLL@_WV?$ChTraitsCRT@_W@ATL@@@@@ATL@@PAVBNC_ReferenceItemEx@@@std@@PAX@2@@?$_Tree@V?$_Tmap_traits@V?$CStringT@_WV?$StrTraitMFC_DLL@_WV?$ChTraitsCRT@_W@ATL@@@@@ATL@@PAVBNC_ReferenceItemEx@@U?$less@V?$CStringT@_WV?$StrTraitMFC_DLL@_WV?$ChTraitsCRT@_W@ATL@@@@@ATL@@@std@@V?$allocator@U?$pair@$$CBV?$CStringT@_WV?$StrTraitMFC_DLL@_WV?$ChTraitsCRT@_W@ATL@@@@@ATL@@PAVBNC_ReferenceItemEx@@@std@@@5@$0A@@std@@@std@@IAE?AU?$pair@V?$_Tree_iterator@V?$_Tree_val@U?$_Tree_simple_types@U?$pair@$$CBV?$CStringT@_WV?$StrTraitMFC_DLL@_WV?$ChTraitsCRT@_W@ATL@@@@@ATL@@PAVBNC_ReferenceItemEx@@@std@@@std@@@std@@@std@@_N@1@_NAAU?$pair@$$CBV?$CStringT@_WV?$StrTraitMFC_DLL@_WV?$ChTraitsCRT@_W@ATL@@@@@ATL@@PAVBNC_ReferenceItemEx@@@1@PAU?$_Tree_node@U?$pair@$$CBV?$CStringT@_WV?$StrTraitMFC_DLL@_WV?$ChTraitsCRT@_W@ATL@@@@@ATL@@PAVBNC_ReferenceItemEx@@@std@@PAX@1@@Z 100427f0 f i BNC_RefListControlEx.obj
 0001:000417f0       ??$_Insert_nohint@AAU?$pair@$$CBV?$CStringT@_WV?$StrTraitMFC_DLL@_WV?$ChTraitsCRT@_W@ATL@@@@@ATL@@PAVBNC_ReferenceItem@@@std@@PAU?$_Tree_node@U?$pair@$$CBV?$CStringT@_WV?$StrTraitMFC_DLL@_WV?$ChTraitsCRT@_W@ATL@@@@@ATL@@PAVBNC_ReferenceItem@@@std@@PAX@2@@?$_Tree@V?$_Tmap_traits@V?$CStringT@_WV?$StrTraitMFC_DLL@_WV?$ChTraitsCRT@_W@ATL@@@@@ATL@@PAVBNC_ReferenceItem@@U?$less@V?$CStringT@_WV?$StrTraitMFC_DLL@_WV?$ChTraitsCRT@_W@ATL@@@@@ATL@@@std@@V?$allocator@U?$pair@$$CBV?$CStringT@_WV?$StrTraitMFC_DLL@_WV?$ChTraitsCRT@_W@ATL@@@@@ATL@@PAVBNC_ReferenceItem@@@std@@@5@$0A@@std@@@std@@IAE?AU?$pair@V?$_Tree_iterator@V?$_Tree_val@U?$_Tree_simple_types@U?$pair@$$CBV?$CStringT@_WV?$StrTraitMFC_DLL@_WV?$ChTraitsCRT@_W@ATL@@@@@ATL@@PAVBNC_ReferenceItem@@@std@@@std@@@std@@@std@@_N@1@_NAAU?$pair@$$CBV?$CStringT@_WV?$StrTraitMFC_DLL@_WV?$ChTraitsCRT@_W@ATL@@@@@ATL@@PAVBNC_ReferenceItem@@@1@PAU?$_Tree_node@U?$pair@$$CBV?$CStringT@_WV?$StrTraitMFC_DLL@_WV?$ChTraitsCRT@_W@ATL@@@@@ATL@@PAVBNC_ReferenceItem@@@std@@PAX@1@@Z 100427f0 f i BNC_RefListControl.obj
 0001:00041950       ??$_Stable_sort@PAPAVBNC_ReferenceItem@@HPAV1@VBNC_ReferenceItemSeqSort@@@std@@YAXPAPAVBNC_ReferenceItem@@0PAH0VBNC_ReferenceItemSeqSort@@@Z 10042950 f i BNC_RefListControl.obj
 0001:00041a00       ??$_Stable_sort@PAPAVBNC_ReferenceItem@@HPAV1@VBNC_ReferenceItemSort@@@std@@YAXPAPAVBNC_ReferenceItem@@0PAH0VBNC_ReferenceItemSort@@@Z 10042a00 f i BNC_RefListControl.obj
 0001:00041ac0       ??1?$_Temp_iterator@PAVBNC_ReferenceItem@@@std@@QAE@XZ 10042ac0 f i BNC_RefListControl.obj
 0001:00041ac0       ??1?$_Temp_iterator@PAVBNC_ReferenceItemEx@@@std@@QAE@XZ 10042ac0 f i BNC_RefListControlEx.obj
 0001:00041ad0       ??$_Insert_at@AAU?$pair@$$CBV?$CStringT@_WV?$StrTraitMFC_DLL@_WV?$ChTraitsCRT@_W@ATL@@@@@ATL@@PAVBNC_ReferenceItemExOption@@@std@@PAU?$_Tree_node@U?$pair@$$CBV?$CStringT@_WV?$StrTraitMFC_DLL@_WV?$ChTraitsCRT@_W@ATL@@@@@ATL@@PAVBNC_ReferenceItemExOption@@@std@@PAX@2@@?$_Tree@V?$_Tmap_traits@V?$CStringT@_WV?$StrTraitMFC_DLL@_WV?$ChTraitsCRT@_W@ATL@@@@@ATL@@PAVBNC_ReferenceItemExOption@@U?$less@V?$CStringT@_WV?$StrTraitMFC_DLL@_WV?$ChTraitsCRT@_W@ATL@@@@@ATL@@@std@@V?$allocator@U?$pair@$$CBV?$CStringT@_WV?$StrTraitMFC_DLL@_WV?$ChTraitsCRT@_W@ATL@@@@@ATL@@PAVBNC_ReferenceItemExOption@@@std@@@5@$0A@@std@@@std@@IAE?AV?$_Tree_iterator@V?$_Tree_val@U?$_Tree_simple_types@U?$pair@$$CBV?$CStringT@_WV?$StrTraitMFC_DLL@_WV?$ChTraitsCRT@_W@ATL@@@@@ATL@@PAVBNC_ReferenceItemExOption@@@std@@@std@@@std@@@1@_NPAU?$_Tree_node@U?$pair@$$CBV?$CStringT@_WV?$StrTraitMFC_DLL@_WV?$ChTraitsCRT@_W@ATL@@@@@ATL@@PAVBNC_ReferenceItemExOption@@@std@@PAX@1@AAU?$pair@$$CBV?$CStringT@_WV?$StrTraitMFC_DLL@_WV?$ChTraitsCRT@_W@ATL@@@@@ATL@@PAVBNC_ReferenceItemExOption@@@1@1@Z 10042ad0 f i BNC_RefListControlEx.obj
 0001:00041ad0       ??$_Insert_at@AAU?$pair@$$CBV?$CStringT@_WV?$StrTraitMFC_DLL@_WV?$ChTraitsCRT@_W@ATL@@@@@ATL@@PAVBNC_ReferenceItem@@@std@@PAU?$_Tree_node@U?$pair@$$CBV?$CStringT@_WV?$StrTraitMFC_DLL@_WV?$ChTraitsCRT@_W@ATL@@@@@ATL@@PAVBNC_ReferenceItem@@@std@@PAX@2@@?$_Tree@V?$_Tmap_traits@V?$CStringT@_WV?$StrTraitMFC_DLL@_WV?$ChTraitsCRT@_W@ATL@@@@@ATL@@PAVBNC_ReferenceItem@@U?$less@V?$CStringT@_WV?$StrTraitMFC_DLL@_WV?$ChTraitsCRT@_W@ATL@@@@@ATL@@@std@@V?$allocator@U?$pair@$$CBV?$CStringT@_WV?$StrTraitMFC_DLL@_WV?$ChTraitsCRT@_W@ATL@@@@@ATL@@PAVBNC_ReferenceItem@@@std@@@5@$0A@@std@@@std@@IAE?AV?$_Tree_iterator@V?$_Tree_val@U?$_Tree_simple_types@U?$pair@$$CBV?$CStringT@_WV?$StrTraitMFC_DLL@_WV?$ChTraitsCRT@_W@ATL@@@@@ATL@@PAVBNC_ReferenceItem@@@std@@@std@@@std@@@1@_NPAU?$_Tree_node@U?$pair@$$CBV?$CStringT@_WV?$StrTraitMFC_DLL@_WV?$ChTraitsCRT@_W@ATL@@@@@ATL@@PAVBNC_ReferenceItem@@@std@@PAX@1@AAU?$pair@$$CBV?$CStringT@_WV?$StrTraitMFC_DLL@_WV?$ChTraitsCRT@_W@ATL@@@@@ATL@@PAVBNC_ReferenceItem@@@1@1@Z 10042ad0 f i BNC_RefListControl.obj
 0001:00041ad0       ??$_Insert_at@AAU?$pair@$$CBV?$CStringT@_WV?$StrTraitMFC_DLL@_WV?$ChTraitsCRT@_W@ATL@@@@@ATL@@PAVBNC_ReferenceItemEx@@@std@@PAU?$_Tree_node@U?$pair@$$CBV?$CStringT@_WV?$StrTraitMFC_DLL@_WV?$ChTraitsCRT@_W@ATL@@@@@ATL@@PAVBNC_ReferenceItemEx@@@std@@PAX@2@@?$_Tree@V?$_Tmap_traits@V?$CStringT@_WV?$StrTraitMFC_DLL@_WV?$ChTraitsCRT@_W@ATL@@@@@ATL@@PAVBNC_ReferenceItemEx@@U?$less@V?$CStringT@_WV?$StrTraitMFC_DLL@_WV?$ChTraitsCRT@_W@ATL@@@@@ATL@@@std@@V?$allocator@U?$pair@$$CBV?$CStringT@_WV?$StrTraitMFC_DLL@_WV?$ChTraitsCRT@_W@ATL@@@@@ATL@@PAVBNC_ReferenceItemEx@@@std@@@5@$0A@@std@@@std@@IAE?AV?$_Tree_iterator@V?$_Tree_val@U?$_Tree_simple_types@U?$pair@$$CBV?$CStringT@_WV?$StrTraitMFC_DLL@_WV?$ChTraitsCRT@_W@ATL@@@@@ATL@@PAVBNC_ReferenceItemEx@@@std@@@std@@@std@@@1@_NPAU?$_Tree_node@U?$pair@$$CBV?$CStringT@_WV?$StrTraitMFC_DLL@_WV?$ChTraitsCRT@_W@ATL@@@@@ATL@@PAVBNC_ReferenceItemEx@@@std@@PAX@1@AAU?$pair@$$CBV?$CStringT@_WV?$StrTraitMFC_DLL@_WV?$ChTraitsCRT@_W@ATL@@@@@ATL@@PAVBNC_ReferenceItemEx@@@1@1@Z 10042ad0 f i BNC_RefListControlEx.obj
 0001:00041cb0       ??$_Stable_sort@PAPAVBNC_ReferenceItem@@HPAV1@VBNC_ReferenceItemSeqSort@@@std@@YAXPAPAVBNC_ReferenceItem@@0HAAV?$_Temp_iterator@PAVBNC_ReferenceItem@@@0@VBNC_ReferenceItemSeqSort@@@Z 10042cb0 f i BNC_RefListControl.obj
 0001:00041d90       ??$_Stable_sort@PAPAVBNC_ReferenceItem@@HPAV1@VBNC_ReferenceItemSort@@@std@@YAXPAPAVBNC_ReferenceItem@@0HAAV?$_Temp_iterator@PAVBNC_ReferenceItem@@@0@VBNC_ReferenceItemSort@@@Z 10042d90 f i BNC_RefListControl.obj
 0001:00041eb0       ?_Maxlen@?$_Temp_iterator@PAVBNC_ReferenceItemEx@@@std@@QAEHXZ 10042eb0 f i BNC_RefListControlEx.obj
 0001:00041eb0       ?_Maxlen@?$_Temp_iterator@PAVBNC_ReferenceItem@@@std@@QAEHXZ 10042eb0 f i BNC_RefListControl.obj
 0001:00041f00       ??$_Buffered_merge_sort@PAPAVBNC_ReferenceItem@@HPAV1@VBNC_ReferenceItemSeqSort@@@std@@YAXPAPAVBNC_ReferenceItem@@0HAAV?$_Temp_iterator@PAVBNC_ReferenceItem@@@0@VBNC_ReferenceItemSeqSort@@@Z 10042f00 f i BNC_RefListControl.obj
 0001:00041fc0       ??$_Buffered_merge@PAPAVBNC_ReferenceItem@@HPAV1@VBNC_ReferenceItemSeqSort@@@std@@YAXPAPAVBNC_ReferenceItem@@00HHAAV?$_Temp_iterator@PAVBNC_ReferenceItem@@@0@VBNC_ReferenceItemSeqSort@@@Z 10042fc0 f i BNC_RefListControl.obj
 0001:000421b0       ??$_Buffered_merge_sort@PAPAVBNC_ReferenceItem@@HPAV1@VBNC_ReferenceItemSort@@@std@@YAXPAPAVBNC_ReferenceItem@@0HAAV?$_Temp_iterator@PAVBNC_ReferenceItem@@@0@VBNC_ReferenceItemSort@@@Z 100431b0 f i BNC_RefListControl.obj
 0001:000422b0       ??$_Buffered_merge@PAPAVBNC_ReferenceItem@@HPAV1@VBNC_ReferenceItemSort@@@std@@YAXPAPAVBNC_ReferenceItem@@00HHAAV?$_Temp_iterator@PAVBNC_ReferenceItem@@@0@VBNC_ReferenceItemSort@@@Z 100432b0 f i BNC_RefListControl.obj
 0001:000424d0       ??$get_temporary_buffer@PAVBNC_ReferenceItemEx@@@std@@YA?AU?$pair@PAPAVBNC_ReferenceItemEx@@H@0@H@Z 100434d0 f i BNC_RefListControlEx.obj
 0001:000424d0       ??$get_temporary_buffer@PAVBNC_ReferenceItem@@@std@@YA?AU?$pair@PAPAVBNC_ReferenceItem@@H@0@H@Z 100434d0 f i BNC_RefListControl.obj
 0001:00042540       ??0?$_Temp_iterator@PAVBNC_ReferenceItemEx@@@std@@QAE@ABV01@@Z 10043540 f i BNC_RefListControlEx.obj
 0001:00042540       ??0?$_Temp_iterator@PAVBNC_ReferenceItem@@@std@@QAE@ABV01@@Z 10043540 f i BNC_RefListControl.obj
 0001:00042570       ??$_Insertion_sort1@PAPAVBNC_ReferenceItem@@VBNC_ReferenceItemSeqSort@@PAV1@@std@@YAXPAPAVBNC_ReferenceItem@@0VBNC_ReferenceItemSeqSort@@0@Z 10043570 f i BNC_RefListControl.obj
 0001:00042630       ??$_Chunked_merge@PAPAVBNC_ReferenceItem@@V?$_Temp_iterator@PAVBNC_ReferenceItem@@@std@@HVBNC_ReferenceItemSeqSort@@@std@@YAXPAPAVBNC_ReferenceItem@@0V?$_Temp_iterator@PAVBNC_ReferenceItem@@@0@HHVBNC_ReferenceItemSeqSort@@@Z 10043630 f i BNC_RefListControl.obj
 0001:00042770       ??$_Chunked_merge@PAPAVBNC_ReferenceItem@@PAPAV1@HVBNC_ReferenceItemSeqSort@@@std@@YAXPAPAVBNC_ReferenceItem@@00HHVBNC_ReferenceItemSeqSort@@@Z 10043770 f i BNC_RefListControl.obj
 0001:00042800       ??$_Move@PAPAVBNC_ReferenceItemEx@@V?$_Temp_iterator@PAVBNC_ReferenceItemEx@@@std@@@std@@YA?AV?$_Temp_iterator@PAVBNC_ReferenceItemEx@@@0@PAPAVBNC_ReferenceItemEx@@0V10@@Z 10043800 f i BNC_RefListControlEx.obj
 0001:00042800       ??$_Move@PAPAVBNC_ReferenceItem@@V?$_Temp_iterator@PAVBNC_ReferenceItem@@@std@@@std@@YA?AV?$_Temp_iterator@PAVBNC_ReferenceItem@@@0@PAPAVBNC_ReferenceItem@@0V10@@Z 10043800 f i BNC_RefListControl.obj
 0001:00042860       ??$_Merge@PAPAVBNC_ReferenceItem@@PAPAV1@PAPAV1@VBNC_ReferenceItemSeqSort@@@std@@YAPAPAVBNC_ReferenceItem@@PAPAV1@0000VBNC_ReferenceItemSeqSort@@@Z 10043860 f i BNC_RefListControl.obj
 0001:00042910       ??$_Merge_backward@PAPAVBNC_ReferenceItem@@PAPAV1@PAPAV1@VBNC_ReferenceItemSeqSort@@@std@@YAPAPAVBNC_ReferenceItem@@PAPAV1@0000VBNC_ReferenceItemSeqSort@@@Z 10043910 f i BNC_RefListControl.obj
 0001:000429d0       ??$_Buffered_rotate@PAPAVBNC_ReferenceItem@@HPAV1@@std@@YAPAPAVBNC_ReferenceItem@@PAPAV1@00HHAAV?$_Temp_iterator@PAVBNC_ReferenceItem@@@0@@Z 100439d0 f i BNC_RefListControl.obj
 0001:000429d0       ??$_Buffered_rotate@PAPAVBNC_ReferenceItemEx@@HPAV1@@std@@YAPAPAVBNC_ReferenceItemEx@@PAPAV1@00HHAAV?$_Temp_iterator@PAVBNC_ReferenceItemEx@@@0@@Z 100439d0 f i BNC_RefListControlEx.obj
 0001:00042b80       ??$_Insertion_sort1@PAPAVBNC_ReferenceItem@@VBNC_ReferenceItemSort@@PAV1@@std@@YAXPAPAVBNC_ReferenceItem@@0VBNC_ReferenceItemSort@@0@Z 10043b80 f i BNC_RefListControl.obj
 0001:00042c40       ??$_Chunked_merge@PAPAVBNC_ReferenceItem@@V?$_Temp_iterator@PAVBNC_ReferenceItem@@@std@@HVBNC_ReferenceItemSort@@@std@@YAXPAPAVBNC_ReferenceItem@@0V?$_Temp_iterator@PAVBNC_ReferenceItem@@@0@HHVBNC_ReferenceItemSort@@@Z 10043c40 f i BNC_RefListControl.obj
 0001:00042dc0       ??$_Chunked_merge@PAPAVBNC_ReferenceItem@@PAPAV1@HVBNC_ReferenceItemSort@@@std@@YAXPAPAVBNC_ReferenceItem@@00HHVBNC_ReferenceItemSort@@@Z 10043dc0 f i BNC_RefListControl.obj
 0001:00042e70       ??$_Merge@PAPAVBNC_ReferenceItem@@PAPAV1@PAPAV1@VBNC_ReferenceItemSort@@@std@@YAPAPAVBNC_ReferenceItem@@PAPAV1@0000VBNC_ReferenceItemSort@@@Z 10043e70 f i BNC_RefListControl.obj
 0001:00042f20       ??$_Merge_backward@PAPAVBNC_ReferenceItem@@PAPAV1@PAPAV1@VBNC_ReferenceItemSort@@@std@@YAPAPAVBNC_ReferenceItem@@PAPAV1@0000VBNC_ReferenceItemSort@@@Z 10043f20 f i BNC_RefListControl.obj
 0001:00042fc0       ??$_Merge@PAPAVBNC_ReferenceItem@@PAPAV1@V?$_Temp_iterator@PAVBNC_ReferenceItem@@@std@@VBNC_ReferenceItemSeqSort@@@std@@YA?AV?$_Temp_iterator@PAVBNC_ReferenceItem@@@0@PAPAVBNC_ReferenceItem@@000V10@VBNC_ReferenceItemSeqSort@@@Z 10043fc0 f i BNC_RefListControl.obj
 0001:00043120       ??$_Move@PAPAVBNC_ReferenceItem@@V?$_Temp_iterator@PAVBNC_ReferenceItem@@@std@@@std@@YA?AV?$_Temp_iterator@PAVBNC_ReferenceItem@@@0@PAPAVBNC_ReferenceItem@@0V10@U_Nonscalar_ptr_iterator_tag@0@@Z 10044120 f i BNC_RefListControl.obj
 0001:00043120       ??$_Move@PAPAVBNC_ReferenceItemEx@@V?$_Temp_iterator@PAVBNC_ReferenceItemEx@@@std@@@std@@YA?AV?$_Temp_iterator@PAVBNC_ReferenceItemEx@@@0@PAPAVBNC_ReferenceItemEx@@0V10@U_Nonscalar_ptr_iterator_tag@0@@Z 10044120 f i BNC_RefListControlEx.obj
 0001:000431c0       ??$_Lower_bound@PAPAVBNC_ReferenceItem@@PAV1@HVBNC_ReferenceItemSeqSort@@@std@@YAPAPAVBNC_ReferenceItem@@PAPAV1@0ABQAV1@VBNC_ReferenceItemSeqSort@@PAH@Z 100441c0 f i BNC_RefListControl.obj
 0001:00043230       ??$_Upper_bound@PAPAVBNC_ReferenceItem@@PAV1@HVBNC_ReferenceItemSeqSort@@@std@@YAPAPAVBNC_ReferenceItem@@PAPAV1@0ABQAV1@VBNC_ReferenceItemSeqSort@@PAH@Z 10044230 f i BNC_RefListControl.obj
 0001:000432b0       ??$_Merge@PAPAVBNC_ReferenceItem@@PAPAV1@V?$_Temp_iterator@PAVBNC_ReferenceItem@@@std@@VBNC_ReferenceItemSort@@@std@@YA?AV?$_Temp_iterator@PAVBNC_ReferenceItem@@@0@PAPAVBNC_ReferenceItem@@000V10@VBNC_ReferenceItemSort@@@Z 100442b0 f i BNC_RefListControl.obj
 0001:00043430       ??$_Lower_bound@PAPAVBNC_ReferenceItem@@PAV1@HVBNC_ReferenceItemSort@@@std@@YAPAPAVBNC_ReferenceItem@@PAPAV1@0ABQAV1@VBNC_ReferenceItemSort@@PAH@Z 10044430 f i BNC_RefListControl.obj
 0001:000434a0       ??$_Upper_bound@PAPAVBNC_ReferenceItem@@PAV1@HVBNC_ReferenceItemSort@@@std@@YAPAPAVBNC_ReferenceItem@@PAPAV1@0ABQAV1@VBNC_ReferenceItemSort@@PAH@Z 100444a0 f i BNC_RefListControl.obj
 0001:00043510       ??$_Rotate@PAPAVBNC_ReferenceItemEx@@HPAV1@@std@@YAXPAPAVBNC_ReferenceItemEx@@00PAH0@Z 10044510 f i BNC_RefListControlEx.obj
 0001:00043510       ??$_Rotate@PAPAVBNC_ReferenceItem@@HPAV1@@std@@YAXPAPAVBNC_ReferenceItem@@00PAH0@Z 10044510 f i BNC_RefListControl.obj
 0001:000435c0       ??_EBNC_RefListControl@@UAEPAXI@Z 100445c0 f i BNC_RefListControl.obj
 0001:00043620       ??0BNC_RefListControlEx@@QAE@XZ 10044620 f   BNC_RefListControlEx.obj
 0001:00043730       ??1BNC_RefListControlEx@@UAE@XZ 10044730 f   BNC_RefListControlEx.obj
 0001:00043850       ?Clear@BNC_RefListControlEx@@AAEX_N0@Z 10044850 f   BNC_RefListControlEx.obj
 0001:00043b50       ?GetThisMessageMap@BNC_RefListControlEx@@KGPBUAFX_MSGMAP@@XZ 10044b50 f   BNC_RefListControlEx.obj
 0001:00043b50       ?GetMessageMap@BNC_RefListControlEx@@MBEPBUAFX_MSGMAP@@XZ 10044b50 f   BNC_RefListControlEx.obj
 0001:00043b60       ?OnUpdateSize@BNC_RefListControlEx@@EAEXHH@Z 10044b60 f   BNC_RefListControlEx.obj
 0001:00043d40       ?DrawItemClip@BNC_RefListControlEx@@AAEXPAVCDC@@00PAVBNC_ReferenceItemEx@@@Z 10044d40 f   BNC_RefListControlEx.obj
 0001:00043e90       ?OnDraw@BNC_RefListControlEx@@EAE_NPAVCDC@@0@Z 10044e90 f   BNC_RefListControlEx.obj
 0001:00044130       ?OnDrawMouseItem@BNC_RefListControlEx@@EAEXPAVCDC@@00PAVBNC_ReferenceItemEx@@@Z 10045130 f   BNC_RefListControlEx.obj
 0001:00044140       ?UpdateItemPos@BNC_RefListControlEx@@AAEX_NH@Z 10045140 f   BNC_RefListControlEx.obj
 0001:00044360       ?UpdateVisibleIndex@BNC_RefListControlEx@@AAEXXZ 10045360 f   BNC_RefListControlEx.obj
 0001:000444a0       ?SyncWindowClear@BNC_RefListControlEx@@QAEXXZ 100454a0 f   BNC_RefListControlEx.obj
 0001:00044500       ?SyncWindowHide@BNC_RefListControlEx@@QAEXXZ 10045500 f   BNC_RefListControlEx.obj
 0001:00044570       ?SyncWindowUpdate@BNC_RefListControlEx@@QAEXXZ 10045570 f   BNC_RefListControlEx.obj
 0001:000446d0       ?GetSyncWindowPos@BNC_RefListControlEx@@QAE?AVCRect@@HH@Z 100456d0 f   BNC_RefListControlEx.obj
 0001:00044760       ?GetItemCount@BNC_RefListControlEx@@QAEIXZ 10045760 f   BNC_RefListControlEx.obj
 0001:00044770       ?GetVisibleTopItem@BNC_RefListControlEx@@QAEPAVBNC_ReferenceItemEx@@XZ 10045770 f   BNC_RefListControlEx.obj
 0001:00044810       ?GetLastSequence@BNC_RefListControlEx@@QAEIXZ 10045810 f   BNC_RefListControlEx.obj
 0001:00044820       ?Insert@BNC_RefListControlEx@@AAEHAAV?$CStringT@_WV?$StrTraitMFC_DLL@_WV?$ChTraitsCRT@_W@ATL@@@@@ATL@@PAXAAVBNC_ReferenceItemEx@@_N3@Z 10045820 f   BNC_RefListControlEx.obj
 0001:00044c40       ?DeleteRefernce@BNC_RefListControlEx@@AAEXPAVBNC_ReferenceItemEx@@@Z 10045c40 f   BNC_RefListControlEx.obj
 0001:00044db0       ?DeleteFromIndex@BNC_RefListControlEx@@AAEHI_N@Z 10045db0 f   BNC_RefListControlEx.obj
 0001:00044ee0       ?DeleteFromPtr@BNC_RefListControlEx@@AAEHPBVBNC_ReferenceItemEx@@I_N@Z 10045ee0 f   BNC_RefListControlEx.obj
 0001:00045040       ?DeleteFromKey@BNC_RefListControlEx@@AAEHV?$CStringT@_WV?$StrTraitMFC_DLL@_WV?$ChTraitsCRT@_W@ATL@@@@@ATL@@I_N1@Z 10046040 f   BNC_RefListControlEx.obj
 0001:000451b0       ?DeleteFromSequnece@BNC_RefListControlEx@@AAEHII_N@Z 100461b0 f   BNC_RefListControlEx.obj
 0001:00045360       ?UpdateAfterInsert@BNC_RefListControlEx@@AAEXI_N0@Z 10046360 f   BNC_RefListControlEx.obj
 0001:000454c0       ?SortString@BNC_RefListControlEx@@AAEXI_NH0@Z 100464c0 f   BNC_RefListControlEx.obj
 0001:00045640       ?SortSequence@BNC_RefListControlEx@@AAEX_N@Z 10046640 f   BNC_RefListControlEx.obj
 0001:00045790       ?EnableItem@BNC_RefListControlEx@@QAEXI_N0@Z 10046790 f   BNC_RefListControlEx.obj
 0001:000458d0       ?IsItemEnable@BNC_RefListControlEx@@QAE_NI@Z 100468d0 f   BNC_RefListControlEx.obj
 0001:000459b0       ?RedrawItem@BNC_RefListControlEx@@QAE_NV?$CStringT@_WV?$StrTraitMFC_DLL@_WV?$ChTraitsCRT@_W@ATL@@@@@ATL@@@Z 100469b0 f   BNC_RefListControlEx.obj
 0001:00045a70       ?GetParentView@BNC_RefListControlEx@@EAEPAVBNC_RefListViewEx@@XZ 10046a70 f   BNC_RefListControlEx.obj
 0001:00045a80       ?OnRedrawItem@BNC_RefListControlEx@@EAEXPAVBNC_ReferenceItemEx@@W4BNE_REFITEM_STATE@@@Z 10046a80 f   BNC_RefListControlEx.obj
 0001:00045c80       ?GetItemPtr@BNC_RefListControlEx@@AAEPAVBNC_ReferenceItemEx@@I@Z 10046c80 f   BNC_RefListControlEx.obj
 0001:00045d20       ?GetItemPtr@BNC_RefListControlEx@@AAEPAVBNC_ReferenceItemEx@@AAV?$CStringT@_WV?$StrTraitMFC_DLL@_WV?$ChTraitsCRT@_W@ATL@@@@@ATL@@@Z 10046d20 f   BNC_RefListControlEx.obj
 0001:00045df0       ?OnFindItem@BNC_RefListControlEx@@EAE_NAAVCPoint@@PAPAVBNC_ReferenceItemEx@@@Z 10046df0 f   BNC_RefListControlEx.obj
 0001:00045f60       ?GetListScroll@BNC_RefListControlEx@@QAEIXZ 10046f60 f   BNC_RefListControlEx.obj
 0001:00045f70       ?GetEndScroll@BNC_RefListControlEx@@QAEIXZ 10046f70 f   BNC_RefListControlEx.obj
 0001:00045f90       ?IsEndScroll@BNC_RefListControlEx@@QAE_NXZ 10046f90 f   BNC_RefListControlEx.obj
 0001:00045fc0       ?SetListScroll@BNC_RefListControlEx@@QAEIH_N0@Z 10046fc0 f   BNC_RefListControlEx.obj
 0001:00046100       ?GetItemTotalHeight@BNC_RefListControlEx@@QAEIXZ 10047100 f   BNC_RefListControlEx.obj
 0001:00046110       ?GetItemTotalHeight@BNC_RefListControlEx@@QAEIH@Z 10047110 f   BNC_RefListControlEx.obj
 0001:00046140       ?OnDragAll@BNC_RefListControlEx@@AAE_NXZ 10047140 f   BNC_RefListControlEx.obj
 0001:000461b0       ?OnDragCopy@BNC_RefListControlEx@@AAE_NXZ 100471b0 f   BNC_RefListControlEx.obj
 0001:000461e0       ?OnDragEnter@BNC_RefListControlEx@@EAE_NPAVBNC_ReferenceItemEx@@AAVCPoint@@_N@Z 100471e0 f   BNC_RefListControlEx.obj
 0001:00046240       ?OnDragMove@BNC_RefListControlEx@@EAE_NPAVBNC_ReferenceItemEx@@AAVCPoint@@@Z 10047240 f   BNC_RefListControlEx.obj
 0001:00046270       ?OnDragLeave@BNC_RefListControlEx@@EAE_NPAVBNC_ReferenceItemEx@@@Z 10047270 f   BNC_RefListControlEx.obj
 0001:00046290       ??$_Stable_sort@PAPAVBNC_ReferenceItemEx@@HPAV1@VBNC_ReferenceItemSeqSort@@@std@@YAXPAPAVBNC_ReferenceItemEx@@0PAH0VBNC_ReferenceItemSeqSort@@@Z 10047290 f i BNC_RefListControlEx.obj
 0001:00046340       ??$_Stable_sort@PAPAVBNC_ReferenceItemEx@@HPAV1@VBNC_ReferenceItemSort@@@std@@YAXPAPAVBNC_ReferenceItemEx@@0PAH0VBNC_ReferenceItemSort@@@Z 10047340 f i BNC_RefListControlEx.obj
 0001:00046400       ??$_Stable_sort@PAPAVBNC_ReferenceItemEx@@HPAV1@VBNC_ReferenceItemSeqSort@@@std@@YAXPAPAVBNC_ReferenceItemEx@@0HAAV?$_Temp_iterator@PAVBNC_ReferenceItemEx@@@0@VBNC_ReferenceItemSeqSort@@@Z 10047400 f i BNC_RefListControlEx.obj
 0001:000464e0       ??$_Stable_sort@PAPAVBNC_ReferenceItemEx@@HPAV1@VBNC_ReferenceItemSort@@@std@@YAXPAPAVBNC_ReferenceItemEx@@0HAAV?$_Temp_iterator@PAVBNC_ReferenceItemEx@@@0@VBNC_ReferenceItemSort@@@Z 100474e0 f i BNC_RefListControlEx.obj
 0001:00046600       ??$_Buffered_merge_sort@PAPAVBNC_ReferenceItemEx@@HPAV1@VBNC_ReferenceItemSeqSort@@@std@@YAXPAPAVBNC_ReferenceItemEx@@0HAAV?$_Temp_iterator@PAVBNC_ReferenceItemEx@@@0@VBNC_ReferenceItemSeqSort@@@Z 10047600 f i BNC_RefListControlEx.obj
 0001:000466c0       ??$_Buffered_merge@PAPAVBNC_ReferenceItemEx@@HPAV1@VBNC_ReferenceItemSeqSort@@@std@@YAXPAPAVBNC_ReferenceItemEx@@00HHAAV?$_Temp_iterator@PAVBNC_ReferenceItemEx@@@0@VBNC_ReferenceItemSeqSort@@@Z 100476c0 f i BNC_RefListControlEx.obj
 0001:000468b0       ??$_Buffered_merge_sort@PAPAVBNC_ReferenceItemEx@@HPAV1@VBNC_ReferenceItemSort@@@std@@YAXPAPAVBNC_ReferenceItemEx@@0HAAV?$_Temp_iterator@PAVBNC_ReferenceItemEx@@@0@VBNC_ReferenceItemSort@@@Z 100478b0 f i BNC_RefListControlEx.obj
 0001:000469b0       ??$_Buffered_merge@PAPAVBNC_ReferenceItemEx@@HPAV1@VBNC_ReferenceItemSort@@@std@@YAXPAPAVBNC_ReferenceItemEx@@00HHAAV?$_Temp_iterator@PAVBNC_ReferenceItemEx@@@0@VBNC_ReferenceItemSort@@@Z 100479b0 f i BNC_RefListControlEx.obj
 0001:00046bd0       ??$_Insertion_sort1@PAPAVBNC_ReferenceItemEx@@VBNC_ReferenceItemSeqSort@@PAV1@@std@@YAXPAPAVBNC_ReferenceItemEx@@0VBNC_ReferenceItemSeqSort@@0@Z 10047bd0 f i BNC_RefListControlEx.obj
 0001:00046c90       ??$_Chunked_merge@PAPAVBNC_ReferenceItemEx@@V?$_Temp_iterator@PAVBNC_ReferenceItemEx@@@std@@HVBNC_ReferenceItemSeqSort@@@std@@YAXPAPAVBNC_ReferenceItemEx@@0V?$_Temp_iterator@PAVBNC_ReferenceItemEx@@@0@HHVBNC_ReferenceItemSeqSort@@@Z 10047c90 f i BNC_RefListControlEx.obj
 0001:00046dd0       ??$_Chunked_merge@PAPAVBNC_ReferenceItemEx@@PAPAV1@HVBNC_ReferenceItemSeqSort@@@std@@YAXPAPAVBNC_ReferenceItemEx@@00HHVBNC_ReferenceItemSeqSort@@@Z 10047dd0 f i BNC_RefListControlEx.obj
 0001:00046e60       ??$_Merge@PAPAVBNC_ReferenceItemEx@@PAPAV1@PAPAV1@VBNC_ReferenceItemSeqSort@@@std@@YAPAPAVBNC_ReferenceItemEx@@PAPAV1@0000VBNC_ReferenceItemSeqSort@@@Z 10047e60 f i BNC_RefListControlEx.obj
 0001:00046f10       ??$_Merge_backward@PAPAVBNC_ReferenceItemEx@@PAPAV1@PAPAV1@VBNC_ReferenceItemSeqSort@@@std@@YAPAPAVBNC_ReferenceItemEx@@PAPAV1@0000VBNC_ReferenceItemSeqSort@@@Z 10047f10 f i BNC_RefListControlEx.obj
 0001:00046fd0       ??$_Insertion_sort1@PAPAVBNC_ReferenceItemEx@@VBNC_ReferenceItemSort@@PAV1@@std@@YAXPAPAVBNC_ReferenceItemEx@@0VBNC_ReferenceItemSort@@0@Z 10047fd0 f i BNC_RefListControlEx.obj
 0001:00047090       ??$_Chunked_merge@PAPAVBNC_ReferenceItemEx@@V?$_Temp_iterator@PAVBNC_ReferenceItemEx@@@std@@HVBNC_ReferenceItemSort@@@std@@YAXPAPAVBNC_ReferenceItemEx@@0V?$_Temp_iterator@PAVBNC_ReferenceItemEx@@@0@HHVBNC_ReferenceItemSort@@@Z 10048090 f i BNC_RefListControlEx.obj
 0001:00047210       ??$_Chunked_merge@PAPAVBNC_ReferenceItemEx@@PAPAV1@HVBNC_ReferenceItemSort@@@std@@YAXPAPAVBNC_ReferenceItemEx@@00HHVBNC_ReferenceItemSort@@@Z 10048210 f i BNC_RefListControlEx.obj
 0001:000472c0       ??$_Merge@PAPAVBNC_ReferenceItemEx@@PAPAV1@PAPAV1@VBNC_ReferenceItemSort@@@std@@YAPAPAVBNC_ReferenceItemEx@@PAPAV1@0000VBNC_ReferenceItemSort@@@Z 100482c0 f i BNC_RefListControlEx.obj
 0001:00047370       ??$_Merge_backward@PAPAVBNC_ReferenceItemEx@@PAPAV1@PAPAV1@VBNC_ReferenceItemSort@@@std@@YAPAPAVBNC_ReferenceItemEx@@PAPAV1@0000VBNC_ReferenceItemSort@@@Z 10048370 f i BNC_RefListControlEx.obj
 0001:00047410       ??$_Merge@PAPAVBNC_ReferenceItemEx@@PAPAV1@V?$_Temp_iterator@PAVBNC_ReferenceItemEx@@@std@@VBNC_ReferenceItemSeqSort@@@std@@YA?AV?$_Temp_iterator@PAVBNC_ReferenceItemEx@@@0@PAPAVBNC_ReferenceItemEx@@000V10@VBNC_ReferenceItemSeqSort@@@Z 10048410 f i BNC_RefListControlEx.obj
 0001:00047570       ??$_Lower_bound@PAPAVBNC_ReferenceItemEx@@PAV1@HVBNC_ReferenceItemSeqSort@@@std@@YAPAPAVBNC_ReferenceItemEx@@PAPAV1@0ABQAV1@VBNC_ReferenceItemSeqSort@@PAH@Z 10048570 f i BNC_RefListControlEx.obj
 0001:000475e0       ??$_Upper_bound@PAPAVBNC_ReferenceItemEx@@PAV1@HVBNC_ReferenceItemSeqSort@@@std@@YAPAPAVBNC_ReferenceItemEx@@PAPAV1@0ABQAV1@VBNC_ReferenceItemSeqSort@@PAH@Z 100485e0 f i BNC_RefListControlEx.obj
 0001:00047660       ??$_Merge@PAPAVBNC_ReferenceItemEx@@PAPAV1@V?$_Temp_iterator@PAVBNC_ReferenceItemEx@@@std@@VBNC_ReferenceItemSort@@@std@@YA?AV?$_Temp_iterator@PAVBNC_ReferenceItemEx@@@0@PAPAVBNC_ReferenceItemEx@@000V10@VBNC_ReferenceItemSort@@@Z 10048660 f i BNC_RefListControlEx.obj
 0001:000477e0       ??$_Lower_bound@PAPAVBNC_ReferenceItemEx@@PAV1@HVBNC_ReferenceItemSort@@@std@@YAPAPAVBNC_ReferenceItemEx@@PAPAV1@0ABQAV1@VBNC_ReferenceItemSort@@PAH@Z 100487e0 f i BNC_RefListControlEx.obj
 0001:00047850       ??$_Upper_bound@PAPAVBNC_ReferenceItemEx@@PAV1@HVBNC_ReferenceItemSort@@@std@@YAPAPAVBNC_ReferenceItemEx@@PAPAV1@0ABQAV1@VBNC_ReferenceItemSort@@PAH@Z 10048850 f i BNC_RefListControlEx.obj
 0001:000478c0       ??_EBNC_RefListControlEx@@UAEPAXI@Z 100488c0 f i BNC_RefListControlEx.obj
 0001:00047920       ??0BNC_RefTreeControl@@QAE@XZ 10048920 f   BNC_RefTreeControl.obj
 0001:00047b10       ??1BNC_RefTreeControl@@UAE@XZ 10048b10 f   BNC_RefTreeControl.obj
 0001:00047c00       ?Clear@BNC_RefTreeControl@@AAEX_N0@Z 10048c00 f   BNC_RefTreeControl.obj
 0001:00047e80       ?OnUpdateSize@BNC_RefTreeControl@@EAEXHH@Z 10048e80 f   BNC_RefTreeControl.obj
 0001:00047f00       ?OnDraw@BNC_RefTreeControl@@EAE_NPAVCDC@@0@Z 10048f00 f   BNC_RefTreeControl.obj
 0001:00048130       ?GetRealTopPos@BNC_RefTreeControl@@AAEHPBVBNC_ReferenceItem@@@Z 10049130 f   BNC_RefTreeControl.obj
 0001:00048160       ?OnDrawMouseItem@BNC_RefTreeControl@@EAEXPAVCDC@@00PAVBNC_ReferenceItem@@@Z 10049160 f   BNC_RefTreeControl.obj
 0001:00048240       ?RedrawItem@BNC_RefTreeControl@@AAEXV?$CStringT@_WV?$StrTraitMFC_DLL@_WV?$ChTraitsCRT@_W@ATL@@@@@ATL@@@Z 10049240 f   BNC_RefTreeControl.obj
 0001:000482f0       ?OnRedrawItem@BNC_RefTreeControl@@EAEXPAVBNC_ReferenceItem@@W4BNE_REFITEM_STATE@@@Z 100492f0 f   BNC_RefTreeControl.obj
 0001:00048540       ?Insert@BNC_RefTreeControl@@AAE_N_NAAV?$CStringT@_WV?$StrTraitMFC_DLL@_WV?$ChTraitsCRT@_W@ATL@@@@@ATL@@1PAXAAVBNC_ReferenceItem@@00I@Z 10049540 f   BNC_RefTreeControl.obj
 0001:00048a10       ?DeleteContainer@BNC_RefTreeControl@@AAEX_NPAVBNC_RefTreeItemOption@@PAVBNC_ReferenceItem@@@Z 10049a10 f   BNC_RefTreeControl.obj
 0001:00048c00       ?Delete@BNC_RefTreeControl@@AAE_NV?$CStringT@_WV?$StrTraitMFC_DLL@_WV?$ChTraitsCRT@_W@ATL@@@@@ATL@@_N@Z 10049c00 f   BNC_RefTreeControl.obj
 0001:00048e90       ?UpdateAfterInsert@BNC_RefTreeControl@@AAEXPAVBNC_ReferenceItem@@_N1@Z 10049e90 f   BNC_RefTreeControl.obj
 0001:00049150       ?SortString@BNC_RefTreeControl@@AAE_NPAVBNC_ReferenceItem@@I_N1H11@Z 1004a150 f   BNC_RefTreeControl.obj
 0001:000493c0       ?EnableItem@BNC_RefTreeControl@@QAEXV?$CStringT@_WV?$StrTraitMFC_DLL@_WV?$ChTraitsCRT@_W@ATL@@@@@ATL@@_N1@Z 1004a3c0 f   BNC_RefTreeControl.obj
 0001:000494a0       ?IsItemEnable@BNC_RefTreeControl@@QAE_NV?$CStringT@_WV?$StrTraitMFC_DLL@_WV?$ChTraitsCRT@_W@ATL@@@@@ATL@@@Z 1004a4a0 f   BNC_RefTreeControl.obj
 0001:00049570       ?GetItemPtr@BNC_RefTreeControl@@QAEPAVBNC_ReferenceItem@@AAV?$CStringT@_WV?$StrTraitMFC_DLL@_WV?$ChTraitsCRT@_W@ATL@@@@@ATL@@@Z 1004a570 f   BNC_RefTreeControl.obj
 0001:00049640       ?IsEndScroll@BNC_RefTreeControl@@QAE_NXZ 1004a640 f   BNC_RefTreeControl.obj
 0001:00049660       ?SetTreeScrollNoUpate@BNC_RefTreeControl@@QAEIH@Z 1004a660 f   BNC_RefTreeControl.obj
 0001:000496e0       ?SetTreeScroll@BNC_RefTreeControl@@QAEIPBVBNC_ReferenceItem@@H_N1@Z 1004a6e0 f   BNC_RefTreeControl.obj
 0001:00049730       ?SetTreeScroll@BNC_RefTreeControl@@QAEIH_N0@Z 1004a730 f   BNC_RefTreeControl.obj
 0001:000498b0       ?GetVisiableHeight@BNC_RefTreeControl@@QAEIXZ 1004a8b0 f   BNC_RefTreeControl.obj
 0001:000498c0       ?GetOption@BNC_RefTreeControl@@AAEPAVBNC_RefTreeItemOption@@PAVBNC_ReferenceItem@@@Z 1004a8c0 f   BNC_RefTreeControl.obj
 0001:000498d0       ?GetApplyExtendBottom@BNC_RefTreeControl@@AAEHPAVBNC_ReferenceItem@@@Z 1004a8d0 f   BNC_RefTreeControl.obj
 0001:00049900       ?ModifyParentExHeight@BNC_RefTreeControl@@AAEXPAVBNC_ReferenceItem@@H@Z 1004a900 f   BNC_RefTreeControl.obj
 0001:00049930       ?UpdateChildListPos@BNC_RefTreeControl@@AAEXIPAVBNC_ReferenceItem@@@Z 1004a930 f   BNC_RefTreeControl.obj
 0001:000499e0       ?UpdateTopRootVisibleIndex@BNC_RefTreeControl@@AAEXXZ 1004a9e0 f   BNC_RefTreeControl.obj
 0001:00049b10       ?DrawChildItem@BNC_RefTreeControl@@AAE_NHPAVCDC@@00PAVBNC_ReferenceItem@@HAA_N@Z 1004ab10 f   BNC_RefTreeControl.obj
 0001:00049c90       ?GetVisibleMaxWidth@BNC_RefTreeControl@@QAEIXZ 1004ac90 f   BNC_RefTreeControl.obj
 0001:00049d50       ?GetVisibleMaxWidth@BNC_RefTreeControl@@AAEXPAVBNC_ReferenceItem@@AAI@Z 1004ad50 f   BNC_RefTreeControl.obj
 0001:00049dc0       ?OnUpdateEvent@BNC_RefTreeControl@@EAEXW4BNE_MOUSEACTION@@PAVBNC_ReferenceItem@@@Z 1004adc0 f   BNC_RefTreeControl.obj
 0001:00049e40       ?OnFindItem@BNC_RefTreeControl@@EAE_NAAVCPoint@@PAPAVBNC_ReferenceItem@@@Z 1004ae40 f   BNC_RefTreeControl.obj
 0001:00049f80       ?GetItemKey@BNC_RefTreeControl@@AAE_NPAVBNC_ReferenceItem@@HHPAPAV2@AAHAAVCPoint@@@Z 1004af80 f   BNC_RefTreeControl.obj
 0001:0004a040       ?ExtendItem@BNC_RefTreeControl@@AAE_NPAVBNC_ReferenceItem@@_N1@Z 1004b040 f   BNC_RefTreeControl.obj
 0001:0004a220       ?ExtendItem@BNC_RefTreeControl@@AAE_NV?$CStringT@_WV?$StrTraitMFC_DLL@_WV?$ChTraitsCRT@_W@ATL@@@@@ATL@@_N1@Z 1004b220 f   BNC_RefTreeControl.obj
 0001:0004a2d0       ?SyncWindowClear@BNC_RefTreeControl@@QAEXXZ 1004b2d0 f   BNC_RefTreeControl.obj
 0001:0004a330       ?SyncWindowHide@BNC_RefTreeControl@@QAEXXZ 1004b330 f   BNC_RefTreeControl.obj
 0001:0004a3a0       ?SyncWindowUpdate@BNC_RefTreeControl@@QAEXXZ 1004b3a0 f   BNC_RefTreeControl.obj
 0001:0004a460       ?GetFolderCount@BNC_RefTreeControl@@QAEIXZ 1004b460 f   BNC_RefTreeControl.obj
 0001:0004a470       ?GetFileCount@BNC_RefTreeControl@@QAEIXZ 1004b470 f   BNC_RefTreeControl.obj
 0001:0004a480       ??$_Stable_sort@PAPAVBNC_ReferenceItem@@HPAV1@VBNC_ReferenceItemTreeSort@@@std@@YAXPAPAVBNC_ReferenceItem@@0PAH0VBNC_ReferenceItemTreeSort@@@Z 1004b480 f i BNC_RefTreeControl.obj
 0001:0004a540       ??$_Stable_sort@PAPAVBNC_ReferenceItem@@HPAV1@VBNC_ReferenceItemTreeSort@@@std@@YAXPAPAVBNC_ReferenceItem@@0HAAV?$_Temp_iterator@PAVBNC_ReferenceItem@@@0@VBNC_ReferenceItemTreeSort@@@Z 1004b540 f i BNC_RefTreeControl.obj
 0001:0004a650       ??$_Buffered_merge_sort@PAPAVBNC_ReferenceItem@@HPAV1@VBNC_ReferenceItemTreeSort@@@std@@YAXPAPAVBNC_ReferenceItem@@0HAAV?$_Temp_iterator@PAVBNC_ReferenceItem@@@0@VBNC_ReferenceItemTreeSort@@@Z 1004b650 f i BNC_RefTreeControl.obj
 0001:0004a750       ??$_Buffered_merge@PAPAVBNC_ReferenceItem@@HPAV1@VBNC_ReferenceItemTreeSort@@@std@@YAXPAPAVBNC_ReferenceItem@@00HHAAV?$_Temp_iterator@PAVBNC_ReferenceItem@@@0@VBNC_ReferenceItemTreeSort@@@Z 1004b750 f i BNC_RefTreeControl.obj
 0001:0004a960       ??$_Insertion_sort1@PAPAVBNC_ReferenceItem@@VBNC_ReferenceItemTreeSort@@PAV1@@std@@YAXPAPAVBNC_ReferenceItem@@0VBNC_ReferenceItemTreeSort@@0@Z 1004b960 f i BNC_RefTreeControl.obj
 0001:0004aa20       ??$_Chunked_merge@PAPAVBNC_ReferenceItem@@V?$_Temp_iterator@PAVBNC_ReferenceItem@@@std@@HVBNC_ReferenceItemTreeSort@@@std@@YAXPAPAVBNC_ReferenceItem@@0V?$_Temp_iterator@PAVBNC_ReferenceItem@@@0@HHVBNC_ReferenceItemTreeSort@@@Z 1004ba20 f i BNC_RefTreeControl.obj
 0001:0004aba0       ??$_Chunked_merge@PAPAVBNC_ReferenceItem@@PAPAV1@HVBNC_ReferenceItemTreeSort@@@std@@YAXPAPAVBNC_ReferenceItem@@00HHVBNC_ReferenceItemTreeSort@@@Z 1004bba0 f i BNC_RefTreeControl.obj
 0001:0004ac50       ??$_Merge@PAPAVBNC_ReferenceItem@@PAPAV1@PAPAV1@VBNC_ReferenceItemTreeSort@@@std@@YAPAPAVBNC_ReferenceItem@@PAPAV1@0000VBNC_ReferenceItemTreeSort@@@Z 1004bc50 f i BNC_RefTreeControl.obj
 0001:0004ad00       ??$_Merge_backward@PAPAVBNC_ReferenceItem@@PAPAV1@PAPAV1@VBNC_ReferenceItemTreeSort@@@std@@YAPAPAVBNC_ReferenceItem@@PAPAV1@0000VBNC_ReferenceItemTreeSort@@@Z 1004bd00 f i BNC_RefTreeControl.obj
 0001:0004ada0       ??$_Merge@PAPAVBNC_ReferenceItem@@PAPAV1@V?$_Temp_iterator@PAVBNC_ReferenceItem@@@std@@VBNC_ReferenceItemTreeSort@@@std@@YA?AV?$_Temp_iterator@PAVBNC_ReferenceItem@@@0@PAPAVBNC_ReferenceItem@@000V10@VBNC_ReferenceItemTreeSort@@@Z 1004bda0 f i BNC_RefTreeControl.obj
 0001:0004af20       ??$_Lower_bound@PAPAVBNC_ReferenceItem@@PAV1@HVBNC_ReferenceItemTreeSort@@@std@@YAPAPAVBNC_ReferenceItem@@PAPAV1@0ABQAV1@VBNC_ReferenceItemTreeSort@@PAH@Z 1004bf20 f i BNC_RefTreeControl.obj
 0001:0004af90       ??$_Upper_bound@PAPAVBNC_ReferenceItem@@PAV1@HVBNC_ReferenceItemTreeSort@@@std@@YAPAPAVBNC_ReferenceItem@@PAPAV1@0ABQAV1@VBNC_ReferenceItemTreeSort@@PAH@Z 1004bf90 f i BNC_RefTreeControl.obj
 0001:0004b000       ??_EBNC_RefTreeControl@@UAEPAXI@Z 1004c000 f i BNC_RefTreeControl.obj
 0001:0004b060       ?_GetBaseClass@BNC_RichEditbox@@KGPAUCRuntimeClass@@XZ 1004c060 f   BNC_RichEditbox.obj
 0001:0004b070       ?GetRuntimeClass@BNC_RichEditbox@@UBEPAUCRuntimeClass@@XZ 1004c070 f   BNC_RichEditbox.obj
 0001:0004b070       ?GetThisClass@BNC_RichEditbox@@SGPAUCRuntimeClass@@XZ 1004c070 f   BNC_RichEditbox.obj
 0001:0004b080       ??0BNC_RichEditbox@@QAE@XZ 1004c080 f   BNC_RichEditbox.obj
 0001:0004b0f0       ??1BNC_RichEditbox@@UAE@XZ 1004c0f0 f   BNC_RichEditbox.obj
 0001:0004b170       ?GetMessageMap@BNC_RichEditbox@@MBEPBUAFX_MSGMAP@@XZ 1004c170 f   BNC_RichEditbox.obj
 0001:0004b170       ?GetThisMessageMap@BNC_RichEditbox@@KGPBUAFX_MSGMAP@@XZ 1004c170 f   BNC_RichEditbox.obj
 0001:0004b180       ?Create@BNC_RichEditbox@@MAEHKABUtagRECT@@PAVCWnd@@I@Z 1004c180 f   BNC_RichEditbox.obj
 0001:0004b190       ?CreateEx@BNC_RichEditbox@@MAEHKKABUtagRECT@@PAVCWnd@@I@Z 1004c190 f   BNC_RichEditbox.obj
 0001:0004b1a0       ?OnDestroy@BNC_RichEditbox@@QAEXXZ 1004c1a0 f   BNC_RichEditbox.obj
 0001:0004b1b0       ?OnEnChange@BNC_RichEditbox@@QAEXXZ 1004c1b0 f   BNC_RichEditbox.obj
 0001:0004b1f0       ?OnEnSetfocus@BNC_RichEditbox@@QAEXXZ 1004c1f0 f   BNC_RichEditbox.obj
 0001:0004b210       ?OnEnKillfocus@BNC_RichEditbox@@QAEXXZ 1004c210 f   BNC_RichEditbox.obj
 0001:0004b230       ?create@BNC_RichEditbox@@QAE_NPAVBNC_BaseClient@@GVCRect@@I@Z 1004c230 f   BNC_RichEditbox.obj
 0001:0004b2f0       ?PreSubclassWindow@BNC_RichEditbox@@UAEXXZ 1004c2f0 f   BNC_RichEditbox.obj
 0001:0004b330       ?Initialize@BNC_RichEditbox@@QAE_NV?$CStringT@_WV?$StrTraitMFC_DLL@_WV?$ChTraitsCRT@_W@ATL@@@@@ATL@@H_NKKKK@Z 1004c330 f   BNC_RichEditbox.obj
 0001:0004b420       ?UpdateColor@BNC_RichEditbox@@QAE_NXZ 1004c420 f   BNC_RichEditbox.obj
 0001:0004b4b0       ?OnCtlColor@BNC_FakeWindow@@QAEPAUHBRUSH__@@PAVCDC@@PAVCWnd@@I@Z 1004c4b0 f   BNC_FakeWindow.obj
 0001:0004b4b0       ?OnCtlColor@BNC_RichEditbox@@QAEPAUHBRUSH__@@PAVCDC@@PAVCWnd@@I@Z 1004c4b0 f   BNC_RichEditbox.obj
 0001:0004b4c0       ?PreTranslateMessage@BNC_RichEditbox@@MAEHPAUtagMSG@@@Z 1004c4c0 f   BNC_RichEditbox.obj
 0001:0004b7c0       ?OnMessageContextMenu@BNC_RichEditbox@@MAEJIJ@Z 1004c7c0 f   BNC_RichEditbox.obj
 0001:0004b820       ?AddEOL@BNC_RichEditbox@@AAEXXZ 1004c820 f   BNC_RichEditbox.obj
 0001:0004b840       ?GetText@BNC_RichEditbox@@QAE?AV?$CStringT@_WV?$StrTraitMFC_DLL@_WV?$ChTraitsCRT@_W@ATL@@@@@ATL@@XZ 1004c840 f   BNC_RichEditbox.obj
 0001:0004b8b0       ?SetText@BNC_RichEditbox@@QAEXV?$CStringT@_WV?$StrTraitMFC_DLL@_WV?$ChTraitsCRT@_W@ATL@@@@@ATL@@_N@Z 1004c8b0 f   BNC_RichEditbox.obj
 0001:0004b920       ?OnEnMsgfilter@BNC_RichEditbox@@QAEXPAUtagNMHDR@@PAJ@Z 1004c920 f   BNC_RichEditbox.obj
 0001:0004b990       ?OnEnDropfiles@BNC_RichEditbox@@QAEXPAUtagNMHDR@@PAJ@Z 1004c990 f   BNC_RichEditbox.obj
 0001:0004b9a0       ?OnContextMenu@BNC_RichEditbox@@QAEXPAVCWnd@@VCPoint@@@Z 1004c9a0 f   BNC_RichEditbox.obj
 0001:0004bc30       ?OnCommand@BNC_RichEditbox@@UAEHIJ@Z 1004cc30 f   BNC_RichEditbox.obj
 0001:0004bcb0       ?OnEnable@BNC_RichEditbox@@QAEXH@Z 1004ccb0 f   BNC_RichEditbox.obj
 0001:0004bcd0       ?OnPaste@BNC_RichEditbox@@QAEJIJ@Z 1004ccd0 f   BNC_RichEditbox.obj
 0001:0004bd00       ?OnPasteImage@BNC_RichEditbox@@QAEJIJ@Z 1004cd00 f   BNC_RichEditbox.obj
 0001:0004bde0       ?OnSetCursor@BNC_RichEditbox@@QAEHPAVCWnd@@II@Z 1004cde0 f   BNC_RichEditbox.obj
 0001:0004be0e       ??_9BNC_RichEditbox@@$BBGI@AE 1004ce0e f i BNC_RichEditbox.obj
 0001:0004be20       ??_EBNC_RichEditbox@@UAEPAXI@Z 1004ce20 f i BNC_RichEditbox.obj
 0001:0004bf00       ??1CMenu@@UAE@XZ           1004cf00 f i BNC_RichEditbox.obj
 0001:0004bf10       ??_ECMenu@@UAEPAXI@Z       1004cf10 f i * CIL library *:* CIL module *
 0001:0004bf10       ??_GCMenu@@UAEPAXI@Z       1004cf10 f i BNC_RichEditbox.obj
 0001:0004bf40       ?GetThisClass@BNC_SimpleHScrollbar@@SGPAUCRuntimeClass@@XZ 1004cf40 f   BNC_SimpleHScrollbar.obj
 0001:0004bf40       ?GetRuntimeClass@BNC_SimpleHScrollbar@@UBEPAUCRuntimeClass@@XZ 1004cf40 f   BNC_SimpleHScrollbar.obj
 0001:0004bf50       ??0BNC_SimpleHScrollbar@@QAE@XZ 1004cf50 f   BNC_SimpleHScrollbar.obj
 0001:0004c090       ??1BNC_SimpleHScrollbar@@UAE@XZ 1004d090 f   BNC_SimpleHScrollbar.obj
 0001:0004c0a0       ?GetMessageMap@BNC_SimpleHScrollbar@@MBEPBUAFX_MSGMAP@@XZ 1004d0a0 f   BNC_SimpleHScrollbar.obj
 0001:0004c0a0       ?GetThisMessageMap@BNC_SimpleHScrollbar@@KGPBUAFX_MSGMAP@@XZ 1004d0a0 f   BNC_SimpleHScrollbar.obj
 0001:0004c0b0       ?OnCreate@BNC_SimpleHScrollbar@@EAE_NXZ 1004d0b0 f   BNC_SimpleHScrollbar.obj
 0001:0004c100       ?OnUpdateSize@BNC_SimpleHScrollbar@@EAEXHH@Z 1004d100 f   BNC_SimpleHScrollbar.obj
 0001:0004c1f0       ?OnDraw@BNC_SimpleHScrollbar@@EAE_NPAVCDC@@0@Z 1004d1f0 f   BNC_SimpleHScrollbar.obj
 0001:0004c2d0       ?SetLayout@BNC_SimpleHScrollbar@@QAEXPAUBNS_ScrollbarLayout@@_N@Z 1004d2d0 f   BNC_SimpleHScrollbar.obj
 0001:0004c3c0       ?SendScrollPos@BNC_SimpleVScrollbar@@IAEXXZ 1004d3c0 f   BNC_SimpleVScrollbar.obj
 0001:0004c3c0       ?SendScrollPos@BNC_SimpleHScrollbar@@IAEXXZ 1004d3c0 f   BNC_SimpleHScrollbar.obj
 0001:0004c3f0       ?ClientPosToTargetPos@BNC_SimpleHScrollbar@@AAEHH@Z 1004d3f0 f   BNC_SimpleHScrollbar.obj
 0001:0004c470       ?TargetPosToClientPos@BNC_SimpleHScrollbar@@AAEHH@Z 1004d470 f   BNC_SimpleHScrollbar.obj
 0001:0004c4d0       ?UpdateScroll@BNC_SimpleHScrollbar@@AAEX_N@Z 1004d4d0 f   BNC_SimpleHScrollbar.obj
 0001:0004c700       ?OnLButtonDown@BNC_SimpleHScrollbar@@QAEXIVCPoint@@@Z 1004d700 f   BNC_SimpleHScrollbar.obj
 0001:0004c7c0       ?OnTimer@BNC_SimpleHScrollbar@@QAEXI@Z 1004d7c0 f   BNC_SimpleHScrollbar.obj
 0001:0004c880       ?OnLButtonUp@BNC_SimpleVScrollbar@@QAEXIVCPoint@@@Z 1004d880 f   BNC_SimpleVScrollbar.obj
 0001:0004c880       ?OnLButtonUp@BNC_SimpleHScrollbar@@QAEXIVCPoint@@@Z 1004d880 f   BNC_SimpleHScrollbar.obj
 0001:0004c8b0       ?OnMouseMove@BNC_SimpleHScrollbar@@QAEXIVCPoint@@@Z 1004d8b0 f   BNC_SimpleHScrollbar.obj
 0001:0004caf0       ?SetPosLength@BNC_SimpleHScrollbar@@QAEXHH@Z 1004daf0 f   BNC_SimpleHScrollbar.obj
 0001:0004cb10       ?SetLength@BNC_SimpleHScrollbar@@QAEXH_N0@Z 1004db10 f   BNC_SimpleHScrollbar.obj
 0001:0004cb60       ?SetPos@BNC_SimpleHScrollbar@@QAEXH_N0@Z 1004db60 f   BNC_SimpleHScrollbar.obj
 0001:0004cbd0       ?GetPos@BNC_SimpleHScrollbar@@QBEHXZ 1004dbd0 f   BNC_SimpleHScrollbar.obj
 0001:0004cbd0       ?GetPos@BNC_SimpleVScrollbar@@QBEHXZ 1004dbd0 f   BNC_SimpleVScrollbar.obj
 0001:0004cbe0       ?GetLength@BNC_SimpleVScrollbar@@QBEHXZ 1004dbe0 f   BNC_SimpleVScrollbar.obj
 0001:0004cbe0       ?GetLength@BNC_SimpleHScrollbar@@QBEHXZ 1004dbe0 f   BNC_SimpleHScrollbar.obj
 0001:0004cbf0       ?GetLayoutWidth@BNC_SimpleHScrollbar@@QBEHXZ 1004dbf0 f   BNC_SimpleHScrollbar.obj
 0001:0004cbf0       ?GetLayoutWidth@BNC_SimpleVScrollbar@@QBEHXZ 1004dbf0 f   BNC_SimpleVScrollbar.obj
 0001:0004cc00       ?OnCaptureChanged@BNC_SimpleVScrollbar@@QAEXPAVCWnd@@@Z 1004dc00 f   BNC_SimpleVScrollbar.obj
 0001:0004cc00       ?OnCaptureChanged@BNC_SimpleHScrollbar@@QAEXPAVCWnd@@@Z 1004dc00 f   BNC_SimpleHScrollbar.obj
 0001:0004cc70       ?IsLBtnDown@BNC_SimpleVScrollbar@@QAE_NXZ 1004dc70 f   BNC_SimpleVScrollbar.obj
 0001:0004cc70       ?IsLBtnDown@BNC_SimpleHScrollbar@@QAE_NXZ 1004dc70 f   BNC_SimpleHScrollbar.obj
 0001:0004cc80       ??_EBNC_SimpleHScrollbar@@UAEPAXI@Z 1004dc80 f i BNC_SimpleHScrollbar.obj
 0001:0004cce0       ??0BNS_ScrollbarLayout@@QAE@XZ 1004dce0 f i BNC_SimpleHScrollbar.obj
 0001:0004cd50       ?SetDefaultLayout@BNC_SimpleVScrollbar@@SAXAAUBNS_ScrollbarLayout@@@Z 1004dd50 f   BNC_SimpleVScrollbar.obj
 0001:0004cd80       ?GetRuntimeClass@BNC_SimpleVScrollbar@@UBEPAUCRuntimeClass@@XZ 1004dd80 f   BNC_SimpleVScrollbar.obj
 0001:0004cd80       ?GetThisClass@BNC_SimpleVScrollbar@@SGPAUCRuntimeClass@@XZ 1004dd80 f   BNC_SimpleVScrollbar.obj
 0001:0004cd90       ??0BNC_SimpleVScrollbar@@QAE@XZ 1004dd90 f   BNC_SimpleVScrollbar.obj
 0001:0004cee0       ??1BNC_SimpleVScrollbar@@UAE@XZ 1004dee0 f   BNC_SimpleVScrollbar.obj
 0001:0004cef0       ?GetMessageMap@BNC_SimpleVScrollbar@@MBEPBUAFX_MSGMAP@@XZ 1004def0 f   BNC_SimpleVScrollbar.obj
 0001:0004cef0       ?GetThisMessageMap@BNC_SimpleVScrollbar@@KGPBUAFX_MSGMAP@@XZ 1004def0 f   BNC_SimpleVScrollbar.obj
 0001:0004cf00       ?OnCreate@BNC_SimpleVScrollbar@@EAE_NXZ 1004df00 f   BNC_SimpleVScrollbar.obj
 0001:0004cf60       ?OnUpdateSize@BNC_SimpleVScrollbar@@EAEXHH@Z 1004df60 f   BNC_SimpleVScrollbar.obj
 0001:0004d050       ?OnDraw@BNC_SimpleVScrollbar@@EAE_NPAVCDC@@0@Z 1004e050 f   BNC_SimpleVScrollbar.obj
 0001:0004d130       ?SetLayout@BNC_SimpleVScrollbar@@QAEXPAUBNS_ScrollbarLayout@@_N@Z 1004e130 f   BNC_SimpleVScrollbar.obj
 0001:0004d220       ?ClientPosToTargetPos@BNC_SimpleVScrollbar@@AAEHH@Z 1004e220 f   BNC_SimpleVScrollbar.obj
 0001:0004d2a0       ?TargetPosToClientPos@BNC_SimpleVScrollbar@@AAEHH@Z 1004e2a0 f   BNC_SimpleVScrollbar.obj
 0001:0004d300       ?UpdateScroll@BNC_SimpleVScrollbar@@AAEX_NW4BNE_SCROLL_UPDATE_REASON@@@Z 1004e300 f   BNC_SimpleVScrollbar.obj
 0001:0004d590       ?SendUpdate@BNC_SimpleVScrollbar@@IAEXXZ 1004e590 f   BNC_SimpleVScrollbar.obj
 0001:0004d5e0       ?OnLButtonDown@BNC_SimpleVScrollbar@@QAEXIVCPoint@@@Z 1004e5e0 f   BNC_SimpleVScrollbar.obj
 0001:0004d6b0       ?OnTimer@BNC_SimpleVScrollbar@@QAEXI@Z 1004e6b0 f   BNC_SimpleVScrollbar.obj
 0001:0004d790       ?OnMouseMove@BNC_SimpleVScrollbar@@QAEXIVCPoint@@@Z 1004e790 f   BNC_SimpleVScrollbar.obj
 0001:0004d9e0       ?SetPosLength@BNC_SimpleVScrollbar@@QAEXHH@Z 1004e9e0 f   BNC_SimpleVScrollbar.obj
 0001:0004da10       ?SetLength@BNC_SimpleVScrollbar@@QAEXH_N0@Z 1004ea10 f   BNC_SimpleVScrollbar.obj
 0001:0004da60       ?SetPos@BNC_SimpleVScrollbar@@QAEXH_N0W4BNE_SCROLL_UPDATE_REASON@@@Z 1004ea60 f   BNC_SimpleVScrollbar.obj
 0001:0004dad0       ?GetPosRatio@BNC_SimpleVScrollbar@@QBEMXZ 1004ead0 f   BNC_SimpleVScrollbar.obj
 0001:0004db10       ?IsShowScroll@BNC_SimpleVScrollbar@@QBE_NXZ 1004eb10 f   BNC_SimpleVScrollbar.obj
 0001:0004db30       ??_EBNC_SimpleVScrollbar@@UAEPAXI@Z 1004eb30 f i BNC_SimpleVScrollbar.obj
 0001:0004db90       ??0BNC_TabControl@@QAE@XZ  1004eb90 f   BNC_TabControl.obj
 0001:0004dbf0       ??1BNC_TabControl@@UAE@XZ  1004ebf0 f   BNC_TabControl.obj
 0001:0004dca0       ?GetMessageMap@BNC_AsyncMessageBoxRoot@@MBEPBUAFX_MSGMAP@@XZ 1004eca0 f   BNC_AsyncMessageBox.obj
 0001:0004dca0       ?GetThisMessageMap@BNC_TabControl@@KGPBUAFX_MSGMAP@@XZ 1004eca0 f   BNC_TabControl.obj
 0001:0004dca0       ?GetMessageMap@BNC_TabControl@@MBEPBUAFX_MSGMAP@@XZ 1004eca0 f   BNC_TabControl.obj
 0001:0004dca0       ?GetThisMessageMap@BNC_AsyncMessageBoxRoot@@KGPBUAFX_MSGMAP@@XZ 1004eca0 f   BNC_AsyncMessageBox.obj
 0001:0004dcc0       ?Initialize@BNC_TabControl@@QAE_NPAUHWND__@@GGPB_WI@Z 1004ecc0 f   BNC_TabControl.obj
 0001:0004e080       ?SetEdgeColor@BNC_TabControl@@QAEXKK_N@Z 1004f080 f   BNC_TabControl.obj
 0001:0004e0b0       ?OnUpdateClient@BNC_TabControl@@EAEXHH@Z 1004f0b0 f   BNC_TabControl.obj
 0001:0004e1b0       ?OnDraw@BNC_TabControl@@EAE_NPAVCDC@@0@Z 1004f1b0 f   BNC_TabControl.obj
 0001:0004e310       ?OnRedraw@BNC_TabControl@@UAEX_N@Z 1004f310 f   BNC_TabControl.obj
 0001:0004e5a0       ?OnMessageButton@BNC_TabControl@@EAEJIJ@Z 1004f5a0 f   BNC_TabControl.obj
 0001:0004e680       ?SetSelect@BNC_TabControl@@QAE_NG_N0@Z 1004f680 f   BNC_TabControl.obj
 0001:0004e730       ?GetSelect@BNC_TabControl@@QAEGXZ 1004f730 f   BNC_TabControl.obj
 0001:0004e740       ?SetEnable@BNC_TabControl@@QAEXG_N@Z 1004f740 f   BNC_TabControl.obj
 0001:0004e780       ?GetEnable@BNC_TabControl@@QAE_NG@Z 1004f780 f   BNC_TabControl.obj
 0001:0004e7c0       ?SetTabText@BNC_TabControl@@QAE_NGV?$CStringT@_WV?$StrTraitMFC_DLL@_WV?$ChTraitsCRT@_W@ATL@@@@@ATL@@VCRect@@@Z 1004f7c0 f   BNC_TabControl.obj
 0001:0004e860       ?SetTextFontStyle@BNC_TabControl@@QAE_NW4BNE_FONT_STYLE@@000_N@Z 1004f860 f   BNC_TabControl.obj
 0001:0004e8f0       ?SetBkColor@BNC_TabControl@@QAE_NKKKK_N@Z 1004f8f0 f   BNC_TabControl.obj
 0001:0004e980       ?SetTextColor@BNC_TabControl@@QAE_NKKKK_N@Z 1004f980 f   BNC_TabControl.obj
 0001:0004ea10       ?OnDrawButton@BNC_TabControl@@EAEXGPAVCDC@@0PAVGraphics@Gdiplus@@HVCSize@@@Z 1004fa10 f   BNC_TabControl.obj
 0001:0004ead0       ??_EBNC_TabControl@@UAEPAXI@Z 1004fad0 f i BNC_TabControl.obj
 0001:0004eb30       ??0BNC_Titlebar@@QAE@XZ    1004fb30 f   BNC_Titlebar.obj
 0001:0004ebf0       ??1BNC_Titlebar@@UAE@XZ    1004fbf0 f   BNC_Titlebar.obj
 0001:0004ed10       ?Create@BNC_Titlebar@@QAE_NPAVBNC_BaseDialog@@PAVBNC_BaseClient@@HK_NH@Z 1004fd10 f   BNC_Titlebar.obj
 0001:0004eee0       ?SetDrawInfo@BNC_Titlebar@@QAEX_N00@Z 1004fee0 f   BNC_Titlebar.obj
 0001:0004ef00       ?SetColor@BNC_Titlebar@@QAEXKKKK@Z 1004ff00 f   BNC_Titlebar.obj
 0001:0004ef20       ?CreateSystemButton@BNC_Titlebar@@AAE_N_NK@Z 1004ff20 f   BNC_Titlebar.obj
 0001:0004f170       ?CreateSystemButton@BNC_Titlebar@@AAE_NPAPAVBNC_Button@@GV?$CStringT@_WV?$StrTraitMFC_DLL@_WV?$ChTraitsCRT@_W@ATL@@@@@ATL@@VCPoint@@VCSize@@@Z 10050170 f   BNC_Titlebar.obj
 0001:0004f370       ?DeferSystemBtnPos@BNC_Titlebar@@QAEXPAXH@Z 10050370 f   BNC_Titlebar.obj
 0001:0004f3e0       ?SysBtnDown@BNC_Titlebar@@AAE_NIJ@Z 100503e0 f   BNC_Titlebar.obj
 0001:0004f4f0       ?UpdatePopupStatus@BNC_Titlebar@@AAEXW4BNE_POPUP_STATUS@@@Z 100504f0 f   BNC_Titlebar.obj
 0001:0004f7c0       ?Draw@BNC_Titlebar@@AAEXPAVCDC@@0H@Z 100507c0 f   BNC_Titlebar.obj
 0001:0004f9d0       ?EnableButton@BNC_Titlebar@@QAEXW4ID_TITLEBAR@@H@Z 100509d0 f   BNC_Titlebar.obj
 0001:0004fa90       ?GetToolTipText@BNC_Titlebar@@UAE?AV?$CStringT@_WV?$StrTraitMFC_DLL@_WV?$ChTraitsCRT@_W@ATL@@@@@ATL@@W4ID_TITLEBAR@@@Z 10050a90 f   BNC_Titlebar.obj
 0001:0004fac0       ?Initialize@IBaronow25@@YAXXZ 10050ac0 f   IBaronow25.obj
 0001:0004fbc0       ?ExitInstnace@IBaronow25@@YAXXZ 10050bc0 f   IBaronow25.obj
 0001:0004fc40       ?ReleaseCapture@IBaronow25@@YAXXZ 10050c40 f   IBaronow25.obj
 0001:0004fc50       ?SendControlMessage@IBaronow25@@YAJPAUHWND__@@IIJ@Z 10050c50 f   IBaronow25.obj
 0001:0004fc80       ?ShowWindowCheck@IBaronow25@@YAXKKPAVCWnd@@H@Z 10050c80 f   IBaronow25.obj
 0001:0004fcb0       ?ShowWindowCheck@IBaronow25@@YAXPAVBNC_BaseDialog@@H@Z 10050cb0 f   IBaronow25.obj
 0001:0004fcb0       ?ShowWindowCheck@IBaronow25@@YAXAAVBNC_BaseDialog@@H@Z 10050cb0 f   IBaronow25.obj
 0001:0004fcf0       ?ShowWindowCheck@IBaronow25@@YAXPAVBNC_BaseClient@@H@Z 10050cf0 f   IBaronow25.obj
 0001:0004fcf0       ?ShowWindowCheck@IBaronow25@@YAXAAVBNC_BaseClient@@H@Z 10050cf0 f   IBaronow25.obj
 0001:0004fd40       ?ShowWindowCheck@IBaronow25@@YAXPAVBNC_BaseControl@@H@Z 10050d40 f   IBaronow25.obj
 0001:0004fd40       ?ShowWindowCheck@IBaronow25@@YAXAAVBNC_BaseControl@@H@Z 10050d40 f   IBaronow25.obj
 0001:0004fd90       ?ShowAsyncMessagebox@IBaronow25@@YAXPAVBNC_BaseDialog@@PB_W1_NIKKV?$function@$$A6AXH@Z@std@@@Z 10050d90 f   IBaronow25.obj
 0001:0004ff90       ??1?$_Func_base@XHAAVBNC_FakeModal@@@std@@UAE@XZ 10050f90 f i IBaronow25.obj
 0001:0004ffa0       ??_G?$_Func_base@XHAAVBNC_FakeModal@@@std@@UAEPAXI@Z 10050fa0 f i IBaronow25.obj
 0001:0004ffa0       ??_E?$_Func_base@XHAAVBNC_FakeModal@@@std@@UAEPAXI@Z 10050fa0 f i * CIL library *:* CIL module *
 0001:0004ffd0       ??$make_unique@VBNC_HyperLink@@$$$V@std@@YA?AV?$unique_ptr@VBNC_HyperLink@@U?$default_delete@VBNC_HyperLink@@@std@@@0@XZ 10050fd0 f i IBaronow25.obj
 0001:00050060       ??$make_unique@VBNC_CaptureKeyboardMouse@@$$$V@std@@YA?AV?$unique_ptr@VBNC_CaptureKeyboardMouse@@U?$default_delete@VBNC_CaptureKeyboardMouse@@@std@@@0@XZ 10051060 f i IBaronow25.obj
 0001:00050100       ??$make_shared@VBNC_AsyncMessageBox@@AAPAVBNC_BaseDialog@@AAPB_WAAPB_WAA_NAAKAAK@std@@YA?AV?$shared_ptr@VBNC_AsyncMessageBox@@@0@AAPAVBNC_BaseDialog@@AAPB_W1AA_NAAK3@Z 10051100 f i IBaronow25.obj
 0001:000501d0       ?_Destroy@?$_Ref_count_obj@VBNC_AsyncMessageBox@@@std@@EAEXXZ 100511d0 f i IBaronow25.obj
 0001:00050230       ??0?$_Func_impl@U?$_Callable_obj@V<lambda_da052bd7831dd3249c270935677a0115>@@$0A@@std@@V?$allocator@V?$_Func_class@XHAAVBNC_FakeModal@@@std@@@2@XHAAVBNC_FakeModal@@@std@@QAE@$$QAV<lambda_da052bd7831dd3249c270935677a0115>@@ABV?$allocator@V?$_Func_impl@U?$_Callable_obj@V<lambda_da052bd7831dd3249c270935677a0115>@@$0A@@std@@V?$allocator@V?$_Func_class@XHAAVBNC_FakeModal@@@std@@@2@XHAAVBNC_FakeModal@@@std@@@1@@Z 10051230 f i IBaronow25.obj
 0001:000502c0       ?_Move@?$_Func_impl@U?$_Callable_obj@V<lambda_da052bd7831dd3249c270935677a0115>@@$0A@@std@@V?$allocator@V?$_Func_class@XHAAVBNC_FakeModal@@@std@@@2@XHAAVBNC_FakeModal@@@std@@UAEPAV?$_Func_base@XHAAVBNC_FakeModal@@@2@PAX@Z 100512c0 f i IBaronow25.obj
 0001:000502c0       ?_Copy@?$_Func_impl@U?$_Callable_obj@V<lambda_da052bd7831dd3249c270935677a0115>@@$0A@@std@@V?$allocator@V?$_Func_class@XHAAVBNC_FakeModal@@@std@@@2@XHAAVBNC_FakeModal@@@std@@UAEPAV?$_Func_base@XHAAVBNC_FakeModal@@@2@PAX@Z 100512c0 f i IBaronow25.obj
 0001:00050370       ?_Do_call@?$_Func_impl@U?$_Callable_obj@V<lambda_da052bd7831dd3249c270935677a0115>@@$0A@@std@@V?$allocator@V?$_Func_class@XHAAVBNC_FakeModal@@@std@@@2@XHAAVBNC_FakeModal@@@std@@UAEX$$QAHAAVBNC_FakeModal@@@Z 10051370 f i IBaronow25.obj
 0001:000503d0       ?_Target_type@?$_Func_impl@U?$_Callable_obj@V<lambda_da052bd7831dd3249c270935677a0115>@@$0A@@std@@V?$allocator@V?$_Func_class@XHAAVBNC_FakeModal@@@std@@@2@XHAAVBNC_FakeModal@@@std@@UBEABVtype_info@@XZ 100513d0 f i IBaronow25.obj
 0001:000503e0       ?_Delete_this@?$_Func_impl@U?$_Callable_obj@V<lambda_da052bd7831dd3249c270935677a0115>@@$0A@@std@@V?$allocator@V?$_Func_class@XHAAVBNC_FakeModal@@@std@@@2@XHAAVBNC_FakeModal@@@std@@EAEX_N@Z 100513e0 f i IBaronow25.obj
 0001:00050410       ??_E?$_Func_impl@U?$_Callable_obj@V<lambda_da052bd7831dd3249c270935677a0115>@@$0A@@std@@V?$allocator@V?$_Func_class@XHAAVBNC_FakeModal@@@std@@@2@XHAAVBNC_FakeModal@@@std@@UAEPAXI@Z 10051410 f i * CIL library *:* CIL module *
 0001:00050410       ??_G?$_Func_impl@U?$_Callable_obj@V<lambda_da052bd7831dd3249c270935677a0115>@@$0A@@std@@V?$allocator@V?$_Func_class@XHAAVBNC_FakeModal@@@std@@@2@XHAAVBNC_FakeModal@@@std@@UAEPAXI@Z 10051410 f i IBaronow25.obj
 0001:00050480       ?GetCreateCount@BNC_AnimationDialog@@SAIXZ 10051480 f   BNC_AnimationDialog.obj
 0001:00050490       ?GetAliveCount@BNC_AnimationDialog@@SAIXZ 10051490 f   BNC_AnimationDialog.obj
 0001:000504a0       ?OnThreadAnimation@@YAIPAX@Z 100514a0 f   BNC_AnimationDialog.obj
 0001:00050630       ?OnThreadAnimation2@@YAIPAX@Z 10051630 f   BNC_AnimationDialog.obj
 0001:000507b0       ?RunHide@BNC_AnimationDialog@@SAXPAVCWnd@@VCPoint@@PAVCDC@@N@Z 100517b0 f   BNC_AnimationDialog.obj
 0001:00050880       ?RunShow@BNC_AnimationDialog@@SAXPAVCWnd@@VCPoint@@VCRect@@PAVCDC@@N@Z 10051880 f   BNC_AnimationDialog.obj
 0001:00050960       ?RunHide@BNC_AnimationDialog@@SAXPAVCWnd@@PAVCDC@@N@Z 10051960 f   BNC_AnimationDialog.obj
 0001:00050a40       ?RunShow@BNC_AnimationDialog@@SAXPAVCWnd@@PAVCDC@@N@Z 10051a40 f   BNC_AnimationDialog.obj
 0001:00050b30       ??0BNC_AnimationDialog@@QAE@XZ 10051b30 f   BNC_AnimationDialog.obj
 0001:00050c40       ??1BNC_AnimationDialog@@UAE@XZ 10051c40 f   BNC_AnimationDialog.obj
 0001:00050cc0       ?OnCreate@BNC_AnimationDialog@@EAE_NXZ 10051cc0 f   BNC_AnimationDialog.obj
 0001:00050d30       ?OnDraw@BNC_AnimationDialog@@EAE_NPAVCDC@@0@Z 10051d30 f   BNC_AnimationDialog.obj
 0001:00050d80       ?GetThisMessageMap@BNC_AnimationDialog@@KGPBUAFX_MSGMAP@@XZ 10051d80 f   BNC_AnimationDialog.obj
 0001:00050d80       ?GetMessageMap@BNC_AnimationDialog@@MBEPBUAFX_MSGMAP@@XZ 10051d80 f   BNC_AnimationDialog.obj
 0001:00050d90       ?OnDestroy@BNC_AnimationDialog@@QAEXXZ 10051d90 f   BNC_AnimationDialog.obj
 0001:00050da0       ?OnActivate@BNC_AnimationDialog@@QAEXIPAVCWnd@@H@Z 10051da0 f   BNC_AnimationDialog.obj
 0001:00050dd0       ?SetHide@BNC_AnimationDialog@@AAEXPAVCWnd@@VCPoint@@PAVCDC@@@Z 10051dd0 f   BNC_AnimationDialog.obj
 0001:00050e70       ?SetShow@BNC_AnimationDialog@@AAEXPAVCWnd@@VCPoint@@VCRect@@PAVCDC@@@Z 10051e70 f   BNC_AnimationDialog.obj
 0001:00050ef0       ?SetAnimation@BNC_AnimationDialog@@AAEXPAVCDC@@@Z 10051ef0 f   BNC_AnimationDialog.obj
 0001:000510a0       ?SetTargetWindowPos@BNC_AnimationDialog@@QAEXXZ 100520a0 f   BNC_AnimationDialog.obj
 0001:00051130       ?Update@BNC_AnimationDialog@@QAEXN@Z 10052130 f   BNC_AnimationDialog.obj
 0001:000512d0       ?Update2@BNC_AnimationDialog@@QAEXN@Z 100522d0 f   BNC_AnimationDialog.obj
 0001:000513c0       ?UpdateFinal@BNC_AnimationDialog@@QAEXXZ 100523c0 f   BNC_AnimationDialog.obj
 0001:000513f0       ??_EBNC_AnimationDialog@@UAEPAXI@Z 100523f0 f i BNC_AnimationDialog.obj
 0001:000514d0       ?SetDefaultLayout@BNC_AsyncMessageBox@@SAXAAUBNS_AsyncMessageBoxLayout@@@Z 100524d0 f   BNC_AsyncMessageBox.obj
 0001:00051500       ??0BNC_AsyncMessageBoxRoot@@QAE@XZ 10052500 f   BNC_AsyncMessageBox.obj
 0001:000515e0       ??1BNC_AsyncMessageBoxRoot@@UAE@XZ 100525e0 f   BNC_AsyncMessageBox.obj
 0001:000516d0       ?Initialize@BNC_AsyncMessageBoxRoot@@QAE?AVCSize@@PB_W0_NKK@Z 100526d0 f   BNC_AsyncMessageBox.obj
 0001:00051a90       ?OnCreate@BNC_AsyncMessageBoxRoot@@EAE_NXZ 10052a90 f   BNC_AsyncMessageBox.obj
 0001:00051bf0       ?InitButton@BNC_AsyncMessageBoxRoot@@AAE_NAAVBNC_Button@@GV?$CStringT@_WV?$StrTraitMFC_DLL@_WV?$ChTraitsCRT@_W@ATL@@@@@ATL@@K@Z 10052bf0 f   BNC_AsyncMessageBox.obj
 0001:00051f20       ?OnUpdateClient@BNC_AsyncMessageBoxRoot@@EAEXHH@Z 10052f20 f   BNC_AsyncMessageBox.obj
 0001:00052090       ?OnDraw@BNC_AsyncMessageBoxRoot@@EAE_NPAVCDC@@0@Z 10053090 f   BNC_AsyncMessageBox.obj
 0001:000521e0       ?OnMessageButton@BNC_AsyncMessageBoxRoot@@EAEJIJ@Z 100531e0 f   BNC_AsyncMessageBox.obj
 0001:00052270       ??0BNC_AsyncMessageBox@@QAE@PAVBNC_BaseDialog@@PB_W1_NKKVCSize@@@Z 10053270 f   BNC_AsyncMessageBox.obj
 0001:000523b0       ??1BNC_AsyncMessageBox@@UAE@XZ 100533b0 f   BNC_AsyncMessageBox.obj
 0001:00052410       ?GetThisMessageMap@BNC_AsyncMessageBox@@KGPBUAFX_MSGMAP@@XZ 10053410 f   BNC_AsyncMessageBox.obj
 0001:00052410       ?GetMessageMap@BNC_AsyncMessageBox@@MBEPBUAFX_MSGMAP@@XZ 10053410 f   BNC_AsyncMessageBox.obj
 0001:00052420       ?OnCreate@BNC_AsyncMessageBox@@EAE_NXZ 10053420 f   BNC_AsyncMessageBox.obj
 0001:00052450       ??$make_unique@VBNC_Button@@$$$V@std@@YA?AV?$unique_ptr@VBNC_Button@@U?$default_delete@VBNC_Button@@@std@@@0@XZ 10053450 f i BNC_AsyncMessageBox.obj
 0001:000524f0       ??_EBNC_AsyncMessageBox@@UAEPAXI@Z 100534f0 f i BNC_AsyncMessageBox.obj
 0001:000525b0       ??_EBNC_AsyncMessageBoxRoot@@UAEPAXI@Z 100535b0 f i BNC_AsyncMessageBox.obj
 0001:00052610       ?GetThisClass@BNC_FadeAnimation@@SGPAUCRuntimeClass@@XZ 10053610 f   BNC_FadeAnimation.obj
 0001:00052610       ?GetRuntimeClass@BNC_FadeAnimation@@UBEPAUCRuntimeClass@@XZ 10053610 f   BNC_FadeAnimation.obj
 0001:00052620       ??0BNC_FadeAnimation@@AAE@XZ 10053620 f   BNC_FadeAnimation.obj
 0001:00052640       ??1BNC_FadeAnimation@@EAE@XZ 10053640 f   BNC_FadeAnimation.obj
 0001:00052650       ?GetThisMessageMap@BNC_FadeAnimation@@KGPBUAFX_MSGMAP@@XZ 10053650 f   BNC_FadeAnimation.obj
 0001:00052650       ?GetMessageMap@BNC_FadeAnimation@@MBEPBUAFX_MSGMAP@@XZ 10053650 f   BNC_FadeAnimation.obj
 0001:00052660       ?OnTimer@BNC_FadeAnimation@@QAEXI@Z 10053660 f   BNC_FadeAnimation.obj
 0001:00052710       ?create@BNC_FadeAnimation@@AAE_NVCRect@@PAVCDC@@@Z 10053710 f   BNC_FadeAnimation.obj
 0001:00052800       ?Run@BNC_FadeAnimation@@SA_NVCRect@@PAVCDC@@@Z 10053800 f   BNC_FadeAnimation.obj
 0001:000528e0       ??_EBNC_FadeAnimation@@EAEPAXI@Z 100538e0 f i BNC_FadeAnimation.obj
 0001:00052940       ?GetThisClass@BNC_FakeBorder@@SGPAUCRuntimeClass@@XZ 10053940 f   BNC_FakeBorder.obj
 0001:00052940       ?GetRuntimeClass@BNC_FakeBorder@@UBEPAUCRuntimeClass@@XZ 10053940 f   BNC_FakeBorder.obj
 0001:00052950       ??0BNC_FakeBorder@@QAE@XZ  10053950 f   BNC_FakeBorder.obj
 0001:000529d0       ??1BNC_FakeBorder@@UAE@XZ  100539d0 f   BNC_FakeBorder.obj
 0001:00052a40       ?GetMessageMap@BNC_FakeBorder@@MBEPBUAFX_MSGMAP@@XZ 10053a40 f   BNC_FakeBorder.obj
 0001:00052a40       ?GetThisMessageMap@BNC_FakeBorder@@KGPBUAFX_MSGMAP@@XZ 10053a40 f   BNC_FakeBorder.obj
 0001:00052a50       ?DestroyWindow@BNC_FakeBorder@@UAEHXZ 10053a50 f   BNC_FakeBorder.obj
 0001:00052a60       ?create@BNC_FakeBorder@@QAE_NIPAVBNC_BaseDialog@@PAVCWnd@@@Z 10053a60 f   BNC_FakeBorder.obj
 0001:00052ae0       ?OnInitDialog@BNC_FakeBorder@@MAEHXZ 10053ae0 f   BNC_FakeBorder.obj
 0001:00052b60       ?OnSize@BNC_FakeBorder@@QAEXIHH@Z 10053b60 f   BNC_FakeBorder.obj
 0001:00052b90       ?OnWindowPosChanging@BNC_FakeBorder@@QAEXPAUtagWINDOWPOS@@@Z 10053b90 f   BNC_FakeBorder.obj
 0001:00052bb0       ?ShowSync@BNC_FakeBorder@@AAEXXZ 10053bb0 f   BNC_FakeBorder.obj
 0001:00052d40       ?ShowSyncTimer@BNC_FakeBorder@@AAEXXZ 10053d40 f   BNC_FakeBorder.obj
 0001:00052d70       ?OnTimer@BNC_FakeBorder@@QAEXI@Z 10053d70 f   BNC_FakeBorder.obj
 0001:00052db0       ?OnActualStatusUpdate@BNC_FakeBorder@@QAEXW4BNE_POPUP_STATUS@@@Z 10053db0 f   BNC_FakeBorder.obj
 0001:00052e60       ?OnActualPos@BNC_FakeBorder@@QAEXHHHHI_N@Z 10053e60 f   BNC_FakeBorder.obj
 0001:00052ec0       ?WindowProc@BNC_FakeBorder@@MAEJIIJ@Z 10053ec0 f   BNC_FakeBorder.obj
 0001:00052f00       ?SendMouseEvent@BNC_FakeBorder@@AAEXIIVCPoint@@@Z 10053f00 f   BNC_FakeBorder.obj
 0001:00052f70       ?OnMouseMove@BNC_FakeBorder@@QAEXIVCPoint@@@Z 10053f70 f   BNC_FakeBorder.obj
 0001:00052fc0       ?OnLButtonDown@BNC_FakeBorder@@QAEXIVCPoint@@@Z 10053fc0 f   BNC_FakeBorder.obj
 0001:00053020       ?OnLButtonUp@BNC_FakeBorder@@QAEXIVCPoint@@@Z 10054020 f   BNC_FakeBorder.obj
 0001:00053070       ??_EBNC_FakeBorder@@UAEPAXI@Z 10054070 f i BNC_FakeBorder.obj
 0001:00053140       ?GetCreateCount@BNC_FakeWindow@@SAIXZ 10054140 f   BNC_FakeWindow.obj
 0001:00053150       ?GetAliveCount@BNC_FakeWindow@@SAIXZ 10054150 f   BNC_FakeWindow.obj
 0001:00053160       ?GetRuntimeClass@BNC_FakeWindow@@UBEPAUCRuntimeClass@@XZ 10054160 f   BNC_FakeWindow.obj
 0001:00053160       ?GetThisClass@BNC_FakeWindow@@SGPAUCRuntimeClass@@XZ 10054160 f   BNC_FakeWindow.obj
 0001:00053170       ??0BNC_FakeWindow@@QAE@XZ  10054170 f   BNC_FakeWindow.obj
 0001:000531f0       ??1BNC_FakeWindow@@UAE@XZ  100541f0 f   BNC_FakeWindow.obj
 0001:00053200       ?GetThisMessageMap@BNC_FakeWindow@@KGPBUAFX_MSGMAP@@XZ 10054200 f   BNC_FakeWindow.obj
 0001:00053200       ?GetMessageMap@BNC_FakeWindow@@MBEPBUAFX_MSGMAP@@XZ 10054200 f   BNC_FakeWindow.obj
 0001:00053210       ?create@BNC_FakeWindow@@QAE_NPAUHWND__@@@Z 10054210 f   BNC_FakeWindow.obj
 0001:000532e0       ?OnCreate@BNC_FakeWindow@@QAEHPAUtagCREATESTRUCTW@@@Z 100542e0 f   BNC_FakeWindow.obj
 0001:00053300       ?OnDestroy@BNC_FakeWindow@@QAEXXZ 10054300 f   BNC_FakeWindow.obj
 0001:00053310       ?OnPaint@BNC_FakeWindow@@QAEXXZ 10054310 f   BNC_FakeWindow.obj
 0001:000533b0       ?OnSize@BNC_FakeWindow@@QAEXIHH@Z 100543b0 f   BNC_FakeWindow.obj
 0001:00053650       ??_EBNC_FakeWindow@@UAEPAXI@Z 10054650 f i BNC_FakeWindow.obj
 0001:000536c0       ??0BNC_FloatingMessage@@QAE@XZ 100546c0 f   BNC_FloatingMessage.obj
 0001:00053870       ??1BNC_FloatingMessage@@UAE@XZ 10054870 f   BNC_FloatingMessage.obj
 0001:000539e0       ?GetMessageMap@BNC_FloatingMessage@@MBEPBUAFX_MSGMAP@@XZ 100549e0 f   BNC_FloatingMessage.obj
 0001:000539e0       ?GetThisMessageMap@BNC_FloatingMessage@@KGPBUAFX_MSGMAP@@XZ 100549e0 f   BNC_FloatingMessage.obj
 0001:000539f0       ?OnInitDialog@BNC_FloatingMessage@@MAEHXZ 100549f0 f   BNC_FloatingMessage.obj
 0001:00053a50       ?OnTimer@BNC_FloatingMessage@@IAEXI@Z 10054a50 f   BNC_FloatingMessage.obj
 0001:00053ad0       ?InitMessage@BNC_FloatingMessage@@QAEXPAVCFont@@KKVCRect@@@Z 10054ad0 f   BNC_FloatingMessage.obj
 0001:00053b00       ?SetDelay@BNC_FloatingMessage@@QAEXIII@Z 10054b00 f   BNC_FloatingMessage.obj
 0001:00053b30       ?SetAlphaRange@BNC_FloatingMessage@@QAEXEE@Z 10054b30 f   BNC_FloatingMessage.obj
 0001:00053b50       ?FindStrCut@BNC_FloatingMessage@@AAE_NV?$CStringT@_WV?$StrTraitMFC_DLL@_WV?$ChTraitsCRT@_W@ATL@@@@@ATL@@PB_WAAV23@2@Z 10054b50 f   BNC_FloatingMessage.obj
 0001:00053c30       ?ShowMessage@BNC_FloatingMessage@@QAEXV?$CStringT@_WV?$StrTraitMFC_DLL@_WV?$ChTraitsCRT@_W@ATL@@@@@ATL@@H_N1@Z 10054c30 f   BNC_FloatingMessage.obj
 0001:00054040       ?ShowImage@BNC_FloatingMessage@@QAEXPAVCBitmap@@VCPoint@@VCSize@@_N@Z 10055040 f   BNC_FloatingMessage.obj
 0001:000541a0       ?HideMessage@BNC_FloatingMessage@@QAEX_N@Z 100551a0 f   BNC_FloatingMessage.obj
 0001:00054250       ?OnFirstTransparentAnimation@BNC_FloatingMessage@@UAEXE@Z 10055250 f   BNC_FloatingMessage.obj
 0001:000542f0       ?UpdateMessage@BNC_FloatingMessage@@AAEX_N@Z 100552f0 f   BNC_FloatingMessage.obj
 0001:000545c0       ?UpdateLayerText@BNC_FloatingMessage@@AAE_NAAVCSize@@@Z 100555c0 f   BNC_FloatingMessage.obj
 0001:00054970       ?OnDrawMsgDC@BNC_FloatingMessage@@MAEXAAVGraphics@Gdiplus@@AAVCSize@@@Z 10055970 f   BNC_FloatingMessage.obj
 0001:00054a00       ?OnDrawMsgDC@BNC_FloatingMessage@@MAEXPAVCDC@@AAVGraphics@Gdiplus@@AAVCSize@@@Z 10055a00 f   BNC_FloatingMessage.obj
 0001:00054b00       ?OnDraw@BNC_FloatingMessage@@EAE_NPAVCDC@@0@Z 10055b00 f   BNC_FloatingMessage.obj
 0001:00054b70       ??_EBNC_FloatingMessage@@UAEPAXI@Z 10055b70 f i BNC_FloatingMessage.obj
 0001:00054bd0       ??0BNC_MessageBox@@QAE@IPAVCWnd@@0@Z 10055bd0 f   BNC_MessageBox.obj
 0001:00054d20       ??1BNC_MessageBox@@UAE@XZ  10055d20 f   BNC_MessageBox.obj
 0001:00054e10       ?GetThisMessageMap@BNC_MessageBox@@KGPBUAFX_MSGMAP@@XZ 10055e10 f   BNC_MessageBox.obj
 0001:00054e10       ?GetMessageMap@BNC_MessageBox@@MBEPBUAFX_MSGMAP@@XZ 10055e10 f   BNC_MessageBox.obj
 0001:00054e20       ?OnDestroy@BNC_MessageBox@@IAEXXZ 10055e20 f   BNC_MessageBox.obj
 0001:00054e30       ?Clear@BNC_MessageBox@@AAEXXZ 10055e30 f   BNC_MessageBox.obj
 0001:00054ea0       ?OnInitDialog@BNC_MessageBox@@MAEHXZ 10055ea0 f   BNC_MessageBox.obj
 0001:00054f70       ?UpdateSize@BNC_MessageBox@@AAEXXZ 10055f70 f   BNC_MessageBox.obj
 0001:00055030       ?OnButtonPos@BNC_MessageBox@@EAEXAAPAXPAUHWND__@@1@Z 10056030 f   BNC_MessageBox.obj
 0001:00055160       ?OnDrawRootClient@BNC_MessageBox@@EAE_NPAVCDC@@0@Z 10056160 f   BNC_MessageBox.obj
 0001:000552a0       ?GetButtonPos@BNC_MessageBox@@IAE?AVCPoint@@PAUHWND__@@H@Z 100562a0 f   BNC_MessageBox.obj
 0001:00055330       ?OnSize@BNC_MessageBox@@IAEXIHH@Z 10056330 f   BNC_MessageBox.obj
 0001:00055370       ?OnSetButton@BNC_MessageBox@@EAE_NPAVBNC_Button@@0@Z 10056370 f   BNC_MessageBox.obj
 0001:00055570       ?InitMessageBox@BNC_MessageBox@@QAE_NV?$CStringT@_WV?$StrTraitMFC_DLL@_WV?$ChTraitsCRT@_W@ATL@@@@@ATL@@0_N@Z 10056570 f   BNC_MessageBox.obj
 0001:000558f0       ?SetHeight@BNC_MessageBox@@QAEXIIIII@Z 100568f0 f   BNC_MessageBox.obj
 0001:00055930       ?SetTitleStyle@BNC_MessageBox@@QAEXPAVCFont@@KIII@Z 10056930 f   BNC_MessageBox.obj
 0001:00055970       ?SetSubstanceStyle@BNC_MessageBox@@QAEXPAVCFont@@KIII@Z 10056970 f   BNC_MessageBox.obj
 0001:00055a00       ?SetSubstanceStyle@BNC_MessageBox@@QAE_NIPAVCFont@@KIII@Z 10056a00 f   BNC_MessageBox.obj
 0001:00055a80       ?UpdateMessage@BNC_MessageBox@@QAEXXZ 10056a80 f   BNC_MessageBox.obj
 0001:00055cc0       ?ModalMessage@BNC_MessageBox@@QAEH_NEK@Z 10056cc0 f   BNC_MessageBox.obj
 0001:00055cf0       ?OnMessageButton@BNC_MessageBox@@EAEJIJ@Z 10056cf0 f   BNC_MessageBox.obj
 0001:00055d30       ??_EBNC_MessageBox@@UAEPAXI@Z 10056d30 f i BNC_MessageBox.obj
 0001:00055d90       ?GetCreateCount@BNC_PopupMenu@@SAIXZ 10056d90 f   BNC_PopupMenu.obj
 0001:00055da0       ?GetAliveCount@BNC_PopupMenu@@SAIXZ 10056da0 f   BNC_PopupMenu.obj
 0001:00055db0       ?SetLastVisibleMenu@BNC_PopupMenu@@CAXPAV1@@Z 10056db0 f   BNC_PopupMenu.obj
 0001:00055e50       ?MouseProc@BNC_PopupMenu@@CGJHIJ@Z 10056e50 f   BNC_PopupMenu.obj
 0001:00055ee0       ?OnMouseProc@BNC_PopupMenu@@AAEJHIPAUtagMSLLHOOKSTRUCT@@@Z 10056ee0 f   BNC_PopupMenu.obj
 0001:00055fc0       ?KeyboardProc@BNC_PopupMenu@@CGJHIJ@Z 10056fc0 f   BNC_PopupMenu.obj
 0001:00056030       ?OnKeyboradProc@BNC_PopupMenu@@AAEJHIPAUtagKBDLLHOOKSTRUCT@@@Z 10057030 f   BNC_PopupMenu.obj
 0001:000563b0       ?GetRuntimeClass@BNC_PopupMenu@@UBEPAUCRuntimeClass@@XZ 100573b0 f   BNC_PopupMenu.obj
 0001:000563b0       ?GetThisClass@BNC_PopupMenu@@SGPAUCRuntimeClass@@XZ 100573b0 f   BNC_PopupMenu.obj
 0001:000563c0       ??0BNC_PopupMenu@@QAE@XZ   100573c0 f   BNC_PopupMenu.obj
 0001:000565a0       ??1BNC_PopupMenu@@UAE@XZ   100575a0 f   BNC_PopupMenu.obj
 0001:00056710       ?GetMessageMap@BNC_PopupMenu@@MBEPBUAFX_MSGMAP@@XZ 10057710 f   BNC_PopupMenu.obj
 0001:00056710       ?GetThisMessageMap@BNC_PopupMenu@@KGPBUAFX_MSGMAP@@XZ 10057710 f   BNC_PopupMenu.obj
 0001:00056720       ?OnDestroy@BNC_PopupMenu@@QAEXXZ 10057720 f   BNC_PopupMenu.obj
 0001:000567b0       ?OnPaint@BNC_PopupMenu@@QAEXXZ 100577b0 f   BNC_PopupMenu.obj
 0001:00056830       ?OnSize@BNC_PopupMenu@@QAEXIHH@Z 10057830 f   BNC_PopupMenu.obj
 0001:00056860       ?create@BNC_PopupMenu@@QAE_NIVCRect@@IIIIPAV1@I_N2@Z 10057860 f   BNC_PopupMenu.obj
 0001:00056a00       ?Draw@BNC_PopupMenu@@QAEXPAVCDC@@@Z 10057a00 f   BNC_PopupMenu.obj
 0001:00056c60       ?DrawItem@BNC_PopupMenu@@AAEXPAVCDC@@0@Z 10057c60 f   BNC_PopupMenu.obj
 0001:00056f00       ?IsClientPointInMenuWindow@BNC_PopupMenu@@AAE_NAAVCPoint@@PAUHWND__@@@Z 10057f00 f   BNC_PopupMenu.obj
 0001:00056f90       ?SelectItem@BNC_PopupMenu@@AAE_NH@Z 10057f90 f   BNC_PopupMenu.obj
 0001:00057070       ?ShowChildMenu@BNC_PopupMenu@@AAE_NH@Z 10058070 f   BNC_PopupMenu.obj
 0001:00057240       ?HideChildMenu@BNC_PopupMenu@@AAEXXZ 10058240 f   BNC_PopupMenu.obj
 0001:00057280       ?GetChildMenu@BNC_PopupMenu@@AAEPAV1@H@Z 10058280 f   BNC_PopupMenu.obj
 0001:000572c0       ?IsFocusPopupItem@BNC_PopupMenu@@AAE_NXZ 100582c0 f   BNC_PopupMenu.obj
 0001:000572e0       ?MouseToMenuIndex@BNC_PopupMenu@@AAEPAVCWnd@@AAVCPoint@@AAH@Z 100582e0 f   BNC_PopupMenu.obj
 0001:00057400       ?OnFocusFromChild@BNC_PopupMenu@@AAEXXZ 10058400 f   BNC_PopupMenu.obj
 0001:00057510       ?OnMouseMove@BNC_PopupMenu@@QAEXIVCPoint@@@Z 10058510 f   BNC_PopupMenu.obj
 0001:00057720       ?OnLButtonDown@BNC_PopupMenu@@QAEXIVCPoint@@@Z 10058720 f   BNC_PopupMenu.obj
 0001:00057810       ?OnRButtonDown@BNC_PopupMenu@@QAEXIVCPoint@@@Z 10058810 f   BNC_PopupMenu.obj
 0001:000578f0       ?OnMButtonDown@BNC_PopupMenu@@QAEXIVCPoint@@@Z 100588f0 f   BNC_PopupMenu.obj
 0001:000579d0       ?OnMButtonUp@BNC_PopupMenu@@QAEXIVCPoint@@@Z 100589d0 f   BNC_PopupMenu.obj
 0001:000579d0       ?OnLButtonUp@BNC_PopupMenu@@QAEXIVCPoint@@@Z 100589d0 f   BNC_PopupMenu.obj
 0001:000579d0       ?OnRButtonUp@BNC_PopupMenu@@QAEXIVCPoint@@@Z 100589d0 f   BNC_PopupMenu.obj
 0001:00057a50       ?MouseResultHideMenu@BNC_PopupMenu@@AAEXIIVCPoint@@@Z 10058a50 f   BNC_PopupMenu.obj
 0001:00057b10       ?Show@BNC_PopupMenu@@AAEX_N0VCPoint@@PAUHWND__@@20W4BNE_MONITOR_CHECK@@I@Z 10058b10 f   BNC_PopupMenu.obj
 0001:00057e00       ?ModifyItemStyle@BNC_PopupMenu@@QAEXIPAUBNS_ImageInfo@@0PAUBNS_TextInfo@@10@Z 10058e00 f   BNC_PopupMenu.obj
 0001:00058270       ?SetItemEnable@BNC_PopupMenu@@QAEXI_N0@Z 10059270 f   BNC_PopupMenu.obj
 0001:000582b0       ?SetItemText@BNC_PopupMenu@@QAEXIV?$CStringT@_WV?$StrTraitMFC_DLL@_WV?$ChTraitsCRT@_W@ATL@@@@@ATL@@@Z 100592b0 f   BNC_PopupMenu.obj
 0001:00058330       ?SetItemCheck@BNC_PopupMenu@@QAEXI_N00@Z 10059330 f   BNC_PopupMenu.obj
 0001:00058430       ?AddItem@BNC_PopupMenu@@QAEXPAV1@W4BNE_POPUPITEM_TYPE@@IIPAUBNS_ImageInfo@@2PAUBNS_TextInfo@@32_N4HHHH@Z 10059430 f   BNC_PopupMenu.obj
 0001:00058a40       ?GetMenuItem@BNC_PopupMenu@@QAEPAVBNC_PopupMenuItem@@I@Z 10059a40 f   BNC_PopupMenu.obj
 0001:00058a70       ?GetMouseNotifyWindow@BNC_PopupMenu@@AAEPAUHWND__@@XZ 10059a70 f   BNC_PopupMenu.obj
 0001:00058aa0       ?OnCaptureChanged@BNC_PopupMenu@@QAEXPAVCWnd@@@Z 10059aa0 f   BNC_PopupMenu.obj
 0001:00058af0       ?PreTranslateMessage@BNC_PopupMenu@@EAEHPAUtagMSG@@@Z 10059af0 f   BNC_PopupMenu.obj
 0001:00058b00       ?GetVisibleMenu@BNC_PopupMenu@@SAPAV1@XZ 10059b00 f   BNC_PopupMenu.obj
 0001:00058b60       ?GetClientSize@BNC_PopupMenu@@QAE?AVCSize@@XZ 10059b60 f   BNC_PopupMenu.obj
 0001:00058b80       ?GetNotifyWindow@BNC_PopupMenu@@QAEPAUHWND__@@XZ 10059b80 f   BNC_PopupMenu.obj
 0001:00058b90       ?OnMessageScroll@BNC_PopupMenu@@AAEJIJ@Z 10059b90 f   BNC_PopupMenu.obj
 0001:00058bb0       ?ShowMenu@BNC_PopupMenu@@SAXAAV1@PAUHWND__@@W4BNE_MONITOR_CHECK@@@Z 10059bb0 f   BNC_PopupMenu.obj
 0001:00058c90       ?ShowMenuPoint@BNC_PopupMenu@@SAXAAV1@PAUHWND__@@AAVCPoint@@W4BNE_MONITOR_CHECK@@@Z 10059c90 f   BNC_PopupMenu.obj
 0001:00058d30       ?HideVisibleMenu@BNC_PopupMenu@@SAXXZ 10059d30 f   BNC_PopupMenu.obj
 0001:00058d70       ?OnTimer@BNC_PopupMenu@@QAEXI@Z 10059d70 f   BNC_PopupMenu.obj
 0001:00058db0       ?OnNotifyMouseWheel@BNC_PopupMenu@@AAEXIF@Z 10059db0 f   BNC_PopupMenu.obj
 0001:00058e30       ?OnMouseWheel@BNC_PopupMenu@@QAEHIFVCPoint@@@Z 10059e30 f   BNC_PopupMenu.obj
 0001:00058ed0       ??_EBNC_PopupMenu@@UAEPAXI@Z 10059ed0 f i BNC_PopupMenu.obj
 0001:00058f30       ??0BNS_PopupMenuStyle@@QAE@XZ 10059f30 f i BNC_PopupMenu.obj
 0001:00058fc0       ?DefaultOnEraseBkgnd@BN25Global@@YAHPAVCWnd@@PAVCDC@@AAVCSize@@0@Z 10059fc0 f   stdafx.obj
 0001:000590c0       ?OnKeyDownScroll@BN25Global@@YA_NPAVBNC_BaseClient@@PAVBNC_SimpleVScrollbar@@I@Z 1005a0c0 f   stdafx.obj
 0001:000591c0       ?GetDefaultHitTest@BN25Global@@YAIABVCSize@@ABVCPoint@@HH@Z 1005a1c0 f   stdafx.obj
 0001:00059264       ??3@YAXPAX@Z               1005a264 f   mfc120u:mfc120u.dll
 0001:0005926a       ?GetConnectionHook@CCmdTarget@@MAEPAUIConnectionPoint@@ABU_GUID@@@Z 1005a26a f   mfc120u:mfc120u.dll
 0001:00059270       ?GetExtraConnectionPoints@CCmdTarget@@MAEHPAVCPtrArray@@@Z 1005a270 f   mfc120u:mfc120u.dll
 0001:00059276       ?GetInterfaceHook@CCmdTarget@@UAEPAUIUnknown@@PBX@Z 1005a276 f   mfc120u:mfc120u.dll
 0001:0005927c       ?OnCreateAggregates@CCmdTarget@@UAEHXZ 1005a27c f   mfc120u:mfc120u.dll
 0001:00059282       ?GetEventSinkMap@CCmdTarget@@MBEPBUAFX_EVENTSINKMAP@@XZ 1005a282 f   mfc120u:mfc120u.dll
 0001:00059288       ?GetConnectionMap@CCmdTarget@@MBEPBUAFX_CONNECTIONMAP@@XZ 1005a288 f   mfc120u:mfc120u.dll
 0001:0005928e       ?GetDispatchMap@CCmdTarget@@MBEPBUAFX_DISPMAP@@XZ 1005a28e f   mfc120u:mfc120u.dll
 0001:00059294       ?GetCommandMap@CCmdTarget@@MBEPBUAFX_OLECMDMAP@@XZ 1005a294 f   mfc120u:mfc120u.dll
 0001:0005929a       ?GetTypeLib@CCmdTarget@@UAEJKPAPAUITypeLib@@@Z 1005a29a f   mfc120u:mfc120u.dll
 0001:000592a0       ?GetTypeLibCache@CCmdTarget@@UAEPAVCTypeLibCache@@XZ 1005a2a0 f   mfc120u:mfc120u.dll
 0001:000592a6       ?GetTypeInfoCount@CCmdTarget@@UAEIXZ 1005a2a6 f   mfc120u:mfc120u.dll
 0001:000592ac       ?GetDispatchIID@CCmdTarget@@UAEHPAU_GUID@@@Z 1005a2ac f   mfc120u:mfc120u.dll
 0001:000592b2       ?IsInvokeAllowed@CCmdTarget@@UAEHJ@Z 1005a2b2 f   mfc120u:mfc120u.dll
 0001:000592b8       ?OnCmdMsg@CCmdTarget@@UAEHIHPAXPAUAFX_CMDHANDLERINFO@@@Z 1005a2b8 f   mfc120u:mfc120u.dll
 0001:000592be       ?GetOccDialogInfo@CWnd@@MAEPAU_AFX_OCC_DIALOG_INFO@@XZ 1005a2be f   mfc120u:mfc120u.dll
 0001:000592c4       ?SetOccDialogInfo@CWnd@@MAEHPAU_AFX_OCC_DIALOG_INFO@@@Z 1005a2c4 f   mfc120u:mfc120u.dll
 0001:000592ca       ?CreateControlSite@CWnd@@MAEHPAVCOleControlContainer@@PAPAVCOleControlSite@@IABU_GUID@@@Z 1005a2ca f   mfc120u:mfc120u.dll
 0001:000592d0       ?CreateControlContainer@CWnd@@MAEHPAPAVCOleControlContainer@@@Z 1005a2d0 f   mfc120u:mfc120u.dll
 0001:000592d6       ?OnFinalRelease@CWnd@@UAEXXZ 1005a2d6 f   mfc120u:mfc120u.dll
 0001:000592dc       ?IsFrameWnd@CWnd@@UBEHXZ   1005a2dc f   mfc120u:mfc120u.dll
 0001:000592e2       ?CheckAutoCenter@CWnd@@UAEHXZ 1005a2e2 f   mfc120u:mfc120u.dll
 0001:000592e8       ?OnGesturePressAndTap@CWnd@@MAEHVCPoint@@J@Z 1005a2e8 f   mfc120u:mfc120u.dll
 0001:000592ee       ?OnGestureTwoFingerTap@CWnd@@MAEHVCPoint@@@Z 1005a2ee f   mfc120u:mfc120u.dll
 0001:000592f4       ?OnGestureRotate@CWnd@@MAEHVCPoint@@N@Z 1005a2f4 f   mfc120u:mfc120u.dll
 0001:000592fa       ?OnGesturePan@CWnd@@MAEHVCPoint@@0@Z 1005a2fa f   mfc120u:mfc120u.dll
 0001:00059300       ?OnGestureZoom@CWnd@@MAEHVCPoint@@J@Z 1005a300 f   mfc120u:mfc120u.dll
 0001:00059306       ?GetGestureStatus@CWnd@@MAEKVCPoint@@@Z 1005a306 f   mfc120u:mfc120u.dll
 0001:0005930c       ?OnTouchInput@CWnd@@MAEHVCPoint@@HHPAUtagTOUCHINPUT@@@Z 1005a30c f   mfc120u:mfc120u.dll
 0001:00059312       ?OnTouchInputs@CWnd@@MAEHIPAUtagTOUCHINPUT@@@Z 1005a312 f   mfc120u:mfc120u.dll
 0001:00059318       ?OnChildNotify@CWnd@@MAEHIIJPAJ@Z 1005a318 f   mfc120u:mfc120u.dll
 0001:0005931e       ?PostNcDestroy@CWnd@@MAEXXZ 1005a31e f   mfc120u:mfc120u.dll
 0001:00059324       ?OnWndMsg@CWnd@@MAEHIIJPAJ@Z 1005a324 f   mfc120u:mfc120u.dll
 0001:0005932a       ?WindowProc@CWnd@@MAEJIIJ@Z 1005a32a f   mfc120u:mfc120u.dll
 0001:00059330       ?OnAmbientProperty@CWnd@@UAEHPAVCOleControlSite@@JPAUtagVARIANT@@@Z 1005a330 f   mfc120u:mfc120u.dll
 0001:00059336       ?GetSuperWndProcAddr@CWnd@@MAEPAP6GJPAUHWND__@@IIJ@ZXZ 1005a336 f   mfc120u:mfc120u.dll
 0001:0005933c       ?OnNotify@CWnd@@MAEHIJPAJ@Z 1005a33c f   mfc120u:mfc120u.dll
 0001:00059342       ?OnCommand@CWnd@@MAEHIJ@Z  1005a342 f   mfc120u:mfc120u.dll
 0001:00059348       ?CreateAccessibleProxy@CWnd@@UAEJIJPAJ@Z 1005a348 f   mfc120u:mfc120u.dll
 0001:0005934e       ?SetProxy@CWnd@@UAEJPAUIAccessibleProxy@@@Z 1005a34e f   mfc120u:mfc120u.dll
 0001:00059354       ?put_accValue@CWnd@@UAEJUtagVARIANT@@PA_W@Z 1005a354 f   mfc120u:mfc120u.dll
 0001:0005935a       ?put_accName@CWnd@@UAEJUtagVARIANT@@PA_W@Z 1005a35a f   mfc120u:mfc120u.dll
 0001:00059360       ?accDoDefaultAction@CWnd@@UAEJUtagVARIANT@@@Z 1005a360 f   mfc120u:mfc120u.dll
 0001:00059366       ?accHitTest@CWnd@@UAEJJJPAUtagVARIANT@@@Z 1005a366 f   mfc120u:mfc120u.dll
 0001:0005936c       ?accNavigate@CWnd@@UAEJJUtagVARIANT@@PAU2@@Z 1005a36c f   mfc120u:mfc120u.dll
 0001:00059372       ?accLocation@CWnd@@UAEJPAJ000UtagVARIANT@@@Z 1005a372 f   mfc120u:mfc120u.dll
 0001:00059378       ?accSelect@CWnd@@UAEJJUtagVARIANT@@@Z 1005a378 f   mfc120u:mfc120u.dll
 0001:0005937e       ?get_accDefaultAction@CWnd@@UAEJUtagVARIANT@@PAPA_W@Z 1005a37e f   mfc120u:mfc120u.dll
 0001:00059384       ?get_accSelection@CWnd@@UAEJPAUtagVARIANT@@@Z 1005a384 f   mfc120u:mfc120u.dll
 0001:0005938a       ?get_accFocus@CWnd@@UAEJPAUtagVARIANT@@@Z 1005a38a f   mfc120u:mfc120u.dll
 0001:00059390       ?get_accKeyboardShortcut@CWnd@@UAEJUtagVARIANT@@PAPA_W@Z 1005a390 f   mfc120u:mfc120u.dll
 0001:00059396       ?get_accHelpTopic@CWnd@@UAEJPAPA_WUtagVARIANT@@PAJ@Z 1005a396 f   mfc120u:mfc120u.dll
 0001:0005939c       ?get_accHelp@CWnd@@UAEJUtagVARIANT@@PAPA_W@Z 1005a39c f   mfc120u:mfc120u.dll
 0001:000593a2       ?get_accState@CWnd@@UAEJUtagVARIANT@@PAU2@@Z 1005a3a2 f   mfc120u:mfc120u.dll
 0001:000593a8       ?get_accRole@CWnd@@UAEJUtagVARIANT@@PAU2@@Z 1005a3a8 f   mfc120u:mfc120u.dll
 0001:000593ae       ?get_accDescription@CWnd@@UAEJUtagVARIANT@@PAPA_W@Z 1005a3ae f   mfc120u:mfc120u.dll
 0001:000593b4       ?get_accValue@CWnd@@UAEJUtagVARIANT@@PAPA_W@Z 1005a3b4 f   mfc120u:mfc120u.dll
 0001:000593ba       ?get_accName@CWnd@@UAEJUtagVARIANT@@PAPA_W@Z 1005a3ba f   mfc120u:mfc120u.dll
 0001:000593c0       ?get_accChild@CWnd@@UAEJUtagVARIANT@@PAPAUIDispatch@@@Z 1005a3c0 f   mfc120u:mfc120u.dll
 0001:000593c6       ?get_accChildCount@CWnd@@UAEJPAJ@Z 1005a3c6 f   mfc120u:mfc120u.dll
 0001:000593cc       ?get_accParent@CWnd@@UAEJPAPAUIDispatch@@@Z 1005a3cc f   mfc120u:mfc120u.dll
 0001:000593d2       ?EnsureStdObj@CWnd@@UAEJXZ 1005a3d2 f   mfc120u:mfc120u.dll
 0001:000593d8       ?GetInterfaceMap@CWnd@@MBEPBUAFX_INTERFACEMAP@@XZ 1005a3d8 f   mfc120u:mfc120u.dll
 0001:000593de       ?OnDrawIconicThumbnailOrLivePreview@CWnd@@UAEXAAVCDC@@VCRect@@VCSize@@HAAH@Z 1005a3de f   mfc120u:mfc120u.dll
 0001:000593e4       ?EndModalLoop@CWnd@@UAEXH@Z 1005a3e4 f   mfc120u:mfc120u.dll
 0001:000593ea       ?ContinueModal@CWnd@@UAEHXZ 1005a3ea f   mfc120u:mfc120u.dll
 0001:000593f0       ?WinHelpInternal@CWnd@@UAEXKI@Z 1005a3f0 f   mfc120u:mfc120u.dll
 0001:000593f6       ?HtmlHelpW@CWnd@@UAEXKI@Z  1005a3f6 f   mfc120u:mfc120u.dll
 0001:000593fc       ?WinHelpW@CWnd@@UAEXKI@Z   1005a3fc f   mfc120u:mfc120u.dll
 0001:00059402       ?GetScrollBarCtrl@CWnd@@UBEPAVCScrollBar@@H@Z 1005a402 f   mfc120u:mfc120u.dll
 0001:00059408       ?OnToolHitTest@CWnd@@UBEHVCPoint@@PAUtagTOOLINFOW@@@Z 1005a408 f   mfc120u:mfc120u.dll
 0001:0005940e       ?SetMenu@CWnd@@UAEHPAVCMenu@@@Z 1005a40e f   mfc120u:mfc120u.dll
 0001:00059414       ?GetMenu@CWnd@@UBEPAVCMenu@@XZ 1005a414 f   mfc120u:mfc120u.dll
 0001:0005941a       ?CalcWindowRect@CWnd@@UAEXPAUtagRECT@@I@Z 1005a41a f   mfc120u:mfc120u.dll
 0001:00059420       ?PreCreateWindow@CWnd@@UAEHAAUtagCREATESTRUCTW@@@Z 1005a420 f   mfc120u:mfc120u.dll
 0001:00059426       ?DestroyWindow@CWnd@@UAEHXZ 1005a426 f   mfc120u:mfc120u.dll
 0001:0005942c       ?CreateEx@CWnd@@UAEHKPB_W0KHHHHPAUHWND__@@PAUHMENU__@@PAX@Z 1005a42c f   mfc120u:mfc120u.dll
 0001:00059432       ?PreSubclassWindow@CWnd@@UAEXXZ 1005a432 f   mfc120u:mfc120u.dll
 0001:00059438       ??2@YAPAXI@Z               1005a438 f   mfc120u:mfc120u.dll
 0001:0005943e       ?GetThisMessageMap@CWnd@@KGPBUAFX_MSGMAP@@XZ 1005a43e f   mfc120u:mfc120u.dll
 0001:00059444       ?CreateEx@CWnd@@UAEHKPB_W0KABUtagRECT@@PAV1@IPAX@Z 1005a444 f   mfc120u:mfc120u.dll
 0001:0005944a       ?GetRuntimeClass@CBitmap@@UBEPAUCRuntimeClass@@XZ 1005a44a f   mfc120u:mfc120u.dll
 0001:00059450       ?GetRuntimeClass@CGdiObject@@UBEPAUCRuntimeClass@@XZ 1005a450 f   mfc120u:mfc120u.dll
 0001:00059456       ?GetRuntimeClass@CRgn@@UBEPAUCRuntimeClass@@XZ 1005a456 f   mfc120u:mfc120u.dll
 0001:0005945c       ?PreTranslateMessage@CWnd@@UAEHPAUtagMSG@@@Z 1005a45c f   mfc120u:mfc120u.dll
 0001:00059462       ?DefWindowProcW@CWnd@@MAEJIIJ@Z 1005a462 f   mfc120u:mfc120u.dll
 0001:00059468       ?Create@CWnd@@UAEHPB_W0KABUtagRECT@@PAV1@IPAUCCreateContext@@@Z 1005a468 f   mfc120u:mfc120u.dll
 0001:0005946e       ?OnCtlColor@CWnd@@IAEPAUHBRUSH__@@PAVCDC@@PAV1@I@Z 1005a46e f   mfc120u:mfc120u.dll
 0001:00059474       ?GetThisMessageMap@CDialog@@KGPBUAFX_MSGMAP@@XZ 1005a474 f   mfc120u:mfc120u.dll
 0001:0005947a       ?GetRuntimeClass@CPen@@UBEPAUCRuntimeClass@@XZ 1005a47a f   mfc120u:mfc120u.dll
 0001:00059480       ?OnOK@CDialog@@MAEXXZ      1005a480 f   mfc120u:mfc120u.dll
 0001:00059486       ?OnCancel@CDialog@@MAEXXZ  1005a486 f   mfc120u:mfc120u.dll
 0001:0005948c       ?PreTranslateMessage@CDialog@@UAEHPAUtagMSG@@@Z 1005a48c f   mfc120u:mfc120u.dll
 0001:00059492       ?OnCmdMsg@CDialog@@UAEHIHPAXPAUAFX_CMDHANDLERINFO@@@Z 1005a492 f   mfc120u:mfc120u.dll
 0001:00059498       ?CheckAutoCenter@CDialog@@UAEHXZ 1005a498 f   mfc120u:mfc120u.dll
 0001:0005949e       ?SetOccDialogInfo@CDialog@@MAEHPAU_AFX_OCC_DIALOG_INFO@@@Z 1005a49e f   mfc120u:mfc120u.dll
 0001:000594a4       ?GetOccDialogInfo@CDialog@@MAEPAU_AFX_OCC_DIALOG_INFO@@XZ 1005a4a4 f   mfc120u:mfc120u.dll
 0001:000594aa       ?CreateIndirect@CDialog@@UAEHPAXPAVCWnd@@@Z 1005a4aa f   mfc120u:mfc120u.dll
 0001:000594b0       ?CreateIndirect@CDialog@@UAEHPBUDLGTEMPLATE@@PAVCWnd@@PAX@Z 1005a4b0 f   mfc120u:mfc120u.dll
 0001:000594b6       ?DoModal@CDialog@@UAEHXZ   1005a4b6 f   mfc120u:mfc120u.dll
 0001:000594bc       ?OnSetFont@CDialog@@UAEXPAVCFont@@@Z 1005a4bc f   mfc120u:mfc120u.dll
 0001:000594c2       ?PreInitDialog@CDialog@@MAEXXZ 1005a4c2 f   mfc120u:mfc120u.dll
 0001:000594c8       ?GetRuntimeClass@CFont@@UBEPAUCRuntimeClass@@XZ 1005a4c8 f   mfc120u:mfc120u.dll
 0001:000594ce       ?GetThisMessageMap@CHtmlView@@KGPBUAFX_MSGMAP@@XZ 1005a4ce f   mfc120u:mfc120u.dll
 0001:000594d4       ?OnCmdMsg@CView@@UAEHIHPAXPAUAFX_CMDHANDLERINFO@@@Z 1005a4d4 f   mfc120u:mfc120u.dll
 0001:000594da       ?GetEventSinkMap@CHtmlView@@MBEPBUAFX_EVENTSINKMAP@@XZ 1005a4da f   mfc120u:mfc120u.dll
 0001:000594e0       ?Create@CHtmlView@@UAEHPB_W0KABUtagRECT@@PAVCWnd@@IPAUCCreateContext@@@Z 1005a4e0 f   mfc120u:mfc120u.dll
 0001:000594e6       ?PreCreateWindow@CHtmlView@@UAEHAAUtagCREATESTRUCTW@@@Z 1005a4e6 f   mfc120u:mfc120u.dll
 0001:000594ec       ?CalcWindowRect@CScrollView@@UAEXPAUtagRECT@@I@Z 1005a4ec f   mfc120u:mfc120u.dll
 0001:000594f2       ?GetScrollBarCtrl@CView@@UBEPAVCScrollBar@@H@Z 1005a4f2 f   mfc120u:mfc120u.dll
 0001:000594f8       ?OnDrawIconicThumbnailOrLivePreview@CHtmlView@@UAEXAAVCDC@@VCRect@@VCSize@@HAAH@Z 1005a4f8 f   mfc120u:mfc120u.dll
 0001:000594fe       ?CreateControlSite@CHtmlView@@UAEHPAVCOleControlContainer@@PAPAVCOleControlSite@@IABU_GUID@@@Z 1005a4fe f   mfc120u:mfc120u.dll
 0001:00059504       ?SetOccDialogInfo@CFormView@@MAEHPAU_AFX_OCC_DIALOG_INFO@@@Z 1005a504 f   mfc120u:mfc120u.dll
 0001:0005950a       ?GetOccDialogInfo@CFormView@@MAEPAU_AFX_OCC_DIALOG_INFO@@XZ 1005a50a f   mfc120u:mfc120u.dll
 0001:00059510       ?IsSelected@CView@@UBEHPBVCObject@@@Z 1005a510 f   mfc120u:mfc120u.dll
 0001:00059516       ?OnScroll@CScrollView@@UAEHIIH@Z 1005a516 f   mfc120u:mfc120u.dll
 0001:0005951c       ?OnScrollBy@CScrollView@@UAEHVCSize@@H@Z 1005a51c f   mfc120u:mfc120u.dll
 0001:00059522       ?OnDragEnter@CView@@UAEKPAVCOleDataObject@@KVCPoint@@@Z 1005a522 f   mfc120u:mfc120u.dll
 0001:00059528       ?OnDragOver@CView@@UAEKPAVCOleDataObject@@KVCPoint@@@Z 1005a528 f   mfc120u:mfc120u.dll
 0001:0005952e       ?OnDragLeave@CView@@UAEXXZ 1005a52e f   mfc120u:mfc120u.dll
 0001:00059534       ?OnDrop@CView@@UAEHPAVCOleDataObject@@KVCPoint@@@Z 1005a534 f   mfc120u:mfc120u.dll
 0001:0005953a       ?OnDropEx@CView@@UAEKPAVCOleDataObject@@KKVCPoint@@@Z 1005a53a f   mfc120u:mfc120u.dll
 0001:00059540       ?OnDragScroll@CView@@UAEKKVCPoint@@@Z 1005a540 f   mfc120u:mfc120u.dll
 0001:00059546       ?OnPrepareDC@CScrollView@@UAEXPAVCDC@@PAUCPrintInfo@@@Z 1005a546 f   mfc120u:mfc120u.dll
 0001:0005954c       ?OnInitialUpdate@CFormView@@UAEXXZ 1005a54c f   mfc120u:mfc120u.dll
 0001:00059552       ?OnActivateView@CFormView@@MAEXHPAVCView@@0@Z 1005a552 f   mfc120u:mfc120u.dll
 0001:00059558       ?OnActivateFrame@CFormView@@MAEXIPAVCFrameWnd@@@Z 1005a558 f   mfc120u:mfc120u.dll
 0001:0005955e       ?OnUpdate@CView@@MAEXPAV1@JPAVCObject@@@Z 1005a55e f   mfc120u:mfc120u.dll
 0001:00059564       ?OnDraw@CHtmlView@@UAEXPAVCDC@@@Z 1005a564 f   mfc120u:mfc120u.dll
 0001:0005956a       ?OnPreparePrinting@CView@@MAEHPAUCPrintInfo@@@Z 1005a56a f   mfc120u:mfc120u.dll
 0001:00059570       ?OnBeginPrinting@CView@@MAEXPAVCDC@@PAUCPrintInfo@@@Z 1005a570 f   mfc120u:mfc120u.dll
 0001:00059576       ?OnPrint@CView@@MAEXPAVCDC@@PAUCPrintInfo@@@Z 1005a576 f   mfc120u:mfc120u.dll
 0001:0005957c       ?OnEndPrinting@CView@@MAEXPAVCDC@@PAUCPrintInfo@@@Z 1005a57c f   mfc120u:mfc120u.dll
 0001:00059582       ?OnEndPrintPreview@CView@@MAEXPAVCDC@@PAUCPrintInfo@@UtagPOINT@@PAVCPreviewView@@@Z 1005a582 f   mfc120u:mfc120u.dll
 0001:00059588       ?GetWheelScrollDistance@CScrollView@@UAE?AVCSize@@V2@HH@Z 1005a588 f   mfc120u:mfc120u.dll
 0001:0005958e       ?GetSource@CHtmlView@@UAEHAAV?$CStringT@_WV?$StrTraitMFC_DLL@_WV?$ChTraitsCRT@_W@ATL@@@@@ATL@@@Z 1005a58e f   mfc120u:mfc120u.dll
 0001:00059594       ?OnShowContextMenu@CHtmlView@@UAEJKPAUtagPOINT@@PAUIUnknown@@PAUIDispatch@@@Z 1005a594 f   mfc120u:mfc120u.dll
 0001:0005959a       ?OnGetExternal@CHtmlView@@UAEJPAPAUIDispatch@@@Z 1005a59a f   mfc120u:mfc120u.dll
 0001:000595a0       ?OnGetHostInfo@CHtmlView@@UAEJPAU_DOCHOSTUIINFO@@@Z 1005a5a0 f   mfc120u:mfc120u.dll
 0001:000595a6       ?OnShowUI@CHtmlView@@UAEJKPAUIOleInPlaceActiveObject@@PAUIOleCommandTarget@@PAUIOleInPlaceFrame@@PAUIOleInPlaceUIWindow@@@Z 1005a5a6 f   mfc120u:mfc120u.dll
 0001:000595ac       ?OnHideUI@CHtmlView@@UAEJXZ 1005a5ac f   mfc120u:mfc120u.dll
 0001:000595b2       ?OnUpdateUI@CHtmlView@@UAEJXZ 1005a5b2 f   mfc120u:mfc120u.dll
 0001:000595b8       ?OnEnableModeless@CHtmlView@@UAEJH@Z 1005a5b8 f   mfc120u:mfc120u.dll
 0001:000595be       ?OnDocWindowActivate@CHtmlView@@UAEJH@Z 1005a5be f   mfc120u:mfc120u.dll
 0001:000595c4       ?OnFrameWindowActivate@CHtmlView@@UAEJH@Z 1005a5c4 f   mfc120u:mfc120u.dll
 0001:000595ca       ?OnResizeBorder@CHtmlView@@UAEJPBUtagRECT@@PAUIOleInPlaceUIWindow@@H@Z 1005a5ca f   mfc120u:mfc120u.dll
 0001:000595d0       ?OnTranslateAccelerator@CHtmlView@@UAEJPAUtagMSG@@PBU_GUID@@K@Z 1005a5d0 f   mfc120u:mfc120u.dll
 0001:000595d6       ?OnGetOptionKeyPath@CHtmlView@@UAEJPAPA_WK@Z 1005a5d6 f   mfc120u:mfc120u.dll
 0001:000595dc       ?OnFilterDataObject@CHtmlView@@UAEJPAUIDataObject@@PAPAU2@@Z 1005a5dc f   mfc120u:mfc120u.dll
 0001:000595e2       ?OnTranslateUrl@CHtmlView@@UAEJKPA_WPAPA_W@Z 1005a5e2 f   mfc120u:mfc120u.dll
 0001:000595e8       ?OnGetDropTarget@CHtmlView@@UAEJPAUIDropTarget@@PAPAU2@@Z 1005a5e8 f   mfc120u:mfc120u.dll
 0001:000595ee       ?NavigateComplete2@CHtmlView@@MAEXPAUIDispatch@@PAUtagVARIANT@@@Z 1005a5ee f   mfc120u:mfc120u.dll
 0001:000595f4       ?BeforeNavigate2@CHtmlView@@MAEXPAUIDispatch@@PAUtagVARIANT@@1111PAF@Z 1005a5f4 f   mfc120u:mfc120u.dll
 0001:000595fa       ?DocumentComplete@CHtmlView@@MAEXPAUIDispatch@@PAUtagVARIANT@@@Z 1005a5fa f   mfc120u:mfc120u.dll
 0001:00059600       ?NavigateError@CHtmlView@@MAEXPAUIDispatch@@PAUtagVARIANT@@11PAF@Z 1005a600 f   mfc120u:mfc120u.dll
 0001:00059606       ?GetThisMessageMap@CFrameWnd@@KGPBUAFX_MSGMAP@@XZ 1005a606 f   mfc120u:mfc120u.dll
 0001:0005960c       ?OnCmdMsg@CFrameWnd@@UAEHIHPAXPAUAFX_CMDHANDLERINFO@@@Z 1005a60c f   mfc120u:mfc120u.dll
 0001:00059612       ?PreCreateWindow@CFrameWnd@@MAEHAAUtagCREATESTRUCTW@@@Z 1005a612 f   mfc120u:mfc120u.dll
 0001:00059618       ?GetMenu@CFrameWnd@@UBEPAVCMenu@@XZ 1005a618 f   mfc120u:mfc120u.dll
 0001:0005961e       ?SetMenu@CFrameWnd@@UAEHPAVCMenu@@@Z 1005a61e f   mfc120u:mfc120u.dll
 0001:00059624       ?OnCommand@CFrameWnd@@MAEHIJ@Z 1005a624 f   mfc120u:mfc120u.dll
 0001:0005962a       ?BeginModalState@CFrameWnd@@UAEXXZ 1005a62a f   mfc120u:mfc120u.dll
 0001:00059630       ?EndModalState@CFrameWnd@@UAEXXZ 1005a630 f   mfc120u:mfc120u.dll
 0001:00059636       ?PreTranslateMessage@CFrameWnd@@UAEHPAUtagMSG@@@Z 1005a636 f   mfc120u:mfc120u.dll
 0001:0005963c       ?PostNcDestroy@CFrameWnd@@MAEXXZ 1005a63c f   mfc120u:mfc120u.dll
 0001:00059642       ?IsFrameWnd@CFrameWnd@@UBEHXZ 1005a642 f   mfc120u:mfc120u.dll
 0001:00059648       ?Create@CFrameWnd@@UAEHPB_W0KABUtagRECT@@PAVCWnd@@0KPAUCCreateContext@@@Z 1005a648 f   mfc120u:mfc120u.dll
 0001:0005964e       ?LoadFrame@CFrameWnd@@UAEHIKPAVCWnd@@PAUCCreateContext@@@Z 1005a64e f   mfc120u:mfc120u.dll
 0001:00059654       ?GetActiveDocument@CFrameWnd@@UAEPAVCDocument@@XZ 1005a654 f   mfc120u:mfc120u.dll
 0001:0005965a       ?GetActiveFrame@CFrameWnd@@UAEPAV1@XZ 1005a65a f   mfc120u:mfc120u.dll
 0001:00059660       ?GetMessageString@CFrameWnd@@UBEXIAAV?$CStringT@_WV?$StrTraitMFC_DLL@_WV?$ChTraitsCRT@_W@ATL@@@@@ATL@@@Z 1005a660 f   mfc120u:mfc120u.dll
 0001:00059666       ?RecalcLayout@CFrameWnd@@UAEXH@Z 1005a666 f   mfc120u:mfc120u.dll
 0001:0005966c       ?ActivateFrame@CFrameWnd@@UAEXH@Z 1005a66c f   mfc120u:mfc120u.dll
 0001:00059672       ?SetMenuBarVisibility@CFrameWnd@@UAEXK@Z 1005a672 f   mfc120u:mfc120u.dll
 0001:00059678       ?GetMenuBarVisibility@CFrameWnd@@UBEKXZ 1005a678 f   mfc120u:mfc120u.dll
 0001:0005967e       ?SetMenuBarState@CFrameWnd@@UAEHK@Z 1005a67e f   mfc120u:mfc120u.dll
 0001:00059684       ?GetMenuBarState@CFrameWnd@@UBEKXZ 1005a684 f   mfc120u:mfc120u.dll
 0001:0005968a       ?OnSetPreviewMode@CFrameWnd@@UAEXHPAUCPrintPreviewState@@@Z 1005a68a f   mfc120u:mfc120u.dll
 0001:00059690       ?GetMessageBar@CFrameWnd@@UAEPAVCWnd@@XZ 1005a690 f   mfc120u:mfc120u.dll
 0001:00059696       ?NegotiateBorderSpace@CFrameWnd@@UAEHIPAUtagRECT@@@Z 1005a696 f   mfc120u:mfc120u.dll
 0001:0005969c       ?OnCreateClient@CFrameWnd@@MAEHPAUtagCREATESTRUCTW@@PAUCCreateContext@@@Z 1005a69c f   mfc120u:mfc120u.dll
 0001:000596a2       ?OnUpdateFrameTitle@CFrameWnd@@UAEXH@Z 1005a6a2 f   mfc120u:mfc120u.dll
 0001:000596a8       ?OnUpdateFrameMenu@CFrameWnd@@UAEXPAUHMENU__@@@Z 1005a6a8 f   mfc120u:mfc120u.dll
 0001:000596ae       ?GetDefaultAccelerator@CFrameWnd@@UAEPAUHACCEL__@@XZ 1005a6ae f   mfc120u:mfc120u.dll
 0001:000596b4       ?DelayUpdateFrameMenu@CFrameWnd@@UAEXPAUHMENU__@@@Z 1005a6b4 f   mfc120u:mfc120u.dll
 0001:000596ba       ?ExitHelpMode@CFrameWnd@@UAEXXZ 1005a6ba f   mfc120u:mfc120u.dll
 0001:000596c0       ?OnShowMenuBar@CFrameWnd@@MAEXXZ 1005a6c0 f   mfc120u:mfc120u.dll
 0001:000596c6       ?OnHideMenuBar@CFrameWnd@@MAEXXZ 1005a6c6 f   mfc120u:mfc120u.dll
 0001:000596cc       ?GetThisMessageMap@CCmdTarget@@KGPBUAFX_MSGMAP@@XZ 1005a6cc f   mfc120u:mfc120u.dll
 0001:000596d2       ?OnFinalRelease@CCmdTarget@@UAEXXZ 1005a6d2 f   mfc120u:mfc120u.dll
 0001:000596d8       ?GetInterfaceMap@CCmdTarget@@MBEPBUAFX_INTERFACEMAP@@XZ 1005a6d8 f   mfc120u:mfc120u.dll
 0001:000596de       ?Run@CWinThread@@UAEHXZ    1005a6de f   mfc120u:mfc120u.dll
 0001:000596e4       ?PreTranslateMessage@CWinThread@@UAEHPAUtagMSG@@@Z 1005a6e4 f   mfc120u:mfc120u.dll
 0001:000596ea       ?PumpMessage@CWinThread@@UAEHXZ 1005a6ea f   mfc120u:mfc120u.dll
 0001:000596f0       ?IsIdleMessage@CWinThread@@UAEHPAUtagMSG@@@Z 1005a6f0 f   mfc120u:mfc120u.dll
 0001:000596f6       ?ProcessWndProcException@CWinThread@@UAEJPAVCException@@PBUtagMSG@@@Z 1005a6f6 f   mfc120u:mfc120u.dll
 0001:000596fc       ?ProcessMessageFilter@CWinThread@@UAEHHPAUtagMSG@@@Z 1005a6fc f   mfc120u:mfc120u.dll
 0001:00059702       ?GetMainWnd@CWinThread@@UAEPAVCWnd@@XZ 1005a702 f   mfc120u:mfc120u.dll
 0001:00059708       ?Delete@CWinThread@@UAEXXZ 1005a708 f   mfc120u:mfc120u.dll
 0001:0005970e       ?GetRuntimeClass@CBrush@@UBEPAUCRuntimeClass@@XZ 1005a70e f   mfc120u:mfc120u.dll
 0001:00059714       ?MeasureItem@CMenu@@UAEXPAUtagMEASUREITEMSTRUCT@@@Z 1005a714 f   mfc120u:mfc120u.dll
 0001:0005971a       ?DrawItem@CMenu@@UAEXPAUtagDRAWITEMSTRUCT@@@Z 1005a71a f   mfc120u:mfc120u.dll
 0001:00059720       ?GetRuntimeClass@CMenu@@UBEPAUCRuntimeClass@@XZ 1005a720 f   mfc120u:mfc120u.dll
 0001:00059726       @__security_check_cookie@4 1005a726 f   msvcrt:secchk.obj
 0001:00059736       _free                      1005a736 f   msvcrt:MSVCR120.dll
 0001:0005973c       ??_M@YGXPAXIHP6EX0@Z@Z     1005a73c f   msvcrt:ehvecdtr.obj
 0001:000597ab       ?__ArrayUnwind@@YGXPAXIHP6EX0@Z@Z 1005a7ab f   msvcrt:ehvecdtr.obj
 0001:00059809       ___atonexitinit            1005a809 f   msvcrt:atonexit.obj
 0001:00059845       __onexit                   1005a845 f   msvcrt:atonexit.obj
 0001:000598ee       _atexit                    1005a8ee f   msvcrt:atonexit.obj
 0001:00059904       __purecall                 1005a904 f   msvcrt:MSVCR120.dll
 0001:0005990a       ??_Etype_info@@UAEPAXI@Z   1005a90a f i msvcrt:ti_inst.obj
 0001:00059954       ??_L@YGXPAXIHP6EX0@Z1@Z    1005a954 f   msvcrt:ehvecctr.obj
 0001:000599b6       ?terminate@@YAXXZ          1005a9b6 f   msvcrt:MSVCR120.dll
 0001:000599bc       ___raise_securityfailure   1005a9bc f   msvcrt:gs_report.obj
 0001:000599f9       ___report_gsfailure        1005a9f9 f   msvcrt:gs_report.obj
 0001:00059af4       ___report_rangecheckfailure 1005aaf4 f   msvcrt:gs_report.obj
 0001:00059b00       ___report_securityfailure  1005ab00 f   msvcrt:gs_report.obj
 0001:00059bd0       ??2@YAPAXIABUnothrow_t@std@@@Z 1005abd0 f   msvcrt:newopnt.obj
 0001:00059c4a       __CRT_INIT@12              1005ac4a f   msvcrt:crtdll.obj
 0001:00059e41       __DllMainCRTStartup@12     1005ae41 f   msvcrt:crtdll.obj
 0001:00059f98       _memset                    1005af98 f   msvcrt:MSVCR120.dll
 0001:00059fa0       __SEH_prolog4              1005afa0 f   msvcrt:sehprolg4.obj
 0001:00059fe5       __SEH_epilog4              1005afe5 f   msvcrt:sehprolg4.obj
 0001:0005a000       __SEH_prolog4_GS           1005b000 f   msvcrt:sehprolg4gs.obj
 0001:0005a048       __SEH_epilog4_GS           1005b048 f   msvcrt:sehprolg4gs.obj
 0001:0005a057       __except_handler4          1005b057 f   msvcrt:chandler4gs.obj
 0001:0005a07a       __lock                     1005b07a f   msvcrt:MSVCR120.dll
 0001:0005a080       __unlock                   1005b080 f   msvcrt:MSVCR120.dll
 0001:0005a086       ___dllonexit               1005b086 f   msvcrt:MSVCR120.dll
 0001:0005a08c       ??1type_info@@UAE@XZ       1005b08c f   msvcrt:MSVCR120.dll
 0001:0005a092       __crt_debugger_hook        1005b092 f   msvcrt:MSVCR120.dll
 0001:0005a098       ___crtUnhandledException   1005b098 f   msvcrt:MSVCR120.dll
 0001:0005a09e       ___crtTerminateProcess     1005b09e f   msvcrt:MSVCR120.dll
 0001:0005a0a4       __EH_epilog3               1005b0a4 f   msvcrt:ehprolg3.obj
 0001:0005a0b8       __EH_prolog3_catch         1005b0b8 f   msvcrt:ehprolg3.obj
 0001:0005a0ee       ___CxxFrameHandler3        1005b0ee f   msvcrt:MSVCR120.dll
 0001:0005a0f4       ___CppXcptFilter           1005b0f4 f   msvcrt:MSVCR120.dll
 0001:0005a0fa       __amsg_exit                1005b0fa f   msvcrt:MSVCR120.dll
 0001:0005a100       __FindPESection            1005b100 f   msvcrt:pesect.obj
 0001:0005a150       __IsNonwritableInCurrentImage 1005b150 f   msvcrt:pesect.obj
 0001:0005a210       __ValidateImageBase        1005b210 f   msvcrt:pesect.obj
 0001:0005a241       ___security_init_cookie    1005b241 f   msvcrt:gs_support.obj
 0001:0005a2dd       __RTC_Initialize           1005b2dd f   msvcrt:initsect.obj
 0001:0005a2fd       __RTC_Terminate            1005b2fd f   msvcrt:initsect.obj
 0001:0005a31e       __initterm                 1005b31e f   msvcrt:MSVCR120.dll
 0001:0005a324       __initterm_e               1005b324 f   msvcrt:MSVCR120.dll
 0001:0005a32a       ___clean_type_info_names   1005b32a f   msvcrt:tncleanup.obj
 0001:0005a336       __except_handler4_common   1005b336 f   msvcrt:MSVCR120.dll
 0001:0005a33c       ___clean_type_info_names_internal 1005b33c f   msvcrt:MSVCR120.dll
 0001:0005a342       _IsProcessorFeaturePresent@4 1005b342 f   kernel32:KERNEL32.dll
 0001:0005a348       ??0CAtlBaseModule@ATL@@QAE@XZ 1005b348 f   atls:atlbase.obj
 0001:0005a39b       ??0_ATL_BASE_MODULE70@ATL@@QAE@XZ 1005b39b f i atls:atlbase.obj
 0001:0005a3be       ??1CAtlBaseModule@ATL@@QAE@XZ 1005b3be f   atls:atlbase.obj
 0001:0005a3d4       ?RemoveAll@?$CSimpleArray@PAUHINSTANCE__@@V?$CSimpleArrayEqualHelper@PAUHINSTANCE__@@@ATL@@@ATL@@QAEXXZ 1005b3d4 f i atls:atlbase.obj
 0001:0005a3f2       __CxxThrowException@8      1005b3f2 f   msvcrt:MSVCR120.dll
 0001:0005a3f8       ___RTDynamicCast           1005b3f8 f   msvcrt:MSVCR120.dll
 0001:0005a400       __alloca_probe_16          1005b400 f   msvcrt:alloca16.obj
 0001:0005a416       __alloca_probe_8           1005b416     msvcrt:alloca16.obj
 0001:0005a430       __chkstk                   1005b430 f   msvcrt:chkstk.obj
 0001:0005a430       __alloca_probe             1005b430 f   msvcrt:chkstk.obj
 0001:0005a45c       __libm_sse2_sqrt_precise   1005b45c f   msvcrt:MSVCR120.dll
 0001:0005a462       _memcpy                    1005b462 f   msvcrt:MSVCR120.dll
 0001:0005f9a0       ??__Fcache@?1??GetCDCCacheInstance@CImage@ATL@@CAPAVCDCCache@12@XZ@YAXXZ 100609a0 f i dllmain.obj
 0001:0005f9d0       ??__FgdiPlus@?1??GetInitGDIPlusInstance@CImage@ATL@@CAPAVCInitGDIPlus@12@XZ@YAXXZ 100609d0 f i dllmain.obj
 0001:0005fa10       ??__Finstance@?1??GetInstance@?$TSingleton@VBNC_BaseDialogTracer@@@baro@@SAAAVBNC_BaseDialogTracer@@XZ@YAXXZ 10060a10 f i dllmain.obj
 0002:00000000       __imp__RegCloseKey@4       10061000     advapi32:ADVAPI32.dll
 0002:00000004       __imp__RegSetValueExW@24   10061004     advapi32:ADVAPI32.dll
 0002:00000008       __imp__RegDeleteValueW@8   10061008     advapi32:ADVAPI32.dll
 0002:0000000c       __imp__RegCreateKeyExW@36  1006100c     advapi32:ADVAPI32.dll
 0002:00000010       __imp__RegQueryValueExW@24 10061010     advapi32:ADVAPI32.dll
 0002:00000014       __imp__RegOpenKeyExW@20    10061014     advapi32:ADVAPI32.dll
 0002:00000018       \177ADVAPI32_NULL_THUNK_DATA 10061018     advapi32:ADVAPI32.dll
 0002:0000001c       __imp_??1CheckPointer@baro@@MAE@XZ 1006101c     Baronow23:Baronow23.dll
 0002:00000020       __imp_??_7CheckPointer@baro@@6B@ 10061020     Baronow23:Baronow23.dll
 0002:00000024       __imp_??4MonitorInfo@baro@@QAEAAV01@ABV01@@Z 10061024     Baronow23:Baronow23.dll
 0002:00000028       __imp_??0MonitorInfo@baro@@QAE@XZ 10061028     Baronow23:Baronow23.dll
 0002:0000002c       __imp_?GetFilePathToIcon@Icon@bapi@@YA_NV?$CStringT@_WV?$StrTraitMFC_DLL@_WV?$ChTraitsCRT@_W@ATL@@@@@ATL@@AAPAUHICON__@@1AA_N@Z 1006102c     Baronow23:Baronow23.dll
 0002:00000030       __imp_?GetAspectResize@Image@bapi@@YA?AVCSize@@V3@0PAVCPoint@@@Z 10061030     Baronow23:Baronow23.dll
 0002:00000034       __imp_?GetInstance@?$TSingleton@$$CBVSystemInfo@baro@@@baro@@SAABVSystemInfo@2@XZ 10061034     Baronow23:Baronow23.dll
 0002:00000038       __imp_?ConvertA2W@bapi@@YAPB_WPBDIAAV?$CAutoPtrArray@_W@ATL@@@Z 10061038     Baronow23:Baronow23.dll
 0002:0000003c       __imp_?ConvertW2A@bapi@@YAPBDPB_WIAAV?$CAutoPtrArray@D@ATL@@@Z 1006103c     Baronow23:Baronow23.dll
 0002:00000040       __imp_??1MonitorInfo@baro@@QAE@XZ 10061040     Baronow23:Baronow23.dll
 0002:00000044       __imp_?GetMonitorInfoW@bapi@@YA?AVMonitorInfo@baro@@PAUtagRECT@@@Z 10061044     Baronow23:Baronow23.dll
 0002:00000048       __imp_?GetCursorWindow@bapi@@YAPAVCWnd@@XZ 10061048     Baronow23:Baronow23.dll
 0002:0000004c       __imp_?GetSystemTrayPosition@bapi@@YA_NAAVCPoint@@@Z 1006104c     Baronow23:Baronow23.dll
 0002:00000050       __imp_?GetMonitorExArea@bapi@@YA?AVCRect@@PAUHWND__@@@Z 10061050     Baronow23:Baronow23.dll
 0002:00000054       __imp_?IsSupportAutoMouseTracking@bapi@@YA_NXZ 10061054     Baronow23:Baronow23.dll
 0002:00000058       __imp_?Check@Performance@baro@@QAE_NXZ 10061058     Baronow23:Baronow23.dll
 0002:0000005c       __imp_?GetCurrentWorkArea@bapi@@YA?AVCRect@@PAUtagRECT@@@Z 1006105c     Baronow23:Baronow23.dll
 0002:00000060       __imp_??0AutoLock@baro@@QAE@AAU_RTL_CRITICAL_SECTION@@V?$CStringT@_WV?$StrTraitMFC_DLL@_WV?$ChTraitsCRT@_W@ATL@@@@@ATL@@@Z 10061060     Baronow23:Baronow23.dll
 0002:00000064       __imp_??1Performance@baro@@QAE@XZ 10061064     Baronow23:Baronow23.dll
 0002:00000068       __imp_??0Performance@baro@@QAE@XZ 10061068     Baronow23:Baronow23.dll
 0002:0000006c       __imp_?GetPrimaryWork@bapi@@YA?AVCRect@@XZ 1006106c     Baronow23:Baronow23.dll
 0002:00000070       __imp_?GetCurrentWorkArea@bapi@@YA?AVCRect@@PAUHWND__@@@Z 10061070     Baronow23:Baronow23.dll
 0002:00000074       __imp_?GetCurrentMonitorArea@bapi@@YA?AVCRect@@PAUHWND__@@@Z 10061074     Baronow23:Baronow23.dll
 0002:00000078       __imp_?IsRectInMonitorAreaEx@bapi@@YAXVCRect@@AA_N111@Z 10061078     Baronow23:Baronow23.dll
 0002:0000007c       __imp_?GetMonitorResolution@bapi@@YA?AVCSize@@XZ 1006107c     Baronow23:Baronow23.dll
 0002:00000080       __imp_?GetMonitorMaxResolution@bapi@@YA?AVCSize@@XZ 10061080     Baronow23:Baronow23.dll
 0002:00000084       __imp_??1AutoLock@baro@@QAE@XZ 10061084     Baronow23:Baronow23.dll
 0002:00000088       __imp_??0AutoLock@baro@@QAE@AAVCriticalSection@1@V?$CStringT@_WV?$StrTraitMFC_DLL@_WV?$ChTraitsCRT@_W@ATL@@@@@ATL@@@Z 10061088     Baronow23:Baronow23.dll
 0002:0000008c       __imp_??0CriticalSection@baro@@QAE@XZ 1006108c     Baronow23:Baronow23.dll
 0002:00000090       __imp_??1CriticalSection@baro@@UAE@XZ 10061090     Baronow23:Baronow23.dll
 0002:00000094       __imp_?GetDisplayStringSize@bapi@@YA?AVCSize@@PAVCDC@@PB_W@Z 10061094     Baronow23:Baronow23.dll
 0002:00000098       __imp_?FindCharCut@bapi@@YA_NABV?$CStringT@_WV?$StrTraitMFC_DLL@_WV?$ChTraitsCRT@_W@ATL@@@@@ATL@@_WAAV23@2@Z 10061098     Baronow23:Baronow23.dll
 0002:0000009c       __imp_?GetFitStringAddDot@bapi@@YA?AV?$CStringT@_WV?$StrTraitMFC_DLL@_WV?$ChTraitsCRT@_W@ATL@@@@@ATL@@PAVCDC@@PB_WHPAVCSize@@@Z 1006109c     Baronow23:Baronow23.dll
 0002:000000a0       __imp_?IncreaseColor@bapi@@YAKKM@Z 100610a0     Baronow23:Baronow23.dll
 0002:000000a4       __imp_?GetCurrentMonitorArea@bapi@@YA?AVCRect@@PAUtagRECT@@@Z 100610a4     Baronow23:Baronow23.dll
 0002:000000a8       __imp_?Reset@Performance@baro@@QAEXXZ 100610a8     Baronow23:Baronow23.dll
 0002:000000ac       \177Baronow23_NULL_THUNK_DATA 100610ac     Baronow23:Baronow23.dll
 0002:000000b0       __imp__CreateRoundRectRgn@24 100610b0     gdi32:GDI32.dll
 0002:000000b4       __imp__CombineRgn@16       100610b4     gdi32:GDI32.dll
 0002:000000b8       __imp__GetObjectW@12       100610b8     gdi32:GDI32.dll
 0002:000000bc       __imp__StretchBlt@44       100610bc     gdi32:GDI32.dll
 0002:000000c0       __imp__GetTextExtentExPointW@28 100610c0     gdi32:GDI32.dll
 0002:000000c4       __imp__CreateSolidBrush@4  100610c4     gdi32:GDI32.dll
 0002:000000c8       __imp__CreateRectRgnIndirect@4 100610c8     gdi32:GDI32.dll
 0002:000000cc       __imp__DeleteObject@4      100610cc     gdi32:GDI32.dll
 0002:000000d0       __imp__CreateDIBSection@24 100610d0     gdi32:GDI32.dll
 0002:000000d4       __imp__SetDIBColorTable@16 100610d4     gdi32:GDI32.dll
 0002:000000d8       __imp__GetStockObject@4    100610d8     gdi32:GDI32.dll
 0002:000000dc       __imp__CreateFontIndirectW@4 100610dc     gdi32:GDI32.dll
 0002:000000e0       __imp__CreateEllipticRgn@16 100610e0     gdi32:GDI32.dll
 0002:000000e4       __imp__PtInRegion@12       100610e4     gdi32:GDI32.dll
 0002:000000e8       __imp__GetDeviceCaps@8     100610e8     gdi32:GDI32.dll
 0002:000000ec       __imp__SelectPalette@12    100610ec     gdi32:GDI32.dll
 0002:000000f0       __imp__RealizePalette@4    100610f0     gdi32:GDI32.dll
 0002:000000f4       __imp__CreatePen@12        100610f4     gdi32:GDI32.dll
 0002:000000f8       __imp__BitBlt@36           100610f8     gdi32:GDI32.dll
 0002:000000fc       __imp__CreateRectRgn@16    100610fc     gdi32:GDI32.dll
 0002:00000100       __imp__CreateCompatibleBitmap@12 10061100     gdi32:GDI32.dll
 0002:00000104       __imp__CreateCompatibleDC@4 10061104     gdi32:GDI32.dll
 0002:00000108       __imp__DeleteDC@4          10061108     gdi32:GDI32.dll
 0002:0000010c       __imp__SelectObject@8      1006110c     gdi32:GDI32.dll
 0002:00000110       __imp__GetTextColor@4      10061110     gdi32:GDI32.dll
 0002:00000114       __imp__GetBkColor@4        10061114     gdi32:GDI32.dll
 0002:00000118       __imp__GetBkMode@4         10061118     gdi32:GDI32.dll
 0002:0000011c       __imp__CreateBitmap@20     1006111c     gdi32:GDI32.dll
 0002:00000120       \177GDI32_NULL_THUNK_DATA  10061120     gdi32:GDI32.dll
 0002:00000124       __imp__OutputDebugStringW@4 10061124     kernel32:KERNEL32.dll
 0002:00000128       __imp__LeaveCriticalSection@4 10061128     kernel32:KERNEL32.dll
 0002:0000012c       __imp__InitializeCriticalSectionEx@12 1006112c     kernel32:KERNEL32.dll
 0002:00000130       __imp__GetLastError@0      10061130     kernel32:KERNEL32.dll
 0002:00000134       __imp__EnterCriticalSection@4 10061134     kernel32:KERNEL32.dll
 0002:00000138       __imp__DecodePointer@4     10061138     kernel32:KERNEL32.dll
 0002:0000013c       __imp__DeleteCriticalSection@4 1006113c     kernel32:KERNEL32.dll
 0002:00000140       __imp__InitializeCriticalSection@4 10061140     kernel32:KERNEL32.dll
 0002:00000144       __imp__GetCurrentThreadId@0 10061144     kernel32:KERNEL32.dll
 0002:00000148       __imp__GetExitCodeThread@8 10061148     kernel32:KERNEL32.dll
 0002:0000014c       __imp__Sleep@4             1006114c     kernel32:KERNEL32.dll
 0002:00000150       __imp__VerifyVersionInfoW@16 10061150     kernel32:KERNEL32.dll
 0002:00000154       __imp__VerSetConditionMask@16 10061154     kernel32:KERNEL32.dll
 0002:00000158       __imp__GetModuleHandleW@4  10061158     kernel32:KERNEL32.dll
 0002:0000015c       __imp__GlobalLock@4        1006115c     kernel32:KERNEL32.dll
 0002:00000160       __imp__GlobalUnlock@4      10061160     kernel32:KERNEL32.dll
 0002:00000164       __imp__FindResourceW@12    10061164     kernel32:KERNEL32.dll
 0002:00000168       __imp__GetSystemTimeAsFileTime@4 10061168     kernel32:KERNEL32.dll
 0002:0000016c       __imp__GetCurrentProcessId@0 1006116c     kernel32:KERNEL32.dll
 0002:00000170       __imp__QueryPerformanceCounter@4 10061170     kernel32:KERNEL32.dll
 0002:00000174       __imp__IsProcessorFeaturePresent@4 10061174     kernel32:KERNEL32.dll
 0002:00000178       __imp__IsDebuggerPresent@0 10061178     kernel32:KERNEL32.dll
 0002:0000017c       __imp__EncodePointer@4     1006117c     kernel32:KERNEL32.dll
 0002:00000180       __imp__WaitForSingleObject@8 10061180     kernel32:KERNEL32.dll
 0002:00000184       __imp__CompareStringW@24   10061184     kernel32:KERNEL32.dll
 0002:00000188       __imp__DeleteFileW@4       10061188     kernel32:KERNEL32.dll
 0002:0000018c       __imp__WideCharToMultiByte@32 1006118c     kernel32:KERNEL32.dll
 0002:00000190       __imp__GetProcAddress@8    10061190     kernel32:KERNEL32.dll
 0002:00000194       __imp__LoadLibraryW@4      10061194     kernel32:KERNEL32.dll
 0002:00000198       __imp__GlobalFree@4        10061198     kernel32:KERNEL32.dll
 0002:0000019c       __imp__LockResource@4      1006119c     kernel32:KERNEL32.dll
 0002:000001a0       __imp__LoadResource@8      100611a0     kernel32:KERNEL32.dll
 0002:000001a4       __imp__GlobalAlloc@8       100611a4     kernel32:KERNEL32.dll
 0002:000001a8       __imp__SizeofResource@8    100611a8     kernel32:KERNEL32.dll
 0002:000001ac       \177KERNEL32_NULL_THUNK_DATA 100611ac     kernel32:KERNEL32.dll
 0002:000001b0       __imp_?_Xbad_function_call@std@@YAXXZ 100611b0     msvcprt:MSVCP120.dll
 0002:000001b4       __imp_??0_Pad@std@@QAE@XZ  100611b4     msvcprt:MSVCP120.dll
 0002:000001b8       __imp_?_Release@_Pad@std@@QAEXXZ 100611b8     msvcprt:MSVCP120.dll
 0002:000001bc       __imp_??1_Pad@std@@QAE@XZ  100611bc     msvcprt:MSVCP120.dll
 0002:000001c0       __imp_?_Launch@_Pad@std@@QAEXPAU_Thrd_imp_t@@@Z 100611c0     msvcprt:MSVCP120.dll
 0002:000001c4       __imp_?_Throw_Cpp_error@std@@YAXH@Z 100611c4     msvcprt:MSVCP120.dll
 0002:000001c8       __imp___Thrd_detach        100611c8     msvcprt:MSVCP120.dll
 0002:000001cc       __imp___Mtx_unlock         100611cc     msvcprt:MSVCP120.dll
 0002:000001d0       __imp___Mtx_lock           100611d0     msvcprt:MSVCP120.dll
 0002:000001d4       __imp_?_Throw_C_error@std@@YAXH@Z 100611d4     msvcprt:MSVCP120.dll
 0002:000001d8       __imp___Mtx_init           100611d8     msvcprt:MSVCP120.dll
 0002:000001dc       __imp___Mtx_destroy        100611dc     msvcprt:MSVCP120.dll
 0002:000001e0       __imp_?_Xlength_error@std@@YAXPBD@Z 100611e0     msvcprt:MSVCP120.dll
 0002:000001e4       __imp_?_Xout_of_range@std@@YAXPBD@Z 100611e4     msvcprt:MSVCP120.dll
 0002:000001e8       __imp_?_Xbad_alloc@std@@YAXXZ 100611e8     msvcprt:MSVCP120.dll
 0002:000001ec       __imp_?_Syserror_map@std@@YAPBDH@Z 100611ec     msvcprt:MSVCP120.dll
 0002:000001f0       __imp_?_Winerror_map@std@@YAPBDH@Z 100611f0     msvcprt:MSVCP120.dll
 0002:000001f4       \177MSVCP120_NULL_THUNK_DATA 100611f4     msvcprt:MSVCP120.dll
 0002:000001f8       __imp___CxxThrowException@8 100611f8     msvcrt:MSVCR120.dll
 0002:000001fc       __imp____RTDynamicCast     100611fc     msvcrt:MSVCR120.dll
 0002:00000200       __imp___libm_sse2_sqrt_precise 10061200     msvcrt:MSVCR120.dll
 0002:00000204       __imp____clean_type_info_names_internal 10061204     msvcrt:MSVCR120.dll
 0002:00000208       __imp___except_handler4_common 10061208     msvcrt:MSVCR120.dll
 0002:0000020c       __imp___initterm_e         1006120c     msvcrt:MSVCR120.dll
 0002:00000210       __imp___initterm           10061210     msvcrt:MSVCR120.dll
 0002:00000214       __imp___malloc_crt         10061214     msvcrt:MSVCR120.dll
 0002:00000218       __imp___amsg_exit          10061218     msvcrt:MSVCR120.dll
 0002:0000021c       __imp____CppXcptFilter     1006121c     msvcrt:MSVCR120.dll
 0002:00000220       __imp____CxxFrameHandler3  10061220     msvcrt:MSVCR120.dll
 0002:00000224       __imp____crtTerminateProcess 10061224     msvcrt:MSVCR120.dll
 0002:00000228       __imp____crtUnhandledException 10061228     msvcrt:MSVCR120.dll
 0002:0000022c       __imp___crt_debugger_hook  1006122c     msvcrt:MSVCR120.dll
 0002:00000230       __imp_??1type_info@@UAE@XZ 10061230     msvcrt:MSVCR120.dll
 0002:00000234       __imp___onexit             10061234     msvcrt:MSVCR120.dll
 0002:00000238       __imp____dllonexit         10061238     msvcrt:MSVCR120.dll
 0002:0000023c       __imp___calloc_crt         1006123c     msvcrt:MSVCR120.dll
 0002:00000240       __imp___unlock             10061240     msvcrt:MSVCR120.dll
 0002:00000244       __imp___lock               10061244     msvcrt:MSVCR120.dll
 0002:00000248       __imp__memset              10061248     msvcrt:MSVCR120.dll
 0002:0000024c       __imp__fwrite              1006124c     msvcrt:MSVCR120.dll
 0002:00000250       __imp__strstr              10061250     msvcrt:MSVCR120.dll
 0002:00000254       __imp__fclose              10061254     msvcrt:MSVCR120.dll
 0002:00000258       __imp__fopen_s             10061258     msvcrt:MSVCR120.dll
 0002:0000025c       __imp__wcstoul             1006125c     msvcrt:MSVCR120.dll
 0002:00000260       __imp____wargv             10061260     msvcrt:MSVCR120.dll
 0002:00000264       __imp___wcsicmp            10061264     msvcrt:MSVCR120.dll
 0002:00000268       __imp____argc              10061268     msvcrt:MSVCR120.dll
 0002:0000026c       __imp___recalloc           1006126c     msvcrt:MSVCR120.dll
 0002:00000270       __imp__calloc              10061270     msvcrt:MSVCR120.dll
 0002:00000274       __imp__memcpy_s            10061274     msvcrt:MSVCR120.dll
 0002:00000278       __imp___resetstkoflw       10061278     msvcrt:MSVCR120.dll
 0002:0000027c       __imp__malloc              1006127c     msvcrt:MSVCR120.dll
 0002:00000280       __imp_?terminate@@YAXXZ    10061280     msvcrt:MSVCR120.dll
 0002:00000284       __imp___wtoi               10061284     msvcrt:MSVCR120.dll
 0002:00000288       __imp__wcscpy_s            10061288     msvcrt:MSVCR120.dll
 0002:0000028c       __imp___purecall           1006128c     msvcrt:MSVCR120.dll
 0002:00000290       __imp__free                10061290     msvcrt:MSVCR120.dll
 0002:00000294       __imp__memmove             10061294     msvcrt:MSVCR120.dll
 0002:00000298       __imp__memcpy              10061298     msvcrt:MSVCR120.dll
 0002:0000029c       \177MSVCR120_NULL_THUNK_DATA 1006129c     msvcrt:MSVCR120.dll
 0002:000002a0       __imp__SHAppBarMessage@8   100612a0     shell32:SHELL32.dll
 0002:000002a4       __imp__Shell_NotifyIconGetRect@8 100612a4     shell32:SHELL32.dll
 0002:000002a8       __imp__Shell_NotifyIconW@8 100612a8     shell32:SHELL32.dll
 0002:000002ac       \177SHELL32_NULL_THUNK_DATA 100612ac     shell32:SHELL32.dll
 0002:000002b0       __imp__PathFileExistsW@4   100612b0     shlwapi:SHLWAPI.dll
 0002:000002b4       \177SHLWAPI_NULL_THUNK_DATA 100612b4     shlwapi:SHLWAPI.dll
 0002:000002b8       __imp__GetWindowRect@8     100612b8     user32:USER32.dll
 0002:000002bc       __imp__GetDC@4             100612bc     user32:USER32.dll
 0002:000002c0       __imp__ReleaseCapture@0    100612c0     user32:USER32.dll
 0002:000002c4       __imp__IntersectRect@12    100612c4     user32:USER32.dll
 0002:000002c8       __imp__ScreenToClient@8    100612c8     user32:USER32.dll
 0002:000002cc       __imp__GetCursorPos@4      100612cc     user32:USER32.dll
 0002:000002d0       __imp__ReleaseDC@8         100612d0     user32:USER32.dll
 0002:000002d4       __imp__PostMessageW@16     100612d4     user32:USER32.dll
 0002:000002d8       __imp__IsWindow@4          100612d8     user32:USER32.dll
 0002:000002dc       __imp__RegisterWindowMessageW@4 100612dc     user32:USER32.dll
 0002:000002e0       __imp__GetAsyncKeyState@4  100612e0     user32:USER32.dll
 0002:000002e4       __imp__FindWindowW@8       100612e4     user32:USER32.dll
 0002:000002e8       __imp__MessageBeep@4       100612e8     user32:USER32.dll
 0002:000002ec       __imp__ShowWindowAsync@8   100612ec     user32:USER32.dll
 0002:000002f0       __imp__InsertMenuW@20      100612f0     user32:USER32.dll
 0002:000002f4       __imp__CreatePopupMenu@0   100612f4     user32:USER32.dll
 0002:000002f8       __imp__GetCaretPos@4       100612f8     user32:USER32.dll
 0002:000002fc       __imp__InvalidateRect@12   100612fc     user32:USER32.dll
 0002:00000300       __imp__WindowFromPoint@8   10061300     user32:USER32.dll
 0002:00000304       __imp__FrameRect@12        10061304     user32:USER32.dll
 0002:00000308       __imp__SendMessageTimeoutW@28 10061308     user32:USER32.dll
 0002:0000030c       __imp__DestroyWindow@4     1006130c     user32:USER32.dll
 0002:00000310       __imp__SetClipboardData@8  10061310     user32:USER32.dll
 0002:00000314       __imp__EmptyClipboard@0    10061314     user32:USER32.dll
 0002:00000318       __imp__LoadImageW@24       10061318     user32:USER32.dll
 0002:0000031c       __imp__DestroyIcon@4       1006131c     user32:USER32.dll
 0002:00000320       __imp__RegisterClipboardFormatW@4 10061320     user32:USER32.dll
 0002:00000324       __imp__CloseClipboard@0    10061324     user32:USER32.dll
 0002:00000328       __imp__GetClipboardData@4  10061328     user32:USER32.dll
 0002:0000032c       __imp__OpenClipboard@4     1006132c     user32:USER32.dll
 0002:00000330       __imp__IsClipboardFormatAvailable@4 10061330     user32:USER32.dll
 0002:00000334       __imp__SetWindowsHookExW@16 10061334     user32:USER32.dll
 0002:00000338       __imp__UnhookWindowsHookEx@4 10061338     user32:USER32.dll
 0002:0000033c       __imp__ClipCursor@4        1006133c     user32:USER32.dll
 0002:00000340       __imp__GetMonitorInfoW@8   10061340     user32:USER32.dll
 0002:00000344       __imp__MonitorFromWindow@8 10061344     user32:USER32.dll
 0002:00000348       __imp__CopyRect@8          10061348     user32:USER32.dll
 0002:0000034c       __imp__GetWindowInfo@8     1006134c     user32:USER32.dll
 0002:00000350       __imp__SetClassLongW@12    10061350     user32:USER32.dll
 0002:00000354       __imp__CallNextHookEx@16   10061354     user32:USER32.dll
 0002:00000358       __imp__DefWindowProcW@16   10061358     user32:USER32.dll
 0002:0000035c       __imp__PeekMessageW@20     1006135c     user32:USER32.dll
 0002:00000360       __imp__PostThreadMessageW@16 10061360     user32:USER32.dll
 0002:00000364       __imp__PtInRect@12         10061364     user32:USER32.dll
 0002:00000368       __imp__EnableWindow@8      10061368     user32:USER32.dll
 0002:0000036c       __imp__GetCapture@0        1006136c     user32:USER32.dll
 0002:00000370       __imp__GetDesktopWindow@0  10061370     user32:USER32.dll
 0002:00000374       __imp__FlashWindowEx@4     10061374     user32:USER32.dll
 0002:00000378       __imp__AttachThreadInput@12 10061378     user32:USER32.dll
 0002:0000037c       __imp__BringWindowToTop@4  1006137c     user32:USER32.dll
 0002:00000380       __imp__SetForegroundWindow@4 10061380     user32:USER32.dll
 0002:00000384       __imp__GetWindowThreadProcessId@8 10061384     user32:USER32.dll
 0002:00000388       __imp__GetForegroundWindow@0 10061388     user32:USER32.dll
 0002:0000038c       __imp__UpdateLayeredWindow@36 1006138c     user32:USER32.dll
 0002:00000390       __imp__RedrawWindow@16     10061390     user32:USER32.dll
 0002:00000394       __imp__SetLayeredWindowAttributes@16 10061394     user32:USER32.dll
 0002:00000398       __imp__IsChild@8           10061398     user32:USER32.dll
 0002:0000039c       __imp__LoadCursorW@8       1006139c     user32:USER32.dll
 0002:000003a0       __imp__SetCapture@4        100613a0     user32:USER32.dll
 0002:000003a4       __imp__SetWindowRgn@12     100613a4     user32:USER32.dll
 0002:000003a8       __imp__GetSystemMetrics@4  100613a8     user32:USER32.dll
 0002:000003ac       __imp__AdjustWindowRectEx@16 100613ac     user32:USER32.dll
 0002:000003b0       __imp__KillTimer@8         100613b0     user32:USER32.dll
 0002:000003b4       __imp__SystemParametersInfoW@16 100613b4     user32:USER32.dll
 0002:000003b8       __imp__EndDeferWindowPos@4 100613b8     user32:USER32.dll
 0002:000003bc       __imp__UpdateWindow@4      100613bc     user32:USER32.dll
 0002:000003c0       __imp__BeginDeferWindowPos@4 100613c0     user32:USER32.dll
 0002:000003c4       __imp__DeferWindowPos@32   100613c4     user32:USER32.dll
 0002:000003c8       __imp__EqualRect@8         100613c8     user32:USER32.dll
 0002:000003cc       __imp__LoadIconW@8         100613cc     user32:USER32.dll
 0002:000003d0       __imp__GetWindowLongW@8    100613d0     user32:USER32.dll
 0002:000003d4       __imp__SetWindowLongW@12   100613d4     user32:USER32.dll
 0002:000003d8       __imp__ChangeWindowMessageFilter@8 100613d8     user32:USER32.dll
 0002:000003dc       __imp__SetTimer@16         100613dc     user32:USER32.dll
 0002:000003e0       __imp__GetParent@4         100613e0     user32:USER32.dll
 0002:000003e4       __imp__SetWindowPos@28     100613e4     user32:USER32.dll
 0002:000003e8       __imp__IsIconic@4          100613e8     user32:USER32.dll
 0002:000003ec       __imp__IsZoomed@4          100613ec     user32:USER32.dll
 0002:000003f0       __imp__SetCursor@4         100613f0     user32:USER32.dll
 0002:000003f4       __imp__SetFocus@4          100613f4     user32:USER32.dll
 0002:000003f8       __imp__DestroyCursor@4     100613f8     user32:USER32.dll
 0002:000003fc       __imp__GetLayeredWindowAttributes@16 100613fc     user32:USER32.dll
 0002:00000400       __imp__GetClientRect@8     10061400     user32:USER32.dll
 0002:00000404       __imp__SetParent@8         10061404     user32:USER32.dll
 0002:00000408       __imp__GetFocus@0          10061408     user32:USER32.dll
 0002:0000040c       __imp__IsWindowVisible@4   1006140c     user32:USER32.dll
 0002:00000410       __imp__SendMessageW@16     10061410     user32:USER32.dll
 0002:00000414       __imp__ClientToScreen@8    10061414     user32:USER32.dll
 0002:00000418       \177USER32_NULL_THUNK_DATA 10061418     user32:USER32.dll
 0002:0000041c       __imp__IsThemeActive@0     1006141c     uxtheme:UxTheme.dll
 0002:00000420       \177UxTheme_NULL_THUNK_DATA 10061420     uxtheme:UxTheme.dll
 0002:00000424       __imp__InternetOpenW@20    10061424     Wininet:WININET.dll
 0002:00000428       __imp__InternetOpenUrlW@24 10061428     Wininet:WININET.dll
 0002:0000042c       __imp__InternetCloseHandle@4 1006142c     Wininet:WININET.dll
 0002:00000430       __imp__HttpQueryInfoW@20   10061430     Wininet:WININET.dll
 0002:00000434       __imp__InternetReadFile@16 10061434     Wininet:WININET.dll
 0002:00000438       \177WININET_NULL_THUNK_DATA 10061438     Wininet:WININET.dll
 0002:0000043c       __imp__DwmExtendFrameIntoClientArea@8 1006143c     Dwmapi:dwmapi.dll
 0002:00000440       __imp__DwmSetWindowAttribute@16 10061440     Dwmapi:dwmapi.dll
 0002:00000444       __imp__DwmIsCompositionEnabled@4 10061444     Dwmapi:dwmapi.dll
 0002:00000448       __imp__DwmGetColorizationColor@8 10061448     Dwmapi:dwmapi.dll
 0002:0000044c       \177dwmapi_NULL_THUNK_DATA 1006144c     Dwmapi:dwmapi.dll
 0002:00000450       __imp__GdipGetImageRawFormat@8 10061450     gdiplus:gdiplus.dll
 0002:00000454       __imp__GdipSetImageAttributesColorMatrix@24 10061454     gdiplus:gdiplus.dll
 0002:00000458       __imp__GdipDisposeImageAttributes@4 10061458     gdiplus:gdiplus.dll
 0002:0000045c       __imp__GdipCreateImageAttributes@4 1006145c     gdiplus:gdiplus.dll
 0002:00000460       __imp__GdipGetDC@8         10061460     gdiplus:gdiplus.dll
 0002:00000464       __imp__GdipClosePathFigure@4 10061464     gdiplus:gdiplus.dll
 0002:00000468       __imp__GdipAddPathArcI@28  10061468     gdiplus:gdiplus.dll
 0002:0000046c       __imp__GdipAddPathLineI@20 1006146c     gdiplus:gdiplus.dll
 0002:00000470       __imp__GdipGetSmoothingMode@8 10061470     gdiplus:gdiplus.dll
 0002:00000474       __imp__GdipCreateLineBrushFromRectWithAngleI@28 10061474     gdiplus:gdiplus.dll
 0002:00000478       __imp__GdipSetSolidFillColor@8 10061478     gdiplus:gdiplus.dll
 0002:0000047c       __imp__GdipFillRectangleI@24 1006147c     gdiplus:gdiplus.dll
 0002:00000480       __imp__GdipCreateSolidFill@8 10061480     gdiplus:gdiplus.dll
 0002:00000484       __imp__GdipImageRotateFlip@8 10061484     gdiplus:gdiplus.dll
 0002:00000488       __imp__GdipFillPath@12     10061488     gdiplus:gdiplus.dll
 0002:0000048c       __imp__GdipGetPathGradientPointCount@8 1006148c     gdiplus:gdiplus.dll
 0002:00000490       __imp__GdipSetPathGradientSurroundColorsWithCount@12 10061490     gdiplus:gdiplus.dll
 0002:00000494       __imp__GdipSetPathGradientCenterColor@8 10061494     gdiplus:gdiplus.dll
 0002:00000498       __imp__GdipCloneBrush@8    10061498     gdiplus:gdiplus.dll
 0002:0000049c       __imp__GdipDeleteBrush@4   1006149c     gdiplus:gdiplus.dll
 0002:000004a0       __imp__GdipCreatePathGradientFromPath@8 100614a0     gdiplus:gdiplus.dll
 0002:000004a4       __imp__GdipAddPathEllipseI@20 100614a4     gdiplus:gdiplus.dll
 0002:000004a8       __imp__GdipDeletePath@4    100614a8     gdiplus:gdiplus.dll
 0002:000004ac       __imp__GdipCreatePath@8    100614ac     gdiplus:gdiplus.dll
 0002:000004b0       __imp__GdipLoadImageFromFile@8 100614b0     gdiplus:gdiplus.dll
 0002:000004b4       __imp__GdipCreateBitmapFromFile@8 100614b4     gdiplus:gdiplus.dll
 0002:000004b8       __imp__GdipCreateBitmapFromStream@8 100614b8     gdiplus:gdiplus.dll
 0002:000004bc       __imp__GdipGetImagePixelFormat@8 100614bc     gdiplus:gdiplus.dll
 0002:000004c0       __imp__GdipGetImagePaletteSize@8 100614c0     gdiplus:gdiplus.dll
 0002:000004c4       __imp__GdipGetImagePalette@12 100614c4     gdiplus:gdiplus.dll
 0002:000004c8       __imp__GdipGetImageGraphicsContext@8 100614c8     gdiplus:gdiplus.dll
 0002:000004cc       __imp__GdipDrawImageI@16   100614cc     gdiplus:gdiplus.dll
 0002:000004d0       __imp__GdipCreateBitmapFromGdiDib@12 100614d0     gdiplus:gdiplus.dll
 0002:000004d4       __imp__GdiplusStartup@12   100614d4     gdiplus:gdiplus.dll
 0002:000004d8       __imp__GdipGetImageEncodersSize@8 100614d8     gdiplus:gdiplus.dll
 0002:000004dc       __imp__GdipGetImageEncoders@12 100614dc     gdiplus:gdiplus.dll
 0002:000004e0       __imp__GdipCreateBitmapFromHBITMAP@12 100614e0     gdiplus:gdiplus.dll
 0002:000004e4       __imp__GdipLoadImageFromStream@8 100614e4     gdiplus:gdiplus.dll
 0002:000004e8       __imp__GdipSaveImageToStream@16 100614e8     gdiplus:gdiplus.dll
 0002:000004ec       __imp__GdipBitmapUnlockBits@8 100614ec     gdiplus:gdiplus.dll
 0002:000004f0       __imp__GdipBitmapLockBits@20 100614f0     gdiplus:gdiplus.dll
 0002:000004f4       __imp__GdipCreateBitmapFromScan0@24 100614f4     gdiplus:gdiplus.dll
 0002:000004f8       __imp__GdipCloneImage@8    100614f8     gdiplus:gdiplus.dll
 0002:000004fc       __imp__GdipAlloc@4         100614fc     gdiplus:gdiplus.dll
 0002:00000500       __imp__GdipDisposeImage@4  10061500     gdiplus:gdiplus.dll
 0002:00000504       __imp__GdipFree@4          10061504     gdiplus:gdiplus.dll
 0002:00000508       __imp__GdipGetImageHeight@8 10061508     gdiplus:gdiplus.dll
 0002:0000050c       __imp__GdipGetImageWidth@8 1006150c     gdiplus:gdiplus.dll
 0002:00000510       __imp__GdipDrawImageRectRect@56 10061510     gdiplus:gdiplus.dll
 0002:00000514       __imp__GdipSetInterpolationMode@8 10061514     gdiplus:gdiplus.dll
 0002:00000518       __imp__GdipSetSmoothingMode@8 10061518     gdiplus:gdiplus.dll
 0002:0000051c       __imp__GdipReleaseDC@8     1006151c     gdiplus:gdiplus.dll
 0002:00000520       __imp__GdipDrawImagePointRectI@36 10061520     gdiplus:gdiplus.dll
 0002:00000524       __imp__GdipDeleteGraphics@4 10061524     gdiplus:gdiplus.dll
 0002:00000528       __imp__GdipCreateFromHDC@8 10061528     gdiplus:gdiplus.dll
 0002:0000052c       __imp__GdiplusShutdown@4   1006152c     gdiplus:gdiplus.dll
 0002:00000530       __imp__GdipSetCompositingQuality@8 10061530     gdiplus:gdiplus.dll
 0002:00000534       \177gdiplus_NULL_THUNK_DATA 10061534     gdiplus:gdiplus.dll
 0002:00000538       __imp_??1CEdit@@UAE@XZ     10061538     mfc120u:mfc120u.dll
 0002:0000053c       __imp_?GetThisClass@CRichEditCtrl@@SGPAUCRuntimeClass@@XZ 1006153c     mfc120u:mfc120u.dll
 0002:00000540       __imp_??1CRichEditCtrl@@UAE@XZ 10061540     mfc120u:mfc120u.dll
 0002:00000544       __imp_?Create@CRichEditCtrl@@QAEHKABUtagRECT@@PAVCWnd@@I@Z 10061544     mfc120u:mfc120u.dll
 0002:00000548       __imp_?GetDefaultCharFormat@CRichEditCtrl@@QBEKAAUCHARFORMAT2W@@@Z 10061548     mfc120u:mfc120u.dll
 0002:0000054c       __imp_?SetDefaultCharFormat@CRichEditCtrl@@QAEHAAUCHARFORMAT2W@@@Z 1006154c     mfc120u:mfc120u.dll
 0002:00000550       __imp_?OnDestroy@CHtmlView@@IAEXXZ 10061550     mfc120u:mfc120u.dll
 0002:00000554       __imp_?DrawItem@CMenu@@UAEXPAUtagDRAWITEMSTRUCT@@@Z 10061554     mfc120u:mfc120u.dll
 0002:00000558       __imp_?GetRuntimeClass@CMenu@@UBEPAUCRuntimeClass@@XZ 10061558     mfc120u:mfc120u.dll
 0002:0000055c       __imp_?DestroyMenu@CMenu@@QAEHXZ 1006155c     mfc120u:mfc120u.dll
 0002:00000560       __imp_?Attach@CMenu@@QAEHPAUHMENU__@@@Z 10061560     mfc120u:mfc120u.dll
 0002:00000564       __imp_?GetStyle@CWnd@@QBEKXZ 10061564     mfc120u:mfc120u.dll
 0002:00000568       __imp_?GetWindowTextLengthW@CWnd@@QBEHXZ 10061568     mfc120u:mfc120u.dll
 0002:0000056c       __imp_?TrackPopupMenu@CMenu@@QAEHIHHPAVCWnd@@PBUtagRECT@@@Z 1006156c     mfc120u:mfc120u.dll
 0002:00000570       __imp_?PasteSpecial@CRichEditCtrl@@QAEXIKPAUHMETAFILE__@@@Z 10061570     mfc120u:mfc120u.dll
 0002:00000574       __imp_?GetThisMessageMap@CHtmlView@@KGPBUAFX_MSGMAP@@XZ 10061574     mfc120u:mfc120u.dll
 0002:00000578       __imp_??1CHtmlView@@UAE@XZ 10061578     mfc120u:mfc120u.dll
 0002:0000057c       __imp_??0CHtmlView@@IAE@XZ 1006157c     mfc120u:mfc120u.dll
 0002:00000580       __imp_?GetThisClass@CHtmlView@@SGPAUCRuntimeClass@@XZ 10061580     mfc120u:mfc120u.dll
 0002:00000584       __imp_?AfxBeginThread@@YGPAVCWinThread@@PAUCRuntimeClass@@HIKPAU_SECURITY_ATTRIBUTES@@@Z 10061584     mfc120u:mfc120u.dll
 0002:00000588       __imp_?Left@?$CStringT@_WV?$StrTraitMFC_DLL@_WV?$ChTraitsCRT@_W@ATL@@@@@ATL@@QBE?AV12@H@Z 10061588     mfc120u:mfc120u.dll
 0002:0000058c       __imp_??4?$CStringT@_WV?$StrTraitMFC_DLL@_WV?$ChTraitsCRT@_W@ATL@@@@@ATL@@QAEAAV01@PB_W@Z 1006158c     mfc120u:mfc120u.dll
 0002:00000590       __imp_?SelectObject@CDC@@QAEPAVCPen@@PAV2@@Z 10061590     mfc120u:mfc120u.dll
 0002:00000594       __imp_?Create@CEdit@@QAEHKABUtagRECT@@PAVCWnd@@I@Z 10061594     mfc120u:mfc120u.dll
 0002:00000598       __imp_?GetRuntimeClass@CFont@@UBEPAUCRuntimeClass@@XZ 10061598     mfc120u:mfc120u.dll
 0002:0000059c       __imp_??Y?$CStringT@_WV?$StrTraitMFC_DLL@_WV?$ChTraitsCRT@_W@ATL@@@@@ATL@@QAEAAV01@ABV?$CSimpleStringT@_W$00@1@@Z 1006159c     mfc120u:mfc120u.dll
 0002:000005a0       __imp_?Concatenate@?$CSimpleStringT@_W$00@ATL@@KAXAAV12@PB_WH1H@Z 100615a0     mfc120u:mfc120u.dll
 0002:000005a4       __imp_?GetManager@?$CStringT@_WV?$StrTraitMFC_DLL@_WV?$ChTraitsCRT@_W@ATL@@@@@ATL@@QBEPAUIAtlStringMgr@2@XZ 100615a4     mfc120u:mfc120u.dll
 0002:000005a8       __imp_??0?$CStringT@_WV?$StrTraitMFC_DLL@_WV?$ChTraitsCRT@_W@ATL@@@@@ATL@@QAE@PAUIAtlStringMgr@1@@Z 100615a8     mfc120u:mfc120u.dll
 0002:000005ac       __imp_?FillSolidRect@CDC@@QAEXPBUtagRECT@@K@Z 100615ac     mfc120u:mfc120u.dll
 0002:000005b0       __imp_?ModifyStyle@CWnd@@SGHPAUHWND__@@KKI@Z 100615b0     mfc120u:mfc120u.dll
 0002:000005b4       __imp_?PreInitDialog@CDialog@@MAEXXZ 100615b4     mfc120u:mfc120u.dll
 0002:000005b8       __imp_?OnSetFont@CDialog@@UAEXPAVCFont@@@Z 100615b8     mfc120u:mfc120u.dll
 0002:000005bc       __imp_?DoModal@CDialog@@UAEHXZ 100615bc     mfc120u:mfc120u.dll
 0002:000005c0       __imp_?CreateIndirect@CDialog@@UAEHPBUDLGTEMPLATE@@PAVCWnd@@PAX@Z 100615c0     mfc120u:mfc120u.dll
 0002:000005c4       __imp_?CreateIndirect@CDialog@@UAEHPAXPAVCWnd@@@Z 100615c4     mfc120u:mfc120u.dll
 0002:000005c8       __imp_?GetOccDialogInfo@CDialog@@MAEPAU_AFX_OCC_DIALOG_INFO@@XZ 100615c8     mfc120u:mfc120u.dll
 0002:000005cc       __imp_?SetOccDialogInfo@CDialog@@MAEHPAU_AFX_OCC_DIALOG_INFO@@@Z 100615cc     mfc120u:mfc120u.dll
 0002:000005d0       __imp_?CheckAutoCenter@CDialog@@UAEHXZ 100615d0     mfc120u:mfc120u.dll
 0002:000005d4       __imp_?OnCmdMsg@CDialog@@UAEHIHPAXPAUAFX_CMDHANDLERINFO@@@Z 100615d4     mfc120u:mfc120u.dll
 0002:000005d8       __imp_?AfxGetThread@@YGPAVCWinThread@@XZ 100615d8     mfc120u:mfc120u.dll
 0002:000005dc       __imp_?OnNcDestroy@CWnd@@IAEXXZ 100615dc     mfc120u:mfc120u.dll
 0002:000005e0       __imp_?SetStretchBltMode@CDC@@QAEHH@Z 100615e0     mfc120u:mfc120u.dll
 0002:000005e4       __imp_?ModifyStyleEx@CWnd@@SGHPAUHWND__@@KKI@Z 100615e4     mfc120u:mfc120u.dll
 0002:000005e8       __imp_?SetTextAlign@CDC@@QAEII@Z 100615e8     mfc120u:mfc120u.dll
 0002:000005ec       __imp_?SetBkMode@CDC@@QAEHH@Z 100615ec     mfc120u:mfc120u.dll
 0002:000005f0       __imp_?Detach@CGdiObject@@QAEPAXXZ 100615f0     mfc120u:mfc120u.dll
 0002:000005f4       __imp_?PreTranslateMessage@CDialog@@UAEHPAUtagMSG@@@Z 100615f4     mfc120u:mfc120u.dll
 0002:000005f8       __imp_?OnCancel@CDialog@@MAEXXZ 100615f8     mfc120u:mfc120u.dll
 0002:000005fc       __imp_?OnOK@CDialog@@MAEXXZ 100615fc     mfc120u:mfc120u.dll
 0002:00000600       __imp_?wndNoTopMost@CWnd@@2V1@B 10061600     mfc120u:mfc120u.dll
 0002:00000604       __imp_?LineTo@CDC@@QAEHHH@Z 10061604     mfc120u:mfc120u.dll
 0002:00000608       __imp_?MoveTo@CDC@@QAE?AVCPoint@@HH@Z 10061608     mfc120u:mfc120u.dll
 0002:0000060c       __imp_?GetRuntimeClass@CPen@@UBEPAUCRuntimeClass@@XZ 1006160c     mfc120u:mfc120u.dll
 0002:00000610       __imp_?EnableWindow@CWnd@@QAEHH@Z 10061610     mfc120u:mfc120u.dll
 0002:00000614       __imp_?AfxFindResourceHandle@@YGPAUHINSTANCE__@@PB_W0@Z 10061614     mfc120u:mfc120u.dll
 0002:00000618       __imp_?wndTopMost@CWnd@@2V1@B 10061618     mfc120u:mfc120u.dll
 0002:0000061c       __imp_?SetWindowTextW@CWnd@@QAEXPB_W@Z 1006161c     mfc120u:mfc120u.dll
 0002:00000620       __imp_?OnInitDialog@CDialog@@UAEHXZ 10061620     mfc120u:mfc120u.dll
 0002:00000624       __imp_?Create@CDialog@@UAEHPB_WPAVCWnd@@@Z 10061624     mfc120u:mfc120u.dll
 0002:00000628       __imp_?ShowWindow@CWnd@@QAEHH@Z 10061628     mfc120u:mfc120u.dll
 0002:0000062c       __imp_?EndDialog@CDialog@@QAEXH@Z 1006162c     mfc120u:mfc120u.dll
 0002:00000630       __imp_?GetThisMessageMap@CDialog@@KGPBUAFX_MSGMAP@@XZ 10061630     mfc120u:mfc120u.dll
 0002:00000634       __imp_?OnCtlColor@CWnd@@IAEPAUHBRUSH__@@PAVCDC@@PAV1@I@Z 10061634     mfc120u:mfc120u.dll
 0002:00000638       __imp_??0CDialog@@QAE@XZ   10061638     mfc120u:mfc120u.dll
 0002:0000063c       __imp_??1CDialog@@UAE@XZ   1006163c     mfc120u:mfc120u.dll
 0002:00000640       __imp_??0CDialog@@QAE@IPAVCWnd@@@Z 10061640     mfc120u:mfc120u.dll
 0002:00000644       __imp_?GetThisClass@CDialog@@SGPAUCRuntimeClass@@XZ 10061644     mfc120u:mfc120u.dll
 0002:00000648       __imp_?CenterWindow@CWnd@@QAEXPAV1@@Z 10061648     mfc120u:mfc120u.dll
 0002:0000064c       __imp_?GetWindowTextW@CWnd@@QBEXAAV?$CStringT@_WV?$StrTraitMFC_DLL@_WV?$ChTraitsCRT@_W@ATL@@@@@ATL@@@Z 1006164c     mfc120u:mfc120u.dll
 0002:00000650       __imp_?GetParentOwner@CWnd@@QBEPAV1@XZ 10061650     mfc120u:mfc120u.dll
 0002:00000654       __imp_??0?$CStringT@_WV?$StrTraitMFC_DLL@_WV?$ChTraitsCRT@_W@ATL@@@@@ATL@@QAE@PB_W@Z 10061654     mfc120u:mfc120u.dll
 0002:00000658       __imp_?Create@CWnd@@UAEHPB_W0KABUtagRECT@@PAV1@IPAUCCreateContext@@@Z 10061658     mfc120u:mfc120u.dll
 0002:0000065c       __imp_?SetWindowPos@CWnd@@QAEHPBV1@HHHHI@Z 1006165c     mfc120u:mfc120u.dll
 0002:00000660       __imp_?DefWindowProcW@CWnd@@MAEJIIJ@Z 10061660     mfc120u:mfc120u.dll
 0002:00000664       __imp_?Detach@CDC@@QAEPAUHDC__@@XZ 10061664     mfc120u:mfc120u.dll
 0002:00000668       __imp_?NegotiateBorderSpace@CFrameWnd@@UAEHIPAUtagRECT@@@Z 10061668     mfc120u:mfc120u.dll
 0002:0000066c       __imp_?FromHandle@CWnd@@SGPAV1@PAUHWND__@@@Z 1006166c     mfc120u:mfc120u.dll
 0002:00000670       __imp_?OnSetFocus@CWnd@@IAEXPAV1@@Z 10061670     mfc120u:mfc120u.dll
 0002:00000674       __imp_?PreTranslateMessage@CWnd@@UAEHPAUtagMSG@@@Z 10061674     mfc120u:mfc120u.dll
 0002:00000678       __imp_?ScreenToClient@CWnd@@QBEXPAUtagRECT@@@Z 10061678     mfc120u:mfc120u.dll
 0002:0000067c       __imp_?FromHandle@CDC@@SGPAV1@PAUHDC__@@@Z 1006167c     mfc120u:mfc120u.dll
 0002:00000680       __imp_?IsWindowEnabled@CWnd@@QBEHXZ 10061680     mfc120u:mfc120u.dll
 0002:00000684       __imp_?SetFocus@CWnd@@QAEPAV1@XZ 10061684     mfc120u:mfc120u.dll
 0002:00000688       __imp_?Default@CWnd@@IAEJXZ 10061688     mfc120u:mfc120u.dll
 0002:0000068c       __imp_??1CPaintDC@@UAE@XZ  1006168c     mfc120u:mfc120u.dll
 0002:00000690       __imp_??0CPaintDC@@QAE@PAVCWnd@@@Z 10061690     mfc120u:mfc120u.dll
 0002:00000694       __imp_?OnDestroy@CWnd@@IAEXXZ 10061694     mfc120u:mfc120u.dll
 0002:00000698       __imp_?FillSolidRect@CDC@@QAEXHHHHK@Z 10061698     mfc120u:mfc120u.dll
 0002:0000069c       __imp_?SelectClipRgn@CDC@@QAEHPAVCRgn@@@Z 1006169c     mfc120u:mfc120u.dll
 0002:000006a0       __imp_?GetRuntimeClass@CRgn@@UBEPAUCRuntimeClass@@XZ 100616a0     mfc120u:mfc120u.dll
 0002:000006a4       __imp_?SelectGdiObject@CDC@@KGPAVCGdiObject@@PAUHDC__@@PAX@Z 100616a4     mfc120u:mfc120u.dll
 0002:000006a8       __imp_?Attach@CGdiObject@@QAEHPAX@Z 100616a8     mfc120u:mfc120u.dll
 0002:000006ac       __imp_?GetRuntimeClass@CGdiObject@@UBEPAUCRuntimeClass@@XZ 100616ac     mfc120u:mfc120u.dll
 0002:000006b0       __imp_?DeleteObject@CGdiObject@@QAEHXZ 100616b0     mfc120u:mfc120u.dll
 0002:000006b4       __imp_?Format@?$CStringT@_WV?$StrTraitMFC_DLL@_WV?$ChTraitsCRT@_W@ATL@@@@@ATL@@QAAXPB_WZZ 100616b4     mfc120u:mfc120u.dll
 0002:000006b8       __imp_?AfxMessageBox@@YGHPB_WII@Z 100616b8     mfc120u:mfc120u.dll
 0002:000006bc       __imp_?GetRuntimeClass@CBitmap@@UBEPAUCRuntimeClass@@XZ 100616bc     mfc120u:mfc120u.dll
 0002:000006c0       __imp_?Attach@CDC@@QAEHPAUHDC__@@@Z 100616c0     mfc120u:mfc120u.dll
 0002:000006c4       __imp_?GetMessageBar@CFrameWnd@@UAEPAVCWnd@@XZ 100616c4     mfc120u:mfc120u.dll
 0002:000006c8       __imp_?OnSetPreviewMode@CFrameWnd@@UAEXHPAUCPrintPreviewState@@@Z 100616c8     mfc120u:mfc120u.dll
 0002:000006cc       __imp_?GetMenuBarState@CFrameWnd@@UBEKXZ 100616cc     mfc120u:mfc120u.dll
 0002:000006d0       __imp_?SetMenuBarState@CFrameWnd@@UAEHK@Z 100616d0     mfc120u:mfc120u.dll
 0002:000006d4       __imp_?GetMenuBarVisibility@CFrameWnd@@UBEKXZ 100616d4     mfc120u:mfc120u.dll
 0002:000006d8       __imp_?SetMenuBarVisibility@CFrameWnd@@UAEXK@Z 100616d8     mfc120u:mfc120u.dll
 0002:000006dc       __imp_?ActivateFrame@CFrameWnd@@UAEXH@Z 100616dc     mfc120u:mfc120u.dll
 0002:000006e0       __imp_?RecalcLayout@CFrameWnd@@UAEXH@Z 100616e0     mfc120u:mfc120u.dll
 0002:000006e4       __imp_?GetMessageString@CFrameWnd@@UBEXIAAV?$CStringT@_WV?$StrTraitMFC_DLL@_WV?$ChTraitsCRT@_W@ATL@@@@@ATL@@@Z 100616e4     mfc120u:mfc120u.dll
 0002:000006e8       __imp_?GetActiveFrame@CFrameWnd@@UAEPAV1@XZ 100616e8     mfc120u:mfc120u.dll
 0002:000006ec       __imp_?GetActiveDocument@CFrameWnd@@UAEPAVCDocument@@XZ 100616ec     mfc120u:mfc120u.dll
 0002:000006f0       __imp_?LoadFrame@CFrameWnd@@UAEHIKPAVCWnd@@PAUCCreateContext@@@Z 100616f0     mfc120u:mfc120u.dll
 0002:000006f4       __imp_?Create@CFrameWnd@@UAEHPB_W0KABUtagRECT@@PAVCWnd@@0KPAUCCreateContext@@@Z 100616f4     mfc120u:mfc120u.dll
 0002:000006f8       __imp_?IsFrameWnd@CFrameWnd@@UBEHXZ 100616f8     mfc120u:mfc120u.dll
 0002:000006fc       __imp_?PostNcDestroy@CFrameWnd@@MAEXXZ 100616fc     mfc120u:mfc120u.dll
 0002:00000700       __imp_?PreTranslateMessage@CFrameWnd@@UAEHPAUtagMSG@@@Z 10061700     mfc120u:mfc120u.dll
 0002:00000704       __imp_?EndModalState@CFrameWnd@@UAEXXZ 10061704     mfc120u:mfc120u.dll
 0002:00000708       __imp_?BeginModalState@CFrameWnd@@UAEXXZ 10061708     mfc120u:mfc120u.dll
 0002:0000070c       __imp_?OnCommand@CFrameWnd@@MAEHIJ@Z 1006170c     mfc120u:mfc120u.dll
 0002:00000710       __imp_?SetMenu@CFrameWnd@@UAEHPAVCMenu@@@Z 10061710     mfc120u:mfc120u.dll
 0002:00000714       __imp_?GetMenu@CFrameWnd@@UBEPAVCMenu@@XZ 10061714     mfc120u:mfc120u.dll
 0002:00000718       __imp_?PreCreateWindow@CFrameWnd@@MAEHAAUtagCREATESTRUCTW@@@Z 10061718     mfc120u:mfc120u.dll
 0002:0000071c       __imp_?OnCmdMsg@CFrameWnd@@UAEHIHPAXPAUAFX_CMDHANDLERINFO@@@Z 1006171c     mfc120u:mfc120u.dll
 0002:00000720       __imp_?GetThisMessageMap@CFrameWnd@@KGPBUAFX_MSGMAP@@XZ 10061720     mfc120u:mfc120u.dll
 0002:00000724       __imp_??1CFrameWnd@@UAE@XZ 10061724     mfc120u:mfc120u.dll
 0002:00000728       __imp_??0CFrameWnd@@QAE@XZ 10061728     mfc120u:mfc120u.dll
 0002:0000072c       __imp_?GetThisClass@CFrameWnd@@SGPAUCRuntimeClass@@XZ 1006172c     mfc120u:mfc120u.dll
 0002:00000730       __imp_?Replace@?$CStringT@_WV?$StrTraitMFC_DLL@_WV?$ChTraitsCRT@_W@ATL@@@@@ATL@@QAEHPB_W0@Z 10061730     mfc120u:mfc120u.dll
 0002:00000734       __imp_?Find@?$CStringT@_WV?$StrTraitMFC_DLL@_WV?$ChTraitsCRT@_W@ATL@@@@@ATL@@QBEH_WH@Z 10061734     mfc120u:mfc120u.dll
 0002:00000738       __imp_?Mid@?$CStringT@_WV?$StrTraitMFC_DLL@_WV?$ChTraitsCRT@_W@ATL@@@@@ATL@@QBE?AV12@H@Z 10061738     mfc120u:mfc120u.dll
 0002:0000073c       __imp_?NavigateError@CHtmlView@@MAEXPAUIDispatch@@PAUtagVARIANT@@11PAF@Z 1006173c     mfc120u:mfc120u.dll
 0002:00000740       __imp_?DocumentComplete@CHtmlView@@MAEXPAUIDispatch@@PAUtagVARIANT@@@Z 10061740     mfc120u:mfc120u.dll
 0002:00000744       __imp_?BeforeNavigate2@CHtmlView@@MAEXPAUIDispatch@@PAUtagVARIANT@@1111PAF@Z 10061744     mfc120u:mfc120u.dll
 0002:00000748       __imp_?NavigateComplete2@CHtmlView@@MAEXPAUIDispatch@@PAUtagVARIANT@@@Z 10061748     mfc120u:mfc120u.dll
 0002:0000074c       __imp_?OnGetDropTarget@CHtmlView@@UAEJPAUIDropTarget@@PAPAU2@@Z 1006174c     mfc120u:mfc120u.dll
 0002:00000750       __imp_?OnTranslateUrl@CHtmlView@@UAEJKPA_WPAPA_W@Z 10061750     mfc120u:mfc120u.dll
 0002:00000754       __imp_?OnFilterDataObject@CHtmlView@@UAEJPAUIDataObject@@PAPAU2@@Z 10061754     mfc120u:mfc120u.dll
 0002:00000758       __imp_?OnGetOptionKeyPath@CHtmlView@@UAEJPAPA_WK@Z 10061758     mfc120u:mfc120u.dll
 0002:0000075c       __imp_?OnTranslateAccelerator@CHtmlView@@UAEJPAUtagMSG@@PBU_GUID@@K@Z 1006175c     mfc120u:mfc120u.dll
 0002:00000760       __imp_?OnResizeBorder@CHtmlView@@UAEJPBUtagRECT@@PAUIOleInPlaceUIWindow@@H@Z 10061760     mfc120u:mfc120u.dll
 0002:00000764       __imp_?OnFrameWindowActivate@CHtmlView@@UAEJH@Z 10061764     mfc120u:mfc120u.dll
 0002:00000768       __imp_?OnDocWindowActivate@CHtmlView@@UAEJH@Z 10061768     mfc120u:mfc120u.dll
 0002:0000076c       __imp_?OnEnableModeless@CHtmlView@@UAEJH@Z 1006176c     mfc120u:mfc120u.dll
 0002:00000770       __imp_?OnUpdateUI@CHtmlView@@UAEJXZ 10061770     mfc120u:mfc120u.dll
 0002:00000774       __imp_?OnHideUI@CHtmlView@@UAEJXZ 10061774     mfc120u:mfc120u.dll
 0002:00000778       __imp_?OnShowUI@CHtmlView@@UAEJKPAUIOleInPlaceActiveObject@@PAUIOleCommandTarget@@PAUIOleInPlaceFrame@@PAUIOleInPlaceUIWindow@@@Z 10061778     mfc120u:mfc120u.dll
 0002:0000077c       __imp_?OnGetHostInfo@CHtmlView@@UAEJPAU_DOCHOSTUIINFO@@@Z 1006177c     mfc120u:mfc120u.dll
 0002:00000780       __imp_?OnGetExternal@CHtmlView@@UAEJPAPAUIDispatch@@@Z 10061780     mfc120u:mfc120u.dll
 0002:00000784       __imp_?OnShowContextMenu@CHtmlView@@UAEJKPAUtagPOINT@@PAUIUnknown@@PAUIDispatch@@@Z 10061784     mfc120u:mfc120u.dll
 0002:00000788       __imp_?GetSource@CHtmlView@@UAEHAAV?$CStringT@_WV?$StrTraitMFC_DLL@_WV?$ChTraitsCRT@_W@ATL@@@@@ATL@@@Z 10061788     mfc120u:mfc120u.dll
 0002:0000078c       __imp_?GetWheelScrollDistance@CScrollView@@UAE?AVCSize@@V2@HH@Z 1006178c     mfc120u:mfc120u.dll
 0002:00000790       __imp_?OnEndPrintPreview@CView@@MAEXPAVCDC@@PAUCPrintInfo@@UtagPOINT@@PAVCPreviewView@@@Z 10061790     mfc120u:mfc120u.dll
 0002:00000794       __imp_?OnEndPrinting@CView@@MAEXPAVCDC@@PAUCPrintInfo@@@Z 10061794     mfc120u:mfc120u.dll
 0002:00000798       __imp_?OnPrint@CView@@MAEXPAVCDC@@PAUCPrintInfo@@@Z 10061798     mfc120u:mfc120u.dll
 0002:0000079c       __imp_?OnBeginPrinting@CView@@MAEXPAVCDC@@PAUCPrintInfo@@@Z 1006179c     mfc120u:mfc120u.dll
 0002:000007a0       __imp_?OnPreparePrinting@CView@@MAEHPAUCPrintInfo@@@Z 100617a0     mfc120u:mfc120u.dll
 0002:000007a4       __imp_?OnDraw@CHtmlView@@UAEXPAVCDC@@@Z 100617a4     mfc120u:mfc120u.dll
 0002:000007a8       __imp_?OnUpdate@CView@@MAEXPAV1@JPAVCObject@@@Z 100617a8     mfc120u:mfc120u.dll
 0002:000007ac       __imp_?OnActivateFrame@CFormView@@MAEXIPAVCFrameWnd@@@Z 100617ac     mfc120u:mfc120u.dll
 0002:000007b0       __imp_?OnActivateView@CFormView@@MAEXHPAVCView@@0@Z 100617b0     mfc120u:mfc120u.dll
 0002:000007b4       __imp_?OnInitialUpdate@CFormView@@UAEXXZ 100617b4     mfc120u:mfc120u.dll
 0002:000007b8       __imp_?OnPrepareDC@CScrollView@@UAEXPAVCDC@@PAUCPrintInfo@@@Z 100617b8     mfc120u:mfc120u.dll
 0002:000007bc       __imp_?OnDragScroll@CView@@UAEKKVCPoint@@@Z 100617bc     mfc120u:mfc120u.dll
 0002:000007c0       __imp_?OnDropEx@CView@@UAEKPAVCOleDataObject@@KKVCPoint@@@Z 100617c0     mfc120u:mfc120u.dll
 0002:000007c4       __imp_?OnDrop@CView@@UAEHPAVCOleDataObject@@KVCPoint@@@Z 100617c4     mfc120u:mfc120u.dll
 0002:000007c8       __imp_?OnDragLeave@CView@@UAEXXZ 100617c8     mfc120u:mfc120u.dll
 0002:000007cc       __imp_?OnDragOver@CView@@UAEKPAVCOleDataObject@@KVCPoint@@@Z 100617cc     mfc120u:mfc120u.dll
 0002:000007d0       __imp_?OnDragEnter@CView@@UAEKPAVCOleDataObject@@KVCPoint@@@Z 100617d0     mfc120u:mfc120u.dll
 0002:000007d4       __imp_?OnScrollBy@CScrollView@@UAEHVCSize@@H@Z 100617d4     mfc120u:mfc120u.dll
 0002:000007d8       __imp_?OnScroll@CScrollView@@UAEHIIH@Z 100617d8     mfc120u:mfc120u.dll
 0002:000007dc       __imp_?IsSelected@CView@@UBEHPBVCObject@@@Z 100617dc     mfc120u:mfc120u.dll
 0002:000007e0       __imp_?GetOccDialogInfo@CFormView@@MAEPAU_AFX_OCC_DIALOG_INFO@@XZ 100617e0     mfc120u:mfc120u.dll
 0002:000007e4       __imp_?SetOccDialogInfo@CFormView@@MAEHPAU_AFX_OCC_DIALOG_INFO@@@Z 100617e4     mfc120u:mfc120u.dll
 0002:000007e8       __imp_?CreateControlSite@CHtmlView@@UAEHPAVCOleControlContainer@@PAPAVCOleControlSite@@IABU_GUID@@@Z 100617e8     mfc120u:mfc120u.dll
 0002:000007ec       __imp_?GetAccessibilityHitTest@CWnd@@QAEJJJPAUtagVARIANT@@@Z 100617ec     mfc120u:mfc120u.dll
 0002:000007f0       __imp_?GetAccessibilityLocation@CWnd@@QAEJUtagVARIANT@@PAJ111@Z 100617f0     mfc120u:mfc120u.dll
 0002:000007f4       __imp_?GetAccessibleName@CWnd@@QAEJUtagVARIANT@@PAPA_W@Z 100617f4     mfc120u:mfc120u.dll
 0002:000007f8       __imp_?GetAccessibleChild@CWnd@@QAEJUtagVARIANT@@PAPAUIDispatch@@@Z 100617f8     mfc120u:mfc120u.dll
 0002:000007fc       __imp_?GetAccessibleChildCount@CWnd@@QAEJXZ 100617fc     mfc120u:mfc120u.dll
 0002:00000800       __imp_?OnDrawIconicThumbnailOrLivePreview@CHtmlView@@UAEXAAVCDC@@VCRect@@VCSize@@HAAH@Z 10061800     mfc120u:mfc120u.dll
 0002:00000804       __imp_?GetScrollBarCtrl@CView@@UBEPAVCScrollBar@@H@Z 10061804     mfc120u:mfc120u.dll
 0002:00000808       __imp_?CalcWindowRect@CScrollView@@UAEXPAUtagRECT@@I@Z 10061808     mfc120u:mfc120u.dll
 0002:0000080c       __imp_?PreCreateWindow@CHtmlView@@UAEHAAUtagCREATESTRUCTW@@@Z 1006180c     mfc120u:mfc120u.dll
 0002:00000810       __imp_?Create@CHtmlView@@UAEHPB_W0KABUtagRECT@@PAVCWnd@@IPAUCCreateContext@@@Z 10061810     mfc120u:mfc120u.dll
 0002:00000814       __imp_?GetEventSinkMap@CHtmlView@@MBEPBUAFX_EVENTSINKMAP@@XZ 10061814     mfc120u:mfc120u.dll
 0002:00000818       __imp_?OnCmdMsg@CView@@UAEHIHPAXPAUAFX_CMDHANDLERINFO@@@Z 10061818     mfc120u:mfc120u.dll
 0002:0000081c       __imp_?Compare@?$CStringT@_WV?$StrTraitMFC_DLL@_WV?$ChTraitsCRT@_W@ATL@@@@@ATL@@QBEHPB_W@Z 1006181c     mfc120u:mfc120u.dll
 0002:00000820       __imp_?PreTranslateMessage@CHtmlView@@UAEHPAUtagMSG@@@Z 10061820     mfc120u:mfc120u.dll
 0002:00000824       __imp_?PostNcDestroy@CView@@MAEXXZ 10061824     mfc120u:mfc120u.dll
 0002:00000828       __imp_?OnNavigateError@CHtmlView@@UAEXPB_W0KPAH@Z 10061828     mfc120u:mfc120u.dll
 0002:0000082c       __imp_?OnNavigateComplete2@CHtmlView@@UAEXPB_W@Z 1006182c     mfc120u:mfc120u.dll
 0002:00000830       __imp_??1CClientDC@@UAE@XZ 10061830     mfc120u:mfc120u.dll
 0002:00000834       __imp_??0CClientDC@@QAE@PAVCWnd@@@Z 10061834     mfc120u:mfc120u.dll
 0002:00000838       __imp_?CreateEx@CWnd@@UAEHKPB_W0KABUtagRECT@@PAV1@IPAX@Z 10061838     mfc120u:mfc120u.dll
 0002:0000083c       __imp_?GetThisMessageMap@CWnd@@KGPBUAFX_MSGMAP@@XZ 1006183c     mfc120u:mfc120u.dll
 0002:00000840       __imp_?DeleteDC@CDC@@QAEHXZ 10061840     mfc120u:mfc120u.dll
 0002:00000844       __imp_??1CDC@@UAE@XZ       10061844     mfc120u:mfc120u.dll
 0002:00000848       __imp_??0CDC@@QAE@XZ       10061848     mfc120u:mfc120u.dll
 0002:0000084c       __imp_??1CWnd@@UAE@XZ      1006184c     mfc120u:mfc120u.dll
 0002:00000850       __imp_??0CWnd@@QAE@XZ      10061850     mfc120u:mfc120u.dll
 0002:00000854       __imp_?GetThisClass@CWnd@@SGPAUCRuntimeClass@@XZ 10061854     mfc120u:mfc120u.dll
 0002:00000858       __imp_??0?$CStringT@_WV?$StrTraitMFC_DLL@_WV?$ChTraitsCRT@_W@ATL@@@@@ATL@@QAE@XZ 10061858     mfc120u:mfc120u.dll
 0002:0000085c       __imp_??0?$CStringT@_WV?$StrTraitMFC_DLL@_WV?$ChTraitsCRT@_W@ATL@@@@@ATL@@QAE@ABV01@@Z 1006185c     mfc120u:mfc120u.dll
 0002:00000860       __imp_??1?$CStringT@_WV?$StrTraitMFC_DLL@_WV?$ChTraitsCRT@_W@ATL@@@@@ATL@@QAE@XZ 10061860     mfc120u:mfc120u.dll
 0002:00000864       __imp_??4?$CStringT@_WV?$StrTraitMFC_DLL@_WV?$ChTraitsCRT@_W@ATL@@@@@ATL@@QAEAAV01@ABV01@@Z 10061864     mfc120u:mfc120u.dll
 0002:00000868       __imp_??2@YAPAXI@Z         10061868     mfc120u:mfc120u.dll
 0002:0000086c       __imp_?PreSubclassWindow@CWnd@@UAEXXZ 1006186c     mfc120u:mfc120u.dll
 0002:00000870       __imp_?CreateEx@CWnd@@UAEHKPB_W0KHHHHPAUHWND__@@PAUHMENU__@@PAX@Z 10061870     mfc120u:mfc120u.dll
 0002:00000874       __imp_?DestroyWindow@CWnd@@UAEHXZ 10061874     mfc120u:mfc120u.dll
 0002:00000878       __imp_?PreCreateWindow@CWnd@@UAEHAAUtagCREATESTRUCTW@@@Z 10061878     mfc120u:mfc120u.dll
 0002:0000087c       __imp_?CalcWindowRect@CWnd@@UAEXPAUtagRECT@@I@Z 1006187c     mfc120u:mfc120u.dll
 0002:00000880       __imp_?GetMenu@CWnd@@UBEPAVCMenu@@XZ 10061880     mfc120u:mfc120u.dll
 0002:00000884       __imp_?SetMenu@CWnd@@UAEHPAVCMenu@@@Z 10061884     mfc120u:mfc120u.dll
 0002:00000888       __imp_?OnToolHitTest@CWnd@@UBEHVCPoint@@PAUtagTOOLINFOW@@@Z 10061888     mfc120u:mfc120u.dll
 0002:0000088c       __imp_?GetScrollBarCtrl@CWnd@@UBEPAVCScrollBar@@H@Z 1006188c     mfc120u:mfc120u.dll
 0002:00000890       __imp_?WinHelpW@CWnd@@UAEXKI@Z 10061890     mfc120u:mfc120u.dll
 0002:00000894       __imp_?HtmlHelpW@CWnd@@UAEXKI@Z 10061894     mfc120u:mfc120u.dll
 0002:00000898       __imp_?WinHelpInternal@CWnd@@UAEXKI@Z 10061898     mfc120u:mfc120u.dll
 0002:0000089c       __imp_?ContinueModal@CWnd@@UAEHXZ 1006189c     mfc120u:mfc120u.dll
 0002:000008a0       __imp_?EndModalLoop@CWnd@@UAEXH@Z 100618a0     mfc120u:mfc120u.dll
 0002:000008a4       __imp_?OnDrawIconicThumbnailOrLivePreview@CWnd@@UAEXAAVCDC@@VCRect@@VCSize@@HAAH@Z 100618a4     mfc120u:mfc120u.dll
 0002:000008a8       __imp_?GetInterfaceMap@CWnd@@MBEPBUAFX_INTERFACEMAP@@XZ 100618a8     mfc120u:mfc120u.dll
 0002:000008ac       __imp_?EnsureStdObj@CWnd@@UAEJXZ 100618ac     mfc120u:mfc120u.dll
 0002:000008b0       __imp_?get_accParent@CWnd@@UAEJPAPAUIDispatch@@@Z 100618b0     mfc120u:mfc120u.dll
 0002:000008b4       __imp_?get_accChildCount@CWnd@@UAEJPAJ@Z 100618b4     mfc120u:mfc120u.dll
 0002:000008b8       __imp_?get_accChild@CWnd@@UAEJUtagVARIANT@@PAPAUIDispatch@@@Z 100618b8     mfc120u:mfc120u.dll
 0002:000008bc       __imp_?get_accName@CWnd@@UAEJUtagVARIANT@@PAPA_W@Z 100618bc     mfc120u:mfc120u.dll
 0002:000008c0       __imp_?OnTitleChange@CHtmlView@@UAEXPB_W@Z 100618c0     mfc120u:mfc120u.dll
 0002:000008c4       __imp_?OnBeforeNavigate2@CHtmlView@@UAEXPB_WK0AAVCByteArray@@0PAH@Z 100618c4     mfc120u:mfc120u.dll
 0002:000008c8       __imp_?OnVisible@CHtmlView@@UAEXH@Z 100618c8     mfc120u:mfc120u.dll
 0002:000008cc       __imp_?OnQuit@CHtmlView@@UAEXXZ 100618cc     mfc120u:mfc120u.dll
 0002:000008d0       __imp_?GetLocationURL@CHtmlView@@QBE?AV?$CStringT@_WV?$StrTraitMFC_DLL@_WV?$ChTraitsCRT@_W@ATL@@@@@ATL@@XZ 100618d0     mfc120u:mfc120u.dll
 0002:000008d4       __imp_?GetApplication@CHtmlView@@QBEPAUIDispatch@@XZ 100618d4     mfc120u:mfc120u.dll
 0002:000008d8       __imp_?CreateView@CFrameWnd@@QAEPAVCWnd@@PAUCCreateContext@@I@Z 100618d8     mfc120u:mfc120u.dll
 0002:000008dc       __imp_?OnTheaterMode@CHtmlView@@UAEXH@Z 100618dc     mfc120u:mfc120u.dll
 0002:000008e0       __imp_?get_accValue@CWnd@@UAEJUtagVARIANT@@PAPA_W@Z 100618e0     mfc120u:mfc120u.dll
 0002:000008e4       __imp_?get_accDescription@CWnd@@UAEJUtagVARIANT@@PAPA_W@Z 100618e4     mfc120u:mfc120u.dll
 0002:000008e8       __imp_?get_accRole@CWnd@@UAEJUtagVARIANT@@PAU2@@Z 100618e8     mfc120u:mfc120u.dll
 0002:000008ec       __imp_?get_accState@CWnd@@UAEJUtagVARIANT@@PAU2@@Z 100618ec     mfc120u:mfc120u.dll
 0002:000008f0       __imp_?get_accHelp@CWnd@@UAEJUtagVARIANT@@PAPA_W@Z 100618f0     mfc120u:mfc120u.dll
 0002:000008f4       __imp_?OnFullScreen@CHtmlView@@UAEXH@Z 100618f4     mfc120u:mfc120u.dll
 0002:000008f8       __imp_?OnStatusBar@CHtmlView@@UAEXH@Z 100618f8     mfc120u:mfc120u.dll
 0002:000008fc       __imp_?get_accHelpTopic@CWnd@@UAEJPAPA_WUtagVARIANT@@PAJ@Z 100618fc     mfc120u:mfc120u.dll
 0002:00000900       __imp_?get_accKeyboardShortcut@CWnd@@UAEJUtagVARIANT@@PAPA_W@Z 10061900     mfc120u:mfc120u.dll
 0002:00000904       __imp_?get_accFocus@CWnd@@UAEJPAUtagVARIANT@@@Z 10061904     mfc120u:mfc120u.dll
 0002:00000908       __imp_?get_accSelection@CWnd@@UAEJPAUtagVARIANT@@@Z 10061908     mfc120u:mfc120u.dll
 0002:0000090c       __imp_?get_accDefaultAction@CWnd@@UAEJUtagVARIANT@@PAPA_W@Z 1006190c     mfc120u:mfc120u.dll
 0002:00000910       __imp_?accSelect@CWnd@@UAEJJUtagVARIANT@@@Z 10061910     mfc120u:mfc120u.dll
 0002:00000914       __imp_?accLocation@CWnd@@UAEJPAJ000UtagVARIANT@@@Z 10061914     mfc120u:mfc120u.dll
 0002:00000918       __imp_?accNavigate@CWnd@@UAEJJUtagVARIANT@@PAU2@@Z 10061918     mfc120u:mfc120u.dll
 0002:0000091c       __imp_?accHitTest@CWnd@@UAEJJJPAUtagVARIANT@@@Z 1006191c     mfc120u:mfc120u.dll
 0002:00000920       __imp_?accDoDefaultAction@CWnd@@UAEJUtagVARIANT@@@Z 10061920     mfc120u:mfc120u.dll
 0002:00000924       __imp_?put_accName@CWnd@@UAEJUtagVARIANT@@PA_W@Z 10061924     mfc120u:mfc120u.dll
 0002:00000928       __imp_?put_accValue@CWnd@@UAEJUtagVARIANT@@PA_W@Z 10061928     mfc120u:mfc120u.dll
 0002:0000092c       __imp_?SetProxy@CWnd@@UAEJPAUIAccessibleProxy@@@Z 1006192c     mfc120u:mfc120u.dll
 0002:00000930       __imp_?CreateAccessibleProxy@CWnd@@UAEJIJPAJ@Z 10061930     mfc120u:mfc120u.dll
 0002:00000934       __imp_?OnCommand@CWnd@@MAEHIJ@Z 10061934     mfc120u:mfc120u.dll
 0002:00000938       __imp_?OnNotify@CWnd@@MAEHIJPAJ@Z 10061938     mfc120u:mfc120u.dll
 0002:0000093c       __imp_?GetSuperWndProcAddr@CWnd@@MAEPAP6GJPAUHWND__@@IIJ@ZXZ 1006193c     mfc120u:mfc120u.dll
 0002:00000940       __imp_?OnAmbientProperty@CWnd@@UAEHPAVCOleControlSite@@JPAUtagVARIANT@@@Z 10061940     mfc120u:mfc120u.dll
 0002:00000944       __imp_?WindowProc@CWnd@@MAEJIIJ@Z 10061944     mfc120u:mfc120u.dll
 0002:00000948       __imp_?GetThisClass@CEdit@@SGPAUCRuntimeClass@@XZ 10061948     mfc120u:mfc120u.dll
 0002:0000094c       __imp_?SetTextCharacterExtra@CDC@@QAEHH@Z 1006194c     mfc120u:mfc120u.dll
 0002:00000950       __imp_??4?$CStringT@_WV?$StrTraitMFC_DLL@_WV?$ChTraitsCRT@_W@ATL@@@@@ATL@@QAEAAV01@PBD@Z 10061950     mfc120u:mfc120u.dll
 0002:00000954       __imp_?AfxBeginThread@@YGPAVCWinThread@@P6AIPAX@Z0HIKPAU_SECURITY_ATTRIBUTES@@@Z 10061954     mfc120u:mfc120u.dll
 0002:00000958       __imp_?SelectObject@CDC@@UAEPAVCFont@@PAV2@@Z 10061958     mfc120u:mfc120u.dll
 0002:0000095c       __imp_??4?$CStringT@_WV?$StrTraitMFC_DLL@_WV?$ChTraitsCRT@_W@ATL@@@@@ATL@@QAEAAV01@_W@Z 1006195c     mfc120u:mfc120u.dll
 0002:00000960       __imp_?Remove@?$CStringT@_WV?$StrTraitMFC_DLL@_WV?$ChTraitsCRT@_W@ATL@@@@@ATL@@QAEH_W@Z 10061960     mfc120u:mfc120u.dll
 0002:00000964       __imp_??Y?$CStringT@_WV?$StrTraitMFC_DLL@_WV?$ChTraitsCRT@_W@ATL@@@@@ATL@@QAEAAV01@PB_W@Z 10061964     mfc120u:mfc120u.dll
 0002:00000968       __imp_??4?$CStringT@DV?$StrTraitMFC_DLL@DV?$ChTraitsCRT@D@ATL@@@@@ATL@@QAEAAV01@PB_W@Z 10061968     mfc120u:mfc120u.dll
 0002:0000096c       __imp_?Empty@?$CSimpleStringT@_W$00@ATL@@QAEXXZ 1006196c     mfc120u:mfc120u.dll
 0002:00000970       __imp_?ReverseFind@?$CStringT@_WV?$StrTraitMFC_DLL@_WV?$ChTraitsCRT@_W@ATL@@@@@ATL@@QBEH_W@Z 10061970     mfc120u:mfc120u.dll
 0002:00000974       __imp_?Trim@?$CStringT@_WV?$StrTraitMFC_DLL@_WV?$ChTraitsCRT@_W@ATL@@@@@ATL@@QAEAAV12@XZ 10061974     mfc120u:mfc120u.dll
 0002:00000978       __imp_?Find@?$CStringT@_WV?$StrTraitMFC_DLL@_WV?$ChTraitsCRT@_W@ATL@@@@@ATL@@QBEHPB_WH@Z 10061978     mfc120u:mfc120u.dll
 0002:0000097c       __imp_?Mid@?$CStringT@_WV?$StrTraitMFC_DLL@_WV?$ChTraitsCRT@_W@ATL@@@@@ATL@@QBE?AV12@HH@Z 1006197c     mfc120u:mfc120u.dll
 0002:00000980       __imp_?SetTextColor@CDC@@UAEKK@Z 10061980     mfc120u:mfc120u.dll
 0002:00000984       __imp_?SetBkColor@CDC@@UAEKK@Z 10061984     mfc120u:mfc120u.dll
 0002:00000988       __imp_?FromHandle@CGdiObject@@SGPAV1@PAX@Z 10061988     mfc120u:mfc120u.dll
 0002:0000098c       __imp_?AfxThrowInvalidArgException@@YGXXZ 1006198c     mfc120u:mfc120u.dll
 0002:00000990       __imp_?Delete@CException@@QAEXXZ 10061990     mfc120u:mfc120u.dll
 0002:00000994       __imp_?GetFileData@COleDataObject@@QAEPAVCFile@@GPAUtagFORMATETC@@@Z 10061994     mfc120u:mfc120u.dll
 0002:00000998       __imp_?GetData@COleDataObject@@QAEHGPAUtagSTGMEDIUM@@PAUtagFORMATETC@@@Z 10061998     mfc120u:mfc120u.dll
 0002:0000099c       __imp_?IsDataAvailable@COleDataObject@@QAEHGPAUtagFORMATETC@@@Z 1006199c     mfc120u:mfc120u.dll
 0002:000009a0       __imp_?AttachClipboard@COleDataObject@@QAEHXZ 100619a0     mfc120u:mfc120u.dll
 0002:000009a4       __imp_?Release@COleDataObject@@QAEXXZ 100619a4     mfc120u:mfc120u.dll
 0002:000009a8       __imp_??0COleDataObject@@QAE@XZ 100619a8     mfc120u:mfc120u.dll
 0002:000009ac       __imp_?AfxThrowMemoryException@@YGXXZ 100619ac     mfc120u:mfc120u.dll
 0002:000009b0       __imp_?AfxThrowOleException@@YGXJ@Z 100619b0     mfc120u:mfc120u.dll
 0002:000009b4       __imp_?GetRuntimeClass@CBrush@@UBEPAUCRuntimeClass@@XZ 100619b4     mfc120u:mfc120u.dll
 0002:000009b8       __imp_??4?$CStringT@DV?$StrTraitMFC_DLL@DV?$ChTraitsCRT@D@ATL@@@@@ATL@@QAEAAV01@PBD@Z 100619b8     mfc120u:mfc120u.dll
 0002:000009bc       __imp_?ReleaseBuffer@?$CSimpleStringT@D$00@ATL@@QAEXH@Z 100619bc     mfc120u:mfc120u.dll
 0002:000009c0       __imp_?GetBuffer@?$CSimpleStringT@D$00@ATL@@QAEPADXZ 100619c0     mfc120u:mfc120u.dll
 0002:000009c4       __imp_??1?$CStringT@DV?$StrTraitMFC_DLL@DV?$ChTraitsCRT@D@ATL@@@@@ATL@@QAE@XZ 100619c4     mfc120u:mfc120u.dll
 0002:000009c8       __imp_??0?$CStringT@DV?$StrTraitMFC_DLL@DV?$ChTraitsCRT@D@ATL@@@@@ATL@@QAE@XZ 100619c8     mfc120u:mfc120u.dll
 0002:000009cc       __imp_??_U@YAPAXI@Z        100619cc     mfc120u:mfc120u.dll
 0002:000009d0       __imp_?Delete@CWinThread@@UAEXXZ 100619d0     mfc120u:mfc120u.dll
 0002:000009d4       __imp_?GetMainWnd@CWinThread@@UAEPAVCWnd@@XZ 100619d4     mfc120u:mfc120u.dll
 0002:000009d8       __imp_?ProcessMessageFilter@CWinThread@@UAEHHPAUtagMSG@@@Z 100619d8     mfc120u:mfc120u.dll
 0002:000009dc       __imp_?ProcessWndProcException@CWinThread@@UAEJPAVCException@@PBUtagMSG@@@Z 100619dc     mfc120u:mfc120u.dll
 0002:000009e0       __imp_?IsIdleMessage@CWinThread@@UAEHPAUtagMSG@@@Z 100619e0     mfc120u:mfc120u.dll
 0002:000009e4       __imp_?PumpMessage@CWinThread@@UAEHXZ 100619e4     mfc120u:mfc120u.dll
 0002:000009e8       __imp_?PreTranslateMessage@CWinThread@@UAEHPAUtagMSG@@@Z 100619e8     mfc120u:mfc120u.dll
 0002:000009ec       __imp_?Run@CWinThread@@UAEHXZ 100619ec     mfc120u:mfc120u.dll
 0002:000009f0       __imp_?GetInterfaceMap@CCmdTarget@@MBEPBUAFX_INTERFACEMAP@@XZ 100619f0     mfc120u:mfc120u.dll
 0002:000009f4       __imp_?OnFinalRelease@CCmdTarget@@UAEXXZ 100619f4     mfc120u:mfc120u.dll
 0002:000009f8       __imp_?AfxTryCleanup@@YGXXZ 100619f8     mfc120u:mfc120u.dll
 0002:000009fc       __imp_??0AFX_EXCEPTION_LINK@@QAE@XZ 100619fc     mfc120u:mfc120u.dll
 0002:00000a00       __imp_?GetThisMessageMap@CCmdTarget@@KGPBUAFX_MSGMAP@@XZ 10061a00     mfc120u:mfc120u.dll
 0002:00000a04       __imp_?ExitInstance@CWinThread@@UAEHXZ 10061a04     mfc120u:mfc120u.dll
 0002:00000a08       __imp_??1CWinThread@@UAE@XZ 10061a08     mfc120u:mfc120u.dll
 0002:00000a0c       __imp_??0CWinThread@@QAE@XZ 10061a0c     mfc120u:mfc120u.dll
 0002:00000a10       __imp_?GetThisClass@CWinThread@@SGPAUCRuntimeClass@@XZ 10061a10     mfc120u:mfc120u.dll
 0002:00000a14       __imp_?OnHideMenuBar@CFrameWnd@@MAEXXZ 10061a14     mfc120u:mfc120u.dll
 0002:00000a18       __imp_?OnShowMenuBar@CFrameWnd@@MAEXXZ 10061a18     mfc120u:mfc120u.dll
 0002:00000a1c       __imp_?ExitHelpMode@CFrameWnd@@UAEXXZ 10061a1c     mfc120u:mfc120u.dll
 0002:00000a20       __imp_?DelayUpdateFrameMenu@CFrameWnd@@UAEXPAUHMENU__@@@Z 10061a20     mfc120u:mfc120u.dll
 0002:00000a24       __imp_?GetDefaultAccelerator@CFrameWnd@@UAEPAUHACCEL__@@XZ 10061a24     mfc120u:mfc120u.dll
 0002:00000a28       __imp_?OnUpdateFrameMenu@CFrameWnd@@UAEXPAUHMENU__@@@Z 10061a28     mfc120u:mfc120u.dll
 0002:00000a2c       __imp_?OnUpdateFrameTitle@CFrameWnd@@UAEXH@Z 10061a2c     mfc120u:mfc120u.dll
 0002:00000a30       __imp_?GetAt@?$CSimpleStringT@_W$00@ATL@@QBE_WH@Z 10061a30     mfc120u:mfc120u.dll
 0002:00000a34       __imp_?OnCreateClient@CFrameWnd@@MAEHPAUtagCREATESTRUCTW@@PAUCCreateContext@@@Z 10061a34     mfc120u:mfc120u.dll
 0002:00000a38       __imp_?OnMenuBar@CHtmlView@@UAEXH@Z 10061a38     mfc120u:mfc120u.dll
 0002:00000a3c       __imp_?OnToolBar@CHtmlView@@UAEXH@Z 10061a3c     mfc120u:mfc120u.dll
 0002:00000a40       __imp_?OnDocumentComplete@CHtmlView@@UAEXPB_W@Z 10061a40     mfc120u:mfc120u.dll
 0002:00000a44       __imp_?OnPropertyChange@CHtmlView@@UAEXPB_W@Z 10061a44     mfc120u:mfc120u.dll
 0002:00000a48       __imp_?OnDownloadComplete@CHtmlView@@UAEXXZ 10061a48     mfc120u:mfc120u.dll
 0002:00000a4c       __imp_?OnDownloadBegin@CHtmlView@@UAEXXZ 10061a4c     mfc120u:mfc120u.dll
 0002:00000a50       __imp_?OnCommandStateChange@CHtmlView@@UAEXJH@Z 10061a50     mfc120u:mfc120u.dll
 0002:00000a54       __imp_?OnProgressChange@CHtmlView@@UAEXJJ@Z 10061a54     mfc120u:mfc120u.dll
 0002:00000a58       __imp_?OnStatusTextChange@CHtmlView@@UAEXPB_W@Z 10061a58     mfc120u:mfc120u.dll
 0002:00000a5c       __imp_?ExcludeClipRect@CDC@@QAEHHHHH@Z 10061a5c     mfc120u:mfc120u.dll
 0002:00000a60       __imp_?Navigate@CHtmlView@@QAEXPB_WK00PAXK@Z 10061a60     mfc120u:mfc120u.dll
 0002:00000a64       __imp_?OnWndMsg@CWnd@@MAEHIIJPAJ@Z 10061a64     mfc120u:mfc120u.dll
 0002:00000a68       __imp_?PostNcDestroy@CWnd@@MAEXXZ 10061a68     mfc120u:mfc120u.dll
 0002:00000a6c       __imp_?OnChildNotify@CWnd@@MAEHIIJPAJ@Z 10061a6c     mfc120u:mfc120u.dll
 0002:00000a70       __imp_?OnTouchInputs@CWnd@@MAEHIPAUtagTOUCHINPUT@@@Z 10061a70     mfc120u:mfc120u.dll
 0002:00000a74       __imp_?OnTouchInput@CWnd@@MAEHVCPoint@@HHPAUtagTOUCHINPUT@@@Z 10061a74     mfc120u:mfc120u.dll
 0002:00000a78       __imp_?GetGestureStatus@CWnd@@MAEKVCPoint@@@Z 10061a78     mfc120u:mfc120u.dll
 0002:00000a7c       __imp_?OnGestureZoom@CWnd@@MAEHVCPoint@@J@Z 10061a7c     mfc120u:mfc120u.dll
 0002:00000a80       __imp_?OnGesturePan@CWnd@@MAEHVCPoint@@0@Z 10061a80     mfc120u:mfc120u.dll
 0002:00000a84       __imp_?OnGestureRotate@CWnd@@MAEHVCPoint@@N@Z 10061a84     mfc120u:mfc120u.dll
 0002:00000a88       __imp_?OnGestureTwoFingerTap@CWnd@@MAEHVCPoint@@@Z 10061a88     mfc120u:mfc120u.dll
 0002:00000a8c       __imp_?OnGesturePressAndTap@CWnd@@MAEHVCPoint@@J@Z 10061a8c     mfc120u:mfc120u.dll
 0002:00000a90       __imp_?CheckAutoCenter@CWnd@@UAEHXZ 10061a90     mfc120u:mfc120u.dll
 0002:00000a94       __imp_?IsFrameWnd@CWnd@@UBEHXZ 10061a94     mfc120u:mfc120u.dll
 0002:00000a98       __imp_?OnFinalRelease@CWnd@@UAEXXZ 10061a98     mfc120u:mfc120u.dll
 0002:00000a9c       __imp_?CreateControlContainer@CWnd@@MAEHPAPAVCOleControlContainer@@@Z 10061a9c     mfc120u:mfc120u.dll
 0002:00000aa0       __imp_?CreateControlSite@CWnd@@MAEHPAVCOleControlContainer@@PAPAVCOleControlSite@@IABU_GUID@@@Z 10061aa0     mfc120u:mfc120u.dll
 0002:00000aa4       __imp_?SetOccDialogInfo@CWnd@@MAEHPAU_AFX_OCC_DIALOG_INFO@@@Z 10061aa4     mfc120u:mfc120u.dll
 0002:00000aa8       __imp_?GetOccDialogInfo@CWnd@@MAEPAU_AFX_OCC_DIALOG_INFO@@XZ 10061aa8     mfc120u:mfc120u.dll
 0002:00000aac       __imp_?AfxTermExtensionModule@@YGXAAUAFX_EXTENSION_MODULE@@H@Z 10061aac     mfc120u:mfc120u.dll
 0002:00000ab0       __imp_?AfxGetModuleState@@YGPAVAFX_MODULE_STATE@@XZ 10061ab0     mfc120u:mfc120u.dll
 0002:00000ab4       __imp_?AfxInitExtensionModule@@YGHAAUAFX_EXTENSION_MODULE@@PAUHINSTANCE__@@@Z 10061ab4     mfc120u:mfc120u.dll
 0002:00000ab8       __imp_??_V@YAXPAX@Z        10061ab8     mfc120u:mfc120u.dll
 0002:00000abc       __imp_??0CDynLinkLibrary@@QAE@AAUAFX_EXTENSION_MODULE@@H@Z 10061abc     mfc120u:mfc120u.dll
 0002:00000ac0       __imp_?OnCmdMsg@CCmdTarget@@UAEHIHPAXPAUAFX_CMDHANDLERINFO@@@Z 10061ac0     mfc120u:mfc120u.dll
 0002:00000ac4       __imp_?IsInvokeAllowed@CCmdTarget@@UAEHJ@Z 10061ac4     mfc120u:mfc120u.dll
 0002:00000ac8       __imp_?GetDispatchIID@CCmdTarget@@UAEHPAU_GUID@@@Z 10061ac8     mfc120u:mfc120u.dll
 0002:00000acc       __imp_?GetTypeInfoCount@CCmdTarget@@UAEIXZ 10061acc     mfc120u:mfc120u.dll
 0002:00000ad0       __imp_?GetTypeLibCache@CCmdTarget@@UAEPAVCTypeLibCache@@XZ 10061ad0     mfc120u:mfc120u.dll
 0002:00000ad4       __imp_?GetTypeLib@CCmdTarget@@UAEJKPAPAUITypeLib@@@Z 10061ad4     mfc120u:mfc120u.dll
 0002:00000ad8       __imp_?GetCommandMap@CCmdTarget@@MBEPBUAFX_OLECMDMAP@@XZ 10061ad8     mfc120u:mfc120u.dll
 0002:00000adc       __imp_?GetDispatchMap@CCmdTarget@@MBEPBUAFX_DISPMAP@@XZ 10061adc     mfc120u:mfc120u.dll
 0002:00000ae0       __imp_?GetConnectionMap@CCmdTarget@@MBEPBUAFX_CONNECTIONMAP@@XZ 10061ae0     mfc120u:mfc120u.dll
 0002:00000ae4       __imp_?GetEventSinkMap@CCmdTarget@@MBEPBUAFX_EVENTSINKMAP@@XZ 10061ae4     mfc120u:mfc120u.dll
 0002:00000ae8       __imp_?OnCreateAggregates@CCmdTarget@@UAEHXZ 10061ae8     mfc120u:mfc120u.dll
 0002:00000aec       __imp_?GetInterfaceHook@CCmdTarget@@UAEPAUIUnknown@@PBX@Z 10061aec     mfc120u:mfc120u.dll
 0002:00000af0       __imp_?GetExtraConnectionPoints@CCmdTarget@@MAEHPAVCPtrArray@@@Z 10061af0     mfc120u:mfc120u.dll
 0002:00000af4       __imp_?GetConnectionHook@CCmdTarget@@MAEPAUIConnectionPoint@@ABU_GUID@@@Z 10061af4     mfc120u:mfc120u.dll
 0002:00000af8       __imp_?MeasureItem@CMenu@@UAEXPAUtagMEASUREITEMSTRUCT@@@Z 10061af8     mfc120u:mfc120u.dll
 0002:00000afc       __imp_??3@YAXPAX@Z         10061afc     mfc120u:mfc120u.dll
 0002:00000b00       \177mfc120u_NULL_THUNK_DATA 10061b00     mfc120u:mfc120u.dll
 0002:00000b04       __imp__OleDuplicateData@12 10061b04     ole32:ole32.dll
 0002:00000b08       __imp__CreateStreamOnHGlobal@12 10061b08     ole32:ole32.dll
 0002:00000b0c       __imp__CLSIDFromString@8   10061b0c     ole32:ole32.dll
 0002:00000b10       __imp__ReleaseStgMedium@4  10061b10     ole32:ole32.dll
 0002:00000b14       \177ole32_NULL_THUNK_DATA  10061b14     ole32:ole32.dll
 0002:00000b18       ___xc_a                    10061b18     msvcrt:cinitexe.obj
 0002:00000b90       ___xc_z                    10061b90     msvcrt:cinitexe.obj
 0002:00000b94       ___xi_a                    10061b94     msvcrt:cinitexe.obj
 0002:00000ba0       ___xi_z                    10061ba0     msvcrt:cinitexe.obj
 0002:00000bec       ??_7type_info@@6B@         10061bec     msvcrt:ti_inst.obj
 0002:00000bf8       __pDefaultRawDllMain       10061bf8     msvcrt:crtdll.obj
 0002:00000bfc       _GUID_NULL                 10061bfc     uuid:cguid_i.obj
 0002:00000c0c       _GUID_ATLVer110            10061c0c     atls:atlbase.obj
 0002:00000c20       ??_C@_1IC@ONKHOIDK@?$AAE?$AAR?$AAR?$AAO?$AAR?$AA?5?$AA?3?$AA?5?$AAU?$AAn?$AAa?$AAb?$AAl?$AAe?$AA?5?$AAt?$AAo?$AA?5?$AAi?$AAn?$AAi?$AAt?$AAi?$AAa?$AAl?$AAi?$AAz?$AAe?$AA?5?$AAc?$AAr?$AAi@ 10061c20     atls:atlbase.obj
 0002:00000ca4       _ImageFormatPNG            10061ca4     gdiplus:imagingguds.obj
 0002:00000cb4       _ImageFormatBMP            10061cb4     gdiplus:imagingguds.obj
 0002:00000cc4       ??_C@_07DCLBNMLN@generic?$AA@ 10061cc4     dllmain.obj
 0002:00000ccc       ??_C@_0O@BFJCFAAK@unknown?5error?$AA@ 10061ccc     dllmain.obj
 0002:00000cdc       ??_C@_08LLGCOLLL@iostream?$AA@ 10061cdc     dllmain.obj
 0002:00000ce8       ??_C@_0BG@PADBLCHM@iostream?5stream?5error?$AA@ 10061ce8     dllmain.obj
 0002:00000d00       ??_C@_06FHFOAHML@system?$AA@ 10061d00     dllmain.obj
 0002:00000d08       ??_C@_1BO@NBGJACOC@?$AAT?$AAa?$AAs?$AAk?$AAb?$AAa?$AAr?$AAC?$AAr?$AAe?$AAa?$AAt?$AAe?$AAd?$AA?$AA@ 10061d08     dllmain.obj
 0002:00000d28       ??_C@_0BA@JFNIOLAK@string?5too?5long?$AA@ 10061d28     dllmain.obj
 0002:00000d38       ??_C@_0BI@CFPLBAOH@invalid?5string?5position?$AA@ 10061d38     dllmain.obj
 0002:00000d50       ??_C@_0BD@OLBABOEK@vector?$DMT?$DO?5too?5long?$AA@ 10061d50     dllmain.obj
 0002:00000d68       ??_7BNC_TempClient@@6B@    10061d68     dllmain.obj
 0002:00000f6c       ??_7BNC_RefTreeItemOption@@6B@ 10061f6c     dllmain.obj
 0002:00000f74       ??_7_Generic_error_category@std@@6B@ 10061f74     dllmain.obj
 0002:00000f90       ??_7BNC_Titlebar@@6B@      10061f90     dllmain.obj
 0002:00000fac       ??_7_System_error_category@std@@6B@ 10061fac     dllmain.obj
 0002:00000fc8       ??_7_Iostream_error_category@std@@6B@ 10061fc8     dllmain.obj
 0002:00000fe0       __pRawDllMain              10061fe0     dllmain.obj
 0002:000014f4       ??_7?$TSingleton@VBNC_BaseDialogTracer@@@baro@@6B@ 100624f4     dllmain.obj
 0002:000014fc       ??_7error_category@std@@6B@ 100624fc     dllmain.obj
 0002:00001514       ??_C@_0P@PEOKNKCC@BNC_BaseClient?$AA@ 10062514     BNC_BaseClient.obj
 0002:00001528       ??_7CRgn@@6B@              10062528     BNC_BaseClient.obj
 0002:00001540       ??_7CGdiObject@@6B@        10062540     BNC_BaseClient.obj
 0002:00001554       ??_C@_1BM@OLJBNBGC@?$AA?$CF?$AAs?$AA?5?$AA?$CI?$AA?$CF?$AAs?$AA?3?$AA?$CF?$AAd?$AA?$CJ?$AA?6?$AA?$CF?$AAs?$AA?$AA@ 10062554     BNC_BaseClient.obj
 0002:00001570       ??_C@_1KE@LHEIJHIM@?$AAC?$AA?3?$AA?2?$AAP?$AAr?$AAo?$AAg?$AAr?$AAa?$AAm?$AA?5?$AAF?$AAi?$AAl?$AAe?$AAs?$AA?5?$AA?$CI?$AAx?$AA8?$AA6?$AA?$CJ?$AA?2?$AAM?$AAi?$AAc?$AAr?$AAo?$AAs?$AAo?$AAf?$AAt@ 10062570     BNC_BaseClient.obj
 0002:00001614       ??_C@_1DO@DFDGGJKE@?$AAE?$AAx?$AAc?$AAe?$AAp?$AAt?$AAi?$AAo?$AAn?$AA?5?$AAt?$AAh?$AAr?$AAo?$AAw?$AAn?$AA?5?$AAi?$AAn?$AA?5?$AAd?$AAe?$AAs?$AAt?$AAr?$AAu?$AAc?$AAt?$AAo?$AAr?$AA?$AA@ 10062614     BNC_BaseClient.obj
 0002:00001654       ??_C@_1BG@FHMKPHGG@?$AA?$CF?$AAs?$AA?5?$AA?$CI?$AA?$CF?$AAs?$AA?3?$AA?$CF?$AAd?$AA?$CJ?$AA?$AA@ 10062654     BNC_BaseClient.obj
 0002:00001670       ??_7CBitmap@@6B@           10062670     BNC_BaseClient.obj
 0002:00001a3c       ??_7BNC_BaseClient@@6B@    10062a3c     BNC_BaseClient.obj
 0002:00001c3c       ?classBNC_BaseClient@BNC_BaseClient@@2UCRuntimeClass@@B 10062c3c     BNC_BaseClient.obj
 0002:00001c58       ??_C@_0BA@GHANLPDE@BNC_BaseControl?$AA@ 10062c58     BNC_BaseControl.obj
 0002:00001d94       ??_7BNC_BaseControl@@6B@   10062d94     BNC_BaseControl.obj
 0002:00001f0c       ?classBNC_BaseControl@BNC_BaseControl@@2UCRuntimeClass@@B 10062f0c     BNC_BaseControl.obj
 0002:00001f28       ??_C@_0P@EMNFFKPB@BNC_BaseDialog?$AA@ 10062f28     BNC_BaseDialog.obj
 0002:00001f38       ??_C@_19HGGOABND@?$AA?$CF?$AA0?$AA8?$AAx?$AA?$AA@ 10062f38     BNC_BaseDialog.obj
 0002:00001f44       ??_C@_1BO@LDOPOKDE@?$AAB?$AAN?$AAC?$AA_?$AAB?$AAa?$AAs?$AAe?$AAD?$AAi?$AAa?$AAl?$AAo?$AAg?$AA?$AA@ 10062f44     BNC_BaseDialog.obj
 0002:00001f64       ??_C@_19NGFMKOON@?$AA?$CF?$AA0?$AA8?$AAX?$AA?$AA@ 10062f64     BNC_BaseDialog.obj
 0002:00001f70       ??_C@_0BE@JONHPENG@map?1set?$DMT?$DO?5too?5long?$AA@ 10062f70     BNC_BaseDialog.obj
 0002:00001f88       ??_7CPen@@6B@              10062f88     BNC_BaseDialog.obj
 0002:0000251c       ??_7BNC_BaseDialog@@6B@    1006351c     BNC_BaseDialog.obj
 0002:0000274c       ?classBNC_BaseDialog@BNC_BaseDialog@@2UCRuntimeClass@@B 1006374c     BNC_BaseDialog.obj
 0002:00002768       ??_C@_11LOCGONAA@?$AA?$AA@ 10063768     BNC_BaseDialog.obj
 0002:00002770       ??_7BNC_BaseDialogTracer@@6B@ 10063770     BNC_BaseDialog.obj
 0002:00002774       ??_C@_1CC@CEMABMND@?$AAB?$AAN?$AAC?$AA_?$AAB?$AAa?$AAs?$AAe?$AAF?$AAl?$AAo?$AAa?$AAt?$AAi?$AAn?$AAg?$AA?$AA@ 10063774     BNC_BaseFloating.obj
 0002:0000287c       ??_7BNC_BaseFloating@@6B@  1006387c     BNC_BaseFloating.obj
 0002:00002aac       ??_C@_1CA@JFPAGFKJ@?$AAB?$AAN?$AAC?$AA_?$AAB?$AAa?$AAs?$AAe?$AAI?$AAn?$AAs?$AAt?$AAa?$AAn?$AAt?$AA?$AA@ 10063aac     BNC_BaseInstant.obj
 0002:00002bcc       ??_7BNC_BaseInstant@@6B@   10063bcc     BNC_BaseInstant.obj
 0002:00002e00       ??_C@_0BA@GIAPFFAK@BNC_BaseLayered?$AA@ 10063e00     BNC_BaseLayered.obj
 0002:00002e94       ??_7BNC_BaseLayered@@6B@   10063e94     BNC_BaseLayered.obj
 0002:00003030       ?classBNC_BaseLayered@BNC_BaseLayered@@2UCRuntimeClass@@B 10064030     BNC_BaseLayered.obj
 0002:0000304c       ??_C@_1BM@BPPBBNHL@?$AAB?$AAN?$AAC?$AA_?$AAB?$AAa?$AAs?$AAe?$AAM?$AAo?$AAd?$AAa?$AAl?$AA?$AA@ 1006404c     BNC_BaseModal.obj
 0002:000030ec       ??_7BNC_BaseModal@@6B@     100640ec     BNC_BaseModal.obj
 0002:00003320       ??_C@_1CC@LMACOFHM@?$AAB?$AAN?$AAC?$AA_?$AAB?$AAa?$AAs?$AAe?$AAM?$AAo?$AAd?$AAa?$AAl?$AAe?$AAs?$AAs?$AA?$AA@ 10064320     BNC_BaseModaless.obj
 0002:000033e4       ??_7BNC_BaseModaless@@6B@  100643e4     BNC_BaseModaless.obj
 0002:00003614       ??_C@_1CA@OFIIGJJF@?$AAB?$AAN?$AAC?$AA_?$AAB?$AAa?$AAs?$AAe?$AAO?$AAv?$AAe?$AAr?$AAl?$AAa?$AAy?$AA?$AA@ 10064614     BNC_BaseOverlay.obj
 0002:000036ec       ??_7BNC_BaseOverlay@@6B@   100646ec     BNC_BaseOverlay.obj
 0002:0000391c       ??_C@_1BG@JFAOHJMP@?$AA?$FL?$AA?$CF?$AAd?$AA?3?$AA?$CF?$AAd?$AA?$FN?$AA?5?$AA?$CF?$AAs?$AA?$AA@ 1006491c     BNC_BaseRefItemControl.obj
 0002:00003934       ??_C@_13HOIJIPNN@?$AA?5?$AA?$AA@ 10064934     BNC_BaseRefItemControl.obj
 0002:00003a04       ??_7BNC_BaseRefItemControl@@6B@ 10064a04     BNC_BaseRefItemControl.obj
 0002:00003b94       ??_C@_1BA@JGOAENHN@?$AA?$CF?$AAd?$AA?5?$AA?3?$AA?5?$AA?$CF?$AAd?$AA?$AA@ 10064b94     BNC_BaseRefItemControlEx.obj
 0002:00003c8c       ??_7BNC_BaseRefItemControlEx@@6B@ 10064c8c     BNC_BaseRefItemControlEx.obj
 0002:00003e2c       ??_C@_0BD@EHFFAEEF@BNC_BaseSliderCtrl?$AA@ 10064e2c     BNC_BaseSliderCtrl.obj
 0002:00003ec4       ??_7BNC_BaseSliderCtrl@@6B@ 10064ec4     BNC_BaseSliderCtrl.obj
 0002:0000403c       ?classBNC_BaseSliderCtrl@BNC_BaseSliderCtrl@@2UCRuntimeClass@@B 1006503c     BNC_BaseSliderCtrl.obj
 0002:00004058       ??_C@_1BA@EHPJIMJC@?$AAN?$AAo?$AA?5?$AAD?$AAa?$AAt?$AAa?$AA?$AA@ 10065058     BNC_DummyListView.obj
 0002:00004068       ??_C@_1CC@POMGGGDF@?$AAO?$AAn?$AAD?$AAr?$AAa?$AAw?$AAB?$AAa?$AAc?$AAk?$AAg?$AAr?$AAo?$AAu?$AAn?$AAd?$AA?$AA@ 10065068     BNC_DummyListView.obj
 0002:000040e4       ??_7BNC_DummyListView@@6B@ 100650e4     BNC_DummyListView.obj
 0002:000042f0       ??_C@_13JOFGPIOO@?$AA?4?$AA?$AA@ 100652f0     BNC_EditboxEx.obj
 0002:000042f4       ??_C@_15DDHGOCBH@?$AA?4?$AA?4?$AA?$AA@ 100652f4     BNC_EditboxEx.obj
 0002:000042fc       ??_C@_17LGKOMLJ@?$AA?4?$AA?4?$AA?4?$AA?$AA@ 100652fc     BNC_EditboxEx.obj
 0002:00004434       ??_7CFont@@6B@             10065434     BNC_EditboxEx.obj
 0002:0000444c       ??_7BNC_EditboxEx@@6B@     1006544c     BNC_EditboxEx.obj
 0002:00004688       ??_7BNC_HtmlBrowser@@6B@   10065688     BNC_HtmlBrowser.obj
 0002:00004888       ??_C@_1BC@DNCDLHCK@?$AAR?$AAe?$AAf?$AAe?$AAr?$AAe?$AAr?$AA?3?$AA?$AA@ 10065888     BNC_HtmlBrowserClient.obj
 0002:0000489c       ??_C@_1BA@GBHGOCBB@?$AAh?$AAt?$AAt?$AAp?$AA?3?$AA?1?$AA?1?$AA?$AA@ 1006589c     BNC_HtmlBrowserClient.obj
 0002:000048ac       ??_C@_1BC@LDHIGNHP@?$AAh?$AAt?$AAt?$AAp?$AAs?$AA?3?$AA?1?$AA?1?$AA?$AA@ 100658ac     BNC_HtmlBrowserClient.obj
 0002:000048c0       ??_C@_19PILPHEJF@?$AAw?$AAw?$AAw?$AA?4?$AA?$AA@ 100658c0     BNC_HtmlBrowserClient.obj
 0002:000048cc       ??_C@_13CMNBPIDO@?$AA?$AN?$AA?$AA@ 100658cc     BNC_HtmlBrowserClient.obj
 0002:000048d0       ??_C@_13LBAGMAIH@?$AA?6?$AA?$AA@ 100658d0     BNC_HtmlBrowserClient.obj
 0002:000048d4       ??_C@_0BG@BHIIJHDH@BNC_HtmlBrowserClient?$AA@ 100658d4     BNC_HtmlBrowserClient.obj
 0002:000048f0       ??_7?$_LaunchPad@V?$_Bind@$0A@XV<lambda_a5b0efdf5ad7d873a596f4e45feb52e1>@@$$$V@std@@@std@@6B@ 100658f0     BNC_HtmlBrowserClient.obj
 0002:00004964       ??_7BNC_HtmlBrowserClient@@6B@ 10065964     BNC_HtmlBrowserClient.obj
 0002:00004bbc       ?classBNC_HtmlBrowserClient@BNC_HtmlBrowserClient@@2UCRuntimeClass@@B 10065bbc     BNC_HtmlBrowserClient.obj
 0002:00004bd8       ??_C@_0BF@MPAPNJHH@BNC_HtmlBrowserFrame?$AA@ 10065bd8     BNC_HtmlBrowserFrame.obj
 0002:00004c14       ??_7BNC_HtmlBrowserFrame@@6B@ 10065c14     BNC_HtmlBrowserFrame.obj
 0002:00004dd8       ?classBNC_HtmlBrowserFrame@BNC_HtmlBrowserFrame@@2UCRuntimeClass@@B 10065dd8     BNC_HtmlBrowserFrame.obj
 0002:00004df4       ??_C@_0BG@HIMOIEJO@BNC_HtmlBrowserThread?$AA@ 10065df4     BNC_HtmlBrowserThread.obj
 0002:00004eac       ??_7BNC_HtmlBrowserThread@@6B@ 10065eac     BNC_HtmlBrowserThread.obj
 0002:00004f30       ?classBNC_HtmlBrowserThread@BNC_HtmlBrowserThread@@2UCRuntimeClass@@B 10065f30     BNC_HtmlBrowserThread.obj
 0002:00004f50       ??_7BNC_RefListView@@6B@   10065f50     BNC_RefListView.obj
 0002:000051cc       ??_7BNC_RefListViewEx@@6B@ 100661cc     BNC_RefListViewEx.obj
 0002:0000542c       ??_7BNC_RefTreeView@@6B@   1006642c     BNC_RefTreeView.obj
 0002:0000563c       ??_7CBrush@@6B@            1006663c     BNC_BorderessProc.obj
 0002:00005650       ??_C@_1BE@HLDDDEJK@?$AAi?$AAm?$AAa?$AAg?$AAe?$AA?1?$AAp?$AAn?$AAg?$AA?$AA@ 10066650     BNC_ClipboardImage.obj
 0002:00005664       ??_C@_1BE@OPHBPEE@?$AAi?$AAm?$AAa?$AAg?$AAe?$AA?1?$AAb?$AAm?$AAp?$AA?$AA@ 10066664     BNC_ClipboardImage.obj
 0002:0000567c       ??_7CImage@ATL@@6B@        1006667c     BNC_ClipboardImage.obj
 0002:00005684       ??_7Bitmap@Gdiplus@@6B@    10066684     BNC_ClipboardImage.obj
 0002:00005690       ??_7Image@Gdiplus@@6B@     10066690     BNC_ClipboardImage.obj
 0002:00005698       ??_C@_1CO@LPMMIOJA@?$AAi?$AAm?$AAa?$AAg?$AAe?$AA?1?$AAx?$AA?9?$AAw?$AAi?$AAn?$AAd?$AAo?$AAw?$AAs?$AA?9?$AAb?$AAi?$AAt?$AAm?$AAa?$AAp?$AA?$AA@ 10066698     BNC_ClipboardImageOLE.obj
 0002:000056c8       ??_C@_1BO@GIDBABLF@?$AAW?$AAi?$AAn?$AAd?$AAo?$AAw?$AAs?$AA?5?$AAB?$AAi?$AAt?$AAm?$AAa?$AAp?$AA?$AA@ 100666c8     BNC_ClipboardImageOLE.obj
 0002:000056e8       ??_C@_17IJKOPDBG@?$AAB?$AAM?$AAP?$AA?$AA@ 100666e8     BNC_ClipboardImageOLE.obj
 0002:000056f0       ??_C@_1BG@HMCFDPAP@?$AAi?$AAm?$AAa?$AAg?$AAe?$AA?1?$AAt?$AAi?$AAf?$AAf?$AA?$AA@ 100666f0     BNC_ClipboardImageOLE.obj
 0002:00005708       ??_C@_19PNCGIGON@?$AAT?$AAI?$AAF?$AAF?$AA?$AA@ 10066708     BNC_ClipboardImageOLE.obj
 0002:00005714       ??_C@_17PMGKNIMI@?$AAP?$AAN?$AAG?$AA?$AA@ 10066714     BNC_ClipboardImageOLE.obj
 0002:0000571c       ??_C@_1BE@KIPEFLHF@?$AAi?$AAm?$AAa?$AAg?$AAe?$AA?1?$AAg?$AAi?$AAf?$AA?$AA@ 1006671c     BNC_ClipboardImageOLE.obj
 0002:00005730       ??_C@_17CPKNLHCH@?$AAG?$AAI?$AAF?$AA?$AA@ 10066730     BNC_ClipboardImageOLE.obj
 0002:00005738       ??_C@_1BG@BIJOLBJP@?$AAi?$AAm?$AAa?$AAg?$AAe?$AA?1?$AAj?$AAp?$AAe?$AAg?$AA?$AA@ 10066738     BNC_ClipboardImageOLE.obj
 0002:00005750       ??_C@_19JJJNAIHN@?$AAJ?$AAP?$AAE?$AAG?$AA?$AA@ 10066750     BNC_ClipboardImageOLE.obj
 0002:0000575c       ??_C@_17CIMNJGMA@?$AAJ?$AAP?$AAG?$AA?$AA@ 1006675c     BNC_ClipboardImageOLE.obj
 0002:00005764       ??_C@_19LJDFFCJJ@?$AA?$CF?$AAs?$AA?$CF?$AAs?$AA?$AA@ 10066764     BNC_DrawObject.obj
 0002:00005774       ??_7BNC_DrawObject@@6B@    10066774     BNC_DrawObject.obj
 0002:0000577c       ??_C@_1BG@LAAOHFHJ@?$AAd?$AAw?$AAm?$AAa?$AAp?$AAi?$AA?4?$AAd?$AAl?$AAl?$AA?$AA@ 1006677c     BNC_DwmColorControl.obj
 0002:00005794       ??_C@_1BI@PDJBBAGO@?$AAu?$AAx?$AAt?$AAh?$AAe?$AAm?$AAe?$AA?4?$AAd?$AAl?$AAl?$AA?$AA@ 10066794     BNC_DwmColorControl.obj
 0002:000057ac       ??_C@_0BH@MACJBLBF@GetUserColorPreference?$AA@ 100667ac     BNC_DwmColorControl.obj
 0002:000057c8       ??_C@_1HE@GBGIDKJO@?$AAS?$AAO?$AAF?$AAT?$AAW?$AAA?$AAR?$AAE?$AA?2?$AAM?$AAi?$AAc?$AAr?$AAo?$AAs?$AAo?$AAf?$AAt?$AA?2?$AAW?$AAi?$AAn?$AAd?$AAo?$AAw?$AAs?$AA?2?$AAC?$AAu?$AAr?$AAr?$AAe@ 100667c8     BNC_DwmColorControl.obj
 0002:0000583c       ??_C@_1DO@DNLBGBDH@?$AAU?$AAs?$AAe?$AAN?$AAe?$AAw?$AAA?$AAu?$AAt?$AAo?$AAC?$AAo?$AAl?$AAo?$AAr?$AAA?$AAc?$AAc?$AAe?$AAn?$AAt?$AAA?$AAl?$AAg?$AAo?$AAr?$AAi?$AAt?$AAh?$AAm?$AA?$AA@ 1006683c     BNC_DwmColorControl.obj
 0002:0000587c       ??_C@_0BI@MNCFCPFK@RegCreateKeyTransactedW?$AA@ 1006687c     BNC_DwmColorControl.obj
 0002:00005894       ??_C@_1BK@BIGILECK@?$AAA?$AAd?$AAv?$AAa?$AAp?$AAi?$AA3?$AA2?$AA?4?$AAd?$AAl?$AAl?$AA?$AA@ 10066894     BNC_DwmColorControl.obj
 0002:000058b0       ??_C@_0BG@EKFFMJIO@RegOpenKeyTransactedW?$AA@ 100668b0     BNC_DwmColorControl.obj
 0002:000058cc       ??_7?$_Ref_count_obj@VBNC_FakeRect@@@std@@6B@ 100668cc     BNC_FakeBtnSet.obj
 0002:000058e0       ??_7_Ref_count_base@std@@6B@ 100668e0     BNC_FakeBtnSet.obj
 0002:000058f4       ??_7LinearGradientBrush@Gdiplus@@6B@ 100668f4     BNC_Graphics.obj
 0002:00005900       ??_7Brush@Gdiplus@@6B@     10066900     BNC_Graphics.obj
 0002:0000590c       ??_7PathGradientBrush@Gdiplus@@6B@ 1006690c     BNC_Graphics.obj
 0002:00005914       ??_C@_13MOEPKPHB@?$AA?$DO?$AA?$AA@ 10066914     BNC_HtmlMetaInfo.obj
 0002:00005918       ??_C@_1BC@CCFFLNAJ@?$AAc?$AAo?$AAn?$AAt?$AAe?$AAn?$AAt?$AA?$DN?$AA?$AA@ 10066918     BNC_HtmlMetaInfo.obj
 0002:0000592c       ??_C@_13NEIAEHFG@?$AA?$CC?$AA?$AA@ 1006692c     BNC_HtmlMetaInfo.obj
 0002:00005930       ??_C@_13ODFOLHGE@?$AA?8?$AA?$AA@ 10066930     BNC_HtmlMetaInfo.obj
 0002:00005934       ??_C@_19NNDKDCM@?$AAh?$AAt?$AAt?$AAp?$AA?$AA@ 10066934     BNC_HtmlMetaInfo.obj
 0002:00005940       ??_C@_1BE@CPPICAHN@?$AAh?$AAt?$AAt?$AAp?$AA?3?$AA?1?$AA?1?$AA?$CF?$AAs?$AA?$AA@ 10066940     BNC_HtmlMetaInfo.obj
 0002:00005954       ??_C@_15EAJGFGNH@?$AA?1?$AA?1?$AA?$AA@ 10066954     BNC_HtmlMetaInfo.obj
 0002:0000595c       ??_C@_19IMNOLHKF@?$AA?1?$AA?1?$AA?1?$AA?1?$AA?$AA@ 1006695c     BNC_HtmlMetaInfo.obj
 0002:00005968       ??_C@_1BK@JKJOCJMN@?$AAw?$AAe?$AAb?$AAL?$AAi?$AAn?$AAk?$AAI?$AAm?$AAa?$AAg?$AAe?$AA?$AA@ 10066968     BNC_HtmlMetaInfo.obj
 0002:00005984       ??_C@_06DFLDJKHK@euc?9kr?$AA@ 10066984     BNC_HtmlMetaInfo.obj
 0002:0000598c       ??_C@_05CAMHEFLG@utf?98?$AA@ 1006698c     BNC_HtmlMetaInfo.obj
 0002:00005994       ??_C@_06JBKKOLJG@EUC?9KR?$AA@ 10066994     BNC_HtmlMetaInfo.obj
 0002:0000599c       ??_C@_05EGJIMALK@UTF?98?$AA@ 1006699c     BNC_HtmlMetaInfo.obj
 0002:000059a4       ??_C@_1M@LKLJMNME@?$AA?$DM?$AAh?$AAt?$AAm?$AAl?$AA?$AA@ 100669a4     BNC_HtmlMetaInfo.obj
 0002:000059b0       ??_C@_1M@KLAMAGEK@?$AA?$DM?$AAH?$AAT?$AAM?$AAL?$AA?$AA@ 100669b0     BNC_HtmlMetaInfo.obj
 0002:000059bc       ??_C@_1M@LINOBEOF@?$AA?$DM?$AAh?$AAe?$AAa?$AAd?$AA?$AA@ 100669bc     BNC_HtmlMetaInfo.obj
 0002:000059c8       ??_C@_1M@KJGLNPGL@?$AA?$DM?$AAH?$AAE?$AAA?$AAD?$AA?$AA@ 100669c8     BNC_HtmlMetaInfo.obj
 0002:000059d4       ??_C@_1O@ELMFBBE@?$AAo?$AAg?$AA?3?$AAu?$AAr?$AAl?$AA?$AA@ 100669d4     BNC_HtmlMetaInfo.obj
 0002:000059e4       ??_C@_1BC@GFGDHFBM@?$AAo?$AAg?$AA?3?$AAt?$AAi?$AAt?$AAl?$AAe?$AA?$AA@ 100669e4     BNC_HtmlMetaInfo.obj
 0002:000059f8       ??_C@_1BO@CILDHJCJ@?$AAo?$AAg?$AA?3?$AAd?$AAe?$AAs?$AAc?$AAr?$AAi?$AAp?$AAt?$AAi?$AAo?$AAn?$AA?$AA@ 100669f8     BNC_HtmlMetaInfo.obj
 0002:00005a18       ??_C@_1BC@KAKDPGPI@?$AAo?$AAg?$AA?3?$AAi?$AAm?$AAa?$AAg?$AAe?$AA?$AA@ 10066a18     BNC_HtmlMetaInfo.obj
 0002:00005a2c       ??_C@_13GEEGGHPK@?$AA?$DM?$AA?$AA@ 10066a2c     BNC_HtmlMetaInfo.obj
 0002:00005a30       ??_C@_1BA@DDGNMJCL@?$AA?$DM?$AAt?$AAi?$AAt?$AAl?$AAe?$AA?$DO?$AA?$AA@ 10066a30     BNC_HtmlMetaInfo.obj
 0002:00005a40       ??_C@_1BK@EDHNJNAD@?$AA?1?$AAf?$AAa?$AAv?$AAi?$AAc?$AAo?$AAn?$AA?4?$AAi?$AAc?$AAo?$AA?$AA@ 10066a40     BNC_HtmlMetaInfo.obj
 0002:00005a5c       ??_C@_1BM@EOODOEEL@?$AAs?$AAh?$AAo?$AAr?$AAt?$AAc?$AAu?$AAt?$AA?5?$AAi?$AAc?$AAo?$AAn?$AA?$AA@ 10066a5c     BNC_HtmlMetaInfo.obj
 0002:00005a78       ??_C@_19HGEEHDNG@?$AAh?$AAr?$AAe?$AAf?$AA?$AA@ 10066a78     BNC_HtmlMetaInfo.obj
 0002:00005a84       ??_C@_1M@BMCPBECH@?$AAh?$AAr?$AAe?$AAf?$AA?$DN?$AA?$AA@ 10066a84     BNC_HtmlMetaInfo.obj
 0002:00005a90       ??_C@_13NMPKAAJP@?$AA?$DN?$AA?$AA@ 10066a90     BNC_HtmlMetaInfo.obj
 0002:00005a94       ??_C@_13CGOKJPIL@?$AA?1?$AA?$AA@ 10066a94     BNC_HtmlMetaInfo.obj
 0002:00005a98       ??_C@_1M@OJHIIMOK@?$AAh?$AAt?$AAt?$AAp?$AA?3?$AA?$AA@ 10066a98     BNC_HtmlMetaInfo.obj
 0002:00005aa4       ??_C@_1O@MBEEINAP@?$AAh?$AAt?$AAt?$AAp?$AA?3?$AA?2?$AA?$AA@ 10066aa4     BNC_HtmlMetaInfo.obj
 0002:00005ab4       ??_C@_17KJGEILJK@?$AA2?$AA0?$AA0?$AA?$AA@ 10066ab4     BNC_HtmlMetaInfo.obj
 0002:00005abc       ??_C@_02GMLFBBN@wb?$AA@    10066abc     BNC_HtmlMetaInfo.obj
 0002:00005ac0       ??_C@_1O@ENEDKBKF@?$AA?$CF?$AAs?$AA?2?$AA?$CF?$AAs?$AAI?$AA?$AA@ 10066ac0     BNC_HtmlMetaInfo.obj
 0002:00005ad0       ??_C@_1O@BFCALBPD@?$AA?$CF?$AAs?$AA?2?$AA?$CF?$AAs?$AAF?$AA?$AA@ 10066ad0     BNC_HtmlMetaInfo.obj
 0002:00005ae0       ??_C@_1BE@OEMPOBAD@?$AA?$CF?$AAs?$AA?2?$AA?$CF?$AAs?$AA?4?$AAi?$AAc?$AAo?$AA?$AA@ 10066ae0     BNC_HtmlMetaInfo.obj
 0002:00005af4       ??_C@_19CDGLJBOD@?$AA?4?$AAc?$AAo?$AAm?$AA?$AA@ 10066af4     BNC_HyperLink.obj
 0002:00005b00       ??_C@_19DEOELPEB@?$AA?4?$AAn?$AAe?$AAt?$AA?$AA@ 10066b00     BNC_HyperLink.obj
 0002:00005b0c       ??_C@_19KEDBHFIN@?$AA?4?$AAo?$AAr?$AAg?$AA?$AA@ 10066b0c     BNC_HyperLink.obj
 0002:00005b18       ??_C@_17NFCEMHHM@?$AA?4?$AAk?$AAr?$AA?$AA@ 10066b18     BNC_HyperLink.obj
 0002:00005b20       ??_C@_17MOLDELEH@?$AA?4?$AAm?$AAe?$AA?$AA@ 10066b20     BNC_HyperLink.obj
 0002:00005b28       ??_C@_17KIMGOAGF@?$AA?4?$AAt?$AAv?$AA?$AA@ 10066b28     BNC_HyperLink.obj
 0002:00005b30       ??_C@_17JLAEMKFD@?$AA?4?$AAc?$AAo?$AA?$AA@ 10066b30     BNC_HyperLink.obj
 0002:00005b38       ??_C@_1M@IKAGFDBH@?$AA?4?$AAw?$AAi?$AAk?$AAi?$AA?$AA@ 10066b38     BNC_HyperLink.obj
 0002:00005b44       ??_C@_17CDLIKNDG@?$AA?4?$AAc?$AAn?$AA?$AA@ 10066b44     BNC_HyperLink.obj
 0002:00005b4c       ??_C@_17OJLMBKIP@?$AA?4?$AAd?$AAe?$AA?$AA@ 10066b4c     BNC_HyperLink.obj
 0002:00005b54       ??_C@_17HCPJJOLF@?$AA?4?$AAe?$AAu?$AA?$AA@ 10066b54     BNC_HyperLink.obj
 0002:00005b5c       ??_C@_17GJLKNEKC@?$AA?4?$AAf?$AAr?$AA?$AA@ 10066b5c     BNC_HyperLink.obj
 0002:00005b64       ??_C@_17HOKBKNMH@?$AA?4?$AAh?$AAk?$AA?$AA@ 10066b64     BNC_HyperLink.obj
 0002:00005b6c       ??_C@_17ICCDIOFA@?$AA?4?$AAi?$AAn?$AA?$AA@ 10066b6c     BNC_HyperLink.obj
 0002:00005b74       ??_C@_17LEHBNMFC@?$AA?4?$AAj?$AAp?$AA?$AA@ 10066b74     BNC_HyperLink.obj
 0002:00005b7c       ??_C@_17FNGGOACH@?$AA?4?$AAs?$AAg?$AA?$AA@ 10066b7c     BNC_HyperLink.obj
 0002:00005b84       ??_C@_17FEEEMDPC@?$AA?4?$AAu?$AAs?$AA?$AA@ 10066b84     BNC_HyperLink.obj
 0002:00005b8c       ??_C@_17MBOJLMIC@?$AA?4?$AAu?$AAk?$AA?$AA@ 10066b8c     BNC_HyperLink.obj
 0002:00005b94       ??_C@_19PEFGBNEG@?$AA?4?$AAb?$AAi?$AAz?$AA?$AA@ 10066b94     BNC_HyperLink.obj
 0002:00005ba0       ??_C@_1M@CAFBKHFH@?$AA?4?$AAi?$AAn?$AAf?$AAo?$AA?$AA@ 10066ba0     BNC_HyperLink.obj
 0002:00005bac       ??_C@_19BKGOBHNH@?$AA?4?$AAe?$AAd?$AAu?$AA?$AA@ 10066bac     BNC_HyperLink.obj
 0002:00005bb8       ??_C@_19BHBAHPON@?$AA?4?$AAh?$AAt?$AAm?$AA?$AA@ 10066bb8     BNC_HyperLink.obj
 0002:00005bc4       ??_C@_1M@FKJKLOKH@?$AA?4?$AAh?$AAt?$AAm?$AAl?$AA?$AA@ 10066bc4     BNC_HyperLink.obj
 0002:00005bd0       ??_C@_1O@JBPIDKIK@?$AAf?$AAt?$AAp?$AA?3?$AA?1?$AA?1?$AA?$AA@ 10066bd0     BNC_HyperLink.obj
 0002:00005be0       ??_C@_17IAHLGHKI@?$AA?3?$AA?1?$AA?1?$AA?$AA@ 10066be0     BNC_HyperLink.obj
 0002:00005be8       ??_C@_19KCDDCFNP@?$AA?$CI?$AA?$CF?$AAc?$AA?$CJ?$AA?$AA@ 10066be8     BNC_PopupMenuItem.obj
 0002:00005bf8       ??_7BNC_ReferenceItem@@6B@ 10066bf8     BNC_ReferenceItem.obj
 0002:00005bfc       ??_C@_0BG@EOMJEIFA@vector?$DMbool?$DO?5too?5long?$AA@ 10066bfc     BNC_ReferenceItemEx.obj
 0002:00005c18       ??_7BNC_ReferenceItemEx@@6B@ 10066c18     BNC_ReferenceItemEx.obj
 0002:00005c20       ??_7BNC_ReferenceItemExOptionLine@@6B@ 10066c20     BNC_ReferenceItemEx.obj
 0002:00005c24       ??_C@_15JNBOKNOG@?$AA?$AN?$AA?6?$AA?$AA@ 10066c24     BNC_ReferenceItemExOption.obj
 0002:00005c30       ??_7BNC_ReferenceItemExOption@@6B@ 10066c30     BNC_ReferenceItemExOption.obj
 0002:00005c34       ??_C@_1BE@IDELAEDG@?Gt?$LL?x?I?$MA?$LI?2?$AA?5?$LN?$JJ?E?l?$LB?$CD?$KO0?$AA?$AA@ 10066c34     BNC_StaticObject.obj
 0002:00005c48       ??_C@_1BE@LEGFCIMO@?QM?B?$KE?R?$LI?$LI?2?$AA?5?$LN?$JJ?E?l?$LB?$CD?$KO0?$AA?$AA@ 10066c48     BNC_StaticObject.obj
 0002:00005c60       ??_7BNC_SyncRect@@6B@      10066c60     BNC_SyncRect.obj
 0002:00005c68       ??_7BNC_TransparentAnimation@@6B@ 10066c68     BNC_TransparentAnimation.obj
 0002:00005d80       ??_C@_00CNPNBAHC@?$AA@     10066d80     BNC_Button.obj
 0002:00005d88       ??_7BNC_Button@@6B@        10066d88     BNC_Button.obj
 0002:00005f04       ??_C@_15KNBIKKIN@?$AA?$CF?$AAd?$AA?$AA@ 10066f04     BNC_ButtonEx.obj
 0002:00005f48       ??_7BNC_ButtonEx@@6B@      10066f48     BNC_ButtonEx.obj
 0002:000061ac       ??_7BNC_DummyListControl@@6B@ 100671ac     BNC_DummyListControl.obj
 0002:00006324       ??_C@_08HFLMDOPJ@BNC_Edit?$AA@ 10067324     BNC_Edit.obj
 0002:0000645c       ??_7BNC_Edit@@6B@          1006745c     BNC_Edit.obj
 0002:000065c4       ?classBNC_Edit@BNC_Edit@@2UCRuntimeClass@@B 100675c4     BNC_Edit.obj
 0002:000066dc       ??_7BNC_Editbox@@6B@       100676dc     BNC_Editbox.obj
 0002:00006858       ??_C@_1BM@MECIFHPD@?$AAB?$AAN?$AAC?$AA_?$AAF?$AAa?$AAk?$AAe?$AAM?$AAo?$AAd?$AAa?$AAl?$AA?$AA@ 10067858     BNC_FakeModal.obj
 0002:000068cc       ??_7BNC_FakeModal@@6B@     100678cc     BNC_FakeModal.obj
 0002:00006afc       ??_C@_1CI@BCHJGIE@?$AAB?$AAN?$AAC?$AA_?$AAF?$AAl?$AAo?$AAa?$AAt?$AAi?$AAn?$AAg?$AAM?$AAe?$AAs?$AAs?$AAa?$AAg?$AAe?$AA?$AA@ 10067afc     BNC_FloatingButton.obj
 0002:00006bf4       ??_7BNC_FloatingButton@@6B@ 10067bf4     BNC_FloatingButton.obj
 0002:00006e7c       ??_7BNC_RefListControl@@6B@ 10067e7c     BNC_RefListControl.obj
 0002:00007064       ??_7BNC_RefListControlEx@@6B@ 10068064     BNC_RefListControlEx.obj
 0002:00007204       ??_C@_13COJANIEC@?$AA0?$AA?$AA@ 10068204     BNC_RefTreeControl.obj
 0002:0000720c       ??_7BNC_RefTreeControl@@6B@ 1006820c     BNC_RefTreeControl.obj
 0002:0000739c       ??_C@_0BA@KAONDIDN@BNC_RichEditbox?$AA@ 1006839c     BNC_RichEditbox.obj
 0002:000073ac       ??_C@_1BE@JNMBHJIE@?B?d?U?$IJ?$AA?5?M?h?A?$IM?$AA?$CI?$AA?$CG?$AAU?$AA?$CJ?$AA?$AA@ 100683ac     BNC_RichEditbox.obj
 0002:000073c0       ??_C@_1BC@KBMOABEO@?G?$JI?$LH?$HM?$LA?$LE?$KO0?$AA?$CI?$AA?$CG?$AAT?$AA?$CJ?$AA?$AA@ 100683c0     BNC_RichEditbox.obj
 0002:000073d4       ??_C@_1O@BFGCKAFL@?$LM?u?$MA?$KM?$AA?$CI?$AA?$CG?$AAC?$AA?$CJ?$AA?$AA@ 100683d4     BNC_RichEditbox.obj
 0002:000073e4       ??_C@_1BM@JMCHNCHF@?QM?B?$KE?R?$LI?$LI?2?$AA?5?$LN?$JJ?E?l?$LB?$CD?$KO0?$AA?$CI?$AA?$CG?$AAP?$AA?$CJ?$AA?$AA@ 100683e4     BNC_RichEditbox.obj
 0002:00007400       ??_C@_1BM@JGBDIOLC@?Gt?$LL?x?I?$MA?$LI?2?$AA?5?$LN?$JJ?E?l?$LB?$CD?$KO0?$AA?$CI?$AA?$CG?$AAP?$AA?$CJ?$AA?$AA@ 10068400     BNC_RichEditbox.obj
 0002:0000741c       ??_C@_1O@PCFGDIJG@?$MA?$KN?H?$BM?$AA?$CI?$AA?$CG?$AAD?$AA?$CJ?$AA?$AA@ 1006841c     BNC_RichEditbox.obj
 0002:0000742c       ??_C@_1BE@HKNOEKI@?$LK?$KI?$LEP?$AA?5?A?5?P?$NN?$AA?$CI?$AA?$CG?$AAA?$AA?$CJ?$AA?$AA@ 1006842c     BNC_RichEditbox.obj
 0002:00007444       ??_7CMenu@@6B@             10068444     BNC_RichEditbox.obj
 0002:00007634       ??_7BNC_RichEditbox@@6B@   10068634     BNC_RichEditbox.obj
 0002:000077a8       ?classBNC_RichEditbox@BNC_RichEditbox@@2UCRuntimeClass@@B 100687a8     BNC_RichEditbox.obj
 0002:000077c4       ??_C@_0BF@KNILKFLM@BNC_SimpleHScrollbar?$AA@ 100687c4     BNC_SimpleHScrollbar.obj
 0002:00007894       ??_7BNC_SimpleHScrollbar@@6B@ 10068894     BNC_SimpleHScrollbar.obj
 0002:00007a0c       ?classBNC_SimpleHScrollbar@BNC_SimpleHScrollbar@@2UCRuntimeClass@@B 10068a0c     BNC_SimpleHScrollbar.obj
 0002:00007a28       ??_C@_0BF@FBALEKHB@BNC_SimpleVScrollbar?$AA@ 10068a28     BNC_SimpleVScrollbar.obj
 0002:00007af4       ??_7BNC_SimpleVScrollbar@@6B@ 10068af4     BNC_SimpleVScrollbar.obj
 0002:00007c6c       ?classBNC_SimpleVScrollbar@BNC_SimpleVScrollbar@@2UCRuntimeClass@@B 10068c6c     BNC_SimpleVScrollbar.obj
 0002:00007cc4       ??_7BNC_TabControl@@6B@    10068cc4     BNC_TabControl.obj
 0002:00007ec8       ??_7?$_Func_impl@U?$_Callable_obj@V<lambda_da052bd7831dd3249c270935677a0115>@@$0A@@std@@V?$allocator@V?$_Func_class@XHAAVBNC_FakeModal@@@std@@@2@XHAAVBNC_FakeModal@@@std@@6B@ 10068ec8     IBaronow25.obj
 0002:00007ee8       ??_7?$_Ref_count_obj@VBNC_AsyncMessageBox@@@std@@6B@ 10068ee8     IBaronow25.obj
