 Baronow23

 Timestamp is 5dedfcfd (Mon Dec 09 16:51:25 2019)

 Preferred load address is 10000000

 Start         Length     Name                   Class
 0001:00000000 00000100H .text$di                CODE
 0001:00000100 0001d6c6H .text$mn                CODE
 0001:0001d7d0 00002874H .text$x                 CODE
 0001:00020050 0000013fH .text$yd                CODE
 0002:00000000 000006b0H .idata$5                DATA
 0002:000006b0 00000004H .CRT$XCA                DATA
 0002:000006b4 00000008H .CRT$XCL                DATA
 0002:000006bc 0000001cH .CRT$XCU                DATA
 0002:000006d8 00000004H .CRT$XCZ                DATA
 0002:000006dc 00000004H .CRT$XIA                DATA
 0002:000006e0 00000004H .CRT$XIAA               DATA
 0002:000006e4 00000004H .CRT$XIC                DATA
 0002:000006e8 00000004H .CRT$XIZ                DATA
 0002:000006f0 000024c0H .rdata                  DATA
 0002:00002bb0 00000064H .rdata$debug            DATA
 0002:00002c14 00001174H .rdata$r                DATA
 0002:00003d90 00000280H .rdata$sxdata           DATA
 0002:00004010 00000004H .rtc$IAA                DATA
 0002:00004014 00000004H .rtc$IZZ                DATA
 0002:00004018 00000004H .rtc$TAA                DATA
 0002:0000401c 00000004H .rtc$TZZ                DATA
 0002:00004020 00002a20H .xdata$x                DATA
 0002:00006a40 00000000H ATL$__a                 DATA
 0002:00006a40 00000000H ATL$__z                 DATA
 0002:00006a40 00008ad8H .edata                  DATA
 0002:0000f518 0000017cH .idata$2                DATA
 0002:0000f694 00000014H .idata$3                DATA
 0002:0000f6a8 000006b0H .idata$4                DATA
 0002:0000fd58 000012c2H .idata$6                DATA
 0003:00000000 00000070H .data                   DATA
 0003:00000070 00001a3eH .data$r                 DATA
 0003:00001ab0 00001a94H .bss                    DATA
 0004:00000000 000000a0H .rsrc$01                DATA
 0004:000000a0 000004a0H .rsrc$02                DATA

  Address         Publics by Value              Rva+Base       Lib:Object

 0000:00000000       ___guard_fids_count        00000000     <absolute>
 0000:00000000       __except_list              00000000     <absolute>
 0000:00000000       ___guard_flags             00000000     <absolute>
 0000:00000000       ___guard_fids_table        00000000     <absolute>
 0000:000000a0       ___safe_se_handler_count   000000a0     <absolute>
 0000:00009876       __fltused                  00009876     <absolute>
 0000:00009876       __ldused                   00009876     <absolute>
 0000:00000000       ___ImageBase               10000000     <linker-defined>
 0001:00000100       ?GetMessageMap@CBaronow23App@@MBEPBUAFX_MSGMAP@@XZ 10001100 f   Baronow23.obj
 0001:00000110       ??_ECBaronow23App@@UAEPAXI@Z 10001110 f i * CIL library *:* CIL module *
 0001:00000110       ??_GCBaronow23App@@UAEPAXI@Z 10001110 f i Baronow23.obj
 0001:00000140       ?InitInstance@CBaronow23App@@UAEHXZ 10001140 f   Baronow23.obj
 0001:000001a0       ?ExitInstance@CBaronow23App@@MAEHXZ 100011a0 f   Baronow23.obj
 0001:000001c0       ?GetApplicationRecoveryPingInterval@CWinApp@@UAEKXZ 100011c0 f i Baronow23.obj
 0001:000001d0       ?GetApplicationRecoveryParameter@CWinApp@@UAEPAXXZ 100011d0 f i Baronow23.obj
 0001:000001d0       ?GetApplicationRestartFlags@CWinApp@@UAEKXZ 100011d0 f i Baronow23.obj
 0001:000001d0       ?_AfxInitManaged@@YAHXZ    100011d0 f i file.obj
 0001:000001e0       ?RestoreAutosavedFilesAtRestart@CWinApp@@UBEHXZ 100011e0 f i Baronow23.obj
 0001:000001f0       ?ReopenPreviousFilesAtRestart@CWinApp@@UBEHXZ 100011f0 f i Baronow23.obj
 0001:00000200       ?SupportsAutosaveAtInterval@CWinApp@@UBEHXZ 10001200 f i Baronow23.obj
 0001:00000210       ?SupportsAutosaveAtRestart@CWinApp@@UBEHXZ 10001210 f i Baronow23.obj
 0001:00000220       ?SupportsApplicationRecovery@CWinApp@@UBEHXZ 10001220 f i Baronow23.obj
 0001:00000230       ?SupportsRestartManager@CWinApp@@UBEHXZ 10001230 f i Baronow23.obj
 0001:00000240       ??$destroy@PAU?$_Tree_node@U?$pair@$$CBV?$CStringT@_WV?$StrTraitMFC_DLL@_WV?$ChTraitsCRT@_W@ATL@@@@@ATL@@U?$pair@II@std@@@std@@PAX@std@@@?$_Wrap_alloc@V?$allocator@U?$_Tree_node@U?$pair@$$CBV?$CStringT@_WV?$StrTraitMFC_DLL@_WV?$ChTraitsCRT@_W@ATL@@@@@ATL@@U?$pair@II@std@@@std@@PAX@std@@@std@@@std@@QAEXPAPAU?$_Tree_node@U?$pair@$$CBV?$CStringT@_WV?$StrTraitMFC_DLL@_WV?$ChTraitsCRT@_W@ATL@@@@@ATL@@U?$pair@II@std@@@std@@PAX@1@@Z 10001240 f i Logger.obj
 0001:00000240       ?OnDisposalMessage@MsgProcedure@helper@baro@@EAEXAAUtagMSG@@@Z 10001240 f i MsgThread.obj
 0001:00000240       ?Serialize@CObject@@UAEXAAVCArchive@@@Z 10001240 f i Baronow23.obj
 0001:00000240       ?Dump@CObject@@UBEXAAVCDumpContext@@@Z 10001240 f i Baronow23.obj
 0001:00000250       ??1StreamHeader@baro@@QAE@XZ 10001250 f i Stream.obj
 0001:00000250       ?OnPreDestoryProcWindow@MsgProcedure@helper@baro@@EAEXXZ 10001250 f i MsgThread.obj
 0001:00000250       ?OnReleaseInstance@MsgProcedure@helper@baro@@EAEXXZ 10001250 f i MsgThread.obj
 0001:00000250       ??1Performance@baro@@QAE@XZ 10001250 f i Performance.obj
 0001:00000250       ??1A256B64@baro@@QAE@XZ    10001250 f i A256B64.obj
 0001:00000250       ?AssertValid@CObject@@UBEXXZ 10001250 f i Baronow23.obj
 0001:00000250       ??3@YAXPAX0@Z              10001250 f i file.obj
 0001:00000250       ?OnCreateInstance@MsgProcedure@helper@baro@@EAEXXZ 10001250 f i MsgThread.obj
 0001:00000250       ??1SqliteQueryResult@baro@@AAE@XZ 10001250 f i SqliteQueryResult.obj
 0001:00000260       ??3CObject@@SGXPAX@Z       10001260 f i Baronow23.obj
 0001:00000280       ??0CppSqlite3Exception@@QAE@HPA_W_N@Z 10001280 f   CppSQLite3U.obj
 0001:00000310       ??_GCppSqlite3Exception@@UAEPAXI@Z 10001310 f i CppSQLite3U.obj
 0001:00000310       ??_ECppSqlite3Exception@@UAEPAXI@Z 10001310 f i * CIL library *:* CIL module *
 0001:00000350       ??0CppSqlite3Exception@@QAE@ABV0@@Z 10001350 f   CppSQLite3U.obj
 0001:000003d0       ?errorCodeAsString@CppSqlite3Exception@@SAPB_WH@Z 100013d0 f   CppSQLite3U.obj
 0001:00000590       ??1CppSqlite3Exception@@UAE@XZ 10001590 f   CppSQLite3U.obj
 0001:000005c0       ??_GCppSqlite3DB@@UAEPAXI@Z 100015c0 f i CppSQLite3U.obj
 0001:000005c0       ??_ECppSqlite3DB@@UAEPAXI@Z 100015c0 f i * CIL library *:* CIL module *
 0001:00000630       ?execDML@CppSqlite3DB@@QAEHPB_W@Z 10001630 f   CppSQLite3U.obj
 0001:000007d0       ?execQuery@CppSqlite3DB@@QAE?AVCppSqlite3Query@@PB_W@Z 100017d0 f   CppSQLite3U.obj
 0001:000009b0       ??_ECppSqlite3Query@@UAEPAXI@Z 100019b0 f i * CIL library *:* CIL module *
 0001:000009b0       ??_GCppSqlite3Query@@UAEPAXI@Z 100019b0 f i CppSQLite3U.obj
 0001:000009e0       ??1CppSqlite3Query@@UAE@XZ 100019e0 f   CppSQLite3U.obj
 0001:00000a80       ??4CppSqlite3Query@@QAEAAV0@ABV0@@Z 10001a80 f   CppSQLite3U.obj
 0001:00000b40       ?getIntField@CppSqlite3Query@@QAEHHH@Z 10001b40 f   CppSQLite3U.obj
 0001:00000be0       ?getFloatField@CppSqlite3Query@@QAENHN@Z 10001be0 f   CppSQLite3U.obj
 0001:00000c90       ?getStringField@CppSqlite3Query@@QAEPB_WHPB_W@Z 10001c90 f   CppSQLite3U.obj
 0001:00000d30       ?getBlobField@CppSqlite3Query@@QAEPBEHAAH@Z 10001d30 f   CppSQLite3U.obj
 0001:00000da0       ?fieldIsNull@CppSqlite3Query@@QAE_NH@Z 10001da0 f   CppSQLite3U.obj
 0001:00000e20       ?fieldIsNull@CppSqlite3Query@@QAE_NPB_W@Z 10001e20 f   CppSQLite3U.obj
 0001:00000eb0       ?fieldIndex@CppSqlite3Query@@QAEHPB_W@Z 10001eb0 f   CppSQLite3U.obj
 0001:00000fa0       ?nextRow@CppSqlite3Query@@QAEXXZ 10001fa0 f   CppSQLite3U.obj
 0001:00001020       ?EncodeBase64@bapi@@YA_NV?$CStringT@_WV?$StrTraitMFC_DLL@_WV?$ChTraitsCRT@_W@ATL@@@@@ATL@@AAV23@@Z 10002020 f   crypt.obj
 0001:00001140       ?DecodeBase64@bapi@@YA_NV?$CStringT@_WV?$StrTraitMFC_DLL@_WV?$ChTraitsCRT@_W@ATL@@@@@ATL@@AAV23@@Z 10002140 f   crypt.obj
 0001:00001260       ?EncodeAES@bapi@@YA_NPB_W0AAV?$CStringT@_WV?$StrTraitMFC_DLL@_WV?$ChTraitsCRT@_W@ATL@@@@@ATL@@@Z 10002260 f   crypt.obj
 0001:00001440       ?DecodeAES@bapi@@YA_NPB_W0AAV?$CStringT@_WV?$StrTraitMFC_DLL@_WV?$ChTraitsCRT@_W@ATL@@@@@ATL@@@Z 10002440 f   crypt.obj
 0001:00001610       ?EncryptString@bapi@@YA_NV?$CStringT@_WV?$StrTraitMFC_DLL@_WV?$ChTraitsCRT@_W@ATL@@@@@ATL@@KAAV23@@Z 10002610 f   crypt.obj
 0001:00001680       ?DecryptString@bapi@@YA_NV?$CStringT@_WV?$StrTraitMFC_DLL@_WV?$ChTraitsCRT@_W@ATL@@@@@ATL@@KAAV23@@Z 10002680 f   crypt.obj
 0001:000016f0       ?EncryptStringA@bapi@@YA_NV?$CStringT@DV?$StrTraitMFC_DLL@DV?$ChTraitsCRT@D@ATL@@@@@ATL@@KAAV23@@Z 100026f0 f   crypt.obj
 0001:00001820       ?DecryptStringA@bapi@@YA_NV?$CStringT@DV?$StrTraitMFC_DLL@DV?$ChTraitsCRT@D@ATL@@@@@ATL@@KAAV23@@Z 10002820 f   crypt.obj
 0001:00001930       ?EncryptStringW@bapi@@YA_NV?$CStringT@_WV?$StrTraitMFC_DLL@_WV?$ChTraitsCRT@_W@ATL@@@@@ATL@@KAAV23@@Z 10002930 f   crypt.obj
 0001:00001a60       ?DecryptStringW@bapi@@YA_NV?$CStringT@_WV?$StrTraitMFC_DLL@_WV?$ChTraitsCRT@_W@ATL@@@@@ATL@@KAAV23@@Z 10002a60 f   crypt.obj
 0001:00001ba0       ?BinaryToStringA@bapi@@YA_NPBEKAAV?$CStringT@DV?$StrTraitMFC_DLL@DV?$ChTraitsCRT@D@ATL@@@@@ATL@@@Z 10002ba0 f   crypt.obj
 0001:00001ca0       ?StringToBinaryA@bapi@@YA_NPBDAAV?$TBuffer@E@baro@@@Z 10002ca0 f   crypt.obj
 0001:00001d70       ?BinaryToStringW@bapi@@YA_NPBEKAAV?$CStringT@_WV?$StrTraitMFC_DLL@_WV?$ChTraitsCRT@_W@ATL@@@@@ATL@@@Z 10002d70 f   crypt.obj
 0001:00001e70       ?StringToBinaryW@bapi@@YA_NPB_WAAV?$TBuffer@E@baro@@@Z 10002e70 f   crypt.obj
 0001:00001f50       ??0?$TBuffer@_W@baro@@QAE@I@Z 10002f50 f i crypt.obj
 0001:00001fc0       ?Set@?$TBuffer@_W@baro@@QAE_NI_W@Z 10002fc0 f i crypt.obj
 0001:00001ff0       ??0?$TBuffer@D@baro@@QAE@I@Z 10002ff0 f i crypt.obj
 0001:00002040       ??1?$TBuffer@D@baro@@UAE@XZ 10003040 f i crypt.obj
 0001:00002070       ?Set@?$TBuffer@D@baro@@QAE_NID@Z 10003070 f i crypt.obj
 0001:000020a0       ??_G?$TBuffer@D@baro@@UAEPAXI@Z 100030a0 f i crypt.obj
 0001:000020a0       ??_E?$TBuffer@D@baro@@UAEPAXI@Z 100030a0 f i * CIL library *:* CIL module *
 0001:000020f0       ?GetLastError@Sqlite@baro@@QAEKXZ 100030f0 f i Sqlite.obj
 0001:000020f0       ?GetThreadHandle@MsgProcedure@helper@baro@@QAEPAXXZ 100030f0 f i MsgThread.obj
 0001:000020f0       ?GetKey@A256B64@baro@@QBEKXZ 100030f0 f i stdafx.obj
 0001:000020f0       ?LockBuffer@?$TBuffer@E@baro@@QAEPAEXZ 100030f0 f i crypt.obj
 0001:00002100       ?Reset@?$TBuffer@E@baro@@QAEXPBEI@Z 10003100 f i crypt.obj
 0001:00002190       ??_E?$TBuffer@_W@baro@@UAEPAXI@Z 10003190 f i * CIL library *:* CIL module *
 0001:00002190       ??_G?$TBuffer@_W@baro@@UAEPAXI@Z 10003190 f i crypt.obj
 0001:000021e0       ?Reset@?$TBuffer@_W@baro@@QAEXPB_WI@Z 100031e0 f i crypt.obj
 0001:00002290       ??1?$TBuffer@_W@baro@@UAE@XZ 10003290 f i crypt.obj
 0001:000022c0       ?__autoclassinit2@PointCoord@baro@@QAEXI@Z 100032c0 f i stdafx.obj
 0001:000022c0       ?__autoclassinit2@BitmapDC@baro@@QAEXI@Z 100032c0 f i stdafx.obj
 0001:000022c0       ?__autoclassinit2@AutoLock@baro@@QAEXI@Z 100032c0 f i MsgThread.obj
 0001:000022c0       ?__autoclassinit2@SqliteQueryResult@baro@@QAEXI@Z 100032c0 f i Sqlite.obj
 0001:000022c0       ?__autoclassinit2@MsgProcedure@helper@baro@@QAEXI@Z 100032c0 f i stdafx.obj
 0001:000022c0       ?__autoclassinit2@CustomGraph@baro@@QAEXI@Z 100032c0 f i stdafx.obj
 0001:000022c0       ?__autoclassinit2@Stream@baro@@QAEXI@Z 100032c0 f i stdafx.obj
 0001:000022c0       ?__autoclassinit2@CriticalSection@baro@@QAEXI@Z 100032c0 f i Logger.obj
 0001:000022c0       ?__autoclassinit2@ISerialize@baro@@QAEXI@Z 100032c0 f i stdafx.obj
 0001:000022c0       ?__autoclassinit2@?$TSingleton@$$CBVSystemInfo@baro@@@baro@@QAEXI@Z 100032c0 f i stdafx.obj
 0001:000022c0       ?__autoclassinit2@Sqlite@baro@@QAEXI@Z 100032c0 f i stdafx.obj
 0001:000022c0       ?__autoclassinit2@MonitorInfo@baro@@QAEXI@Z 100032c0 f i monitor.obj
 0001:000022c0       ?__autoclassinit2@SystemInfo@baro@@QAEXI@Z 100032c0 f i system.obj
 0001:000022c0       ?__autoclassinit2@CheckPointer@baro@@QAEXI@Z 100032c0 f i stdafx.obj
 0001:000022c0       ?__autoclassinit2@CryptBuffer@baro@@QAEXI@Z 100032c0 f i crypt.obj
 0001:000022c0       ?__autoclassinit2@GradientRect@baro@@QAEXI@Z 100032c0 f i stdafx.obj
 0001:000022c0       ?__autoclassinit2@?$TBuffer@E@baro@@QAEXI@Z 100032c0 f i A256B64.obj
 0001:000022e0       ?GetInstancePath@bapi@@YA?AV?$CStringT@_WV?$StrTraitMFC_DLL@_WV?$ChTraitsCRT@_W@ATL@@@@@ATL@@_N@Z 100032e0 f   file.obj
 0001:000023c0       ?CreateFolder@bapi@@YAHV?$CStringT@_WV?$StrTraitMFC_DLL@_WV?$ChTraitsCRT@_W@ATL@@@@@ATL@@@Z 100033c0 f   file.obj
 0001:00002570       ?DeleteFolder@bapi@@YAHV?$CStringT@_WV?$StrTraitMFC_DLL@_WV?$ChTraitsCRT@_W@ATL@@@@@ATL@@H@Z 10003570 f   file.obj
 0001:00002730       ?FolderExistIsAddNumbering@bapi@@YAXAAV?$CStringT@_WV?$StrTraitMFC_DLL@_WV?$ChTraitsCRT@_W@ATL@@@@@ATL@@@Z 10003730 f   file.obj
 0001:00002800       ?FileExistAddNumbering@bapi@@YA_NAAV?$CStringT@_WV?$StrTraitMFC_DLL@_WV?$ChTraitsCRT@_W@ATL@@@@@ATL@@@Z 10003800 f   file.obj
 0001:00002970       ?GetPathNameFolder@bapi@@YA_NAAV?$CStringT@_WV?$StrTraitMFC_DLL@_WV?$ChTraitsCRT@_W@ATL@@@@@ATL@@_N00@Z 10003970 f   file.obj
 0001:00002a40       ?IsIncludeExtension@bapi@@YA_NV?$CStringT@_WV?$StrTraitMFC_DLL@_WV?$ChTraitsCRT@_W@ATL@@@@@ATL@@0AAV23@@Z 10003a40 f   file.obj
 0001:00002c30       ?GetFileSize@bapi@@YANV?$CStringT@_WV?$StrTraitMFC_DLL@_WV?$ChTraitsCRT@_W@ATL@@@@@ATL@@@Z 10003c30 f   file.obj
 0001:00002cd0       ?GetFileVersion@bapi@@YA_NPB_WAAUtagVS_FIXEDFILEINFO@@@Z 10003cd0 f   file.obj
 0001:00002dc0       ?GetInstanceFileVersion@bapi@@YA_N_NAAUtagVS_FIXEDFILEINFO@@@Z 10003dc0 f   file.obj
 0001:00002ec0       ?GetInstanceFileVersion@bapi@@YA?AV?$CStringT@_WV?$StrTraitMFC_DLL@_WV?$ChTraitsCRT@_W@ATL@@@@@ATL@@_N@Z 10003ec0 f   file.obj
 0001:00002f80       ?ReadBinaryFile@bapi@@YA_NV?$CStringT@_WV?$StrTraitMFC_DLL@_WV?$ChTraitsCRT@_W@ATL@@@@@ATL@@V?$function@$$A6A_NAAVCFile@@@Z@std@@@Z 10003f80 f   file.obj
 0001:00003120       ?WriteBinaryFile@bapi@@YA_NV?$CStringT@_WV?$StrTraitMFC_DLL@_WV?$ChTraitsCRT@_W@ATL@@@@@ATL@@_NV?$function@$$A6A_NAAVCFile@@@Z@std@@@Z 10004120 f   file.obj
 0001:000032e0       ?FindFileList@bapi@@YA?AV?$vector@V?$CStringT@_WV?$StrTraitMFC_DLL@_WV?$ChTraitsCRT@_W@ATL@@@@@ATL@@V?$allocator@V?$CStringT@_WV?$StrTraitMFC_DLL@_WV?$ChTraitsCRT@_W@ATL@@@@@ATL@@@std@@@std@@V?$CStringT@_WV?$StrTraitMFC_DLL@_WV?$ChTraitsCRT@_W@ATL@@@@@ATL@@@Z 100042e0 f   file.obj
 0001:000035a0       ?FindFileList@bapi@@YA?AV?$vector@V?$CStringT@_WV?$StrTraitMFC_DLL@_WV?$ChTraitsCRT@_W@ATL@@@@@ATL@@V?$allocator@V?$CStringT@_WV?$StrTraitMFC_DLL@_WV?$ChTraitsCRT@_W@ATL@@@@@ATL@@@std@@@std@@V?$CStringT@_WV?$StrTraitMFC_DLL@_WV?$ChTraitsCRT@_W@ATL@@@@@ATL@@0@Z 100045a0 f   file.obj
 0001:000037e0       ?FindFileList@bapi@@YA?AV?$vector@V?$CStringT@_WV?$StrTraitMFC_DLL@_WV?$ChTraitsCRT@_W@ATL@@@@@ATL@@V?$allocator@V?$CStringT@_WV?$StrTraitMFC_DLL@_WV?$ChTraitsCRT@_W@ATL@@@@@ATL@@@std@@@std@@V?$CStringT@_WV?$StrTraitMFC_DLL@_WV?$ChTraitsCRT@_W@ATL@@@@@ATL@@V23@@Z 100047e0 f   file.obj
 0001:00003cb0       ??HATL@@YA?AV?$CStringT@_WV?$StrTraitMFC_DLL@_WV?$ChTraitsCRT@_W@ATL@@@@@0@ABV10@0@Z 10004cb0 f i file.obj
 0001:00003d30       ??HATL@@YA?AV?$CStringT@_WV?$StrTraitMFC_DLL@_WV?$ChTraitsCRT@_W@ATL@@@@@0@ABV10@PB_W@Z 10004d30 f i file.obj
 0001:00003dd0       ?_Tidy@?$vector@V?$CStringT@_WV?$StrTraitMFC_DLL@_WV?$ChTraitsCRT@_W@ATL@@@@@ATL@@V?$allocator@V?$CStringT@_WV?$StrTraitMFC_DLL@_WV?$ChTraitsCRT@_W@ATL@@@@@ATL@@@std@@@std@@IAEXXZ 10004dd0 f i file.obj
 0001:00003dd0       ??1?$vector@V?$CStringT@_WV?$StrTraitMFC_DLL@_WV?$ChTraitsCRT@_W@ATL@@@@@ATL@@V?$allocator@V?$CStringT@_WV?$StrTraitMFC_DLL@_WV?$ChTraitsCRT@_W@ATL@@@@@ATL@@@std@@@std@@QAE@XZ 10004dd0 f i file.obj
 0001:00003e20       ??1?$function@$$A6A_NAAVCFile@@@Z@std@@QAE@XZ 10004e20 f i file.obj
 0001:00003e20       ??1?$function@$$A6AXAAVGraphics@Gdiplus@@AAVCDC@@IK@Z@std@@QAE@XZ 10004e20 f i CustomGraph.obj
 0001:00003e20       ??1?$function@$$A6A?AW4StreamResult@baro@@ABV?$CStringT@_WV?$StrTraitMFC_DLL@_WV?$ChTraitsCRT@_W@ATL@@@@@ATL@@@Z@std@@QAE@XZ 10004e20 f i stdafx.obj
 0001:00003e20       ??1?$function@$$A6A_NAAVSqliteQueryResult@baro@@@Z@std@@QAE@XZ 10004e20 f i Sqlite.obj
 0001:00003e20       ??1?$function@$$A6A?AW4StreamResult@baro@@AAV?$CStringT@_WV?$StrTraitMFC_DLL@_WV?$ChTraitsCRT@_W@ATL@@@@@ATL@@@Z@std@@QAE@XZ 10004e20 f i stdafx.obj
 0001:00003e20       ??1?$function@$$A6AMI@Z@std@@QAE@XZ 10004e20 f i PointCoord.obj
 0001:00003e20       ??1?$function@$$A6AXV?$CStringT@_WV?$StrTraitMFC_DLL@_WV?$ChTraitsCRT@_W@ATL@@@@@ATL@@AAV?$vector@V?$CStringT@_WV?$StrTraitMFC_DLL@_WV?$ChTraitsCRT@_W@ATL@@@@@ATL@@V?$allocator@V?$CStringT@_WV?$StrTraitMFC_DLL@_WV?$ChTraitsCRT@_W@ATL@@@@@ATL@@@std@@@std@@@Z@std@@QAE@XZ 10004e20 f i file.obj
 0001:00003e60       ??1?$_Func_class@XV?$CStringT@_WV?$StrTraitMFC_DLL@_WV?$ChTraitsCRT@_W@ATL@@@@@ATL@@AAV?$vector@V?$CStringT@_WV?$StrTraitMFC_DLL@_WV?$ChTraitsCRT@_W@ATL@@@@@ATL@@V?$allocator@V?$CStringT@_WV?$StrTraitMFC_DLL@_WV?$ChTraitsCRT@_W@ATL@@@@@ATL@@@std@@@std@@@std@@QAE@XZ 10004e60 f i file.obj
 0001:00003e60       ??1?$_Func_class@MI@std@@QAE@XZ 10004e60 f i PointCoord.obj
 0001:00003e60       ??1?$_Func_class@W4StreamResult@baro@@ABV?$CStringT@_WV?$StrTraitMFC_DLL@_WV?$ChTraitsCRT@_W@ATL@@@@@ATL@@@std@@QAE@XZ 10004e60 f i stdafx.obj
 0001:00003e60       ??1?$_Func_class@_NAAVCFile@@@std@@QAE@XZ 10004e60 f i file.obj
 0001:00003e60       ??1?$_Func_class@XAAVGraphics@Gdiplus@@AAVCDC@@IK@std@@QAE@XZ 10004e60 f i CustomGraph.obj
 0001:00003e60       ??1?$_Func_class@W4StreamResult@baro@@AAV?$CStringT@_WV?$StrTraitMFC_DLL@_WV?$ChTraitsCRT@_W@ATL@@@@@ATL@@@std@@QAE@XZ 10004e60 f i stdafx.obj
 0001:00003e90       ??_E?$_Func_base@XV?$CStringT@_WV?$StrTraitMFC_DLL@_WV?$ChTraitsCRT@_W@ATL@@@@@ATL@@AAV?$vector@V?$CStringT@_WV?$StrTraitMFC_DLL@_WV?$ChTraitsCRT@_W@ATL@@@@@ATL@@V?$allocator@V?$CStringT@_WV?$StrTraitMFC_DLL@_WV?$ChTraitsCRT@_W@ATL@@@@@ATL@@@std@@@std@@@std@@UAEPAXI@Z 10004e90 f i * CIL library *:* CIL module *
 0001:00003e90       ??_G?$_Func_base@XV?$CStringT@_WV?$StrTraitMFC_DLL@_WV?$ChTraitsCRT@_W@ATL@@@@@ATL@@AAV?$vector@V?$CStringT@_WV?$StrTraitMFC_DLL@_WV?$ChTraitsCRT@_W@ATL@@@@@ATL@@V?$allocator@V?$CStringT@_WV?$StrTraitMFC_DLL@_WV?$ChTraitsCRT@_W@ATL@@@@@ATL@@@std@@@std@@@std@@UAEPAXI@Z 10004e90 f i file.obj
 0001:00003e90       ??_G?$_Func_impl@U?$_Callable_obj@V<lambda_92ae8a6edb3cc5c1e2896be211724754>@@$0A@@std@@V?$allocator@V?$_Func_class@XV?$CStringT@_WV?$StrTraitMFC_DLL@_WV?$ChTraitsCRT@_W@ATL@@@@@ATL@@AAV?$vector@V?$CStringT@_WV?$StrTraitMFC_DLL@_WV?$ChTraitsCRT@_W@ATL@@@@@ATL@@V?$allocator@V?$CStringT@_WV?$StrTraitMFC_DLL@_WV?$ChTraitsCRT@_W@ATL@@@@@ATL@@@std@@@std@@@std@@@2@XV?$CStringT@_WV?$StrTraitMFC_DLL@_WV?$ChTraitsCRT@_W@ATL@@@@@ATL@@AAV?$vector@V?$CStringT@_WV?$StrTraitMFC_DLL@_WV?$ChTraitsCRT@_W@ATL@@@@@ATL@@V?$allocator@V?$CStringT@_WV?$StrTraitMFC_DLL@_WV?$ChTraitsCRT@_W@ATL@@@@@ATL@@@std@@@2@@std@@UAEPAXI@Z 10004e90 f i file.obj
 0001:00003e90       ??_E?$_Func_impl@U?$_Callable_obj@V<lambda_92ae8a6edb3cc5c1e2896be211724754>@@$0A@@std@@V?$allocator@V?$_Func_class@XV?$CStringT@_WV?$StrTraitMFC_DLL@_WV?$ChTraitsCRT@_W@ATL@@@@@ATL@@AAV?$vector@V?$CStringT@_WV?$StrTraitMFC_DLL@_WV?$ChTraitsCRT@_W@ATL@@@@@ATL@@V?$allocator@V?$CStringT@_WV?$StrTraitMFC_DLL@_WV?$ChTraitsCRT@_W@ATL@@@@@ATL@@@std@@@std@@@std@@@2@XV?$CStringT@_WV?$StrTraitMFC_DLL@_WV?$ChTraitsCRT@_W@ATL@@@@@ATL@@AAV?$vector@V?$CStringT@_WV?$StrTraitMFC_DLL@_WV?$ChTraitsCRT@_W@ATL@@@@@ATL@@V?$allocator@V?$CStringT@_WV?$StrTraitMFC_DLL@_WV?$ChTraitsCRT@_W@ATL@@@@@ATL@@@std@@@2@@std@@UAEPAXI@Z 10004e90 f i * CIL library *:* CIL module *
 0001:00003ec0       ?_Buy@?$vector@IV?$allocator@_N@std@@@std@@IAE_NI@Z 10004ec0 f i PointCoord.obj
 0001:00003ec0       ?_Buy@?$vector@V?$CStringT@_WV?$StrTraitMFC_DLL@_WV?$ChTraitsCRT@_W@ATL@@@@@ATL@@V?$allocator@V?$CStringT@_WV?$StrTraitMFC_DLL@_WV?$ChTraitsCRT@_W@ATL@@@@@ATL@@@std@@@std@@IAE_NI@Z 10004ec0 f i file.obj
 0001:00003f30       ?_Copy@?$_Func_impl@U?$_Callable_obj@V<lambda_92ae8a6edb3cc5c1e2896be211724754>@@$0A@@std@@V?$allocator@V?$_Func_class@XV?$CStringT@_WV?$StrTraitMFC_DLL@_WV?$ChTraitsCRT@_W@ATL@@@@@ATL@@AAV?$vector@V?$CStringT@_WV?$StrTraitMFC_DLL@_WV?$ChTraitsCRT@_W@ATL@@@@@ATL@@V?$allocator@V?$CStringT@_WV?$StrTraitMFC_DLL@_WV?$ChTraitsCRT@_W@ATL@@@@@ATL@@@std@@@std@@@std@@@2@XV?$CStringT@_WV?$StrTraitMFC_DLL@_WV?$ChTraitsCRT@_W@ATL@@@@@ATL@@AAV?$vector@V?$CStringT@_WV?$StrTraitMFC_DLL@_WV?$ChTraitsCRT@_W@ATL@@@@@ATL@@V?$allocator@V?$CStringT@_WV?$StrTraitMFC_DLL@_WV?$ChTraitsCRT@_W@ATL@@@@@ATL@@@std@@@2@@std@@UAEPAV?$_Func_base@XV?$CStringT@_WV?$StrTraitMFC_DLL@_WV?$ChTraitsCRT@_W@ATL@@@@@ATL@@AAV?$vector@V?$CStringT@_WV?$StrTraitMFC_DLL@_WV?$ChTraitsCRT@_W@ATL@@@@@ATL@@V?$allocator@V?$CStringT@_WV?$StrTraitMFC_DLL@_WV?$ChTraitsCRT@_W@ATL@@@@@ATL@@@std@@@std@@@2@PAX@Z 10004f30 f i file.obj
 0001:00003f30       ?_Move@?$_Func_impl@U?$_Callable_obj@V<lambda_92ae8a6edb3cc5c1e2896be211724754>@@$0A@@std@@V?$allocator@V?$_Func_class@XV?$CStringT@_WV?$StrTraitMFC_DLL@_WV?$ChTraitsCRT@_W@ATL@@@@@ATL@@AAV?$vector@V?$CStringT@_WV?$StrTraitMFC_DLL@_WV?$ChTraitsCRT@_W@ATL@@@@@ATL@@V?$allocator@V?$CStringT@_WV?$StrTraitMFC_DLL@_WV?$ChTraitsCRT@_W@ATL@@@@@ATL@@@std@@@std@@@std@@@2@XV?$CStringT@_WV?$StrTraitMFC_DLL@_WV?$ChTraitsCRT@_W@ATL@@@@@ATL@@AAV?$vector@V?$CStringT@_WV?$StrTraitMFC_DLL@_WV?$ChTraitsCRT@_W@ATL@@@@@ATL@@V?$allocator@V?$CStringT@_WV?$StrTraitMFC_DLL@_WV?$ChTraitsCRT@_W@ATL@@@@@ATL@@@std@@@2@@std@@UAEPAV?$_Func_base@XV?$CStringT@_WV?$StrTraitMFC_DLL@_WV?$ChTraitsCRT@_W@ATL@@@@@ATL@@AAV?$vector@V?$CStringT@_WV?$StrTraitMFC_DLL@_WV?$ChTraitsCRT@_W@ATL@@@@@ATL@@V?$allocator@V?$CStringT@_WV?$StrTraitMFC_DLL@_WV?$ChTraitsCRT@_W@ATL@@@@@ATL@@@std@@@std@@@2@PAX@Z 10004f30 f i file.obj
 0001:00003f70       ?_Do_call@?$_Func_impl@U?$_Callable_obj@V<lambda_92ae8a6edb3cc5c1e2896be211724754>@@$0A@@std@@V?$allocator@V?$_Func_class@XV?$CStringT@_WV?$StrTraitMFC_DLL@_WV?$ChTraitsCRT@_W@ATL@@@@@ATL@@AAV?$vector@V?$CStringT@_WV?$StrTraitMFC_DLL@_WV?$ChTraitsCRT@_W@ATL@@@@@ATL@@V?$allocator@V?$CStringT@_WV?$StrTraitMFC_DLL@_WV?$ChTraitsCRT@_W@ATL@@@@@ATL@@@std@@@std@@@std@@@2@XV?$CStringT@_WV?$StrTraitMFC_DLL@_WV?$ChTraitsCRT@_W@ATL@@@@@ATL@@AAV?$vector@V?$CStringT@_WV?$StrTraitMFC_DLL@_WV?$ChTraitsCRT@_W@ATL@@@@@ATL@@V?$allocator@V?$CStringT@_WV?$StrTraitMFC_DLL@_WV?$ChTraitsCRT@_W@ATL@@@@@ATL@@@std@@@2@@std@@UAEX$$QAV?$CStringT@_WV?$StrTraitMFC_DLL@_WV?$ChTraitsCRT@_W@ATL@@@@@ATL@@AAV?$vector@V?$CStringT@_WV?$StrTraitMFC_DLL@_WV?$ChTraitsCRT@_W@ATL@@@@@ATL@@V?$allocator@V?$CStringT@_WV?$StrTraitMFC_DLL@_WV?$ChTraitsCRT@_W@ATL@@@@@ATL@@@std@@@2@@Z 10004f70 f i file.obj
 0001:00003fa0       ?_Target_type@?$_Func_impl@U?$_Callable_obj@V<lambda_92ae8a6edb3cc5c1e2896be211724754>@@$0A@@std@@V?$allocator@V?$_Func_class@XV?$CStringT@_WV?$StrTraitMFC_DLL@_WV?$ChTraitsCRT@_W@ATL@@@@@ATL@@AAV?$vector@V?$CStringT@_WV?$StrTraitMFC_DLL@_WV?$ChTraitsCRT@_W@ATL@@@@@ATL@@V?$allocator@V?$CStringT@_WV?$StrTraitMFC_DLL@_WV?$ChTraitsCRT@_W@ATL@@@@@ATL@@@std@@@std@@@std@@@2@XV?$CStringT@_WV?$StrTraitMFC_DLL@_WV?$ChTraitsCRT@_W@ATL@@@@@ATL@@AAV?$vector@V?$CStringT@_WV?$StrTraitMFC_DLL@_WV?$ChTraitsCRT@_W@ATL@@@@@ATL@@V?$allocator@V?$CStringT@_WV?$StrTraitMFC_DLL@_WV?$ChTraitsCRT@_W@ATL@@@@@ATL@@@std@@@2@@std@@UBEABVtype_info@@XZ 10004fa0 f i file.obj
 0001:00003fb0       ?_Get@?$_Func_impl@U?$_Callable_obj@V<lambda_660079388d01d824f1d4f65d6714bd9d>@@$0A@@std@@V?$allocator@V?$_Func_class@MI@std@@@2@MI@std@@EBEPBXXZ 10004fb0 f i PointCoord.obj
 0001:00003fb0       ?_Get@?$_Func_impl@U?$_Callable_obj@V<lambda_f8882b2bf4f22a473592eb1ff5482a78>@@$0A@@std@@V?$allocator@V?$_Func_class@_NAAVCFile@@@std@@@2@_NAAVCFile@@@std@@EBEPBXXZ 10004fb0 f i Stream.obj
 0001:00003fb0       ?_Get@?$_Func_impl@U?$_Callable_obj@V<lambda_92ae8a6edb3cc5c1e2896be211724754>@@$0A@@std@@V?$allocator@V?$_Func_class@XV?$CStringT@_WV?$StrTraitMFC_DLL@_WV?$ChTraitsCRT@_W@ATL@@@@@ATL@@AAV?$vector@V?$CStringT@_WV?$StrTraitMFC_DLL@_WV?$ChTraitsCRT@_W@ATL@@@@@ATL@@V?$allocator@V?$CStringT@_WV?$StrTraitMFC_DLL@_WV?$ChTraitsCRT@_W@ATL@@@@@ATL@@@std@@@std@@@std@@@2@XV?$CStringT@_WV?$StrTraitMFC_DLL@_WV?$ChTraitsCRT@_W@ATL@@@@@ATL@@AAV?$vector@V?$CStringT@_WV?$StrTraitMFC_DLL@_WV?$ChTraitsCRT@_W@ATL@@@@@ATL@@V?$allocator@V?$CStringT@_WV?$StrTraitMFC_DLL@_WV?$ChTraitsCRT@_W@ATL@@@@@ATL@@@std@@@2@@std@@EBEPBXXZ 10004fb0 f i file.obj
 0001:00003fb0       ?_Get@?$_Func_impl@U?$_Callable_obj@V<lambda_257dd9aa029b0bb95eaf18bd787825cc>@@$0A@@std@@V?$allocator@V?$_Func_class@_NAAVCFile@@@std@@@2@_NAAVCFile@@@std@@EBEPBXXZ 10004fb0 f i Stream.obj
 0001:00003fb0       ?_Get@?$_Func_impl@U?$_Callable_obj@V<lambda_f15cf28b79eebeba7dee09e3ec20cd6a>@@$0A@@std@@V?$allocator@V?$_Func_class@MI@std@@@2@MI@std@@EBEPBXXZ 10004fb0 f i PointCoord.obj
 0001:00003fb0       ?_Get@?$_Func_impl@U?$_Callable_obj@V<lambda_e76177b2965f6f295be7c5f96021c124>@@$0A@@std@@V?$allocator@V?$_Func_class@W4StreamResult@baro@@AAV?$CStringT@_WV?$StrTraitMFC_DLL@_WV?$ChTraitsCRT@_W@ATL@@@@@ATL@@@std@@@2@W4StreamResult@baro@@AAV?$CStringT@_WV?$StrTraitMFC_DLL@_WV?$ChTraitsCRT@_W@ATL@@@@@ATL@@@std@@EBEPBXXZ 10004fb0 f i stdafx.obj
 0001:00003fb0       ?_Get@?$_Func_impl@U?$_Callable_obj@V<lambda_bbe7db543262a53344bc92964eb41292>@@$0A@@std@@V?$allocator@V?$_Func_class@_NAAVCFile@@@std@@@2@_NAAVCFile@@@std@@EBEPBXXZ 10004fb0 f i Stream.obj
 0001:00003fb0       ?_Get@?$_Func_impl@U?$_Callable_obj@V<lambda_740eeb7a2f1d2c38bf9d2a55ba51dd10>@@$0A@@std@@V?$allocator@V?$_Func_class@W4StreamResult@baro@@ABV?$CStringT@_WV?$StrTraitMFC_DLL@_WV?$ChTraitsCRT@_W@ATL@@@@@ATL@@@std@@@2@W4StreamResult@baro@@ABV?$CStringT@_WV?$StrTraitMFC_DLL@_WV?$ChTraitsCRT@_W@ATL@@@@@ATL@@@std@@EBEPBXXZ 10004fb0 f i stdafx.obj
 0001:00003fb0       ?_Get@?$_Func_impl@U?$_Callable_obj@V<lambda_187152e110f699ad5b1ab81533769cf2>@@$0A@@std@@V?$allocator@V?$_Func_class@W4StreamResult@baro@@ABV?$CStringT@_WV?$StrTraitMFC_DLL@_WV?$ChTraitsCRT@_W@ATL@@@@@ATL@@@std@@@2@W4StreamResult@baro@@ABV?$CStringT@_WV?$StrTraitMFC_DLL@_WV?$ChTraitsCRT@_W@ATL@@@@@ATL@@@std@@EBEPBXXZ 10004fb0 f i stdafx.obj
 0001:00003fb0       ?_Get@?$_Func_impl@U?$_Callable_obj@V<lambda_5c9231035f6c38fca048a0864a8210ea>@@$0A@@std@@V?$allocator@V?$_Func_class@W4StreamResult@baro@@AAV?$CStringT@_WV?$StrTraitMFC_DLL@_WV?$ChTraitsCRT@_W@ATL@@@@@ATL@@@std@@@2@W4StreamResult@baro@@AAV?$CStringT@_WV?$StrTraitMFC_DLL@_WV?$ChTraitsCRT@_W@ATL@@@@@ATL@@@std@@EBEPBXXZ 10004fb0 f i stdafx.obj
 0001:00003fb0       ?_Get@?$_Func_impl@U?$_Callable_obj@V<lambda_75f487c1c530e75cedd270693ab9589c>@@$0A@@std@@V?$allocator@V?$_Func_class@W4StreamResult@baro@@ABV?$CStringT@_WV?$StrTraitMFC_DLL@_WV?$ChTraitsCRT@_W@ATL@@@@@ATL@@@std@@@2@W4StreamResult@baro@@ABV?$CStringT@_WV?$StrTraitMFC_DLL@_WV?$ChTraitsCRT@_W@ATL@@@@@ATL@@@std@@EBEPBXXZ 10004fb0 f i stdafx.obj
 0001:00003fb0       ?_Get@?$_Func_impl@U?$_Callable_obj@V<lambda_71f23d2cacd049d0fc44bb672969fbab>@@$0A@@std@@V?$allocator@V?$_Func_class@W4StreamResult@baro@@AAV?$CStringT@_WV?$StrTraitMFC_DLL@_WV?$ChTraitsCRT@_W@ATL@@@@@ATL@@@std@@@2@W4StreamResult@baro@@AAV?$CStringT@_WV?$StrTraitMFC_DLL@_WV?$ChTraitsCRT@_W@ATL@@@@@ATL@@@std@@EBEPBXXZ 10004fb0 f i stdafx.obj
 0001:00003fb0       ?_Get@?$_Func_impl@U?$_Callable_obj@V?$_Bind@$00XU?$_Pmf_wrap@P8CustomGraph@baro@@AEXAAVGraphics@Gdiplus@@AAVCDC@@IK@ZXV12@AAV34@AAV5@IK@std@@QAVCustomGraph@baro@@AAV?$_Ph@$00@2@AAV?$_Ph@$01@2@AAV?$_Ph@$02@2@AAV?$_Ph@$03@2@@std@@$0A@@std@@V?$allocator@V?$_Func_class@XAAVGraphics@Gdiplus@@AAVCDC@@IK@std@@@2@XAAVGraphics@Gdiplus@@AAVCDC@@IK@std@@EBEPBXXZ 10004fb0 f i CustomGraph.obj
 0001:00003fc0       ?_Delete_this@?$_Func_impl@U?$_Callable_obj@V<lambda_bbe7db543262a53344bc92964eb41292>@@$0A@@std@@V?$allocator@V?$_Func_class@_NAAVCFile@@@std@@@2@_NAAVCFile@@@std@@EAEX_N@Z 10004fc0 f i Stream.obj
 0001:00003fc0       ?_Delete_this@?$_Func_impl@U?$_Callable_obj@V<lambda_257dd9aa029b0bb95eaf18bd787825cc>@@$0A@@std@@V?$allocator@V?$_Func_class@_NAAVCFile@@@std@@@2@_NAAVCFile@@@std@@EAEX_N@Z 10004fc0 f i Stream.obj
 0001:00003fc0       ?_Delete_this@?$_Func_impl@U?$_Callable_obj@V<lambda_740eeb7a2f1d2c38bf9d2a55ba51dd10>@@$0A@@std@@V?$allocator@V?$_Func_class@W4StreamResult@baro@@ABV?$CStringT@_WV?$StrTraitMFC_DLL@_WV?$ChTraitsCRT@_W@ATL@@@@@ATL@@@std@@@2@W4StreamResult@baro@@ABV?$CStringT@_WV?$StrTraitMFC_DLL@_WV?$ChTraitsCRT@_W@ATL@@@@@ATL@@@std@@EAEX_N@Z 10004fc0 f i stdafx.obj
 0001:00003fc0       ?_Delete_this@?$_Func_impl@U?$_Callable_obj@V?$_Bind@$00XU?$_Pmf_wrap@P8CustomGraph@baro@@AEXAAVGraphics@Gdiplus@@AAVCDC@@IK@ZXV12@AAV34@AAV5@IK@std@@QAVCustomGraph@baro@@AAV?$_Ph@$00@2@AAV?$_Ph@$01@2@AAV?$_Ph@$02@2@AAV?$_Ph@$03@2@@std@@$0A@@std@@V?$allocator@V?$_Func_class@XAAVGraphics@Gdiplus@@AAVCDC@@IK@std@@@2@XAAVGraphics@Gdiplus@@AAVCDC@@IK@std@@EAEX_N@Z 10004fc0 f i CustomGraph.obj
 0001:00003fc0       ?_Delete_this@?$_Func_impl@U?$_Callable_obj@V<lambda_75f487c1c530e75cedd270693ab9589c>@@$0A@@std@@V?$allocator@V?$_Func_class@W4StreamResult@baro@@ABV?$CStringT@_WV?$StrTraitMFC_DLL@_WV?$ChTraitsCRT@_W@ATL@@@@@ATL@@@std@@@2@W4StreamResult@baro@@ABV?$CStringT@_WV?$StrTraitMFC_DLL@_WV?$ChTraitsCRT@_W@ATL@@@@@ATL@@@std@@EAEX_N@Z 10004fc0 f i stdafx.obj
 0001:00003fc0       ?_Delete_this@?$_Func_impl@U?$_Callable_obj@V<lambda_f8882b2bf4f22a473592eb1ff5482a78>@@$0A@@std@@V?$allocator@V?$_Func_class@_NAAVCFile@@@std@@@2@_NAAVCFile@@@std@@EAEX_N@Z 10004fc0 f i Stream.obj
 0001:00003fc0       ?_Delete_this@?$_Func_impl@U?$_Callable_obj@V<lambda_5c9231035f6c38fca048a0864a8210ea>@@$0A@@std@@V?$allocator@V?$_Func_class@W4StreamResult@baro@@AAV?$CStringT@_WV?$StrTraitMFC_DLL@_WV?$ChTraitsCRT@_W@ATL@@@@@ATL@@@std@@@2@W4StreamResult@baro@@AAV?$CStringT@_WV?$StrTraitMFC_DLL@_WV?$ChTraitsCRT@_W@ATL@@@@@ATL@@@std@@EAEX_N@Z 10004fc0 f i stdafx.obj
 0001:00003fc0       ?_Delete_this@?$_Func_impl@U?$_Callable_obj@V<lambda_660079388d01d824f1d4f65d6714bd9d>@@$0A@@std@@V?$allocator@V?$_Func_class@MI@std@@@2@MI@std@@EAEX_N@Z 10004fc0 f i PointCoord.obj
 0001:00003fc0       ?_Delete_this@?$_Func_impl@U?$_Callable_obj@V<lambda_92ae8a6edb3cc5c1e2896be211724754>@@$0A@@std@@V?$allocator@V?$_Func_class@XV?$CStringT@_WV?$StrTraitMFC_DLL@_WV?$ChTraitsCRT@_W@ATL@@@@@ATL@@AAV?$vector@V?$CStringT@_WV?$StrTraitMFC_DLL@_WV?$ChTraitsCRT@_W@ATL@@@@@ATL@@V?$allocator@V?$CStringT@_WV?$StrTraitMFC_DLL@_WV?$ChTraitsCRT@_W@ATL@@@@@ATL@@@std@@@std@@@std@@@2@XV?$CStringT@_WV?$StrTraitMFC_DLL@_WV?$ChTraitsCRT@_W@ATL@@@@@ATL@@AAV?$vector@V?$CStringT@_WV?$StrTraitMFC_DLL@_WV?$ChTraitsCRT@_W@ATL@@@@@ATL@@V?$allocator@V?$CStringT@_WV?$StrTraitMFC_DLL@_WV?$ChTraitsCRT@_W@ATL@@@@@ATL@@@std@@@2@@std@@EAEX_N@Z 10004fc0 f i file.obj
 0001:00003fc0       ?_Delete_this@?$_Func_impl@U?$_Callable_obj@V<lambda_71f23d2cacd049d0fc44bb672969fbab>@@$0A@@std@@V?$allocator@V?$_Func_class@W4StreamResult@baro@@AAV?$CStringT@_WV?$StrTraitMFC_DLL@_WV?$ChTraitsCRT@_W@ATL@@@@@ATL@@@std@@@2@W4StreamResult@baro@@AAV?$CStringT@_WV?$StrTraitMFC_DLL@_WV?$ChTraitsCRT@_W@ATL@@@@@ATL@@@std@@EAEX_N@Z 10004fc0 f i stdafx.obj
 0001:00003fc0       ?_Delete_this@?$_Func_impl@U?$_Callable_obj@V<lambda_e76177b2965f6f295be7c5f96021c124>@@$0A@@std@@V?$allocator@V?$_Func_class@W4StreamResult@baro@@AAV?$CStringT@_WV?$StrTraitMFC_DLL@_WV?$ChTraitsCRT@_W@ATL@@@@@ATL@@@std@@@2@W4StreamResult@baro@@AAV?$CStringT@_WV?$StrTraitMFC_DLL@_WV?$ChTraitsCRT@_W@ATL@@@@@ATL@@@std@@EAEX_N@Z 10004fc0 f i stdafx.obj
 0001:00003fc0       ?_Delete_this@?$_Func_impl@U?$_Callable_obj@V<lambda_187152e110f699ad5b1ab81533769cf2>@@$0A@@std@@V?$allocator@V?$_Func_class@W4StreamResult@baro@@ABV?$CStringT@_WV?$StrTraitMFC_DLL@_WV?$ChTraitsCRT@_W@ATL@@@@@ATL@@@std@@@2@W4StreamResult@baro@@ABV?$CStringT@_WV?$StrTraitMFC_DLL@_WV?$ChTraitsCRT@_W@ATL@@@@@ATL@@@std@@EAEX_N@Z 10004fc0 f i stdafx.obj
 0001:00003fc0       ?_Delete_this@?$_Func_impl@U?$_Callable_obj@V<lambda_f15cf28b79eebeba7dee09e3ec20cd6a>@@$0A@@std@@V?$allocator@V?$_Func_class@MI@std@@@2@MI@std@@EAEX_N@Z 10004fc0 f i PointCoord.obj
 0001:00003ff0       ??$_Uninit_copy@PBV?$CStringT@_WV?$StrTraitMFC_DLL@_WV?$ChTraitsCRT@_W@ATL@@@@@ATL@@PAV12@V?$allocator@V?$CStringT@_WV?$StrTraitMFC_DLL@_WV?$ChTraitsCRT@_W@ATL@@@@@ATL@@@std@@@std@@YAPAV?$CStringT@_WV?$StrTraitMFC_DLL@_WV?$ChTraitsCRT@_W@ATL@@@@@ATL@@PBV12@0PAV12@AAU?$_Wrap_alloc@V?$allocator@V?$CStringT@_WV?$StrTraitMFC_DLL@_WV?$ChTraitsCRT@_W@ATL@@@@@ATL@@@std@@@0@U_Nonscalar_ptr_iterator_tag@0@@Z 10004ff0 f i Sqlite.obj
 0001:00003ff0       ??$_Uninit_move@PAV?$CStringT@_WV?$StrTraitMFC_DLL@_WV?$ChTraitsCRT@_W@ATL@@@@@ATL@@PAV12@V?$allocator@V?$CStringT@_WV?$StrTraitMFC_DLL@_WV?$ChTraitsCRT@_W@ATL@@@@@ATL@@@std@@V12@@std@@YAPAV?$CStringT@_WV?$StrTraitMFC_DLL@_WV?$ChTraitsCRT@_W@ATL@@@@@ATL@@PAV12@00AAU?$_Wrap_alloc@V?$allocator@V?$CStringT@_WV?$StrTraitMFC_DLL@_WV?$ChTraitsCRT@_W@ATL@@@@@ATL@@@std@@@0@0U_Nonscalar_ptr_iterator_tag@0@@Z 10004ff0 f i file.obj
 0001:00004090       ?_Reallocate@?$vector@V?$CStringT@_WV?$StrTraitMFC_DLL@_WV?$ChTraitsCRT@_W@ATL@@@@@ATL@@V?$allocator@V?$CStringT@_WV?$StrTraitMFC_DLL@_WV?$ChTraitsCRT@_W@ATL@@@@@ATL@@@std@@@std@@IAEXI@Z 10005090 f i file.obj
 0001:00004180       ?_Reserve@?$vector@V?$CStringT@_WV?$StrTraitMFC_DLL@_WV?$ChTraitsCRT@_W@ATL@@@@@ATL@@V?$allocator@V?$CStringT@_WV?$StrTraitMFC_DLL@_WV?$ChTraitsCRT@_W@ATL@@@@@ATL@@@std@@@std@@IAEXI@Z 10005180 f i file.obj
 0001:000041f0       ?push_back@?$vector@V?$CStringT@_WV?$StrTraitMFC_DLL@_WV?$ChTraitsCRT@_W@ATL@@@@@ATL@@V?$allocator@V?$CStringT@_WV?$StrTraitMFC_DLL@_WV?$ChTraitsCRT@_W@ATL@@@@@ATL@@@std@@@std@@QAEXABV?$CStringT@_WV?$StrTraitMFC_DLL@_WV?$ChTraitsCRT@_W@ATL@@@@@ATL@@@Z 100051f0 f i file.obj
 0001:00004290       ??HATL@@YA?AV?$CStringT@_WV?$StrTraitMFC_DLL@_WV?$ChTraitsCRT@_W@ATL@@@@@0@PB_WABV10@@Z 10005290 f i file.obj
 0001:00004330       ?AfxGetApp@@YGPAVCWinApp@@XZ 10005330 f i file.obj
 0001:00004340       ?IncreaseColor@bapi@@YAKKM@Z 10005340 f   gdi.obj
 0001:000043e0       ?IncreaseColor@bapi@@YA?AVColor@Gdiplus@@V23@MM@Z 100053e0 f   gdi.obj
 0001:000044e0       ?DirectColor@bapi@@YAKKM@Z 100054e0 f   gdi.obj
 0001:00004570       ?DirectColor@bapi@@YA?AVColor@Gdiplus@@V23@MM@Z 10005570 f   gdi.obj
 0001:00004650       ?MakeRandomRGB@bapi@@YAKXZ 10005650 f   gdi.obj
 0001:00004680       ?MakeRandomColor@bapi@@YA?AVColor@Gdiplus@@XZ 10005680 f   gdi.obj
 0001:000046d0       ?SetGraphics@bapi@@YAXPAVGraphics@Gdiplus@@_N1@Z 100056d0 f   gdi.obj
 0001:00004740       ?GetDrawTextSize@bapi@@YA?AVCSize@@PAVCDC@@PB_W@Z 10005740 f   gdi.obj
 0001:000047c0       ?GetDisplayStringSize@bapi@@YA?AVCSize@@PAVCDC@@PB_W@Z 100057c0 f   gdi.obj
 0001:00004870       ?GetFitStringAddDot@bapi@@YA?AV?$CStringT@_WV?$StrTraitMFC_DLL@_WV?$ChTraitsCRT@_W@ATL@@@@@ATL@@PAVCDC@@PB_WHPAVCSize@@@Z 10005870 f   gdi.obj
 0001:00004ac0       ?GetFitStringAddDotReverse@bapi@@YA?AV?$CStringT@_WV?$StrTraitMFC_DLL@_WV?$ChTraitsCRT@_W@ATL@@@@@ATL@@PAVCDC@@V23@HPAVCSize@@@Z 10005ac0 f   gdi.obj
 0001:00004b80       ?DrawOutsideTabLine@bapi@@YAXPAVCDC@@AAVCRect@@_N@Z 10005b80 f   gdi.obj
 0001:00004be0       ?DrawOutsideTabLineEx@bapi@@YAXPAVCDC@@AAVCRect@@@Z 10005be0 f   gdi.obj
 0001:00004c40       ?DrawFrameRect@bapi@@YAXPAVCDC@@HHHHKH@Z 10005c40 f   gdi.obj
 0001:00004d30       ?DrawFrameRect@bapi@@YAXPAVCDC@@HHHHKK@Z 10005d30 f   gdi.obj
 0001:00004da0       ?DrawFrameRect@bapi@@YAXAAVGraphics@Gdiplus@@AAVPen@3@AAVCRect@@@Z 10005da0 f   gdi.obj
 0001:00004e50       ?DrawFrameRect@bapi@@YAXAAVGraphics@Gdiplus@@AAVPen@3@AAVRectF@3@@Z 10005e50 f   gdi.obj
 0001:00004f00       ?DrawFrameRect@bapi@@YAXAAVGraphics@Gdiplus@@AAVPen@3@AAVPointF@3@2@Z 10005f00 f   gdi.obj
 0001:00004fd0       ?GetBitmapBits@bapi@@YA_NAAVCBitmap@@AAV?$TBuffer@E@baro@@@Z 10005fd0 f   gdi.obj
 0001:00005080       ?GetBitmapBits@bapi@@YA_NQAUHBITMAP__@@AAV?$TBuffer@E@baro@@@Z 10006080 f   gdi.obj
 0001:000050a0       ??$MakeRandom@H@bapi@@YAHHH@Z 100060a0 f i gdi.obj
 0001:000051b0       ?seed@?$mersenne_twister@_K$0EA@$0BDI@$0JM@$0BP@$0?EKPNJAKFFGJJOGBH@$0BN@$0BB@$0HBNGHPPPONKGAAAA@$0CF@$0?IBBCAAAAAAAAA@$0CL@@std@@QAEXK_K@Z 100061b0 f i gdi.obj
 0001:00005220       ??R?$_Rng_from_urng@IV?$mersenne_twister_engine@_K$0EA@$0BDI@$0JM@$0BP@$0?EKPNJAKFFGJJOGBH@$0BN@$0FFFFFFFFFFFFFFFF@$0BB@$0HBNGHPPPONKGAAAA@$0CF@$0?IBBCAAAAAAAAA@$0CL@$0FIFBPECNEMJFHPCN@@std@@@std@@QAEII@Z 10006220 f i gdi.obj
 0001:000053d0       ?_Refill_lower@?$mersenne_twister@_K$0EA@$0BDI@$0JM@$0BP@$0?EKPNJAKFFGJJOGBH@$0BN@$0BB@$0HBNGHPPPONKGAAAA@$0CF@$0?IBBCAAAAAAAAA@$0CL@@std@@IAEXXZ 100063d0 f i gdi.obj
 0001:00005540       ?_Refill_upper@?$mersenne_twister@_K$0EA@$0BDI@$0JM@$0BP@$0?EKPNJAKFFGJJOGBH@$0BN@$0BB@$0HBNGHPPPONKGAAAA@$0CF@$0?IBBCAAAAAAAAA@$0CL@@std@@IAEXXZ 10006540 f i gdi.obj
 0001:000055c0       ??1?$basic_string@DU?$char_traits@D@std@@V?$allocator@D@2@@std@@QAE@XZ 100065c0 f i gdi.obj
 0001:000055f0       ?erase@?$basic_string@DU?$char_traits@D@std@@V?$allocator@D@2@@std@@QAEAAV12@II@Z 100065f0 f i gdi.obj
 0001:00005670       ?assign@?$basic_string@DU?$char_traits@D@std@@V?$allocator@D@2@@std@@QAEAAV12@ABV12@II@Z 10006670 f i gdi.obj
 0001:00005750       ?allocate@?$_Wrap_alloc@V?$allocator@D@std@@@std@@QAEPADI@Z 10006750 f i gdi.obj
 0001:00005780       ?_Copy@?$basic_string@DU?$char_traits@D@std@@V?$allocator@D@2@@std@@QAEXII@Z 10006780 f i gdi.obj
 0001:000058d0       ?_Grow@?$basic_string@DU?$char_traits@D@std@@V?$allocator@D@2@@std@@QAE_NI_N@Z 100068d0 f i gdi.obj
 0001:00005930       ?assign@?$basic_string@DU?$char_traits@D@std@@V?$allocator@D@2@@std@@QAEAAV12@PBDI@Z 10006930 f i gdi.obj
 0001:00005a30       ?GetBuffer@CryptBuffer@baro@@QAEPBEXZ 10006a30 f i CryptBuffer.obj
 0001:00005a30       ?GetLength@Stream@baro@@QAEIXZ 10006a30 f i Stream.obj
 0001:00005a30       ?GetLength@?$TBuffer@E@baro@@QBEIXZ 10006a30 f i gdi.obj
 0001:00005a30       ?GetWindowHwnd@MsgProcedure@helper@baro@@QAEPAUHWND__@@XZ 10006a30 f i MsgThread.obj
 0001:00005a40       ??1CPen@@UAE@XZ            10006a40 f i gdi.obj
 0001:00005a50       ??_GCGdiObject@@UAEPAXI@Z  10006a50 f i gdi.obj
 0001:00005a50       ??_ECGdiObject@@UAEPAXI@Z  10006a50 f i * CIL library *:* CIL module *
 0001:00005a80       ??1CGdiObject@@UAE@XZ      10006a80 f i gdi.obj
 0001:00005b90       ??_GCPen@@UAEPAXI@Z        10006b90 f i gdi.obj
 0001:00005b90       ??_ECPen@@UAEPAXI@Z        10006b90 f i * CIL library *:* CIL module *
 0001:00005bc0       ??0CPen@@QAE@XZ            10006bc0 f i gdi.obj
 0001:00005bd0       ?GetFileExtensionToIcon@Icon@bapi@@YA_NV?$CStringT@_WV?$StrTraitMFC_DLL@_WV?$ChTraitsCRT@_W@ATL@@@@@ATL@@AAPAUHICON__@@1AA_N@Z 10006bd0 f   image.obj
 0001:00005e20       ?GetFilePathToIcon@Icon@bapi@@YA_NV?$CStringT@_WV?$StrTraitMFC_DLL@_WV?$ChTraitsCRT@_W@ATL@@@@@ATL@@AAPAUHICON__@@1AA_N@Z 10006e20 f   image.obj
 0001:00006090       ?AddLinkedIconMerge@Icon@bapi@@YA_NAAPAUHICON__@@@Z 10007090 f   image.obj
 0001:00006170       ?GetEncoderCLSID@Image@bapi@@YAHQB_WAAU_GUID@@@Z 10007170 f   image.obj
 0001:00006290       ?GetAspectResize@Image@bapi@@YA?AVCSize@@V3@0PAVCPoint@@@Z 10007290 f   image.obj
 0001:00006380       ?SaveImageFile@Image@bapi@@YA?AW4Status@Gdiplus@@PAUHBITMAP__@@PB_W1@Z 10007380 f   image.obj
 0001:000064d0       ?CreateImageThumbnail@Image@bapi@@YA_NV?$CStringT@_WV?$StrTraitMFC_DLL@_WV?$ChTraitsCRT@_W@ATL@@@@@ATL@@0AAVCSize@@1@Z 100074d0 f   image.obj
 0001:00006850       ??1Graphics@Gdiplus@@QAE@XZ 10007850 f i image.obj
 0001:00006860       ??_EBitmap@Gdiplus@@UAEPAXI@Z 10007860 f i * CIL library *:* CIL module *
 0001:00006860       ??_GBitmap@Gdiplus@@UAEPAXI@Z 10007860 f i image.obj
 0001:00006860       ??_EImage@Gdiplus@@UAEPAXI@Z 10007860 f i * CIL library *:* CIL module *
 0001:00006860       ??_GImage@Gdiplus@@UAEPAXI@Z 10007860 f i image.obj
 0001:00006890       ??1Bitmap@Gdiplus@@UAE@XZ  10007890 f i image.obj
 0001:000068a0       ?Clone@Image@Gdiplus@@UAEPAV12@XZ 100078a0 f i image.obj
 0001:00006920       ?GetMonitorInfoW@bapi@@YA?AVMonitorInfo@baro@@PAUtagRECT@@@Z 10007920 f   monitor.obj
 0001:00006b50       ?GetPrimaryArea@bapi@@YA?AVCRect@@XZ 10007b50 f   monitor.obj
 0001:00006bb0       ?GetPrimaryWork@bapi@@YA?AVCRect@@XZ 10007bb0 f   monitor.obj
 0001:00006c10       ?GetCurrentWorkArea@bapi@@YA?AVCRect@@PAUHWND__@@@Z 10007c10 f   monitor.obj
 0001:00006c70       ?GetCurrentWorkArea@bapi@@YA?AVCRect@@PAUtagRECT@@@Z 10007c70 f   monitor.obj
 0001:00006cd0       ?GetCurrentMonitorArea@bapi@@YA?AVCRect@@PAUHWND__@@@Z 10007cd0 f   monitor.obj
 0001:00006d30       ?GetCurrentMonitorArea@bapi@@YA?AVCRect@@PAUtagRECT@@@Z 10007d30 f   monitor.obj
 0001:00006d90       ?GetMonitorResolution@bapi@@YA?AVCSize@@XZ 10007d90 f   monitor.obj
 0001:00006e00       ?GetMonitorMaxResolution@bapi@@YA?AVCSize@@XZ 10007e00 f   monitor.obj
 0001:00006e70       ?GetMonitorExArea@bapi@@YA?AVCRect@@PAUHWND__@@@Z 10007e70 f   monitor.obj
 0001:00006f10       ?GetMonitorExArea@bapi@@YA?AVCRect@@PAUtagRECT@@@Z 10007f10 f   monitor.obj
 0001:00006f70       ?IsRectInMonitorArea@bapi@@YAXVCRect@@AA_N111@Z 10007f70 f   monitor.obj
 0001:00006fe0       ?IsRectInMonitorAreaEx@bapi@@YAXVCRect@@AA_N111@Z 10007fe0 f   monitor.obj
 0001:00007060       ?_Reserve@?$vector@VCRect@@V?$allocator@VCRect@@@std@@@std@@IAEXI@Z 10008060 f i monitor.obj
 0001:000070d0       ?_Reallocate@?$vector@VCRect@@V?$allocator@VCRect@@@std@@@std@@IAEXI@Z 100080d0 f i monitor.obj
 0001:00007150       ??$_Uninit_move@PAVCRect@@PAV1@V?$allocator@VCRect@@@std@@V1@@std@@YAPAVCRect@@PAV1@00AAU?$_Wrap_alloc@V?$allocator@VCRect@@@std@@@0@0U_Nonscalar_ptr_iterator_tag@0@@Z 10008150 f i monitor.obj
 0001:00007150       ??$_Uninit_copy@PAVCRect@@PAV1@V?$allocator@VCRect@@@std@@@std@@YAPAVCRect@@PAV1@00AAU?$_Wrap_alloc@V?$allocator@VCRect@@@std@@@0@U_Nonscalar_ptr_iterator_tag@0@@Z 10008150 f i MonitorInfo.obj
 0001:00007180       ?MakeStretchSize@bapi@@YA?AVCSize@@V2@0@Z 10008180 f   numeric.obj
 0001:00007250       ?RegistryHwnd@bapi@@YAPAUHWND__@@_NPB_W1PAU2@@Z 10008250 f   registry.obj
 0001:00007390       ?RegistryString@bapi@@YA?AV?$CStringT@_WV?$StrTraitMFC_DLL@_WV?$ChTraitsCRT@_W@ATL@@@@@ATL@@_NPB_W11@Z 10008390 f   registry.obj
 0001:00007540       ?RegistryDword@bapi@@YAK_NPB_W1K@Z 10008540 f   registry.obj
 0001:00007600       ?RegistryFloat@bapi@@YAM_NPB_W1MM@Z 10008600 f   registry.obj
 0001:00007650       ?RegistryBool@bapi@@YA_N_NPB_W10@Z 10008650 f   registry.obj
 0001:00007710       ?ReadRegistryString@bapi@@YA?AV?$CStringT@_WV?$StrTraitMFC_DLL@_WV?$ChTraitsCRT@_W@ATL@@@@@ATL@@PAUHKEY__@@PB_W1V23@@Z 10008710 f   registry.obj
 0001:00007870       ?ReadLocalRegistryString@bapi@@YA?AV?$CStringT@_WV?$StrTraitMFC_DLL@_WV?$ChTraitsCRT@_W@ATL@@@@@ATL@@PB_W0V23@@Z 10008870 f   registry.obj
 0001:000078f0       ?ReadUserRegistryString@bapi@@YA?AV?$CStringT@_WV?$StrTraitMFC_DLL@_WV?$ChTraitsCRT@_W@ATL@@@@@ATL@@PB_W0V23@@Z 100088f0 f   registry.obj
 0001:00007970       ?MakeString@bapi@@YA?AV?$CStringT@_WV?$StrTraitMFC_DLL@_WV?$ChTraitsCRT@_W@ATL@@@@@ATL@@PB_WZZ 10008970 f   string.obj
 0001:00007a30       ?MakeNumberString@bapi@@YA?AV?$CStringT@_WV?$StrTraitMFC_DLL@_WV?$ChTraitsCRT@_W@ATL@@@@@ATL@@H@Z 10008a30 f   string.obj
 0001:00007a50       ?MakeNumberString@bapi@@YA?AV?$CStringT@_WV?$StrTraitMFC_DLL@_WV?$ChTraitsCRT@_W@ATL@@@@@ATL@@M@Z 10008a50 f   string.obj
 0001:00007a70       ?MakeNumberString@bapi@@YA?AV?$CStringT@_WV?$StrTraitMFC_DLL@_WV?$ChTraitsCRT@_W@ATL@@@@@ATL@@N@Z 10008a70 f   string.obj
 0001:00007aa0       ?MakeLocalTimeString@bapi@@YA?AV?$CStringT@_WV?$StrTraitMFC_DLL@_WV?$ChTraitsCRT@_W@ATL@@@@@ATL@@AAU_SYSTEMTIME@@@Z 10008aa0 f   string.obj
 0001:00007af0       ?MakeLocalTimeString@bapi@@YA?AV?$CStringT@_WV?$StrTraitMFC_DLL@_WV?$ChTraitsCRT@_W@ATL@@@@@ATL@@XZ 10008af0 f   string.obj
 0001:00007b40       ?FileSizeToString@bapi@@YA?AV?$CStringT@_WV?$StrTraitMFC_DLL@_WV?$ChTraitsCRT@_W@ATL@@@@@ATL@@N_N@Z 10008b40 f   string.obj
 0001:00007c90       ?MakeErrorString@bapi@@YA?AV?$CStringT@_WV?$StrTraitMFC_DLL@_WV?$ChTraitsCRT@_W@ATL@@@@@ATL@@KK@Z 10008c90 f   string.obj
 0001:00007cf0       ?MakeGdiErrorString@bapi@@YA?AV?$CStringT@_WV?$StrTraitMFC_DLL@_WV?$ChTraitsCRT@_W@ATL@@@@@ATL@@W4Status@Gdiplus@@@Z 10008cf0 f   string.obj
 0001:00007f50       ?MakeExceptionString@bapi@@YA?AV?$CStringT@_WV?$StrTraitMFC_DLL@_WV?$ChTraitsCRT@_W@ATL@@@@@ATL@@PAVCException@@@Z 10008f50 f   string.obj
 0001:00007fc0       ?MakeGuidString@bapi@@YA?AV?$CStringT@_WV?$StrTraitMFC_DLL@_WV?$ChTraitsCRT@_W@ATL@@@@@ATL@@ABU_GUID@@@Z 10008fc0 f   string.obj
 0001:00008020       ?MakeGuidString@bapi@@YA?AV?$CStringT@_WV?$StrTraitMFC_DLL@_WV?$ChTraitsCRT@_W@ATL@@@@@ATL@@XZ 10009020 f   string.obj
 0001:00008070       ?SystemTimeToString@bapi@@YA?AV?$CStringT@_WV?$StrTraitMFC_DLL@_WV?$ChTraitsCRT@_W@ATL@@@@@ATL@@ABU_SYSTEMTIME@@@Z 10009070 f   string.obj
 0001:000081a0       ?SystemTimeToString2@bapi@@YA?AV?$CStringT@_WV?$StrTraitMFC_DLL@_WV?$ChTraitsCRT@_W@ATL@@@@@ATL@@ABU_SYSTEMTIME@@@Z 100091a0 f   string.obj
 0001:00008260       ?SystemTimeToStringEx@bapi@@YA?AV?$CStringT@_WV?$StrTraitMFC_DLL@_WV?$ChTraitsCRT@_W@ATL@@@@@ATL@@ABU_SYSTEMTIME@@_N@Z 10009260 f   string.obj
 0001:000084e0       ?SystemTimeToJustHourString@bapi@@YA?AV?$CStringT@_WV?$StrTraitMFC_DLL@_WV?$ChTraitsCRT@_W@ATL@@@@@ATL@@ABU_SYSTEMTIME@@@Z 100094e0 f   string.obj
 0001:000086d0       ?SystemtimeToFullString@bapi@@YA?AV?$CStringT@_WV?$StrTraitMFC_DLL@_WV?$ChTraitsCRT@_W@ATL@@@@@ATL@@ABU_SYSTEMTIME@@@Z 100096d0 f   string.obj
 0001:00008720       ?SystemtimeToMonthString@bapi@@YA?AV?$CStringT@_WV?$StrTraitMFC_DLL@_WV?$ChTraitsCRT@_W@ATL@@@@@ATL@@ABU_SYSTEMTIME@@@Z 10009720 f   string.obj
 0001:000088a0       ?SystemtimeToDayString@bapi@@YA?AV?$CStringT@_WV?$StrTraitMFC_DLL@_WV?$ChTraitsCRT@_W@ATL@@@@@ATL@@ABU_SYSTEMTIME@@@Z 100098a0 f   string.obj
 0001:00008990       ?SystemTimeToVariantTimeMS@bapi@@YANU_SYSTEMTIME@@@Z 10009990 f   string.obj
 0001:00008a10       ?VariantTimeToSystemTimeMS@bapi@@YA?AU_SYSTEMTIME@@N@Z 10009a10 f   string.obj
 0001:00008b10       ?GetLocalTime@bapi@@YA?AU_SYSTEMTIME@@XZ 10009b10 f   string.obj
 0001:00008b30       ?GetLocalTimeMS@bapi@@YANXZ 10009b30 f   string.obj
 0001:00008bc0       ?FindCharCut@bapi@@YA_NABV?$CStringT@_WV?$StrTraitMFC_DLL@_WV?$ChTraitsCRT@_W@ATL@@@@@ATL@@_WAAV23@2@Z 10009bc0 f   string.obj
 0001:00008ca0       ?FindCharCut@bapi@@YA_NABV?$CStringT@_WV?$StrTraitMFC_DLL@_WV?$ChTraitsCRT@_W@ATL@@@@@ATL@@V23@AAV23@2@Z 10009ca0 f   string.obj
 0001:00008d80       ?FindCharCutReverse@bapi@@YA_NABV?$CStringT@_WV?$StrTraitMFC_DLL@_WV?$ChTraitsCRT@_W@ATL@@@@@ATL@@_WAAV23@2@Z 10009d80 f   string.obj
 0001:00008e60       ?ConvertA2W@bapi@@YAPB_WPBDIAAV?$CAutoPtrArray@_W@ATL@@@Z 10009e60 f   string.obj
 0001:00008f80       ?ConvertW2A@bapi@@YAPBDPB_WIAAV?$CAutoPtrArray@D@ATL@@@Z 10009f80 f   string.obj
 0001:000090a0       ?GetConvertStringA@bapi@@YA?AV?$CStringT@DV?$StrTraitMFC_DLL@DV?$ChTraitsCRT@D@ATL@@@@@ATL@@V?$CStringT@_WV?$StrTraitMFC_DLL@_WV?$ChTraitsCRT@_W@ATL@@@@@3@@Z 1000a0a0 f   string.obj
 0001:000091c0       ??1?$CAutoPtrArray@D@ATL@@QAE@XZ 1000a1c0 f i string.obj
 0001:000091c0       ??1?$CAutoPtrArray@_W@ATL@@QAE@XZ 1000a1c0 f i string.obj
 0001:00009210       ?GetConvertStringW@bapi@@YA?AV?$CStringT@_WV?$StrTraitMFC_DLL@_WV?$ChTraitsCRT@_W@ATL@@@@@ATL@@V?$CStringT@DV?$StrTraitMFC_DLL@DV?$ChTraitsCRT@D@ATL@@@@@3@@Z 1000a210 f   string.obj
 0001:00009330       ??1?$CAutoPtr@D@ATL@@QAE@XZ 1000a330 f i string.obj
 0001:00009330       ??1?$CAutoPtr@_W@ATL@@QAE@XZ 1000a330 f i string.obj
 0001:00009350       ??$MakeNumberString@H@bapi@@YA?AV?$CStringT@_WV?$StrTraitMFC_DLL@_WV?$ChTraitsCRT@_W@ATL@@@@@ATL@@H@Z 1000a350 f i string.obj
 0001:00009500       ??$MakeNumberString@_J@bapi@@YA?AV?$CStringT@_WV?$StrTraitMFC_DLL@_WV?$ChTraitsCRT@_W@ATL@@@@@ATL@@_J@Z 1000a500 f i string.obj
 0001:00009700       ?Add@?$CAtlArray@V?$CAutoPtr@_W@ATL@@V?$CAutoPtrElementTraits@_W@2@@ATL@@QAEIAAV?$CAutoPtr@_W@2@@Z 1000a700 f i string.obj
 0001:00009700       ?Add@?$CAtlArray@V?$CAutoPtr@D@ATL@@V?$CAutoPtrElementTraits@D@2@@ATL@@QAEIAAV?$CAutoPtr@D@2@@Z 1000a700 f i string.obj
 0001:00009750       ?GrowBuffer@?$CAtlArray@V?$CAutoPtr@D@ATL@@V?$CAutoPtrElementTraits@D@2@@ATL@@AAE_NI@Z 1000a750 f i string.obj
 0001:00009750       ?GrowBuffer@?$CAtlArray@V?$CAutoPtr@_W@ATL@@V?$CAutoPtrElementTraits@_W@2@@ATL@@AAE_NI@Z 1000a750 f i string.obj
 0001:000097f0       ?AfxCrtErrorCheck@@YAHH@Z  1000a7f0 f i string.obj
 0001:00009880       ?AtlThrowImpl@ATL@@YGXJ@Z  1000a880 f i string.obj
 0001:000098a0       ?GetWinVersion@bapi@@YAHAAU_OSVERSIONINFOEXW@@@Z 1000a8a0 f   system.obj
 0001:00009940       ?GetWinVersion@bapi@@YAHAAK0@Z 1000a940 f   system.obj
 0001:00009a00       ?GetBuildVersion@bapi@@YAHAAK@Z 1000aa00 f   system.obj
 0001:00009ac0       ?GetPcName@bapi@@YA?AV?$CStringT@_WV?$StrTraitMFC_DLL@_WV?$ChTraitsCRT@_W@ATL@@@@@ATL@@XZ 1000aac0 f   system.obj
 0001:00009b40       ?GetUserNameW@bapi@@YA?AV?$CStringT@_WV?$StrTraitMFC_DLL@_WV?$ChTraitsCRT@_W@ATL@@@@@ATL@@_N@Z 1000ab40 f   system.obj
 0001:00009c40       ?GetLanAdapterList@bapi@@YA_NAAV?$vector@V?$CStringT@_WV?$StrTraitMFC_DLL@_WV?$ChTraitsCRT@_W@ATL@@@@@ATL@@V?$allocator@V?$CStringT@_WV?$StrTraitMFC_DLL@_WV?$ChTraitsCRT@_W@ATL@@@@@ATL@@@std@@@std@@00@Z 1000ac40 f   system.obj
 0001:0000a000       ?GetEncoderCLSID@bapi@@YAHQB_WAAU_GUID@@@Z 1000b000 f   system.obj
 0001:0000a120       ?IsSupportAutoMouseTracking@bapi@@YA_NXZ 1000b120 f   system.obj
 0001:0000a1b0       ?GetInstance@?$TSingleton@$$CBVSystemInfo@baro@@@baro@@SAABVSystemInfo@2@XZ 1000b1b0 f i system.obj
 0001:0000a240       ?clear@?$vector@V?$CStringT@_WV?$StrTraitMFC_DLL@_WV?$ChTraitsCRT@_W@ATL@@@@@ATL@@V?$allocator@V?$CStringT@_WV?$StrTraitMFC_DLL@_WV?$ChTraitsCRT@_W@ATL@@@@@ATL@@@std@@@std@@QAEXXZ 1000b240 f i system.obj
 0001:0000a280       ?GetDateEqualPos@bapi@@YA?AW4SystemtimePos@baro@@ABU_SYSTEMTIME@@0@Z 1000b280 f   time.obj
 0001:0000a2f0       ?GetTodayEqualPos@bapi@@YA?AW4SystemtimePos@baro@@ABU_SYSTEMTIME@@@Z 1000b2f0 f   time.obj
 0001:0000a330       ?CompareDate@bapi@@YAHABU_SYSTEMTIME@@0@Z 1000b330 f   time.obj
 0001:0000a3f0       ?CompareToday@bapi@@YAHABU_SYSTEMTIME@@@Z 1000b3f0 f   time.obj
 0001:0000a430       ?GetCursorWindow@bapi@@YAPAVCWnd@@XZ 1000b430 f   window.obj
 0001:0000a490       ?GetSystemTrayPosition@bapi@@YA_NAAVCPoint@@@Z 1000b490 f   window.obj
 0001:0000a510       ??0A256B64@baro@@QAE@V?$CStringT@DV?$StrTraitMFC_DLL@DV?$ChTraitsCRT@D@ATL@@@@@ATL@@KK@Z 1000b510 f   A256B64.obj
 0001:0000a590       ??0A256B64@baro@@QAE@V?$CStringT@_WV?$StrTraitMFC_DLL@_WV?$ChTraitsCRT@_W@ATL@@@@@ATL@@KK@Z 1000b590 f   A256B64.obj
 0001:0000a600       ??0A256B64@baro@@QAE@PBE0KK@Z 1000b600 f   A256B64.obj
 0001:0000a630       ?Release@A256B64@baro@@AAEXXZ 1000b630 f   A256B64.obj
 0001:0000a660       ?Initialize@A256B64@baro@@QAE_NV?$CStringT@DV?$StrTraitMFC_DLL@DV?$ChTraitsCRT@D@ATL@@@@@ATL@@KK@Z 1000b660 f   A256B64.obj
 0001:0000a770       ?Initialize@A256B64@baro@@QAE_NPBE0KK@Z 1000b770 f   A256B64.obj
 0001:0000a950       ?EncryptA@A256B64@baro@@QBEIPBDAAV?$CStringT@DV?$StrTraitMFC_DLL@DV?$ChTraitsCRT@D@ATL@@@@@ATL@@@Z 1000b950 f   A256B64.obj
 0001:0000aa70       ?DecryptA@A256B64@baro@@QBEIPBDAAV?$CStringT@DV?$StrTraitMFC_DLL@DV?$ChTraitsCRT@D@ATL@@@@@ATL@@@Z 1000ba70 f   A256B64.obj
 0001:0000ab90       ?GetBuffer@?$TBuffer@E@baro@@QBEPBEI@Z 1000bb90 f i A256B64.obj
 0001:0000ab90       ?GetBuffer@Stream@baro@@QAEPBEI@Z 1000bb90 f i Stream.obj
 0001:0000abb0       ?Update@?$TBuffer@E@baro@@QAEIIPBEI@Z 1000bbb0 f i A256B64.obj
 0001:0000ac40       ??1?$TBuffer@E@baro@@UAE@XZ 1000bc40 f i A256B64.obj
 0001:0000ac70       ??_E?$TBuffer@E@baro@@UAEPAXI@Z 1000bc70 f i A256B64.obj
 0001:0000acf0       ??0?$TBuffer@E@baro@@QAE@XZ 1000bcf0 f i A256B64.obj
 0001:0000ad10       ??0CryptBuffer@baro@@QAE@I@Z 1000bd10 f   CryptBuffer.obj
 0001:0000ad80       ??0CryptBuffer@baro@@QAE@AAV01@@Z 1000bd80 f   CryptBuffer.obj
 0001:0000ae10       ??0CryptBuffer@baro@@QAE@PBD@Z 1000be10 f   CryptBuffer.obj
 0001:0000aea0       ??0CryptBuffer@baro@@QAE@PB_W@Z 1000bea0 f   CryptBuffer.obj
 0001:0000af10       ??0CryptBuffer@baro@@QAE@PBXI@Z 1000bf10 f   CryptBuffer.obj
 0001:0000af90       ??1CryptBuffer@baro@@UAE@XZ 1000bf90 f   CryptBuffer.obj
 0001:0000afc0       ??4CryptBuffer@baro@@QAEAAV01@ABV01@@Z 1000bfc0 f   CryptBuffer.obj
 0001:0000b020       ?GetStrBuffer@CryptBuffer@baro@@QAEPBDXZ 1000c020 f   CryptBuffer.obj
 0001:0000b040       ?GetInitHeaderPtr@Stream@baro@@QBEPBVStreamHeader@2@XZ 1000c040 f   Stream.obj
 0001:0000b040       ?GetLength@CryptBuffer@baro@@QAEIXZ 1000c040 f   CryptBuffer.obj
 0001:0000b050       ?IsValid@CryptBuffer@baro@@QAE_NXZ 1000c050 f   CryptBuffer.obj
 0001:0000b070       ?ReAllocate@CryptBuffer@baro@@QAE_NI@Z 1000c070 f   CryptBuffer.obj
 0001:0000b0f0       ?Delete@CryptBuffer@baro@@QAEXXZ 1000c0f0 f   CryptBuffer.obj
 0001:0000b120       ?Update@CryptBuffer@baro@@QAE_NIPBXI@Z 1000c120 f   CryptBuffer.obj
 0001:0000b170       ?UpdateA@CryptBuffer@baro@@QAE_NIPBD@Z 1000c170 f   CryptBuffer.obj
 0001:0000b1d0       ?UpdateW@CryptBuffer@baro@@QAE_NIPB_W@Z 1000c1d0 f   CryptBuffer.obj
 0001:0000b280       ?UTF8toANSI@CryptBuffer@baro@@QAE_NXZ 1000c280 f   CryptBuffer.obj
 0001:0000b400       ?ANSItoUTF8@CryptBuffer@baro@@QAE_NXZ 1000c400 f   CryptBuffer.obj
 0001:0000b580       ?EncryptBase64A@CryptBuffer@baro@@QAE_NXZ 1000c580 f   CryptBuffer.obj
 0001:0000b6c0       ?DecryptBase64A@CryptBuffer@baro@@QAE_NXZ 1000c6c0 f   CryptBuffer.obj
 0001:0000b810       ?CryptEncrypt@CryptBuffer@baro@@QAE_NVCryptHandle@2@PAK@Z 1000c810 f   CryptBuffer.obj
 0001:0000b8a0       ?CryptEncrypt@CryptBuffer@baro@@QAE_NKKPAK@Z 1000c8a0 f   CryptBuffer.obj
 0001:0000ba40       ?CryptDecrypt@CryptBuffer@baro@@QAE_NVCryptHandle@2@PAK@Z 1000ca40 f   CryptBuffer.obj
 0001:0000bad0       ?CryptDecrypt@CryptBuffer@baro@@QAE_NKKPAK@Z 1000cad0 f   CryptBuffer.obj
 0001:0000bc20       ?Print@CryptBuffer@baro@@QAEXXZ 1000cc20 f   CryptBuffer.obj
 0001:0000bcd0       ?CheckLastError@CryptBuffer@baro@@AAEXPAK@Z 1000ccd0 f   CryptBuffer.obj
 0001:0000bcf0       ??_ECryptBuffer@baro@@UAEPAXI@Z 1000ccf0 f i CryptBuffer.obj
 0001:0000bd70       ??1CheckPointer@baro@@MAE@XZ 1000cd70 f i CryptBuffer.obj
 0001:0000bd80       ??_ECheckPointer@baro@@MAEPAXI@Z 1000cd80 f i CryptBuffer.obj
 0001:0000bde0       ??0CheckPointer@baro@@IAE@XZ 1000cde0 f i CryptBuffer.obj
 0001:0000bdf0       ??0CryptHandle@baro@@QAE@_N@Z 1000cdf0 f   CryptFactory.obj
 0001:0000be20       ??0CryptHandle@baro@@QAE@ABV01@@Z 1000ce20 f   CryptFactory.obj
 0001:0000be40       ??4CryptHandle@baro@@QAEAAV01@ABV01@@Z 1000ce40 f   CryptFactory.obj
 0001:0000beb0       ?Release@CryptHandle@baro@@QAEXXZ 1000ceb0 f   CryptFactory.obj
 0001:0000beb0       ??1CryptHandle@baro@@QAE@XZ 1000ceb0 f   CryptFactory.obj
 0001:0000bf00       ?IsValid@CryptHandle@baro@@QBE_NXZ 1000cf00 f   CryptFactory.obj
 0001:0000bf20       ?CreateAES256@CryptFactory@baro@@YA?AV?$shared_ptr@VCryptHandle@baro@@@std@@V?$CStringT@DV?$StrTraitMFC_DLL@DV?$ChTraitsCRT@D@ATL@@@@@ATL@@_NKK@Z 1000cf20 f   CryptFactory.obj
 0001:0000c060       ?CreateAES256@CryptFactory@baro@@YA?AV?$shared_ptr@VCryptHandle@baro@@@std@@V?$CStringT@_WV?$StrTraitMFC_DLL@_WV?$ChTraitsCRT@_W@ATL@@@@@ATL@@_NKK@Z 1000d060 f   CryptFactory.obj
 0001:0000c0e0       ?CreateAES256@CryptFactory@baro@@YA?AV?$shared_ptr@VCryptHandle@baro@@@std@@PBE0KK@Z 1000d0e0 f   CryptFactory.obj
 0001:0000c2d0       ?EncryptWidhBase64A@CryptFactory@baro@@YAIPBVCryptHandle@2@PBDAAV?$CStringT@DV?$StrTraitMFC_DLL@DV?$ChTraitsCRT@D@ATL@@@@@ATL@@@Z 1000d2d0 f   CryptFactory.obj
 0001:0000c3f0       ?DecryptWithBase64A@CryptFactory@baro@@YAIPBVCryptHandle@2@PBDAAV?$CStringT@DV?$StrTraitMFC_DLL@DV?$ChTraitsCRT@D@ATL@@@@@ATL@@@Z 1000d3f0 f   CryptFactory.obj
 0001:0000c510       ?CreateHash@CryptFactory@baro@@YA?AV?$TBuffer@E@2@IPBEI@Z 1000d510 f   CryptFactory.obj
 0001:0000c720       ?CreateHash@CryptFactory@baro@@YA?AV?$TBuffer@E@2@IABV32@@Z 1000d720 f   CryptFactory.obj
 0001:0000c760       ??0?$shared_ptr@VCryptHandle@baro@@@std@@QAE@$$QAV01@@Z 1000d760 f i CryptFactory.obj
 0001:0000c7a0       ??1?$shared_ptr@VCryptHandle@baro@@@std@@QAE@XZ 1000d7a0 f i CryptFactory.obj
 0001:0000c7a0       ??1?$shared_ptr@VPointCoord@baro@@@std@@QAE@XZ 1000d7a0 f i CustomGraph.obj
 0001:0000c7e0       ??$make_shared@VCryptHandle@baro@@_N@std@@YA?AV?$shared_ptr@VCryptHandle@baro@@@0@$$QA_N@Z 1000d7e0 f i CryptFactory.obj
 0001:0000c890       ?_Destroy@?$_Ref_count_obj@VCryptHandle@baro@@@std@@EAEXXZ 1000d890 f i CryptFactory.obj
 0001:0000c8e0       ?_Delete_this@?$_Ref_count_obj@VPointCoord@baro@@@std@@EAEXXZ 1000d8e0 f i CustomGraph.obj
 0001:0000c8e0       ?_Delete_this@?$_Ref_count_obj@VCryptHandle@baro@@@std@@EAEXXZ 1000d8e0 f i CryptFactory.obj
 0001:0000c8f0       ??_E?$_Ref_count_obj@VPointCoord@baro@@@std@@UAEPAXI@Z 1000d8f0 f i * CIL library *:* CIL module *
 0001:0000c8f0       ??_G?$_Ref_count_obj@VPointCoord@baro@@@std@@UAEPAXI@Z 1000d8f0 f i CustomGraph.obj
 0001:0000c8f0       ??_G?$_Ref_count_obj@VCryptHandle@baro@@@std@@UAEPAXI@Z 1000d8f0 f i CryptFactory.obj
 0001:0000c8f0       ??_G_Ref_count_base@std@@UAEPAXI@Z 1000d8f0 f i CryptFactory.obj
 0001:0000c8f0       ??_E_Ref_count_base@std@@UAEPAXI@Z 1000d8f0 f i * CIL library *:* CIL module *
 0001:0000c8f0       ??_E?$_Ref_count_obj@VCryptHandle@baro@@@std@@UAEPAXI@Z 1000d8f0 f i * CIL library *:* CIL module *
 0001:0000c920       ??1_Ref_count_base@std@@UAE@XZ 1000d920 f i CryptFactory.obj
 0001:0000c930       ?_Get_deleter@_Ref_count_base@std@@UBEPAXABVtype_info@@@Z 1000d930 f i CryptFactory.obj
 0001:0000c930       ?OnIdle@MsgThread@baro@@UAEHJ@Z 1000d930 f i MsgThread.obj
 0001:0000c940       ??4?$TBuffer@E@baro@@QAEAAV01@ABV01@@Z 1000d940 f i CryptFactory.obj
 0001:0000c960       ??0?$TBuffer@E@baro@@QAE@ABV01@@Z 1000d960 f i CryptFactory.obj
 0001:0000c990       ??0Sqlite@baro@@QAE@XZ     1000d990 f   Sqlite.obj
 0001:0000c9e0       ??1Sqlite@baro@@QAE@XZ     1000d9e0 f   Sqlite.obj
 0001:0000c9f0       ?ErrorParam@Sqlite@baro@@AAE_NXZ 1000d9f0 f   Sqlite.obj
 0001:0000ca00       ?GetLastErrorMessage@Sqlite@baro@@QAE?AV?$CStringT@_WV?$StrTraitMFC_DLL@_WV?$ChTraitsCRT@_W@ATL@@@@@ATL@@XZ 1000da00 f   Sqlite.obj
 0001:0000ca50       ?MakeString@Sqlite@baro@@QAE?AV?$CStringT@_WV?$StrTraitMFC_DLL@_WV?$ChTraitsCRT@_W@ATL@@@@@ATL@@AAV?$vector@V?$CStringT@_WV?$StrTraitMFC_DLL@_WV?$ChTraitsCRT@_W@ATL@@@@@ATL@@V?$allocator@V?$CStringT@_WV?$StrTraitMFC_DLL@_WV?$ChTraitsCRT@_W@ATL@@@@@ATL@@@std@@@std@@V34@@Z 1000da50 f   Sqlite.obj
 0001:0000cb30       ?Open@Sqlite@baro@@QAE_NV?$CStringT@_WV?$StrTraitMFC_DLL@_WV?$ChTraitsCRT@_W@ATL@@@@@ATL@@@Z 1000db30 f   Sqlite.obj
 0001:0000cc30       ?Close@Sqlite@baro@@QAE_NXZ 1000dc30 f   Sqlite.obj
 0001:0000cd10       ?DML@Sqlite@baro@@AAE_NPB_WAAH@Z 1000dd10 f   Sqlite.obj
 0001:0000cdc0       ?GetTableInfo@Sqlite@baro@@QAE_NV?$CStringT@_WV?$StrTraitMFC_DLL@_WV?$ChTraitsCRT@_W@ATL@@@@@ATL@@AAV?$vector@V?$CStringT@_WV?$StrTraitMFC_DLL@_WV?$ChTraitsCRT@_W@ATL@@@@@ATL@@V?$allocator@V?$CStringT@_WV?$StrTraitMFC_DLL@_WV?$ChTraitsCRT@_W@ATL@@@@@ATL@@@std@@@std@@AAH@Z 1000ddc0 f   Sqlite.obj
 0001:0000d100       ?CreateTable@Sqlite@baro@@QAE_NV?$CStringT@_WV?$StrTraitMFC_DLL@_WV?$ChTraitsCRT@_W@ATL@@@@@ATL@@AAV?$vector@V?$CStringT@_WV?$StrTraitMFC_DLL@_WV?$ChTraitsCRT@_W@ATL@@@@@ATL@@V?$allocator@V?$CStringT@_WV?$StrTraitMFC_DLL@_WV?$ChTraitsCRT@_W@ATL@@@@@ATL@@@std@@@std@@@Z 1000e100 f   Sqlite.obj
 0001:0000d290       ?DeleteTable@Sqlite@baro@@QAE_NV?$CStringT@_WV?$StrTraitMFC_DLL@_WV?$ChTraitsCRT@_W@ATL@@@@@ATL@@@Z 1000e290 f   Sqlite.obj
 0001:0000d380       ?BeginTransaction@Sqlite@baro@@QAE_NXZ 1000e380 f   Sqlite.obj
 0001:0000d450       ?CommitTransaction@Sqlite@baro@@QAE_NXZ 1000e450 f   Sqlite.obj
 0001:0000d520       ?RollbackTransaction@Sqlite@baro@@QAE_NXZ 1000e520 f   Sqlite.obj
 0001:0000d5f0       ?InsertField@Sqlite@baro@@QAE_NV?$CStringT@_WV?$StrTraitMFC_DLL@_WV?$ChTraitsCRT@_W@ATL@@@@@ATL@@0@Z 1000e5f0 f   Sqlite.obj
 0001:0000d6f0       ?DeleteField@Sqlite@baro@@QAE_NV?$CStringT@_WV?$StrTraitMFC_DLL@_WV?$ChTraitsCRT@_W@ATL@@@@@ATL@@0@Z 1000e6f0 f   Sqlite.obj
 0001:0000d7f0       ?InsertRow@Sqlite@baro@@QAE_NV?$CStringT@_WV?$StrTraitMFC_DLL@_WV?$ChTraitsCRT@_W@ATL@@@@@ATL@@AAV?$vector@V?$CStringT@_WV?$StrTraitMFC_DLL@_WV?$ChTraitsCRT@_W@ATL@@@@@ATL@@V?$allocator@V?$CStringT@_WV?$StrTraitMFC_DLL@_WV?$ChTraitsCRT@_W@ATL@@@@@ATL@@@std@@@std@@1_N@Z 1000e7f0 f   Sqlite.obj
 0001:0000d9f0       ?DeleteRow@Sqlite@baro@@QAE_NV?$CStringT@_WV?$StrTraitMFC_DLL@_WV?$ChTraitsCRT@_W@ATL@@@@@ATL@@0@Z 1000e9f0 f   Sqlite.obj
 0001:0000db10       ?Select@Sqlite@baro@@QAE_NV?$CStringT@_WV?$StrTraitMFC_DLL@_WV?$ChTraitsCRT@_W@ATL@@@@@ATL@@AAV?$map@V?$CStringT@_WV?$StrTraitMFC_DLL@_WV?$ChTraitsCRT@_W@ATL@@@@@ATL@@V?$vector@V?$CStringT@_WV?$StrTraitMFC_DLL@_WV?$ChTraitsCRT@_W@ATL@@@@@ATL@@V?$allocator@V?$CStringT@_WV?$StrTraitMFC_DLL@_WV?$ChTraitsCRT@_W@ATL@@@@@ATL@@@std@@@std@@U?$less@V?$CStringT@_WV?$StrTraitMFC_DLL@_WV?$ChTraitsCRT@_W@ATL@@@@@ATL@@@4@V?$allocator@U?$pair@$$CBV?$CStringT@_WV?$StrTraitMFC_DLL@_WV?$ChTraitsCRT@_W@ATL@@@@@ATL@@V?$vector@V?$CStringT@_WV?$StrTraitMFC_DLL@_WV?$ChTraitsCRT@_W@ATL@@@@@ATL@@V?$allocator@V?$CStringT@_WV?$StrTraitMFC_DLL@_WV?$ChTraitsCRT@_W@ATL@@@@@ATL@@@std@@@std@@@std@@@4@@std@@00@Z 1000eb10 f   Sqlite.obj
 0001:0000e050       ??1?$pair@V?$CStringT@_WV?$StrTraitMFC_DLL@_WV?$ChTraitsCRT@_W@ATL@@@@@ATL@@V?$vector@V?$CStringT@_WV?$StrTraitMFC_DLL@_WV?$ChTraitsCRT@_W@ATL@@@@@ATL@@V?$allocator@V?$CStringT@_WV?$StrTraitMFC_DLL@_WV?$ChTraitsCRT@_W@ATL@@@@@ATL@@@std@@@std@@@std@@QAE@XZ 1000f050 f i Sqlite.obj
 0001:0000e050       ??1?$pair@$$CBV?$CStringT@_WV?$StrTraitMFC_DLL@_WV?$ChTraitsCRT@_W@ATL@@@@@ATL@@V?$vector@V?$CStringT@_WV?$StrTraitMFC_DLL@_WV?$ChTraitsCRT@_W@ATL@@@@@ATL@@V?$allocator@V?$CStringT@_WV?$StrTraitMFC_DLL@_WV?$ChTraitsCRT@_W@ATL@@@@@ATL@@@std@@@std@@@std@@QAE@XZ 1000f050 f i Sqlite.obj
 0001:0000e0a0       ?Update@Sqlite@baro@@QAE_NV?$CStringT@_WV?$StrTraitMFC_DLL@_WV?$ChTraitsCRT@_W@ATL@@@@@ATL@@00@Z 1000f0a0 f   Sqlite.obj
 0001:0000e1b0       ?QueryDirect@Sqlite@baro@@QAE_NPB_WV?$function@$$A6A_NAAVSqliteQueryResult@baro@@@Z@std@@@Z 1000f1b0 f   Sqlite.obj
 0001:0000e2d0       ?clear@?$_Tree@V?$_Tmap_traits@V?$CStringT@_WV?$StrTraitMFC_DLL@_WV?$ChTraitsCRT@_W@ATL@@@@@ATL@@V?$vector@V?$CStringT@_WV?$StrTraitMFC_DLL@_WV?$ChTraitsCRT@_W@ATL@@@@@ATL@@V?$allocator@V?$CStringT@_WV?$StrTraitMFC_DLL@_WV?$ChTraitsCRT@_W@ATL@@@@@ATL@@@std@@@std@@U?$less@V?$CStringT@_WV?$StrTraitMFC_DLL@_WV?$ChTraitsCRT@_W@ATL@@@@@ATL@@@4@V?$allocator@U?$pair@$$CBV?$CStringT@_WV?$StrTraitMFC_DLL@_WV?$ChTraitsCRT@_W@ATL@@@@@ATL@@V?$vector@V?$CStringT@_WV?$StrTraitMFC_DLL@_WV?$ChTraitsCRT@_W@ATL@@@@@ATL@@V?$allocator@V?$CStringT@_WV?$StrTraitMFC_DLL@_WV?$ChTraitsCRT@_W@ATL@@@@@ATL@@@std@@@std@@@std@@@4@$0A@@std@@@std@@QAEXXZ 1000f2d0 f i Sqlite.obj
 0001:0000e300       ?_Erase@?$_Tree@V?$_Tmap_traits@V?$CStringT@_WV?$StrTraitMFC_DLL@_WV?$ChTraitsCRT@_W@ATL@@@@@ATL@@V?$vector@V?$CStringT@_WV?$StrTraitMFC_DLL@_WV?$ChTraitsCRT@_W@ATL@@@@@ATL@@V?$allocator@V?$CStringT@_WV?$StrTraitMFC_DLL@_WV?$ChTraitsCRT@_W@ATL@@@@@ATL@@@std@@@std@@U?$less@V?$CStringT@_WV?$StrTraitMFC_DLL@_WV?$ChTraitsCRT@_W@ATL@@@@@ATL@@@4@V?$allocator@U?$pair@$$CBV?$CStringT@_WV?$StrTraitMFC_DLL@_WV?$ChTraitsCRT@_W@ATL@@@@@ATL@@V?$vector@V?$CStringT@_WV?$StrTraitMFC_DLL@_WV?$ChTraitsCRT@_W@ATL@@@@@ATL@@V?$allocator@V?$CStringT@_WV?$StrTraitMFC_DLL@_WV?$ChTraitsCRT@_W@ATL@@@@@ATL@@@std@@@std@@@std@@@4@$0A@@std@@@std@@IAEXPAU?$_Tree_node@U?$pair@$$CBV?$CStringT@_WV?$StrTraitMFC_DLL@_WV?$ChTraitsCRT@_W@ATL@@@@@ATL@@V?$vector@V?$CStringT@_WV?$StrTraitMFC_DLL@_WV?$ChTraitsCRT@_W@ATL@@@@@ATL@@V?$allocator@V?$CStringT@_WV?$StrTraitMFC_DLL@_WV?$ChTraitsCRT@_W@ATL@@@@@ATL@@@std@@@std@@@std@@PAX@2@@Z 1000f300 f i Sqlite.obj
 0001:0000e3a0       ??$Query@VCppSqlite3Query@@@Sqlite@baro@@AAE_NPB_WAAVCppSqlite3Query@@@Z 1000f3a0 f i Sqlite.obj
 0001:0000e460       ??$make_pair@AAV?$CStringT@_WV?$StrTraitMFC_DLL@_WV?$ChTraitsCRT@_W@ATL@@@@@ATL@@AAV?$vector@V?$CStringT@_WV?$StrTraitMFC_DLL@_WV?$ChTraitsCRT@_W@ATL@@@@@ATL@@V?$allocator@V?$CStringT@_WV?$StrTraitMFC_DLL@_WV?$ChTraitsCRT@_W@ATL@@@@@ATL@@@std@@@std@@@std@@YA?AU?$pair@V?$CStringT@_WV?$StrTraitMFC_DLL@_WV?$ChTraitsCRT@_W@ATL@@@@@ATL@@V?$vector@V?$CStringT@_WV?$StrTraitMFC_DLL@_WV?$ChTraitsCRT@_W@ATL@@@@@ATL@@V?$allocator@V?$CStringT@_WV?$StrTraitMFC_DLL@_WV?$ChTraitsCRT@_W@ATL@@@@@ATL@@@std@@@std@@@0@AAV?$CStringT@_WV?$StrTraitMFC_DLL@_WV?$ChTraitsCRT@_W@ATL@@@@@ATL@@AAV?$vector@V?$CStringT@_WV?$StrTraitMFC_DLL@_WV?$ChTraitsCRT@_W@ATL@@@@@ATL@@V?$allocator@V?$CStringT@_WV?$StrTraitMFC_DLL@_WV?$ChTraitsCRT@_W@ATL@@@@@ATL@@@std@@@0@@Z 1000f460 f i Sqlite.obj
 0001:0000e4c0       ??$_Buynode@U?$pair@V?$CStringT@_WV?$StrTraitMFC_DLL@_WV?$ChTraitsCRT@_W@ATL@@@@@ATL@@V?$vector@V?$CStringT@_WV?$StrTraitMFC_DLL@_WV?$ChTraitsCRT@_W@ATL@@@@@ATL@@V?$allocator@V?$CStringT@_WV?$StrTraitMFC_DLL@_WV?$ChTraitsCRT@_W@ATL@@@@@ATL@@@std@@@std@@@std@@@?$_Tree_buy@U?$pair@$$CBV?$CStringT@_WV?$StrTraitMFC_DLL@_WV?$ChTraitsCRT@_W@ATL@@@@@ATL@@V?$vector@V?$CStringT@_WV?$StrTraitMFC_DLL@_WV?$ChTraitsCRT@_W@ATL@@@@@ATL@@V?$allocator@V?$CStringT@_WV?$StrTraitMFC_DLL@_WV?$ChTraitsCRT@_W@ATL@@@@@ATL@@@std@@@std@@@std@@V?$allocator@U?$pair@$$CBV?$CStringT@_WV?$StrTraitMFC_DLL@_WV?$ChTraitsCRT@_W@ATL@@@@@ATL@@V?$vector@V?$CStringT@_WV?$StrTraitMFC_DLL@_WV?$ChTraitsCRT@_W@ATL@@@@@ATL@@V?$allocator@V?$CStringT@_WV?$StrTraitMFC_DLL@_WV?$ChTraitsCRT@_W@ATL@@@@@ATL@@@std@@@std@@@std@@@2@@std@@QAEPAU?$_Tree_node@U?$pair@$$CBV?$CStringT@_WV?$StrTraitMFC_DLL@_WV?$ChTraitsCRT@_W@ATL@@@@@ATL@@V?$vector@V?$CStringT@_WV?$StrTraitMFC_DLL@_WV?$ChTraitsCRT@_W@ATL@@@@@ATL@@V?$allocator@V?$CStringT@_WV?$StrTraitMFC_DLL@_WV?$ChTraitsCRT@_W@ATL@@@@@ATL@@@std@@@std@@@std@@PAX@1@$$QAU?$pair@V?$CStringT@_WV?$StrTraitMFC_DLL@_WV?$ChTraitsCRT@_W@ATL@@@@@ATL@@V?$vector@V?$CStringT@_WV?$StrTraitMFC_DLL@_WV?$ChTraitsCRT@_W@ATL@@@@@ATL@@V?$allocator@V?$CStringT@_WV?$StrTraitMFC_DLL@_WV?$ChTraitsCRT@_W@ATL@@@@@ATL@@@std@@@std@@@1@@Z 1000f4c0 f i Sqlite.obj
 0001:0000e590       ??$_Insert_nohint@AAU?$pair@$$CBV?$CStringT@_WV?$StrTraitMFC_DLL@_WV?$ChTraitsCRT@_W@ATL@@@@@ATL@@V?$vector@V?$CStringT@_WV?$StrTraitMFC_DLL@_WV?$ChTraitsCRT@_W@ATL@@@@@ATL@@V?$allocator@V?$CStringT@_WV?$StrTraitMFC_DLL@_WV?$ChTraitsCRT@_W@ATL@@@@@ATL@@@std@@@std@@@std@@PAU?$_Tree_node@U?$pair@$$CBV?$CStringT@_WV?$StrTraitMFC_DLL@_WV?$ChTraitsCRT@_W@ATL@@@@@ATL@@V?$vector@V?$CStringT@_WV?$StrTraitMFC_DLL@_WV?$ChTraitsCRT@_W@ATL@@@@@ATL@@V?$allocator@V?$CStringT@_WV?$StrTraitMFC_DLL@_WV?$ChTraitsCRT@_W@ATL@@@@@ATL@@@std@@@std@@@std@@PAX@2@@?$_Tree@V?$_Tmap_traits@V?$CStringT@_WV?$StrTraitMFC_DLL@_WV?$ChTraitsCRT@_W@ATL@@@@@ATL@@V?$vector@V?$CStringT@_WV?$StrTraitMFC_DLL@_WV?$ChTraitsCRT@_W@ATL@@@@@ATL@@V?$allocator@V?$CStringT@_WV?$StrTraitMFC_DLL@_WV?$ChTraitsCRT@_W@ATL@@@@@ATL@@@std@@@std@@U?$less@V?$CStringT@_WV?$StrTraitMFC_DLL@_WV?$ChTraitsCRT@_W@ATL@@@@@ATL@@@4@V?$allocator@U?$pair@$$CBV?$CStringT@_WV?$StrTraitMFC_DLL@_WV?$ChTraitsCRT@_W@ATL@@@@@ATL@@V?$vector@V?$CStringT@_WV?$StrTraitMFC_DLL@_WV?$ChTraitsCRT@_W@ATL@@@@@ATL@@V?$allocator@V?$CStringT@_WV?$StrTraitMFC_DLL@_WV?$ChTraitsCRT@_W@ATL@@@@@ATL@@@std@@@std@@@std@@@4@$0A@@std@@@std@@IAE?AU?$pair@V?$_Tree_iterator@V?$_Tree_val@U?$_Tree_simple_types@U?$pair@$$CBV?$CStringT@_WV?$StrTraitMFC_DLL@_WV?$ChTraitsCRT@_W@ATL@@@@@ATL@@V?$vector@V?$CStringT@_WV?$StrTraitMFC_DLL@_WV?$ChTraitsCRT@_W@ATL@@@@@ATL@@V?$allocator@V?$CStringT@_WV?$StrTraitMFC_DLL@_WV?$ChTraitsCRT@_W@ATL@@@@@ATL@@@std@@@std@@@std@@@std@@@std@@@std@@_N@1@_NAAU?$pair@$$CBV?$CStringT@_WV?$StrTraitMFC_DLL@_WV?$ChTraitsCRT@_W@ATL@@@@@ATL@@V?$vector@V?$CStringT@_WV?$StrTraitMFC_DLL@_WV?$ChTraitsCRT@_W@ATL@@@@@ATL@@V?$allocator@V?$CStringT@_WV?$StrTraitMFC_DLL@_WV?$ChTraitsCRT@_W@ATL@@@@@ATL@@@std@@@std@@@1@PAU?$_Tree_node@U?$pair@$$CBV?$CStringT@_WV?$StrTraitMFC_DLL@_WV?$ChTraitsCRT@_W@ATL@@@@@ATL@@V?$vector@V?$CStringT@_WV?$StrTraitMFC_DLL@_WV?$ChTraitsCRT@_W@ATL@@@@@ATL@@V?$allocator@V?$CStringT@_WV?$StrTraitMFC_DLL@_WV?$ChTraitsCRT@_W@ATL@@@@@ATL@@@std@@@std@@@std@@PAX@1@@Z 1000f590 f i Sqlite.obj
 0001:0000e6f0       ??0?$vector@V?$CStringT@_WV?$StrTraitMFC_DLL@_WV?$ChTraitsCRT@_W@ATL@@@@@ATL@@V?$allocator@V?$CStringT@_WV?$StrTraitMFC_DLL@_WV?$ChTraitsCRT@_W@ATL@@@@@ATL@@@std@@@std@@QAE@ABV01@@Z 1000f6f0 f i Sqlite.obj
 0001:0000e790       ?_Destroy_if_not_nil@?$_Tree@V?$_Tmap_traits@V?$CStringT@_WV?$StrTraitMFC_DLL@_WV?$ChTraitsCRT@_W@ATL@@@@@ATL@@V?$vector@V?$CStringT@_WV?$StrTraitMFC_DLL@_WV?$ChTraitsCRT@_W@ATL@@@@@ATL@@V?$allocator@V?$CStringT@_WV?$StrTraitMFC_DLL@_WV?$ChTraitsCRT@_W@ATL@@@@@ATL@@@std@@@std@@U?$less@V?$CStringT@_WV?$StrTraitMFC_DLL@_WV?$ChTraitsCRT@_W@ATL@@@@@ATL@@@4@V?$allocator@U?$pair@$$CBV?$CStringT@_WV?$StrTraitMFC_DLL@_WV?$ChTraitsCRT@_W@ATL@@@@@ATL@@V?$vector@V?$CStringT@_WV?$StrTraitMFC_DLL@_WV?$ChTraitsCRT@_W@ATL@@@@@ATL@@V?$allocator@V?$CStringT@_WV?$StrTraitMFC_DLL@_WV?$ChTraitsCRT@_W@ATL@@@@@ATL@@@std@@@std@@@std@@@4@$0A@@std@@@std@@IAEXPAU?$_Tree_node@U?$pair@$$CBV?$CStringT@_WV?$StrTraitMFC_DLL@_WV?$ChTraitsCRT@_W@ATL@@@@@ATL@@V?$vector@V?$CStringT@_WV?$StrTraitMFC_DLL@_WV?$ChTraitsCRT@_W@ATL@@@@@ATL@@V?$allocator@V?$CStringT@_WV?$StrTraitMFC_DLL@_WV?$ChTraitsCRT@_W@ATL@@@@@ATL@@@std@@@std@@@std@@PAX@2@@Z 1000f790 f i Sqlite.obj
 0001:0000e7b0       ?_Buynode0@?$_Tree_buy@U?$pair@$$CBV?$CStringT@_WV?$StrTraitMFC_DLL@_WV?$ChTraitsCRT@_W@ATL@@@@@ATL@@V?$vector@V?$CStringT@_WV?$StrTraitMFC_DLL@_WV?$ChTraitsCRT@_W@ATL@@@@@ATL@@V?$allocator@V?$CStringT@_WV?$StrTraitMFC_DLL@_WV?$ChTraitsCRT@_W@ATL@@@@@ATL@@@std@@@std@@@std@@V?$allocator@U?$pair@$$CBV?$CStringT@_WV?$StrTraitMFC_DLL@_WV?$ChTraitsCRT@_W@ATL@@@@@ATL@@V?$vector@V?$CStringT@_WV?$StrTraitMFC_DLL@_WV?$ChTraitsCRT@_W@ATL@@@@@ATL@@V?$allocator@V?$CStringT@_WV?$StrTraitMFC_DLL@_WV?$ChTraitsCRT@_W@ATL@@@@@ATL@@@std@@@std@@@std@@@2@@std@@QAEPAU?$_Tree_node@U?$pair@$$CBV?$CStringT@_WV?$StrTraitMFC_DLL@_WV?$ChTraitsCRT@_W@ATL@@@@@ATL@@V?$vector@V?$CStringT@_WV?$StrTraitMFC_DLL@_WV?$ChTraitsCRT@_W@ATL@@@@@ATL@@V?$allocator@V?$CStringT@_WV?$StrTraitMFC_DLL@_WV?$ChTraitsCRT@_W@ATL@@@@@ATL@@@std@@@std@@@std@@PAX@2@XZ 1000f7b0 f i Sqlite.obj
 0001:0000e7f0       ??F?$_Tree_unchecked_const_iterator@V?$_Tree_val@U?$_Tree_simple_types@U?$pair@$$CBV?$CStringT@_WV?$StrTraitMFC_DLL@_WV?$ChTraitsCRT@_W@ATL@@@@@ATL@@U?$pair@II@std@@@std@@@std@@@std@@U_Iterator_base0@2@@std@@QAEAAV01@XZ 1000f7f0 f i Logger.obj
 0001:0000e7f0       ??F?$_Tree_unchecked_const_iterator@V?$_Tree_val@U?$_Tree_simple_types@U?$pair@$$CBHVColor@Gdiplus@@@std@@@std@@@std@@U_Iterator_base0@2@@std@@QAEAAV01@XZ 1000f7f0 f i GradientRect.obj
 0001:0000e7f0       ??F?$_Tree_unchecked_const_iterator@V?$_Tree_val@U?$_Tree_simple_types@U?$pair@$$CBV?$CStringT@_WV?$StrTraitMFC_DLL@_WV?$ChTraitsCRT@_W@ATL@@@@@ATL@@V12@@std@@@std@@@std@@U_Iterator_base0@2@@std@@QAEAAV01@XZ 1000f7f0 f i stdafx.obj
 0001:0000e7f0       ??F?$_Tree_unchecked_const_iterator@V?$_Tree_val@U?$_Tree_simple_types@U?$pair@$$CBV?$CStringT@_WV?$StrTraitMFC_DLL@_WV?$ChTraitsCRT@_W@ATL@@@@@ATL@@V?$vector@V?$CStringT@_WV?$StrTraitMFC_DLL@_WV?$ChTraitsCRT@_W@ATL@@@@@ATL@@V?$allocator@V?$CStringT@_WV?$StrTraitMFC_DLL@_WV?$ChTraitsCRT@_W@ATL@@@@@ATL@@@std@@@std@@@std@@@std@@@std@@U_Iterator_base0@2@@std@@QAEAAV01@XZ 1000f7f0 f i Sqlite.obj
 0001:0000e850       ??$_Insert_at@AAU?$pair@$$CBV?$CStringT@_WV?$StrTraitMFC_DLL@_WV?$ChTraitsCRT@_W@ATL@@@@@ATL@@V?$vector@V?$CStringT@_WV?$StrTraitMFC_DLL@_WV?$ChTraitsCRT@_W@ATL@@@@@ATL@@V?$allocator@V?$CStringT@_WV?$StrTraitMFC_DLL@_WV?$ChTraitsCRT@_W@ATL@@@@@ATL@@@std@@@std@@@std@@PAU?$_Tree_node@U?$pair@$$CBV?$CStringT@_WV?$StrTraitMFC_DLL@_WV?$ChTraitsCRT@_W@ATL@@@@@ATL@@V?$vector@V?$CStringT@_WV?$StrTraitMFC_DLL@_WV?$ChTraitsCRT@_W@ATL@@@@@ATL@@V?$allocator@V?$CStringT@_WV?$StrTraitMFC_DLL@_WV?$ChTraitsCRT@_W@ATL@@@@@ATL@@@std@@@std@@@std@@PAX@2@@?$_Tree@V?$_Tmap_traits@V?$CStringT@_WV?$StrTraitMFC_DLL@_WV?$ChTraitsCRT@_W@ATL@@@@@ATL@@V?$vector@V?$CStringT@_WV?$StrTraitMFC_DLL@_WV?$ChTraitsCRT@_W@ATL@@@@@ATL@@V?$allocator@V?$CStringT@_WV?$StrTraitMFC_DLL@_WV?$ChTraitsCRT@_W@ATL@@@@@ATL@@@std@@@std@@U?$less@V?$CStringT@_WV?$StrTraitMFC_DLL@_WV?$ChTraitsCRT@_W@ATL@@@@@ATL@@@4@V?$allocator@U?$pair@$$CBV?$CStringT@_WV?$StrTraitMFC_DLL@_WV?$ChTraitsCRT@_W@ATL@@@@@ATL@@V?$vector@V?$CStringT@_WV?$StrTraitMFC_DLL@_WV?$ChTraitsCRT@_W@ATL@@@@@ATL@@V?$allocator@V?$CStringT@_WV?$StrTraitMFC_DLL@_WV?$ChTraitsCRT@_W@ATL@@@@@ATL@@@std@@@std@@@std@@@4@$0A@@std@@@std@@IAE?AV?$_Tree_iterator@V?$_Tree_val@U?$_Tree_simple_types@U?$pair@$$CBV?$CStringT@_WV?$StrTraitMFC_DLL@_WV?$ChTraitsCRT@_W@ATL@@@@@ATL@@V?$vector@V?$CStringT@_WV?$StrTraitMFC_DLL@_WV?$ChTraitsCRT@_W@ATL@@@@@ATL@@V?$allocator@V?$CStringT@_WV?$StrTraitMFC_DLL@_WV?$ChTraitsCRT@_W@ATL@@@@@ATL@@@std@@@std@@@std@@@std@@@std@@@1@_NPAU?$_Tree_node@U?$pair@$$CBV?$CStringT@_WV?$StrTraitMFC_DLL@_WV?$ChTraitsCRT@_W@ATL@@@@@ATL@@V?$vector@V?$CStringT@_WV?$StrTraitMFC_DLL@_WV?$ChTraitsCRT@_W@ATL@@@@@ATL@@V?$allocator@V?$CStringT@_WV?$StrTraitMFC_DLL@_WV?$ChTraitsCRT@_W@ATL@@@@@ATL@@@std@@@std@@@std@@PAX@1@AAU?$pair@$$CBV?$CStringT@_WV?$StrTraitMFC_DLL@_WV?$ChTraitsCRT@_W@ATL@@@@@ATL@@V?$vector@V?$CStringT@_WV?$StrTraitMFC_DLL@_WV?$ChTraitsCRT@_W@ATL@@@@@ATL@@V?$allocator@V?$CStringT@_WV?$StrTraitMFC_DLL@_WV?$ChTraitsCRT@_W@ATL@@@@@ATL@@@std@@@std@@@1@1@Z 1000f850 f i Sqlite.obj
 0001:0000ea60       ??0SqliteQueryResult@baro@@AAE@PAX@Z 1000fa60 f   SqliteQueryResult.obj
 0001:0000ea70       ?numFields@SqliteQueryResult@baro@@QAEHXZ 1000fa70 f   SqliteQueryResult.obj
 0001:0000eab0       ?fieldIndex@SqliteQueryResult@baro@@QAEHPB_W@Z 1000fab0 f   SqliteQueryResult.obj
 0001:0000eac0       ?fieldName@SqliteQueryResult@baro@@QAEPB_WH@Z 1000fac0 f   SqliteQueryResult.obj
 0001:0000eb40       ?fieldDeclType@SqliteQueryResult@baro@@QAEPB_WH@Z 1000fb40 f   SqliteQueryResult.obj
 0001:0000ebc0       ?fieldDataType@SqliteQueryResult@baro@@QAEHH@Z 1000fbc0 f   SqliteQueryResult.obj
 0001:0000ec40       ?fieldValue@SqliteQueryResult@baro@@QAEPB_WH@Z 1000fc40 f   SqliteQueryResult.obj
 0001:0000ecc0       ?fieldValue@SqliteQueryResult@baro@@QAEPB_WPB_W@Z 1000fcc0 f   SqliteQueryResult.obj
 0001:0000ecf0       ?getIntField@SqliteQueryResult@baro@@QAEHHH@Z 1000fcf0 f   SqliteQueryResult.obj
 0001:0000ed00       ?getIntField@SqliteQueryResult@baro@@QAEHPB_WH@Z 1000fd00 f   SqliteQueryResult.obj
 0001:0000ed20       ?getFloatField@SqliteQueryResult@baro@@QAENHN@Z 1000fd20 f   SqliteQueryResult.obj
 0001:0000ed40       ?getFloatField@SqliteQueryResult@baro@@QAENPB_WN@Z 1000fd40 f   SqliteQueryResult.obj
 0001:0000ed70       ?getStringField@SqliteQueryResult@baro@@QAEPB_WHPB_W@Z 1000fd70 f   SqliteQueryResult.obj
 0001:0000ed80       ?getStringField@SqliteQueryResult@baro@@QAEPB_WPB_W0@Z 1000fd80 f   SqliteQueryResult.obj
 0001:0000eda0       ?getBlobField@SqliteQueryResult@baro@@QAEPBEHAAH@Z 1000fda0 f   SqliteQueryResult.obj
 0001:0000edb0       ?getBlobField@SqliteQueryResult@baro@@QAEPBEPB_WAAH@Z 1000fdb0 f   SqliteQueryResult.obj
 0001:0000edd0       ?fieldIsNull@SqliteQueryResult@baro@@QAE_NH@Z 1000fdd0 f   SqliteQueryResult.obj
 0001:0000ede0       ?fieldIsNull@SqliteQueryResult@baro@@QAE_NPB_W@Z 1000fde0 f   SqliteQueryResult.obj
 0001:0000edf0       ?eof@SqliteQueryResult@baro@@QAE_NXZ 1000fdf0 f   SqliteQueryResult.obj
 0001:0000ee30       ?nextRow@SqliteQueryResult@baro@@QAEXXZ 1000fe30 f   SqliteQueryResult.obj
 0001:0000ee40       ?finalize@SqliteQueryResult@baro@@QAEXXZ 1000fe40 f   SqliteQueryResult.obj
 0001:0000eea0       ?CreateObject@MsgThread@baro@@SGPAVCObject@@XZ 1000fea0 f   MsgThread.obj
 0001:0000ef40       ?_GetBaseClass@MsgThread@baro@@KGPAUCRuntimeClass@@XZ 1000ff40 f   MsgThread.obj
 0001:0000ef50       ?GetRuntimeClass@MsgThread@baro@@UBEPAUCRuntimeClass@@XZ 1000ff50 f   MsgThread.obj
 0001:0000ef60       ??_GMsgThread@baro@@UAEPAXI@Z 1000ff60 f i MsgThread.obj
 0001:0000ef60       ??_EMsgThread@baro@@UAEPAXI@Z 1000ff60 f i * CIL library *:* CIL module *
 0001:0000eff0       ?InitInstance@MsgThread@baro@@UAEHXZ 1000fff0 f   MsgThread.obj
 0001:0000f050       ?ExitInstance@MsgThread@baro@@UAEHXZ 10010050 f   MsgThread.obj
 0001:0000f070       ?GetMessageMap@MsgThread@baro@@MBEPBUAFX_MSGMAP@@XZ 10010070 f   MsgThread.obj
 0001:0000f080       ??0MsgProcedure@helper@baro@@QAE@_N@Z 10010080 f   MsgThread.obj
 0001:0000f0d0       ??1MsgProcedure@helper@baro@@UAE@XZ 100100d0 f   MsgThread.obj
 0001:0000f0f0       ?WndProc@MsgProcedure@helper@baro@@CGJPAUHWND__@@IIJ@Z 100100f0 f   MsgThread.obj
 0001:0000f200       ?AssertValid@MsgProcedure@helper@baro@@CA_NPAV123@PAUHWND__@@@Z 10010200 f   MsgThread.obj
 0001:0000f220       ?CreateInstance@MsgProcedure@helper@baro@@QAE_NH@Z 10010220 f   MsgThread.obj
 0001:0000f380       ?ReleaseInstance@MsgProcedure@helper@baro@@QAEXXZ 10010380 f   MsgThread.obj
 0001:0000f530       ?GetThreadID@MsgProcedure@helper@baro@@QAEKXZ 10010530 f   MsgThread.obj
 0001:0000f550       ?UpdateNetState@MsgProcedure@helper@baro@@QAE_NXZ 10010550 f   MsgThread.obj
 0001:0000f690       ?SendWndMessage@MsgProcedure@helper@baro@@QAEJIIJ@Z 10010690 f   MsgThread.obj
 0001:0000f6c0       ?PostWndMessage@MsgProcedure@helper@baro@@QAEHIIJ@Z 100106c0 f   MsgThread.obj
 0001:0000f6f0       ?PostThreadMessageW@MsgProcedure@helper@baro@@QAEHIIJ@Z 100106f0 f   MsgThread.obj
 0001:0000f720       ??_EMsgProcedure@helper@baro@@UAEPAXI@Z 10010720 f i MsgThread.obj
 0001:0000f790       ??2CObject@@SGPAXI@Z       10010790 f i MsgThread.obj
 0001:0000f7b0       ??0Stream@baro@@QAE@XZ     100107b0 f   Stream.obj
 0001:0000f830       ??0Stream@baro@@QAE@AAVStreamHeader@1@@Z 10010830 f   Stream.obj
 0001:0000f8f0       ??0Stream@baro@@QAE@U_GUID@@MK@Z 100108f0 f   Stream.obj
 0001:0000f9c0       ??1Stream@baro@@UAE@XZ     100109c0 f   Stream.obj
 0001:0000fa60       ?ReadHeader@Stream@baro@@SA?AW4StreamResult@2@ABV?$CStringT@_WV?$StrTraitMFC_DLL@_WV?$ChTraitsCRT@_W@ATL@@@@@ATL@@AAVStreamHeader@2@I@Z 10010a60 f   Stream.obj
 0001:0000fbd0       ?ReadBody@Stream@baro@@SA?AW4StreamResult@2@ABV?$CStringT@_WV?$StrTraitMFC_DLL@_WV?$ChTraitsCRT@_W@ATL@@@@@ATL@@_NAAV?$TBuffer@E@2@I@Z 10010bd0 f   Stream.obj
 0001:0000fdc0       ?ReadBody@Stream@baro@@QAE_NAAV?$CStringT@_WV?$StrTraitMFC_DLL@_WV?$ChTraitsCRT@_W@ATL@@@@@ATL@@@Z 10010dc0 f   Stream.obj
 0001:0000fe40       ?Import@Stream@baro@@QAE_NAAV?$CStringT@_WV?$StrTraitMFC_DLL@_WV?$ChTraitsCRT@_W@ATL@@@@@ATL@@_NAAVStreamHeader@2@@Z 10010e40 f   Stream.obj
 0001:0000fef0       ?Export@Stream@baro@@QAE_NAAV?$CStringT@_WV?$StrTraitMFC_DLL@_WV?$ChTraitsCRT@_W@ATL@@@@@ATL@@_N@Z 10010ef0 f   Stream.obj
 0001:0000ffd0       ?GetFilePath@Stream@baro@@QBE?AV?$CStringT@_WV?$StrTraitMFC_DLL@_WV?$ChTraitsCRT@_W@ATL@@@@@ATL@@XZ 10010fd0 f   Stream.obj
 0001:00010020       ?Encrypt@Stream@baro@@QAE_NABVCryptHandle@2@@Z 10011020 f   Stream.obj
 0001:00010190       ?Encrypt@Stream@baro@@QAE_NV?$shared_ptr@VCryptHandle@baro@@@std@@@Z 10011190 f   Stream.obj
 0001:000102b0       ?Decrypt@Stream@baro@@QAE_NABVCryptHandle@2@@Z 100112b0 f   Stream.obj
 0001:00010420       ?Decrypt@Stream@baro@@QAE_NV?$shared_ptr@VCryptHandle@baro@@@std@@@Z 10011420 f   Stream.obj
 0001:00010540       ?Reset@Stream@baro@@QAEXXZ 10011540 f   Stream.obj
 0001:00010570       ?GetLastError@Stream@baro@@QAE?AW4StreamResult@2@XZ 10011570 f   Stream.obj
 0001:00010580       ?GetLastErrorString@Stream@baro@@QAE?AV?$CStringT@_WV?$StrTraitMFC_DLL@_WV?$ChTraitsCRT@_W@ATL@@@@@ATL@@XZ 10011580 f   Stream.obj
 0001:000105b0       ?SetResult@Stream@baro@@AAE_NW4StreamResult@2@@Z 100115b0 f   Stream.obj
 0001:000105d0       ?AddPair@Stream@baro@@AAE?AW4StreamResult@2@PBXI@Z 100115d0 f   Stream.obj
 0001:00010670       ?Get@Stream@baro@@ABE?AW4StreamResult@2@IPAXIPAI@Z 10011670 f   Stream.obj
 0001:00010760       ?Get@Stream@baro@@ABE?AW4StreamResult@2@IAAV?$CStringT@_WV?$StrTraitMFC_DLL@_WV?$ChTraitsCRT@_W@ATL@@@@@ATL@@PAI@Z 10011760 f   Stream.obj
 0001:000108d0       ?MakeBuffer@Stream@baro@@SA?AV?$TBuffer@E@2@V?$CStringT@_WV?$StrTraitMFC_DLL@_WV?$ChTraitsCRT@_W@ATL@@@@@ATL@@@Z 100118d0 f   Stream.obj
 0001:00010970       ?MakeString@Stream@baro@@SA?AV?$CStringT@_WV?$StrTraitMFC_DLL@_WV?$ChTraitsCRT@_W@ATL@@@@@ATL@@AAV?$TBuffer@E@2@@Z 10011970 f   Stream.obj
 0001:00010a20       ??_G?$_Func_base@_NAAVCFile@@@std@@UAEPAXI@Z 10011a20 f i Stream.obj
 0001:00010a20       ??_E?$_Func_base@_NAAVCFile@@@std@@UAEPAXI@Z 10011a20 f i * CIL library *:* CIL module *
 0001:00010a20       ??_E?$_Func_impl@U?$_Callable_obj@V<lambda_bbe7db543262a53344bc92964eb41292>@@$0A@@std@@V?$allocator@V?$_Func_class@_NAAVCFile@@@std@@@2@_NAAVCFile@@@std@@UAEPAXI@Z 10011a20 f i * CIL library *:* CIL module *
 0001:00010a20       ??_G?$_Func_impl@U?$_Callable_obj@V<lambda_f8882b2bf4f22a473592eb1ff5482a78>@@$0A@@std@@V?$allocator@V?$_Func_class@_NAAVCFile@@@std@@@2@_NAAVCFile@@@std@@UAEPAXI@Z 10011a20 f i Stream.obj
 0001:00010a20       ??_E?$_Func_impl@U?$_Callable_obj@V<lambda_f8882b2bf4f22a473592eb1ff5482a78>@@$0A@@std@@V?$allocator@V?$_Func_class@_NAAVCFile@@@std@@@2@_NAAVCFile@@@std@@UAEPAXI@Z 10011a20 f i * CIL library *:* CIL module *
 0001:00010a20       ??_G?$_Func_impl@U?$_Callable_obj@V<lambda_bbe7db543262a53344bc92964eb41292>@@$0A@@std@@V?$allocator@V?$_Func_class@_NAAVCFile@@@std@@@2@_NAAVCFile@@@std@@UAEPAXI@Z 10011a20 f i Stream.obj
 0001:00010a20       ??_E?$_Func_impl@U?$_Callable_obj@V<lambda_257dd9aa029b0bb95eaf18bd787825cc>@@$0A@@std@@V?$allocator@V?$_Func_class@_NAAVCFile@@@std@@@2@_NAAVCFile@@@std@@UAEPAXI@Z 10011a20 f i * CIL library *:* CIL module *
 0001:00010a20       ??_G?$_Func_impl@U?$_Callable_obj@V<lambda_257dd9aa029b0bb95eaf18bd787825cc>@@$0A@@std@@V?$allocator@V?$_Func_class@_NAAVCFile@@@std@@@2@_NAAVCFile@@@std@@UAEPAXI@Z 10011a20 f i Stream.obj
 0001:00010a50       ?_Copy@?$_Func_impl@U?$_Callable_obj@V<lambda_257dd9aa029b0bb95eaf18bd787825cc>@@$0A@@std@@V?$allocator@V?$_Func_class@_NAAVCFile@@@std@@@2@_NAAVCFile@@@std@@UAEPAV?$_Func_base@_NAAVCFile@@@2@PAX@Z 10011a50 f i Stream.obj
 0001:00010a50       ?_Move@?$_Func_impl@U?$_Callable_obj@V<lambda_257dd9aa029b0bb95eaf18bd787825cc>@@$0A@@std@@V?$allocator@V?$_Func_class@_NAAVCFile@@@std@@@2@_NAAVCFile@@@std@@UAEPAV?$_Func_base@_NAAVCFile@@@2@PAX@Z 10011a50 f i Stream.obj
 0001:00010a90       ?_Do_call@?$_Func_impl@U?$_Callable_obj@V<lambda_257dd9aa029b0bb95eaf18bd787825cc>@@$0A@@std@@V?$allocator@V?$_Func_class@_NAAVCFile@@@std@@@2@_NAAVCFile@@@std@@UAE_NAAVCFile@@@Z 10011a90 f i Stream.obj
 0001:00010aa0       ?_Target_type@?$_Func_impl@U?$_Callable_obj@V<lambda_257dd9aa029b0bb95eaf18bd787825cc>@@$0A@@std@@V?$allocator@V?$_Func_class@_NAAVCFile@@@std@@@2@_NAAVCFile@@@std@@UBEABVtype_info@@XZ 10011aa0 f i Stream.obj
 0001:00010ab0       ?_Copy@?$_Func_impl@U?$_Callable_obj@V<lambda_f8882b2bf4f22a473592eb1ff5482a78>@@$0A@@std@@V?$allocator@V?$_Func_class@_NAAVCFile@@@std@@@2@_NAAVCFile@@@std@@UAEPAV?$_Func_base@_NAAVCFile@@@2@PAX@Z 10011ab0 f i Stream.obj
 0001:00010ab0       ?_Move@?$_Func_impl@U?$_Callable_obj@V<lambda_f8882b2bf4f22a473592eb1ff5482a78>@@$0A@@std@@V?$allocator@V?$_Func_class@_NAAVCFile@@@std@@@2@_NAAVCFile@@@std@@UAEPAV?$_Func_base@_NAAVCFile@@@2@PAX@Z 10011ab0 f i Stream.obj
 0001:00010af0       ?_Do_call@?$_Func_impl@U?$_Callable_obj@V<lambda_f8882b2bf4f22a473592eb1ff5482a78>@@$0A@@std@@V?$allocator@V?$_Func_class@_NAAVCFile@@@std@@@2@_NAAVCFile@@@std@@UAE_NAAVCFile@@@Z 10011af0 f i Stream.obj
 0001:00010b00       ?_Target_type@?$_Func_impl@U?$_Callable_obj@V<lambda_f8882b2bf4f22a473592eb1ff5482a78>@@$0A@@std@@V?$allocator@V?$_Func_class@_NAAVCFile@@@std@@@2@_NAAVCFile@@@std@@UBEABVtype_info@@XZ 10011b00 f i Stream.obj
 0001:00010b10       ?_Copy@?$_Func_impl@U?$_Callable_obj@V<lambda_bbe7db543262a53344bc92964eb41292>@@$0A@@std@@V?$allocator@V?$_Func_class@_NAAVCFile@@@std@@@2@_NAAVCFile@@@std@@UAEPAV?$_Func_base@_NAAVCFile@@@2@PAX@Z 10011b10 f i Stream.obj
 0001:00010b10       ?_Move@?$_Func_impl@U?$_Callable_obj@V<lambda_bbe7db543262a53344bc92964eb41292>@@$0A@@std@@V?$allocator@V?$_Func_class@_NAAVCFile@@@std@@@2@_NAAVCFile@@@std@@UAEPAV?$_Func_base@_NAAVCFile@@@2@PAX@Z 10011b10 f i Stream.obj
 0001:00010b50       ?_Do_call@?$_Func_impl@U?$_Callable_obj@V<lambda_bbe7db543262a53344bc92964eb41292>@@$0A@@std@@V?$allocator@V?$_Func_class@_NAAVCFile@@@std@@@2@_NAAVCFile@@@std@@UAE_NAAVCFile@@@Z 10011b50 f i Stream.obj
 0001:00010bb0       ?_Target_type@?$_Func_impl@U?$_Callable_obj@V<lambda_bbe7db543262a53344bc92964eb41292>@@$0A@@std@@V?$allocator@V?$_Func_class@_NAAVCFile@@@std@@@2@_NAAVCFile@@@std@@UBEABVtype_info@@XZ 10011bb0 f i Stream.obj
 0001:00010bc0       ?Read@?$TBuffer@E@baro@@QBEIIAAV12@I@Z 10011bc0 f i Stream.obj
 0001:00010c70       ??0?$TBuffer@E@baro@@QAE@I@Z 10011c70 f i Stream.obj
 0001:00010cc0       ?Read@?$TBuffer@E@baro@@QBEIIPAXI@Z 10011cc0 f i Stream.obj
 0001:00010d20       ?Append@?$TBuffer@E@baro@@QAEIPBEI@Z 10011d20 f i Stream.obj
 0001:00010d40       ??0StreamHeader@baro@@QAE@U_GUID@@MK@Z 10011d40 f i Stream.obj
 0001:00010d80       ??0StreamHeader@baro@@QAE@ABV01@@Z 10011d80 f i Stream.obj
 0001:00010d80       ??4StreamHeader@baro@@QAEAAV01@ABV01@@Z 10011d80 f i Stream.obj
 0001:00010db0       ??_EStream@baro@@UAEPAXI@Z 10011db0 f i Stream.obj
 0001:00010e10       ??0AutoLock@baro@@QAE@AAVCriticalSection@1@V?$CStringT@_WV?$StrTraitMFC_DLL@_WV?$ChTraitsCRT@_W@ATL@@@@@ATL@@@Z 10011e10 f   AutoLock.obj
 0001:00010e80       ??0AutoLock@baro@@QAE@AAU_RTL_CRITICAL_SECTION@@V?$CStringT@_WV?$StrTraitMFC_DLL@_WV?$ChTraitsCRT@_W@ATL@@@@@ATL@@@Z 10011e80 f   AutoLock.obj
 0001:00010ef0       ??1AutoLock@baro@@QAE@XZ   10011ef0 f   AutoLock.obj
 0001:00010f20       ?Initialize@AutoLock@baro@@AAEXV?$CStringT@_WV?$StrTraitMFC_DLL@_WV?$ChTraitsCRT@_W@ATL@@@@@ATL@@@Z 10011f20 f   AutoLock.obj
 0001:00010fc0       ?Disable@ScreenSaverControl@@QAEXXZ 10011fc0 f i Logger.obj
 0001:00011030       ?SetMainThreadID@logger@baro@@YAXK@Z 10012030 f   Logger.obj
 0001:00011040       ?Trace@logger@baro@@YAXW4TextColor@2@PB_WJ11ZZ 10012040 f   Logger.obj
 0001:00011330       ?GetConstructIter@@YA?AV?$_Tree_iterator@V?$_Tree_val@U?$_Tree_simple_types@U?$pair@$$CBV?$CStringT@_WV?$StrTraitMFC_DLL@_WV?$ChTraitsCRT@_W@ATL@@@@@ATL@@U?$pair@II@std@@@std@@@std@@@std@@@std@@V?$CStringT@_WV?$StrTraitMFC_DLL@_WV?$ChTraitsCRT@_W@ATL@@@@@ATL@@@Z 10012330 f   Logger.obj
 0001:00011460       ??1?$pair@V?$CStringT@_WV?$StrTraitMFC_DLL@_WV?$ChTraitsCRT@_W@ATL@@@@@ATL@@U?$pair@HH@std@@@std@@QAE@XZ 10012460 f i Logger.obj
 0001:00011470       ?TraceConstruct@logger@baro@@YAXPB_W_N@Z 10012470 f   Logger.obj
 0001:00011500       ?TraceDestruct@logger@baro@@YAXPB_W_N@Z 10012500 f   Logger.obj
 0001:00011590       ?TraceBuffer@logger@baro@@YAXW4TextColor@2@PBEI@Z 10012590 f   Logger.obj
 0001:00011670       ?Begin@logger@baro@@YAX_N00@Z 10012670 f   Logger.obj
 0001:00011960       ?End@logger@baro@@YAXXZ    10012960 f   Logger.obj
 0001:00011b90       ?IsRunning@logger@baro@@YA_NXZ 10012b90 f   Logger.obj
 0001:00011ba0       ?IsVisible@logger@baro@@YA_NXZ 10012ba0 f   Logger.obj
 0001:00011bc0       ?ShowConsole@logger@baro@@YAX_N@Z 10012bc0 f   Logger.obj
 0001:00011c10       ?EnablePrint@logger@baro@@YAX_N@Z 10012c10 f   Logger.obj
 0001:00011c20       ?GetClassNameW@logger@baro@@YA?AV?$CStringT@_WV?$StrTraitMFC_DLL@_WV?$ChTraitsCRT@_W@ATL@@@@@ATL@@V34@@Z 10012c20 f   Logger.obj
 0001:00011ca0       ?GetMethodName@logger@baro@@YA?AV?$CStringT@_WV?$StrTraitMFC_DLL@_WV?$ChTraitsCRT@_W@ATL@@@@@ATL@@V34@@Z 10012ca0 f   Logger.obj
 0001:00011d30       ?erase@?$_Tree@V?$_Tmap_traits@V?$CStringT@_WV?$StrTraitMFC_DLL@_WV?$ChTraitsCRT@_W@ATL@@@@@ATL@@U?$pair@II@std@@U?$less@V?$CStringT@_WV?$StrTraitMFC_DLL@_WV?$ChTraitsCRT@_W@ATL@@@@@ATL@@@4@V?$allocator@U?$pair@$$CBV?$CStringT@_WV?$StrTraitMFC_DLL@_WV?$ChTraitsCRT@_W@ATL@@@@@ATL@@U?$pair@II@std@@@std@@@4@$0A@@std@@@std@@QAE?AV?$_Tree_iterator@V?$_Tree_val@U?$_Tree_simple_types@U?$pair@$$CBV?$CStringT@_WV?$StrTraitMFC_DLL@_WV?$ChTraitsCRT@_W@ATL@@@@@ATL@@U?$pair@II@std@@@std@@@std@@@std@@@2@V?$_Tree_const_iterator@V?$_Tree_val@U?$_Tree_simple_types@U?$pair@$$CBV?$CStringT@_WV?$StrTraitMFC_DLL@_WV?$ChTraitsCRT@_W@ATL@@@@@ATL@@U?$pair@II@std@@@std@@@std@@@std@@@2@0@Z 10012d30 f i Logger.obj
 0001:00011e00       ?_Lbound@?$_Tree@V?$_Tmap_traits@V?$CStringT@_WV?$StrTraitMFC_DLL@_WV?$ChTraitsCRT@_W@ATL@@@@@ATL@@U?$pair@II@std@@U?$less@V?$CStringT@_WV?$StrTraitMFC_DLL@_WV?$ChTraitsCRT@_W@ATL@@@@@ATL@@@4@V?$allocator@U?$pair@$$CBV?$CStringT@_WV?$StrTraitMFC_DLL@_WV?$ChTraitsCRT@_W@ATL@@@@@ATL@@U?$pair@II@std@@@std@@@4@$0A@@std@@@std@@IAEPAU?$_Tree_node@U?$pair@$$CBV?$CStringT@_WV?$StrTraitMFC_DLL@_WV?$ChTraitsCRT@_W@ATL@@@@@ATL@@U?$pair@II@std@@@std@@PAX@2@ABV?$CStringT@_WV?$StrTraitMFC_DLL@_WV?$ChTraitsCRT@_W@ATL@@@@@ATL@@@Z 10012e00 f i Logger.obj
 0001:00011e50       ??E?$_Tree_unchecked_const_iterator@V?$_Tree_val@U?$_Tree_simple_types@U?$pair@$$CBHVColor@Gdiplus@@@std@@@std@@@std@@U_Iterator_base0@2@@std@@QAEAAV01@XZ 10012e50 f i GradientRect.obj
 0001:00011e50       ??E?$_Tree_unchecked_const_iterator@V?$_Tree_val@U?$_Tree_simple_types@U?$pair@$$CBV?$CStringT@_WV?$StrTraitMFC_DLL@_WV?$ChTraitsCRT@_W@ATL@@@@@ATL@@U?$pair@II@std@@@std@@@std@@@std@@U_Iterator_base0@2@@std@@QAEAAV01@XZ 10012e50 f i Logger.obj
 0001:00011ea0       ?erase@?$_Tree@V?$_Tmap_traits@V?$CStringT@_WV?$StrTraitMFC_DLL@_WV?$ChTraitsCRT@_W@ATL@@@@@ATL@@U?$pair@II@std@@U?$less@V?$CStringT@_WV?$StrTraitMFC_DLL@_WV?$ChTraitsCRT@_W@ATL@@@@@ATL@@@4@V?$allocator@U?$pair@$$CBV?$CStringT@_WV?$StrTraitMFC_DLL@_WV?$ChTraitsCRT@_W@ATL@@@@@ATL@@U?$pair@II@std@@@std@@@4@$0A@@std@@@std@@QAE?AV?$_Tree_iterator@V?$_Tree_val@U?$_Tree_simple_types@U?$pair@$$CBV?$CStringT@_WV?$StrTraitMFC_DLL@_WV?$ChTraitsCRT@_W@ATL@@@@@ATL@@U?$pair@II@std@@@std@@@std@@@std@@@2@V?$_Tree_const_iterator@V?$_Tree_val@U?$_Tree_simple_types@U?$pair@$$CBV?$CStringT@_WV?$StrTraitMFC_DLL@_WV?$ChTraitsCRT@_W@ATL@@@@@ATL@@U?$pair@II@std@@@std@@@std@@@std@@@2@@Z 10012ea0 f i Logger.obj
 0001:00012120       ?_Erase@?$_Tree@V?$_Tmap_traits@V?$CStringT@_WV?$StrTraitMFC_DLL@_WV?$ChTraitsCRT@_W@ATL@@@@@ATL@@U?$pair@II@std@@U?$less@V?$CStringT@_WV?$StrTraitMFC_DLL@_WV?$ChTraitsCRT@_W@ATL@@@@@ATL@@@4@V?$allocator@U?$pair@$$CBV?$CStringT@_WV?$StrTraitMFC_DLL@_WV?$ChTraitsCRT@_W@ATL@@@@@ATL@@U?$pair@II@std@@@std@@@4@$0A@@std@@@std@@IAEXPAU?$_Tree_node@U?$pair@$$CBV?$CStringT@_WV?$StrTraitMFC_DLL@_WV?$ChTraitsCRT@_W@ATL@@@@@ATL@@U?$pair@II@std@@@std@@PAX@2@@Z 10013120 f i Logger.obj
 0001:00012170       ?_Lrotate@?$_Tree@V?$_Tmap_traits@V?$CStringT@_WV?$StrTraitMFC_DLL@_WV?$ChTraitsCRT@_W@ATL@@@@@ATL@@U?$pair@II@std@@U?$less@V?$CStringT@_WV?$StrTraitMFC_DLL@_WV?$ChTraitsCRT@_W@ATL@@@@@ATL@@@4@V?$allocator@U?$pair@$$CBV?$CStringT@_WV?$StrTraitMFC_DLL@_WV?$ChTraitsCRT@_W@ATL@@@@@ATL@@U?$pair@II@std@@@std@@@4@$0A@@std@@@std@@IAEXPAU?$_Tree_node@U?$pair@$$CBV?$CStringT@_WV?$StrTraitMFC_DLL@_WV?$ChTraitsCRT@_W@ATL@@@@@ATL@@U?$pair@II@std@@@std@@PAX@2@@Z 10013170 f i Logger.obj
 0001:000121d0       ?_Rrotate@?$_Tree@V?$_Tmap_traits@V?$CStringT@_WV?$StrTraitMFC_DLL@_WV?$ChTraitsCRT@_W@ATL@@@@@ATL@@U?$pair@II@std@@U?$less@V?$CStringT@_WV?$StrTraitMFC_DLL@_WV?$ChTraitsCRT@_W@ATL@@@@@ATL@@@4@V?$allocator@U?$pair@$$CBV?$CStringT@_WV?$StrTraitMFC_DLL@_WV?$ChTraitsCRT@_W@ATL@@@@@ATL@@U?$pair@II@std@@@std@@@4@$0A@@std@@@std@@IAEXPAU?$_Tree_node@U?$pair@$$CBV?$CStringT@_WV?$StrTraitMFC_DLL@_WV?$ChTraitsCRT@_W@ATL@@@@@ATL@@U?$pair@II@std@@@std@@PAX@2@@Z 100131d0 f i Logger.obj
 0001:00012230       ??0?$_Wrap_alloc@V?$allocator@U?$_Tree_node@U?$pair@$$CBV?$CStringT@_WV?$StrTraitMFC_DLL@_WV?$ChTraitsCRT@_W@ATL@@@@@ATL@@U?$pair@II@std@@@std@@PAX@std@@@std@@@std@@QAE@XZ 10013230 f i Logger.obj
 0001:00012240       ?_Buyheadnode@?$_Tree_alloc@$0A@U?$_Tree_base_types@U?$pair@$$CBV?$CStringT@_WV?$StrTraitMFC_DLL@_WV?$ChTraitsCRT@_W@ATL@@@@@ATL@@U?$pair@II@std@@@std@@V?$allocator@U?$pair@$$CBV?$CStringT@_WV?$StrTraitMFC_DLL@_WV?$ChTraitsCRT@_W@ATL@@@@@ATL@@U?$pair@II@std@@@std@@@2@@std@@@std@@QAEPAU?$_Tree_node@U?$pair@$$CBV?$CStringT@_WV?$StrTraitMFC_DLL@_WV?$ChTraitsCRT@_W@ATL@@@@@ATL@@U?$pair@II@std@@@std@@PAX@2@XZ 10013240 f i Logger.obj
 0001:00012270       ??$make_pair@AAV?$CStringT@_WV?$StrTraitMFC_DLL@_WV?$ChTraitsCRT@_W@ATL@@@@@ATL@@U?$pair@HH@std@@@std@@YA?AU?$pair@V?$CStringT@_WV?$StrTraitMFC_DLL@_WV?$ChTraitsCRT@_W@ATL@@@@@ATL@@U?$pair@HH@std@@@0@AAV?$CStringT@_WV?$StrTraitMFC_DLL@_WV?$ChTraitsCRT@_W@ATL@@@@@ATL@@$$QAU?$pair@HH@0@@Z 10013270 f i Logger.obj
 0001:000122a0       ??$_Buynode@U?$pair@V?$CStringT@_WV?$StrTraitMFC_DLL@_WV?$ChTraitsCRT@_W@ATL@@@@@ATL@@U?$pair@HH@std@@@std@@@?$_Tree_buy@U?$pair@$$CBV?$CStringT@_WV?$StrTraitMFC_DLL@_WV?$ChTraitsCRT@_W@ATL@@@@@ATL@@U?$pair@II@std@@@std@@V?$allocator@U?$pair@$$CBV?$CStringT@_WV?$StrTraitMFC_DLL@_WV?$ChTraitsCRT@_W@ATL@@@@@ATL@@U?$pair@II@std@@@std@@@2@@std@@QAEPAU?$_Tree_node@U?$pair@$$CBV?$CStringT@_WV?$StrTraitMFC_DLL@_WV?$ChTraitsCRT@_W@ATL@@@@@ATL@@U?$pair@II@std@@@std@@PAX@1@$$QAU?$pair@V?$CStringT@_WV?$StrTraitMFC_DLL@_WV?$ChTraitsCRT@_W@ATL@@@@@ATL@@U?$pair@HH@std@@@1@@Z 100132a0 f i Logger.obj
 0001:00012340       ??$_Insert_nohint@AAU?$pair@$$CBV?$CStringT@_WV?$StrTraitMFC_DLL@_WV?$ChTraitsCRT@_W@ATL@@@@@ATL@@U?$pair@II@std@@@std@@PAU?$_Tree_node@U?$pair@$$CBV?$CStringT@_WV?$StrTraitMFC_DLL@_WV?$ChTraitsCRT@_W@ATL@@@@@ATL@@U?$pair@II@std@@@std@@PAX@2@@?$_Tree@V?$_Tmap_traits@V?$CStringT@_WV?$StrTraitMFC_DLL@_WV?$ChTraitsCRT@_W@ATL@@@@@ATL@@U?$pair@II@std@@U?$less@V?$CStringT@_WV?$StrTraitMFC_DLL@_WV?$ChTraitsCRT@_W@ATL@@@@@ATL@@@4@V?$allocator@U?$pair@$$CBV?$CStringT@_WV?$StrTraitMFC_DLL@_WV?$ChTraitsCRT@_W@ATL@@@@@ATL@@U?$pair@II@std@@@std@@@4@$0A@@std@@@std@@IAE?AU?$pair@V?$_Tree_iterator@V?$_Tree_val@U?$_Tree_simple_types@U?$pair@$$CBV?$CStringT@_WV?$StrTraitMFC_DLL@_WV?$ChTraitsCRT@_W@ATL@@@@@ATL@@U?$pair@II@std@@@std@@@std@@@std@@@std@@_N@1@_NAAU?$pair@$$CBV?$CStringT@_WV?$StrTraitMFC_DLL@_WV?$ChTraitsCRT@_W@ATL@@@@@ATL@@U?$pair@II@std@@@1@PAU?$_Tree_node@U?$pair@$$CBV?$CStringT@_WV?$StrTraitMFC_DLL@_WV?$ChTraitsCRT@_W@ATL@@@@@ATL@@U?$pair@II@std@@@std@@PAX@1@@Z 10013340 f i Logger.obj
 0001:00012490       ?_Destroy_if_not_nil@?$_Tree@V?$_Tmap_traits@V?$CStringT@_WV?$StrTraitMFC_DLL@_WV?$ChTraitsCRT@_W@ATL@@@@@ATL@@U?$pair@II@std@@U?$less@V?$CStringT@_WV?$StrTraitMFC_DLL@_WV?$ChTraitsCRT@_W@ATL@@@@@ATL@@@4@V?$allocator@U?$pair@$$CBV?$CStringT@_WV?$StrTraitMFC_DLL@_WV?$ChTraitsCRT@_W@ATL@@@@@ATL@@U?$pair@II@std@@@std@@@4@$0A@@std@@@std@@IAEXPAU?$_Tree_node@U?$pair@$$CBV?$CStringT@_WV?$StrTraitMFC_DLL@_WV?$ChTraitsCRT@_W@ATL@@@@@ATL@@U?$pair@II@std@@@std@@PAX@2@@Z 10013490 f i Logger.obj
 0001:000124b0       ?_Buynode0@?$_Tree_buy@U?$pair@$$CBV?$CStringT@_WV?$StrTraitMFC_DLL@_WV?$ChTraitsCRT@_W@ATL@@@@@ATL@@U?$pair@II@std@@@std@@V?$allocator@U?$pair@$$CBV?$CStringT@_WV?$StrTraitMFC_DLL@_WV?$ChTraitsCRT@_W@ATL@@@@@ATL@@U?$pair@II@std@@@std@@@2@@std@@QAEPAU?$_Tree_node@U?$pair@$$CBV?$CStringT@_WV?$StrTraitMFC_DLL@_WV?$ChTraitsCRT@_W@ATL@@@@@ATL@@U?$pair@II@std@@@std@@PAX@2@XZ 100134b0 f i Logger.obj
 0001:000124f0       ??$_Insert_at@AAU?$pair@$$CBV?$CStringT@_WV?$StrTraitMFC_DLL@_WV?$ChTraitsCRT@_W@ATL@@@@@ATL@@U?$pair@II@std@@@std@@PAU?$_Tree_node@U?$pair@$$CBV?$CStringT@_WV?$StrTraitMFC_DLL@_WV?$ChTraitsCRT@_W@ATL@@@@@ATL@@U?$pair@II@std@@@std@@PAX@2@@?$_Tree@V?$_Tmap_traits@V?$CStringT@_WV?$StrTraitMFC_DLL@_WV?$ChTraitsCRT@_W@ATL@@@@@ATL@@U?$pair@II@std@@U?$less@V?$CStringT@_WV?$StrTraitMFC_DLL@_WV?$ChTraitsCRT@_W@ATL@@@@@ATL@@@4@V?$allocator@U?$pair@$$CBV?$CStringT@_WV?$StrTraitMFC_DLL@_WV?$ChTraitsCRT@_W@ATL@@@@@ATL@@U?$pair@II@std@@@std@@@4@$0A@@std@@@std@@IAE?AV?$_Tree_iterator@V?$_Tree_val@U?$_Tree_simple_types@U?$pair@$$CBV?$CStringT@_WV?$StrTraitMFC_DLL@_WV?$ChTraitsCRT@_W@ATL@@@@@ATL@@U?$pair@II@std@@@std@@@std@@@std@@@1@_NPAU?$_Tree_node@U?$pair@$$CBV?$CStringT@_WV?$StrTraitMFC_DLL@_WV?$ChTraitsCRT@_W@ATL@@@@@ATL@@U?$pair@II@std@@@std@@PAX@1@AAU?$pair@$$CBV?$CStringT@_WV?$StrTraitMFC_DLL@_WV?$ChTraitsCRT@_W@ATL@@@@@ATL@@U?$pair@II@std@@@1@1@Z 100134f0 f i Logger.obj
 0001:00012730       ?Lock@CriticalSection@baro@@QAEHXZ 10013730 f i Logger.obj
 0001:00012750       ?Unlock@CriticalSection@baro@@QAEHXZ 10013750 f i Logger.obj
 0001:00012770       ??1ISerialize@baro@@UAE@XZ 10013770 f i ISerialize.obj
 0001:00012770       ??1CriticalSection@baro@@UAE@XZ 10013770 f i Logger.obj
 0001:00012770       ??1?$TSingleton@$$CBVSystemInfo@baro@@@baro@@MAE@XZ 10013770 f i SystemInfo.obj
 0001:000127a0       ??_ECriticalSection@baro@@UAEPAXI@Z 100137a0 f i Logger.obj
 0001:000127a0       ??_E?$TSingleton@$$CBVSystemInfo@baro@@@baro@@MAEPAXI@Z 100137a0 f i SystemInfo.obj
 0001:000127a0       ??_EISerialize@baro@@UAEPAXI@Z 100137a0 f i ISerialize.obj
 0001:00012820       ??0CriticalSection@baro@@QAE@XZ 10013820 f i Logger.obj
 0001:00012850       ??0Performance@baro@@QAE@XZ 10013850 f   Performance.obj
 0001:000128f0       ?Reset@Performance@baro@@QAEXXZ 100138f0 f   Performance.obj
 0001:00012950       ?Check@Performance@baro@@QAE_NXZ 10013950 f   Performance.obj
 0001:00012ac0       ??8Performance@baro@@QAE_NABV01@@Z 10013ac0 f   Performance.obj
 0001:00012af0       ??9Performance@baro@@QAE_NABV01@@Z 10013af0 f   Performance.obj
 0001:00012b20       ??MPerformance@baro@@QAE_NABV01@@Z 10013b20 f   Performance.obj
 0001:00012b40       ??NPerformance@baro@@QAE_NABV01@@Z 10013b40 f   Performance.obj
 0001:00012b60       ??OPerformance@baro@@QAE_NABV01@@Z 10013b60 f   Performance.obj
 0001:00012b80       ??PPerformance@baro@@QAE_NABV01@@Z 10013b80 f   Performance.obj
 0001:00012ba0       ??0BitmapDC@baro@@QAE@PAVCDC@@PAUHBITMAP__@@@Z 10013ba0 f   BitmapDC.obj
 0001:00012c30       ??0BitmapDC@baro@@QAE@PAVCWnd@@PAUHBITMAP__@@@Z 10013c30 f   BitmapDC.obj
 0001:00012d10       ??0BitmapDC@baro@@QAE@PAVCDC@@II@Z 10013d10 f   BitmapDC.obj
 0001:00012da0       ??0BitmapDC@baro@@QAE@PAVCWnd@@II@Z 10013da0 f   BitmapDC.obj
 0001:00012e80       ??1BitmapDC@baro@@UAE@XZ   10013e80 f   BitmapDC.obj
 0001:00012f20       ?Initialize@BitmapDC@baro@@AAEXPAVCDC@@@Z 10013f20 f   BitmapDC.obj
 0001:00012fb0       ?Initialize@BitmapDC@baro@@AAEXPAVCDC@@PAUHBITMAP__@@@Z 10013fb0 f   BitmapDC.obj
 0001:00013050       ?Release@BitmapDC@baro@@AAEXXZ 10014050 f   BitmapDC.obj
 0001:00013070       ?BitBlt@BitmapDC@baro@@QAEHPAVCDC@@K@Z 10014070 f   BitmapDC.obj
 0001:000130a0       ?BitBlt@BitmapDC@baro@@QAEHPAVCDC@@HHHHHHK@Z 100140a0 f   BitmapDC.obj
 0001:000130e0       ?StretchBlt@BitmapDC@baro@@QAEHPAVCDC@@HHHHHHHHKH@Z 100140e0 f   BitmapDC.obj
 0001:00013140       ?Draw@BitmapDC@baro@@QAEHV12@K@Z 10014140 f   BitmapDC.obj
 0001:00013220       ?DrawObject@BitmapDC@baro@@QAEHPAXK@Z 10014220 f   BitmapDC.obj
 0001:00013220       ?DrawBitmap@BitmapDC@baro@@QAEHPAVCBitmap@@K@Z 10014220 f   BitmapDC.obj
 0001:00013280       ?DrawBitmap@BitmapDC@baro@@QAEHPAVCBitmap@@HHHHHHK@Z 10014280 f   BitmapDC.obj
 0001:00013280       ?DrawObject@BitmapDC@baro@@QAEHPAXHHHHHHK@Z 10014280 f   BitmapDC.obj
 0001:000132f0       ?DrawObject@BitmapDC@baro@@QAEHPAXHHHHHHHHKH@Z 100142f0 f   BitmapDC.obj
 0001:000132f0       ?DrawBitmap@BitmapDC@baro@@QAEHPAVCBitmap@@HHHHHHHHKH@Z 100142f0 f   BitmapDC.obj
 0001:00013380       ?GetBitmapBits@BitmapDC@baro@@QAE_NAAV?$TBuffer@E@2@@Z 10014380 f   BitmapDC.obj
 0001:000133a0       ?Detach@BitmapDC@baro@@QAEPAXXZ 100143a0 f   BitmapDC.obj
 0001:000133b0       ??_EBitmapDC@baro@@UAEPAXI@Z 100143b0 f i BitmapDC.obj
 0001:00013410       ?SelectObject@CDC@@QAEPAVCBitmap@@PAV2@@Z 10014410 f i BitmapDC.obj
 0001:00013440       ??1CBitmap@@UAE@XZ         10014440 f i BitmapDC.obj
 0001:00013450       ??_GCBitmap@@UAEPAXI@Z     10014450 f i BitmapDC.obj
 0001:00013450       ??_ECBitmap@@UAEPAXI@Z     10014450 f i * CIL library *:* CIL module *
 0001:00013480       ??0CustomGraph@baro@@QAE@I@Z 10014480 f   CustomGraph.obj
 0001:000137a0       ??1CustomGraph@baro@@UAE@XZ 100147a0 f   CustomGraph.obj
 0001:00013870       ?Initialize@CustomGraph@baro@@IAEXHHVCRect@@VCPoint@@1VCSize@@2W4CustomGraphLabel@12@3PAVCFont@@4_N5@Z 10014870 f   CustomGraph.obj
 0001:00014150       ?OnDrawLabelY@CustomGraph@baro@@MAEXIAAVCDC@@MMM@Z 10015150 f   CustomGraph.obj
 0001:00014150       ?OnDrawLabelX@CustomGraph@baro@@MAEXIAAVCDC@@MMM@Z 10015150 f   CustomGraph.obj
 0001:00014200       ?DrawDefaultGridline@CustomGraph@baro@@AAEXAAVGraphics@Gdiplus@@VSizeF@4@K@Z 10015200 f   CustomGraph.obj
 0001:000143a0       ?DrawSquareGridline@CustomGraph@baro@@AAEXAAVGraphics@Gdiplus@@VSizeF@4@K@Z 100153a0 f   CustomGraph.obj
 0001:000145a0       ?GetPointCoord@CustomGraph@baro@@IAE?BV?$shared_ptr@VPointCoord@baro@@@std@@I@Z 100155a0 f   CustomGraph.obj
 0001:000145e0       ?Add@CustomGraph@baro@@QAEXIHH@Z 100155e0 f   CustomGraph.obj
 0001:00014620       ?Add@CustomGraph@baro@@QAEXIMM@Z 10015620 f   CustomGraph.obj
 0001:00014660       ?Clear@CustomGraph@baro@@QAEXI@Z 10015660 f   CustomGraph.obj
 0001:00014680       ?Clear@CustomGraph@baro@@QAEXXZ 10015680 f   CustomGraph.obj
 0001:00014780       ?DrawImage@CustomGraph@baro@@AAEXPAVBitmap@Gdiplus@@IKV?$function@$$A6AXAAVGraphics@Gdiplus@@AAVCDC@@IK@Z@std@@@Z 10015780 f   CustomGraph.obj
 0001:00014910       ?ResetImage@CustomGraph@baro@@QAEXI_NK@Z 10015910 f   CustomGraph.obj
 0001:00014ab0       ?UpdateImage@CustomGraph@baro@@QAEX_NK@Z 10015ab0 f   CustomGraph.obj
 0001:00014c50       ?DrawCache@CustomGraph@baro@@QAEXPAVCDC@@0HHW4CustomGraphResource@12@HK@Z 10015c50 f   CustomGraph.obj
 0001:00014df0       ?DrawCache@CustomGraph@baro@@QAEXAAVGraphics@Gdiplus@@HHW4CustomGraphResource@12@HK@Z 10015df0 f   CustomGraph.obj
 0001:00014fb0       ?SaveCache@CustomGraph@baro@@QAENV?$CStringT@_WV?$StrTraitMFC_DLL@_WV?$ChTraitsCRT@_W@ATL@@@@@ATL@@W4CustomGraphResource@12@PB_W@Z 10015fb0 f   CustomGraph.obj
 0001:00015160       ?PixelToBoundaryPoint@CustomGraph@baro@@QBE?AVPoint@Gdiplus@@HH@Z 10016160 f   CustomGraph.obj
 0001:000151b0       ?PixelToBoundaryRatio@CustomGraph@baro@@QBE?AVPointF@Gdiplus@@HH@Z 100161b0 f   CustomGraph.obj
 0001:00015220       ?PixelToGraphValue@CustomGraph@baro@@QBE?AVCPoint@@IHH@Z 10016220 f   CustomGraph.obj
 0001:000152f0       ?PixelToGraphIndexX@CustomGraph@baro@@QBEHIH@Z 100162f0 f   CustomGraph.obj
 0001:00015400       ?PixelToGraphIndexY@CustomGraph@baro@@QBEHIH@Z 10016400 f   CustomGraph.obj
 0001:00015520       ?PixelToGraphIndexXY@CustomGraph@baro@@QBEHIHH@Z 10016520 f   CustomGraph.obj
 0001:000155b0       ?PixelToMainGridIndexXY@CustomGraph@baro@@QBE?AVCPoint@@HH@Z 100165b0 f   CustomGraph.obj
 0001:00015640       ??1?$vector@V?$shared_ptr@VPointCoord@baro@@@std@@V?$allocator@V?$shared_ptr@VPointCoord@baro@@@std@@@2@@std@@QAE@XZ 10016640 f i CustomGraph.obj
 0001:00015680       ??0?$shared_ptr@VPointCoord@baro@@@std@@QAE@ABV01@@Z 10016680 f i CustomGraph.obj
 0001:000156f0       ??_G?$_Func_impl@U?$_Callable_obj@V?$_Bind@$00XU?$_Pmf_wrap@P8CustomGraph@baro@@AEXAAVGraphics@Gdiplus@@AAVCDC@@IK@ZXV12@AAV34@AAV5@IK@std@@QAVCustomGraph@baro@@AAV?$_Ph@$00@2@AAV?$_Ph@$01@2@AAV?$_Ph@$02@2@AAV?$_Ph@$03@2@@std@@$0A@@std@@V?$allocator@V?$_Func_class@XAAVGraphics@Gdiplus@@AAVCDC@@IK@std@@@2@XAAVGraphics@Gdiplus@@AAVCDC@@IK@std@@UAEPAXI@Z 100166f0 f i CustomGraph.obj
 0001:000156f0       ??_G?$_Func_base@XAAVGraphics@Gdiplus@@AAVCDC@@IK@std@@UAEPAXI@Z 100166f0 f i CustomGraph.obj
 0001:000156f0       ??_E?$_Func_base@XAAVGraphics@Gdiplus@@AAVCDC@@IK@std@@UAEPAXI@Z 100166f0 f i * CIL library *:* CIL module *
 0001:000156f0       ??_E?$_Func_impl@U?$_Callable_obj@V?$_Bind@$00XU?$_Pmf_wrap@P8CustomGraph@baro@@AEXAAVGraphics@Gdiplus@@AAVCDC@@IK@ZXV12@AAV34@AAV5@IK@std@@QAVCustomGraph@baro@@AAV?$_Ph@$00@2@AAV?$_Ph@$01@2@AAV?$_Ph@$02@2@AAV?$_Ph@$03@2@@std@@$0A@@std@@V?$allocator@V?$_Func_class@XAAVGraphics@Gdiplus@@AAVCDC@@IK@std@@@2@XAAVGraphics@Gdiplus@@AAVCDC@@IK@std@@UAEPAXI@Z 100166f0 f i * CIL library *:* CIL module *
 0001:00015720       ?_Reallocate@?$vector@V?$shared_ptr@VPointCoord@baro@@@std@@V?$allocator@V?$shared_ptr@VPointCoord@baro@@@std@@@2@@std@@IAEXI@Z 10016720 f i CustomGraph.obj
 0001:000157b0       ??$make_shared@VPointCoord@baro@@$$$V@std@@YA?AV?$shared_ptr@VPointCoord@baro@@@0@XZ 100167b0 f i CustomGraph.obj
 0001:00015860       ??$?0V?$_Bind@$00XU?$_Pmf_wrap@P8CustomGraph@baro@@AEXAAVGraphics@Gdiplus@@AAVCDC@@IK@ZXV12@AAV34@AAV5@IK@std@@QAVCustomGraph@baro@@AAV?$_Ph@$00@2@AAV?$_Ph@$01@2@AAV?$_Ph@$02@2@AAV?$_Ph@$03@2@@std@@@?$function@$$A6AXAAVGraphics@Gdiplus@@AAVCDC@@IK@Z@std@@QAE@$$QAV?$_Bind@$00XU?$_Pmf_wrap@P8CustomGraph@baro@@AEXAAVGraphics@Gdiplus@@AAVCDC@@IK@ZXV12@AAV34@AAV5@IK@std@@QAVCustomGraph@baro@@AAV?$_Ph@$00@2@AAV?$_Ph@$01@2@AAV?$_Ph@$02@2@AAV?$_Ph@$03@2@@1@@Z 10016860 f i CustomGraph.obj
 0001:00015900       ?_Destroy@?$_Ref_count_obj@VPointCoord@baro@@@std@@EAEXXZ 10016900 f i CustomGraph.obj
 0001:00015910       ??$_Destroy_range@U?$_Wrap_alloc@V?$allocator@V?$shared_ptr@VPointCoord@baro@@@std@@@std@@@std@@@std@@YAXPAV?$shared_ptr@VPointCoord@baro@@@0@0AAU?$_Wrap_alloc@V?$allocator@V?$shared_ptr@VPointCoord@baro@@@std@@@std@@@0@U_Nonscalar_ptr_iterator_tag@0@@Z 10016910 f i CustomGraph.obj
 0001:00015960       ??$_Uninit_move@PAV?$shared_ptr@VPointCoord@baro@@@std@@PAV12@V?$allocator@V?$shared_ptr@VPointCoord@baro@@@std@@@2@V12@@std@@YAPAV?$shared_ptr@VPointCoord@baro@@@0@PAV10@00AAU?$_Wrap_alloc@V?$allocator@V?$shared_ptr@VPointCoord@baro@@@std@@@std@@@0@0U_Nonscalar_ptr_iterator_tag@0@@Z 10016960 f i CustomGraph.obj
 0001:000159b0       ?_Copy@?$_Func_impl@U?$_Callable_obj@V?$_Bind@$00XU?$_Pmf_wrap@P8CustomGraph@baro@@AEXAAVGraphics@Gdiplus@@AAVCDC@@IK@ZXV12@AAV34@AAV5@IK@std@@QAVCustomGraph@baro@@AAV?$_Ph@$00@2@AAV?$_Ph@$01@2@AAV?$_Ph@$02@2@AAV?$_Ph@$03@2@@std@@$0A@@std@@V?$allocator@V?$_Func_class@XAAVGraphics@Gdiplus@@AAVCDC@@IK@std@@@2@XAAVGraphics@Gdiplus@@AAVCDC@@IK@std@@UAEPAV?$_Func_base@XAAVGraphics@Gdiplus@@AAVCDC@@IK@2@PAX@Z 100169b0 f i CustomGraph.obj
 0001:000159b0       ?_Move@?$_Func_impl@U?$_Callable_obj@V?$_Bind@$00XU?$_Pmf_wrap@P8CustomGraph@baro@@AEXAAVGraphics@Gdiplus@@AAVCDC@@IK@ZXV12@AAV34@AAV5@IK@std@@QAVCustomGraph@baro@@AAV?$_Ph@$00@2@AAV?$_Ph@$01@2@AAV?$_Ph@$02@2@AAV?$_Ph@$03@2@@std@@$0A@@std@@V?$allocator@V?$_Func_class@XAAVGraphics@Gdiplus@@AAVCDC@@IK@std@@@2@XAAVGraphics@Gdiplus@@AAVCDC@@IK@std@@UAEPAV?$_Func_base@XAAVGraphics@Gdiplus@@AAVCDC@@IK@2@PAX@Z 100169b0 f i CustomGraph.obj
 0001:00015a10       ?_Do_call@?$_Func_impl@U?$_Callable_obj@V?$_Bind@$00XU?$_Pmf_wrap@P8CustomGraph@baro@@AEXAAVGraphics@Gdiplus@@AAVCDC@@IK@ZXV12@AAV34@AAV5@IK@std@@QAVCustomGraph@baro@@AAV?$_Ph@$00@2@AAV?$_Ph@$01@2@AAV?$_Ph@$02@2@AAV?$_Ph@$03@2@@std@@$0A@@std@@V?$allocator@V?$_Func_class@XAAVGraphics@Gdiplus@@AAVCDC@@IK@std@@@2@XAAVGraphics@Gdiplus@@AAVCDC@@IK@std@@UAEXAAVGraphics@Gdiplus@@AAVCDC@@$$QAI$$QAK@Z 10016a10 f i CustomGraph.obj
 0001:00015a40       ?_Target_type@?$_Func_impl@U?$_Callable_obj@V?$_Bind@$00XU?$_Pmf_wrap@P8CustomGraph@baro@@AEXAAVGraphics@Gdiplus@@AAVCDC@@IK@ZXV12@AAV34@AAV5@IK@std@@QAVCustomGraph@baro@@AAV?$_Ph@$00@2@AAV?$_Ph@$01@2@AAV?$_Ph@$02@2@AAV?$_Ph@$03@2@@std@@$0A@@std@@V?$allocator@V?$_Func_class@XAAVGraphics@Gdiplus@@AAVCDC@@IK@std@@@2@XAAVGraphics@Gdiplus@@AAVCDC@@IK@std@@UBEABVtype_info@@XZ 10016a40 f i CustomGraph.obj
 0001:00015a46       ??_9CustomGraph@baro@@$BBA@AE 10016a46 f i CustomGraph.obj
 0001:00015a4b       ??_9CustomGraph@baro@@$B7AE 10016a4b f i CustomGraph.obj
 0001:00015a50       ??_9CustomGraph@baro@@$BM@AE 10016a50 f i CustomGraph.obj
 0001:00015a60       ??_ECustomGraph@baro@@UAEPAXI@Z 10016a60 f i CustomGraph.obj
 0001:00015ac0       ?DrawImage@Graphics@Gdiplus@@QAE?AW4Status@2@PAVImage@2@HH@Z 10016ac0 f i CustomGraph.obj
 0001:00015b00       ?Size@PointCoord@baro@@QAEIXZ 10016b00 f i CustomGraph.obj
 0001:00015b10       ??0GradientRect@baro@@QAE@XZ 10016b10 f   GradientRect.obj
 0001:00015ba0       ??0GradientRect@baro@@QAE@VRect@Gdiplus@@VColor@3@@Z 10016ba0 f   GradientRect.obj
 0001:00015c40       ??1GradientRect@baro@@UAE@XZ 10016c40 f   GradientRect.obj
 0001:00015c80       ?Reset@GradientRect@baro@@QAEXVRect@Gdiplus@@VColor@4@@Z 10016c80 f   GradientRect.obj
 0001:00015ca0       ?Add@GradientRect@baro@@QAE_NHVColor@Gdiplus@@@Z 10016ca0 f   GradientRect.obj
 0001:00015ce0       ?Update@GradientRect@baro@@QAE_NHVColor@Gdiplus@@@Z 10016ce0 f   GradientRect.obj
 0001:00015d40       ?Remove@GradientRect@baro@@QAE_NH@Z 10016d40 f   GradientRect.obj
 0001:00015db0       ?Draw@GradientRect@baro@@QAEXAAVGraphics@Gdiplus@@@Z 10016db0 f   GradientRect.obj
 0001:00016050       ?Draw@GradientRect@baro@@QAEXAAVGraphics@Gdiplus@@VRect@4@@Z 10017050 f   GradientRect.obj
 0001:00016070       ??$_Buynode@AAU?$pair@$$CBHVColor@Gdiplus@@@std@@@?$_Tree_buy@U?$pair@$$CBHVColor@Gdiplus@@@std@@V?$allocator@U?$pair@$$CBHVColor@Gdiplus@@@std@@@2@@std@@QAEPAU?$_Tree_node@U?$pair@$$CBHVColor@Gdiplus@@@std@@PAX@1@AAU?$pair@$$CBHVColor@Gdiplus@@@1@@Z 10017070 f i stdafx.obj
 0001:00016070       ??$_Buynode@U?$pair@HVColor@Gdiplus@@@std@@@?$_Tree_buy@U?$pair@$$CBHVColor@Gdiplus@@@std@@V?$allocator@U?$pair@$$CBHVColor@Gdiplus@@@std@@@2@@std@@QAEPAU?$_Tree_node@U?$pair@$$CBHVColor@Gdiplus@@@std@@PAX@1@$$QAU?$pair@HVColor@Gdiplus@@@1@@Z 10017070 f i GradientRect.obj
 0001:000160a0       ??$_Insert_nohint@AAU?$pair@$$CBHVColor@Gdiplus@@@std@@PAU?$_Tree_node@U?$pair@$$CBHVColor@Gdiplus@@@std@@PAX@2@@?$_Tree@V?$_Tmap_traits@HVColor@Gdiplus@@U?$less@H@std@@V?$allocator@U?$pair@$$CBHVColor@Gdiplus@@@std@@@4@$0A@@std@@@std@@IAE?AU?$pair@V?$_Tree_iterator@V?$_Tree_val@U?$_Tree_simple_types@U?$pair@$$CBHVColor@Gdiplus@@@std@@@std@@@std@@@std@@_N@1@_NAAU?$pair@$$CBHVColor@Gdiplus@@@1@PAU?$_Tree_node@U?$pair@$$CBHVColor@Gdiplus@@@std@@PAX@1@@Z 100170a0 f i GradientRect.obj
 0001:000161c0       ??$_Insert_at@AAU?$pair@$$CBHVColor@Gdiplus@@@std@@PAU?$_Tree_node@U?$pair@$$CBHVColor@Gdiplus@@@std@@PAX@2@@?$_Tree@V?$_Tmap_traits@HVColor@Gdiplus@@U?$less@H@std@@V?$allocator@U?$pair@$$CBHVColor@Gdiplus@@@std@@@4@$0A@@std@@@std@@IAE?AV?$_Tree_iterator@V?$_Tree_val@U?$_Tree_simple_types@U?$pair@$$CBHVColor@Gdiplus@@@std@@@std@@@std@@@1@_NPAU?$_Tree_node@U?$pair@$$CBHVColor@Gdiplus@@@std@@PAX@1@AAU?$pair@$$CBHVColor@Gdiplus@@@1@1@Z 100171c0 f i GradientRect.obj
 0001:000163d0       ?_Buynode0@?$_Tree_buy@U?$pair@$$CBHVColor@Gdiplus@@@std@@V?$allocator@U?$pair@$$CBHVColor@Gdiplus@@@std@@@2@@std@@QAEPAU?$_Tree_node@U?$pair@$$CBHVColor@Gdiplus@@@std@@PAX@2@XZ 100173d0 f i GradientRect.obj
 0001:000163d0       ?_Buynode0@?$_Tree_buy@U?$pair@$$CBV?$CStringT@_WV?$StrTraitMFC_DLL@_WV?$ChTraitsCRT@_W@ATL@@@@@ATL@@V12@@std@@V?$allocator@U?$pair@$$CBV?$CStringT@_WV?$StrTraitMFC_DLL@_WV?$ChTraitsCRT@_W@ATL@@@@@ATL@@V12@@std@@@2@@std@@QAEPAU?$_Tree_node@U?$pair@$$CBV?$CStringT@_WV?$StrTraitMFC_DLL@_WV?$ChTraitsCRT@_W@ATL@@@@@ATL@@V12@@std@@PAX@2@XZ 100173d0 f i stdafx.obj
 0001:00016410       ?_Buyheadnode@?$_Tree_alloc@$0A@U?$_Tree_base_types@U?$pair@$$CBHVColor@Gdiplus@@@std@@V?$allocator@U?$pair@$$CBHVColor@Gdiplus@@@std@@@2@@std@@@std@@QAEPAU?$_Tree_node@U?$pair@$$CBHVColor@Gdiplus@@@std@@PAX@2@XZ 10017410 f i GradientRect.obj
 0001:00016440       ??1?$_Tree_comp@$0A@V?$_Tmap_traits@HVColor@Gdiplus@@U?$less@H@std@@V?$allocator@U?$pair@$$CBHVColor@Gdiplus@@@std@@@4@$0A@@std@@@std@@QAE@XZ 10017440 f i GradientRect.obj
 0001:00016450       ?_Erase@?$_Tree@V?$_Tmap_traits@HVColor@Gdiplus@@U?$less@H@std@@V?$allocator@U?$pair@$$CBHVColor@Gdiplus@@@std@@@4@$0A@@std@@@std@@IAEXPAU?$_Tree_node@U?$pair@$$CBHVColor@Gdiplus@@@std@@PAX@2@@Z 10017450 f i GradientRect.obj
 0001:000164a0       ?clear@?$_Tree@V?$_Tmap_traits@HVColor@Gdiplus@@U?$less@H@std@@V?$allocator@U?$pair@$$CBHVColor@Gdiplus@@@std@@@4@$0A@@std@@@std@@QAEXXZ 100174a0 f i GradientRect.obj
 0001:000164f0       ?_Lrotate@?$_Tree@V?$_Tmap_traits@HVColor@Gdiplus@@U?$less@H@std@@V?$allocator@U?$pair@$$CBHVColor@Gdiplus@@@std@@@4@$0A@@std@@@std@@IAEXPAU?$_Tree_node@U?$pair@$$CBHVColor@Gdiplus@@@std@@PAX@2@@Z 100174f0 f i GradientRect.obj
 0001:00016550       ?_Rrotate@?$_Tree@V?$_Tmap_traits@HVColor@Gdiplus@@U?$less@H@std@@V?$allocator@U?$pair@$$CBHVColor@Gdiplus@@@std@@@4@$0A@@std@@@std@@IAEXPAU?$_Tree_node@U?$pair@$$CBHVColor@Gdiplus@@@std@@PAX@2@@Z 10017550 f i GradientRect.obj
 0001:000165b0       ?erase@?$_Tree@V?$_Tmap_traits@HVColor@Gdiplus@@U?$less@H@std@@V?$allocator@U?$pair@$$CBHVColor@Gdiplus@@@std@@@4@$0A@@std@@@std@@QAE?AV?$_Tree_iterator@V?$_Tree_val@U?$_Tree_simple_types@U?$pair@$$CBHVColor@Gdiplus@@@std@@@std@@@std@@@2@V?$_Tree_const_iterator@V?$_Tree_val@U?$_Tree_simple_types@U?$pair@$$CBHVColor@Gdiplus@@@std@@@std@@@std@@@2@@Z 100175b0 f i GradientRect.obj
 0001:00016830       ?erase@?$_Tree@V?$_Tmap_traits@HVColor@Gdiplus@@U?$less@H@std@@V?$allocator@U?$pair@$$CBHVColor@Gdiplus@@@std@@@4@$0A@@std@@@std@@QAE?AV?$_Tree_iterator@V?$_Tree_val@U?$_Tree_simple_types@U?$pair@$$CBHVColor@Gdiplus@@@std@@@std@@@std@@@2@V?$_Tree_const_iterator@V?$_Tree_val@U?$_Tree_simple_types@U?$pair@$$CBHVColor@Gdiplus@@@std@@@std@@@std@@@2@0@Z 10017830 f i GradientRect.obj
 0001:000168e0       ??_EGradientRect@baro@@UAEPAXI@Z 100178e0 f i GradientRect.obj
 0001:00016960       ??0PointCoord@baro@@QAE@XZ 10017960 f   PointCoord.obj
 0001:00016b10       ??1PointCoord@baro@@UAE@XZ 10017b10 f   PointCoord.obj
 0001:00016bc0       ?Initialize@PointCoord@baro@@QAEXHHMMMM@Z 10017bc0 f   PointCoord.obj
 0001:00016d30       ?Add@PointCoord@baro@@QAEXMM@Z 10017d30 f   PointCoord.obj
 0001:00016fa0       ?Clear@PointCoord@baro@@QAEXXZ 10017fa0 f   PointCoord.obj
 0001:00017030       ?MakeRatio@PointCoord@baro@@QBE?AVPointF@Gdiplus@@MM@Z 10018030 f   PointCoord.obj
 0001:000170c0       ?MakeValue@PointCoord@baro@@QBE?AVPointF@Gdiplus@@MM@Z 100180c0 f   PointCoord.obj
 0001:00017100       ?MakeCoordF@PointCoord@baro@@QBE?AVPointF@Gdiplus@@V34@@Z 10018100 f   PointCoord.obj
 0001:00017130       ?MakeCoordF@PointCoord@baro@@QBE?AVPointF@Gdiplus@@MM@Z 10018130 f   PointCoord.obj
 0001:000171c0       ?MakeCoordF@PointCoord@baro@@QBE?AVPointF@Gdiplus@@MMAA_N@Z 100181c0 f   PointCoord.obj
 0001:00017280       ?MakeCoordF@PointCoord@baro@@QBE?AVPointF@Gdiplus@@MMAA_NAAV34@@Z 10018280 f   PointCoord.obj
 0001:00017370       ?GetCoord@PointCoord@baro@@QBEXIVSizeF@Gdiplus@@AAVPoint@4@AA_N@Z 10018370 f   PointCoord.obj
 0001:000173e0       ?GetCoordF@PointCoord@baro@@QBEXIVSizeF@Gdiplus@@AAVPointF@4@AA_N@Z 100183e0 f   PointCoord.obj
 0001:00017460       ?GetCoordArray@PointCoord@baro@@QBEIVSizeF@Gdiplus@@AAV?$vector@VPoint@Gdiplus@@V?$allocator@VPoint@Gdiplus@@@std@@@std@@AAV?$vector@_NV?$allocator@_N@std@@@6@I@Z 10018460 f   PointCoord.obj
 0001:000176e0       ?GetCoordArrayF@PointCoord@baro@@QBEIVSizeF@Gdiplus@@AAV?$vector@VPointF@Gdiplus@@V?$allocator@VPointF@Gdiplus@@@std@@@std@@AAV?$vector@_NV?$allocator@_N@std@@@6@I@Z 100186e0 f   PointCoord.obj
 0001:00017970       ?GetNearIndexFromRatio@PointCoord@baro@@QBEH_NM@Z 10018970 f   PointCoord.obj
 0001:00017be0       ?GetNearIndexFromRatio@PointCoord@baro@@QBEHMM@Z 10018be0 f   PointCoord.obj
 0001:00017ce0       ?IsEqualRange@PointCoord@baro@@QAE_NXZ 10018ce0 f   PointCoord.obj
 0001:00017d10       ?GetSrc@PointCoord@baro@@QBE?AVPointF@Gdiplus@@I@Z 10018d10 f   PointCoord.obj
 0001:00017d50       ?GetDest@PointCoord@baro@@QBE?AVPointF@Gdiplus@@I@Z 10018d50 f   PointCoord.obj
 0001:00017d90       ?GetCoord@PointCoord@baro@@QBE?AVPointF@Gdiplus@@I@Z 10018d90 f   PointCoord.obj
 0001:00017dd0       ?GetMinMaxCoordBoundary@PointCoord@baro@@QBE?AVRectF@Gdiplus@@VSizeF@4@@Z 10018dd0 f   PointCoord.obj
 0001:00017e00       ?push_back@?$vector@VPointF@Gdiplus@@V?$allocator@VPointF@Gdiplus@@@std@@@std@@QAEX$$QAVPointF@Gdiplus@@@Z 10018e00 f i PointCoord.obj
 0001:00017e00       ?push_back@?$vector@VPointF@Gdiplus@@V?$allocator@VPointF@Gdiplus@@@std@@@std@@QAEXABVPointF@Gdiplus@@@Z 10018e00 f i PointCoord.obj
 0001:00017e70       ?_Reserve@?$vector@VPointF@Gdiplus@@V?$allocator@VPointF@Gdiplus@@@std@@@std@@IAEXI@Z 10018e70 f i PointCoord.obj
 0001:00017ee0       ?end@?$vector@_NV?$allocator@_N@std@@@std@@QAE?AV?$_Vb_iterator@U?$_Wrap_alloc@V?$allocator@I@std@@@std@@@2@XZ 10018ee0 f i PointCoord.obj
 0001:00017f50       ?erase@?$vector@_NV?$allocator@_N@std@@@std@@QAE?AV?$_Vb_iterator@U?$_Wrap_alloc@V?$allocator@I@std@@@std@@@2@V?$_Vb_const_iterator@U?$_Wrap_alloc@V?$allocator@I@std@@@std@@@2@0@Z 10018f50 f i PointCoord.obj
 0001:00018090       ??_E?$_Func_impl@U?$_Callable_obj@V<lambda_f15cf28b79eebeba7dee09e3ec20cd6a>@@$0A@@std@@V?$allocator@V?$_Func_class@MI@std@@@2@MI@std@@UAEPAXI@Z 10019090 f i * CIL library *:* CIL module *
 0001:00018090       ??_G?$_Func_impl@U?$_Callable_obj@V<lambda_660079388d01d824f1d4f65d6714bd9d>@@$0A@@std@@V?$allocator@V?$_Func_class@MI@std@@@2@MI@std@@UAEPAXI@Z 10019090 f i PointCoord.obj
 0001:00018090       ??_G?$_Func_base@MI@std@@UAEPAXI@Z 10019090 f i PointCoord.obj
 0001:00018090       ??_G?$_Func_impl@U?$_Callable_obj@V<lambda_f15cf28b79eebeba7dee09e3ec20cd6a>@@$0A@@std@@V?$allocator@V?$_Func_class@MI@std@@@2@MI@std@@UAEPAXI@Z 10019090 f i PointCoord.obj
 0001:00018090       ??_E?$_Func_base@MI@std@@UAEPAXI@Z 10019090 f i * CIL library *:* CIL module *
 0001:00018090       ??_E?$_Func_impl@U?$_Callable_obj@V<lambda_660079388d01d824f1d4f65d6714bd9d>@@$0A@@std@@V?$allocator@V?$_Func_class@MI@std@@@2@MI@std@@UAEPAXI@Z 10019090 f i * CIL library *:* CIL module *
 0001:000180c0       ?_Reallocate@?$vector@VPointF@Gdiplus@@V?$allocator@VPointF@Gdiplus@@@std@@@std@@IAEXI@Z 100190c0 f i PointCoord.obj
 0001:00018140       ?_Make_iter@?$vector@_NV?$allocator@_N@std@@@std@@QAE?AV?$_Vb_iterator@U?$_Wrap_alloc@V?$allocator@I@std@@@std@@@2@V?$_Vb_const_iterator@U?$_Wrap_alloc@V?$allocator@I@std@@@std@@@2@@Z 10019140 f i PointCoord.obj
 0001:000181b0       ?_Insert_n@?$vector@_NV?$allocator@_N@std@@@std@@QAE?AV?$_Vb_iterator@U?$_Wrap_alloc@V?$allocator@I@std@@@std@@@2@V?$_Vb_const_iterator@U?$_Wrap_alloc@V?$allocator@I@std@@@std@@@2@IAB_N@Z 100191b0 f i PointCoord.obj
 0001:000182c0       ?_Trim@?$vector@_NV?$allocator@_N@std@@@std@@QAEXI@Z 100192c0 f i PointCoord.obj
 0001:00018330       ?_Reallocate@?$vector@VPoint@Gdiplus@@V?$allocator@VPoint@Gdiplus@@@std@@@std@@IAEXI@Z 10019330 f i PointCoord.obj
 0001:000183b0       ??H?$_Vb_iterator@U?$_Wrap_alloc@V?$allocator@I@std@@@std@@@std@@QBE?AV01@H@Z 100193b0 f i PointCoord.obj
 0001:00018410       ?_Insert_x@?$vector@_NV?$allocator@_N@std@@@std@@QAEIV?$_Vb_const_iterator@U?$_Wrap_alloc@V?$allocator@I@std@@@std@@@2@I@Z 10019410 f i PointCoord.obj
 0001:000184f0       ?_Construct_n@?$vector@IV?$allocator@_N@std@@@std@@QAEXIPBI@Z 100194f0 f i PointCoord.obj
 0001:00018530       ?erase@?$vector@IV?$allocator@_N@std@@@std@@QAE?AV?$_Vector_iterator@V?$_Vector_val@U?$_Simple_types@I@std@@@std@@@2@V?$_Vector_const_iterator@V?$_Vector_val@U?$_Simple_types@I@std@@@std@@@2@0@Z 10019530 f i PointCoord.obj
 0001:000185c0       ?resize@?$vector@IV?$allocator@_N@std@@@std@@QAEXIABI@Z 100195c0 f i PointCoord.obj
 0001:00018660       ?_Reserve@?$vector@IV?$allocator@_N@std@@@std@@IAEXI@Z 10019660 f i PointCoord.obj
 0001:000186e0       ?_Reallocate@?$vector@IV?$allocator@_N@std@@@std@@IAEXI@Z 100196e0 f i PointCoord.obj
 0001:00018770       ??$_Fill@V?$_Vb_iterator@U?$_Wrap_alloc@V?$allocator@I@std@@@std@@@std@@_N@std@@YAXV?$_Vb_iterator@U?$_Wrap_alloc@V?$allocator@I@std@@@std@@@0@0AB_N@Z 10019770 f i PointCoord.obj
 0001:000187c0       ??$_Copy_impl@V?$_Vb_iterator@U?$_Wrap_alloc@V?$allocator@I@std@@@std@@@std@@V12@@std@@YA?AV?$_Vb_iterator@U?$_Wrap_alloc@V?$allocator@I@std@@@std@@@0@V10@00U_Nonscalar_ptr_iterator_tag@0@@Z 100197c0 f i PointCoord.obj
 0001:00018840       ??$_Copy_backward@V?$_Vb_iterator@U?$_Wrap_alloc@V?$allocator@I@std@@@std@@@std@@V12@@std@@YA?AV?$_Vb_iterator@U?$_Wrap_alloc@V?$allocator@I@std@@@std@@@0@V10@00U_Nonscalar_ptr_iterator_tag@0@@Z 10019840 f i PointCoord.obj
 0001:000188d0       ??$_Uninit_copy@PBVPointF@Gdiplus@@PAV12@V?$allocator@VPointF@Gdiplus@@@std@@@std@@YAPAVPointF@Gdiplus@@PBV12@0PAV12@AAU?$_Wrap_alloc@V?$allocator@VPointF@Gdiplus@@@std@@@0@U_Nonscalar_ptr_iterator_tag@0@@Z 100198d0 f i PointCoord.obj
 0001:000188d0       ??$_Uninit_copy@PAVPointF@Gdiplus@@PAV12@V?$allocator@VPointF@Gdiplus@@@std@@@std@@YAPAVPointF@Gdiplus@@PAV12@00AAU?$_Wrap_alloc@V?$allocator@VPointF@Gdiplus@@@std@@@0@U_Nonscalar_ptr_iterator_tag@0@@Z 100198d0 f i stdafx.obj
 0001:000188d0       ??$_Uninit_move@PAVPointF@Gdiplus@@PAV12@V?$allocator@VPointF@Gdiplus@@@std@@V12@@std@@YAPAVPointF@Gdiplus@@PAV12@00AAU?$_Wrap_alloc@V?$allocator@VPointF@Gdiplus@@@std@@@0@0U_Nonscalar_ptr_iterator_tag@0@@Z 100198d0 f i PointCoord.obj
 0001:00018910       ??$_Uninit_move@PAVPoint@Gdiplus@@PAV12@V?$allocator@VPoint@Gdiplus@@@std@@V12@@std@@YAPAVPoint@Gdiplus@@PAV12@00AAU?$_Wrap_alloc@V?$allocator@VPoint@Gdiplus@@@std@@@0@0U_Nonscalar_ptr_iterator_tag@0@@Z 10019910 f i PointCoord.obj
 0001:00018940       ?_Move@?$_Func_impl@U?$_Callable_obj@V<lambda_660079388d01d824f1d4f65d6714bd9d>@@$0A@@std@@V?$allocator@V?$_Func_class@MI@std@@@2@MI@std@@UAEPAV?$_Func_base@MI@2@PAX@Z 10019940 f i PointCoord.obj
 0001:00018940       ?_Copy@?$_Func_impl@U?$_Callable_obj@V<lambda_660079388d01d824f1d4f65d6714bd9d>@@$0A@@std@@V?$allocator@V?$_Func_class@MI@std@@@2@MI@std@@UAEPAV?$_Func_base@MI@2@PAX@Z 10019940 f i PointCoord.obj
 0001:00018980       ?_Do_call@?$_Func_impl@U?$_Callable_obj@V<lambda_660079388d01d824f1d4f65d6714bd9d>@@$0A@@std@@V?$allocator@V?$_Func_class@MI@std@@@2@MI@std@@UAEM$$QAI@Z 10019980 f i PointCoord.obj
 0001:000189a0       ?_Target_type@?$_Func_impl@U?$_Callable_obj@V<lambda_660079388d01d824f1d4f65d6714bd9d>@@$0A@@std@@V?$allocator@V?$_Func_class@MI@std@@@2@MI@std@@UBEABVtype_info@@XZ 100199a0 f i PointCoord.obj
 0001:000189b0       ?_Move@?$_Func_impl@U?$_Callable_obj@V<lambda_f15cf28b79eebeba7dee09e3ec20cd6a>@@$0A@@std@@V?$allocator@V?$_Func_class@MI@std@@@2@MI@std@@UAEPAV?$_Func_base@MI@2@PAX@Z 100199b0 f i PointCoord.obj
 0001:000189b0       ?_Copy@?$_Func_impl@U?$_Callable_obj@V<lambda_f15cf28b79eebeba7dee09e3ec20cd6a>@@$0A@@std@@V?$allocator@V?$_Func_class@MI@std@@@2@MI@std@@UAEPAV?$_Func_base@MI@2@PAX@Z 100199b0 f i PointCoord.obj
 0001:000189f0       ?_Do_call@?$_Func_impl@U?$_Callable_obj@V<lambda_f15cf28b79eebeba7dee09e3ec20cd6a>@@$0A@@std@@V?$allocator@V?$_Func_class@MI@std@@@2@MI@std@@UAEM$$QAI@Z 100199f0 f i PointCoord.obj
 0001:00018a10       ?_Target_type@?$_Func_impl@U?$_Callable_obj@V<lambda_f15cf28b79eebeba7dee09e3ec20cd6a>@@$0A@@std@@V?$allocator@V?$_Func_class@MI@std@@@2@MI@std@@UBEABVtype_info@@XZ 10019a10 f i PointCoord.obj
 0001:00018a20       ?_Buy@?$vector@VPointF@Gdiplus@@V?$allocator@VPointF@Gdiplus@@@std@@@std@@IAE_NI@Z 10019a20 f i PointCoord.obj
 0001:00018a90       ??0?$vector@VPointF@Gdiplus@@V?$allocator@VPointF@Gdiplus@@@std@@@std@@QAE@ABV01@@Z 10019a90 f i PointCoord.obj
 0001:00018af0       ??1?$vector@VPointF@Gdiplus@@V?$allocator@VPointF@Gdiplus@@@std@@@std@@QAE@XZ 10019af0 f i PointCoord.obj
 0001:00018af0       ??1?$vector@VCRect@@V?$allocator@VCRect@@@std@@@std@@QAE@XZ 10019af0 f i MonitorInfo.obj
 0001:00018b20       ??_EPointCoord@baro@@UAEPAXI@Z 10019b20 f i PointCoord.obj
 0001:00018b80       ?GetStreamResultString@baro@@YA?AV?$CStringT@_WV?$StrTraitMFC_DLL@_WV?$ChTraitsCRT@_W@ATL@@@@@ATL@@W4StreamResult@1@@Z 10019b80 f   ISerialize.obj
 0001:00018d90       ??0ISerialize@baro@@QAE@XZ 10019d90 f   ISerialize.obj
 0001:00018dc0       ?GetClassGuid@ISerialize@baro@@UBE?AU_GUID@@XZ 10019dc0 f   ISerialize.obj
 0001:00018de0       ?GetClassVersion@ISerialize@baro@@UBEMXZ 10019de0 f   ISerialize.obj
 0001:00018df0       ?ReadStream@ISerialize@baro@@QAE?AW4StreamResult@2@AAVStream@2@_N@Z 10019df0 f   ISerialize.obj
 0001:00018f60       ?WriteStream@ISerialize@baro@@QBE?AW4StreamResult@2@AAVStream@2@_N@Z 10019f60 f   ISerialize.obj
 0001:00018fc0       ??0MonitorInfo@baro@@QAE@XZ 10019fc0 f   MonitorInfo.obj
 0001:00019050       ??1MonitorInfo@baro@@QAE@XZ 1001a050 f   MonitorInfo.obj
 0001:000190a0       ??0MonitorInfo@baro@@QAE@ABV01@@Z 1001a0a0 f   MonitorInfo.obj
 0001:000191c0       ?Reset@MonitorInfo@baro@@QAEXPAUtagRECT@@@Z 1001a1c0 f   MonitorInfo.obj
 0001:00019290       ?IsRectInMonitorArea@MonitorInfo@baro@@QAEXVCRect@@AA_N111@Z 1001a290 f   MonitorInfo.obj
 0001:00019340       ?IsRectInMonitorAreaEx@MonitorInfo@baro@@QAEXVCRect@@AA_N111@Z 1001a340 f   MonitorInfo.obj
 0001:00019470       ??$_Copy_impl@PAVCRect@@PAV1@@std@@YAPAVCRect@@PAV1@00@Z 1001a470 f i MonitorInfo.obj
 0001:000194a0       ?_Buy@?$vector@VCRect@@V?$allocator@VCRect@@@std@@@std@@IAE_NI@Z 1001a4a0 f i MonitorInfo.obj
 0001:00019510       ??4?$vector@VCRect@@V?$allocator@VCRect@@@std@@@std@@QAEAAV01@ABV01@@Z 1001a510 f i MonitorInfo.obj
 0001:00019600       ??4MonitorInfo@baro@@QAEAAV01@ABV01@@Z 1001a600 f i MonitorInfo.obj
 0001:00019660       ??0SystemInfo@baro@@QAE@U_token@?$TSingleton@$$CBVSystemInfo@baro@@@1@@Z 1001a660 f   SystemInfo.obj
 0001:00019b80       ??1SystemInfo@baro@@UAE@XZ 1001ab80 f   SystemInfo.obj
 0001:00019c40       ?InitOsInfo@SystemInfo@baro@@AAEXXZ 1001ac40 f   SystemInfo.obj
 0001:00019fb0       ??_ESystemInfo@baro@@UAEPAXI@Z 1001afb0 f i SystemInfo.obj
 0001:0001a010       ??0?$TSingleton@$$CBVSystemInfo@baro@@@baro@@IAE@XZ 1001b010 f i SystemInfo.obj
 0001:0001a040       ?Init@CComCriticalSection@ATL@@QAEJXZ 1001b040 f i stdafx.obj
 0001:0001a070       ??4Performance@baro@@QAEAAV01@ABV01@@Z 1001b070 f i stdafx.obj
 0001:0001a090       ??0CheckPointer@baro@@QAE@ABV01@@Z 1001b090 f i stdafx.obj
 0001:0001a0b0       ??4CheckPointer@baro@@QAEAAV01@ABV01@@Z 1001b0b0 f i stdafx.obj
 0001:0001a0d0       ??_Gerror_category@std@@UAEPAXI@Z 1001b0d0 f i stdafx.obj
 0001:0001a0d0       ??_G_Iostream_error_category@std@@UAEPAXI@Z 1001b0d0 f i stdafx.obj
 0001:0001a0d0       ??_E_System_error_category@std@@UAEPAXI@Z 1001b0d0 f i * CIL library *:* CIL module *
 0001:0001a0d0       ??_G_Generic_error_category@std@@UAEPAXI@Z 1001b0d0 f i stdafx.obj
 0001:0001a0d0       ??_G_System_error_category@std@@UAEPAXI@Z 1001b0d0 f i stdafx.obj
 0001:0001a0d0       ??_E_Iostream_error_category@std@@UAEPAXI@Z 1001b0d0 f i * CIL library *:* CIL module *
 0001:0001a0d0       ??_Eerror_category@std@@UAEPAXI@Z 1001b0d0 f i * CIL library *:* CIL module *
 0001:0001a0d0       ??_E_Generic_error_category@std@@UAEPAXI@Z 1001b0d0 f i * CIL library *:* CIL module *
 0001:0001a100       ?default_error_condition@error_category@std@@UBE?AVerror_condition@2@H@Z 1001b100 f i stdafx.obj
 0001:0001a120       ?equivalent@error_category@std@@UBE_NHABVerror_condition@2@@Z 1001b120 f i stdafx.obj
 0001:0001a160       ?equivalent@error_category@std@@UBE_NABVerror_code@2@H@Z 1001b160 f i stdafx.obj
 0001:0001a180       ?name@_Generic_error_category@std@@UBEPBDXZ 1001b180 f i stdafx.obj
 0001:0001a190       ?message@_Generic_error_category@std@@UBE?AV?$basic_string@DU?$char_traits@D@std@@V?$allocator@D@2@@2@H@Z 1001b190 f i stdafx.obj
 0001:0001a210       ?name@_Iostream_error_category@std@@UBEPBDXZ 1001b210 f i stdafx.obj
 0001:0001a220       ?message@_Iostream_error_category@std@@UBE?AV?$basic_string@DU?$char_traits@D@std@@V?$allocator@D@2@@2@H@Z 1001b220 f i stdafx.obj
 0001:0001a270       ?name@_System_error_category@std@@UBEPBDXZ 1001b270 f i stdafx.obj
 0001:0001a280       ?message@_System_error_category@std@@UBE?AV?$basic_string@DU?$char_traits@D@std@@V?$allocator@D@2@@2@H@Z 1001b280 f i stdafx.obj
 0001:0001a300       ?default_error_condition@_System_error_category@std@@UBE?AVerror_condition@2@H@Z 1001b300 f i stdafx.obj
 0001:0001a340       ?Width@BitmapDC@baro@@QBEIXZ 1001b340 f i stdafx.obj
 0001:0001a350       ?Height@BitmapDC@baro@@QAEIXZ 1001b350 f i stdafx.obj
 0001:0001a360       ??0PointCoord@baro@@QAE@ABV01@@Z 1001b360 f i stdafx.obj
 0001:0001a450       ??4PointCoord@baro@@QAEAAV01@ABV01@@Z 1001b450 f i stdafx.obj
 0001:0001a4f0       ?GetSize@CustomGraph@baro@@QAE?AVCSize@@XZ 1001b4f0 f i stdafx.obj
 0001:0001a510       ?GetBoundary@CustomGraph@baro@@QAE?AVCRect@@XZ 1001b510 f i stdafx.obj
 0001:0001a530       ??0GradientRect@baro@@QAE@ABV01@@Z 1001b530 f i stdafx.obj
 0001:0001a5b0       ??4GradientRect@baro@@QAEAAV01@ABV01@@Z 1001b5b0 f i stdafx.obj
 0001:0001a600       ??_FCryptHandle@baro@@QAEXXZ 1001b600 f i stdafx.obj
 0001:0001a620       ??_FCryptBuffer@baro@@QAEXXZ 1001b620 f i stdafx.obj
 0001:0001a670       ??4A256B64@baro@@QAEAAV01@ABV01@@Z 1001b670 f i stdafx.obj
 0001:0001a670       ??4Sqlite@baro@@QAEAAV01@ABV01@@Z 1001b670 f i stdafx.obj
 0001:0001a690       ??_FA256B64@baro@@QAEXXZ   1001b690 f i stdafx.obj
 0001:0001a6a0       ??0StreamHeader@baro@@QAE@XZ 1001b6a0 f i stdafx.obj
 0001:0001a6d0       ?GetCurrentReadPos@Stream@baro@@QAEIXZ 1001b6d0 f i stdafx.obj
 0001:0001a6e0       ?GetReadRemainLength@Stream@baro@@QAEIXZ 1001b6e0 f i stdafx.obj
 0001:0001a6f0       ?NextWrite@Stream@baro@@QAE?AW4StreamResult@2@ABV?$CStringT@_WV?$StrTraitMFC_DLL@_WV?$ChTraitsCRT@_W@ATL@@@@@ATL@@@Z 1001b6f0 f i stdafx.obj
 0001:0001a710       ?NextWrite@Stream@baro@@QAE?AW4StreamResult@2@ABV?$vector@V?$CStringT@_WV?$StrTraitMFC_DLL@_WV?$ChTraitsCRT@_W@ATL@@@@@ATL@@V?$allocator@V?$CStringT@_WV?$StrTraitMFC_DLL@_WV?$ChTraitsCRT@_W@ATL@@@@@ATL@@@std@@@std@@@Z 1001b710 f i stdafx.obj
 0001:0001a770       ?NextWrite@Stream@baro@@QAE?AW4StreamResult@2@ABV?$map@V?$CStringT@_WV?$StrTraitMFC_DLL@_WV?$ChTraitsCRT@_W@ATL@@@@@ATL@@V12@U?$less@V?$CStringT@_WV?$StrTraitMFC_DLL@_WV?$ChTraitsCRT@_W@ATL@@@@@ATL@@@std@@V?$allocator@U?$pair@$$CBV?$CStringT@_WV?$StrTraitMFC_DLL@_WV?$ChTraitsCRT@_W@ATL@@@@@ATL@@V12@@std@@@4@@std@@@Z 1001b770 f i stdafx.obj
 0001:0001a7f0       ?NextRead@Stream@baro@@QAE?AW4StreamResult@2@AAV?$CStringT@_WV?$StrTraitMFC_DLL@_WV?$ChTraitsCRT@_W@ATL@@@@@ATL@@@Z 1001b7f0 f i stdafx.obj
 0001:0001a840       ?NextRead@Stream@baro@@QAE?AW4StreamResult@2@AAV?$vector@V?$CStringT@_WV?$StrTraitMFC_DLL@_WV?$ChTraitsCRT@_W@ATL@@@@@ATL@@V?$allocator@V?$CStringT@_WV?$StrTraitMFC_DLL@_WV?$ChTraitsCRT@_W@ATL@@@@@ATL@@@std@@@std@@@Z 1001b840 f i stdafx.obj
 0001:0001a8a0       ?NextRead@Stream@baro@@QAE?AW4StreamResult@2@AAV?$map@V?$CStringT@_WV?$StrTraitMFC_DLL@_WV?$ChTraitsCRT@_W@ATL@@@@@ATL@@V12@U?$less@V?$CStringT@_WV?$StrTraitMFC_DLL@_WV?$ChTraitsCRT@_W@ATL@@@@@ATL@@@std@@V?$allocator@U?$pair@$$CBV?$CStringT@_WV?$StrTraitMFC_DLL@_WV?$ChTraitsCRT@_W@ATL@@@@@ATL@@V12@@std@@@4@@std@@@Z 1001b8a0 f i stdafx.obj
 0001:0001a920       ??0Stream@baro@@QAE@ABV01@@Z 1001b920 f i stdafx.obj
 0001:0001a9c0       ??4Stream@baro@@QAEAAV01@ABV01@@Z 1001b9c0 f i stdafx.obj
 0001:0001aa10       ??0MsgProcedure@helper@baro@@QAE@ABV012@@Z 1001ba10 f i stdafx.obj
 0001:0001aa50       ??4MsgProcedure@helper@baro@@QAEAAV012@ABV012@@Z 1001ba50 f i stdafx.obj
 0001:0001aa90       ??_FMsgProcedure@helper@baro@@QAEXXZ 1001ba90 f i stdafx.obj
 0001:0001aad0       ??4SqliteQueryResult@baro@@QAEAAV01@ABV01@@Z 1001bad0 f i stdafx.obj
 0001:0001aae0       ??4?$vector@VPointF@Gdiplus@@V?$allocator@VPointF@Gdiplus@@@std@@@std@@QAEAAV01@ABV01@@Z 1001bae0 f i stdafx.obj
 0001:0001abd0       ??0?$TBuffer@E@baro@@QAE@PBEI@Z 1001bbd0 f i stdafx.obj
 0001:0001ac00       ??0?$TBuffer@E@baro@@QAE@V?$initializer_list@E@std@@@Z 1001bc00 f i stdafx.obj
 0001:0001ac90       ?At@?$TBuffer@E@baro@@QBEEI@Z 1001bc90 f i stdafx.obj
 0001:0001acb0       ?Front@?$TBuffer@E@baro@@QBEEXZ 1001bcb0 f i stdafx.obj
 0001:0001acd0       ?Back@?$TBuffer@E@baro@@QBEEXZ 1001bcd0 f i stdafx.obj
 0001:0001acf0       ?Set@?$TBuffer@E@baro@@QAE_NIE@Z 1001bcf0 f i stdafx.obj
 0001:0001ad20       ?Trim@?$TBuffer@E@baro@@QAE_NII@Z 1001bd20 f i stdafx.obj
 0001:0001add0       ?Append@?$TBuffer@E@baro@@QAEIABE@Z 1001bdd0 f i stdafx.obj
 0001:0001ae40       ?Append@?$TBuffer@E@baro@@QAEIABV12@@Z 1001be40 f i stdafx.obj
 0001:0001ae60       ?PrintHexByte@?$TBuffer@E@baro@@QBEXW4TextColor@2@I@Z 1001be60 f i stdafx.obj
 0001:0001af50       ??4?$vector@IV?$allocator@_N@std@@@std@@QAEAAV01@ABV01@@Z 1001bf50 f i stdafx.obj
 0001:0001b070       ??0?$_Tree@V?$_Tmap_traits@HVColor@Gdiplus@@U?$less@H@std@@V?$allocator@U?$pair@$$CBHVColor@Gdiplus@@@std@@@4@$0A@@std@@@std@@QAE@ABV01@ABV?$allocator@U?$pair@$$CBHVColor@Gdiplus@@@std@@@1@@Z 1001c070 f i stdafx.obj
 0001:0001b110       ??0?$vector@IV?$allocator@_N@std@@@std@@QAE@ABV01@@Z 1001c110 f i stdafx.obj
 0001:0001b170       ??_E?$_Func_base@W4StreamResult@baro@@ABV?$CStringT@_WV?$StrTraitMFC_DLL@_WV?$ChTraitsCRT@_W@ATL@@@@@ATL@@@std@@UAEPAXI@Z 1001c170 f i * CIL library *:* CIL module *
 0001:0001b170       ??_E?$_Func_impl@U?$_Callable_obj@V<lambda_75f487c1c530e75cedd270693ab9589c>@@$0A@@std@@V?$allocator@V?$_Func_class@W4StreamResult@baro@@ABV?$CStringT@_WV?$StrTraitMFC_DLL@_WV?$ChTraitsCRT@_W@ATL@@@@@ATL@@@std@@@2@W4StreamResult@baro@@ABV?$CStringT@_WV?$StrTraitMFC_DLL@_WV?$ChTraitsCRT@_W@ATL@@@@@ATL@@@std@@UAEPAXI@Z 1001c170 f i * CIL library *:* CIL module *
 0001:0001b170       ??_E?$_Func_impl@U?$_Callable_obj@V<lambda_187152e110f699ad5b1ab81533769cf2>@@$0A@@std@@V?$allocator@V?$_Func_class@W4StreamResult@baro@@ABV?$CStringT@_WV?$StrTraitMFC_DLL@_WV?$ChTraitsCRT@_W@ATL@@@@@ATL@@@std@@@2@W4StreamResult@baro@@ABV?$CStringT@_WV?$StrTraitMFC_DLL@_WV?$ChTraitsCRT@_W@ATL@@@@@ATL@@@std@@UAEPAXI@Z 1001c170 f i * CIL library *:* CIL module *
 0001:0001b170       ??_G?$_Func_impl@U?$_Callable_obj@V<lambda_740eeb7a2f1d2c38bf9d2a55ba51dd10>@@$0A@@std@@V?$allocator@V?$_Func_class@W4StreamResult@baro@@ABV?$CStringT@_WV?$StrTraitMFC_DLL@_WV?$ChTraitsCRT@_W@ATL@@@@@ATL@@@std@@@2@W4StreamResult@baro@@ABV?$CStringT@_WV?$StrTraitMFC_DLL@_WV?$ChTraitsCRT@_W@ATL@@@@@ATL@@@std@@UAEPAXI@Z 1001c170 f i stdafx.obj
 0001:0001b170       ??_G?$_Func_impl@U?$_Callable_obj@V<lambda_75f487c1c530e75cedd270693ab9589c>@@$0A@@std@@V?$allocator@V?$_Func_class@W4StreamResult@baro@@ABV?$CStringT@_WV?$StrTraitMFC_DLL@_WV?$ChTraitsCRT@_W@ATL@@@@@ATL@@@std@@@2@W4StreamResult@baro@@ABV?$CStringT@_WV?$StrTraitMFC_DLL@_WV?$ChTraitsCRT@_W@ATL@@@@@ATL@@@std@@UAEPAXI@Z 1001c170 f i stdafx.obj
 0001:0001b170       ??_G?$_Func_base@W4StreamResult@baro@@ABV?$CStringT@_WV?$StrTraitMFC_DLL@_WV?$ChTraitsCRT@_W@ATL@@@@@ATL@@@std@@UAEPAXI@Z 1001c170 f i stdafx.obj
 0001:0001b170       ??_E?$_Func_impl@U?$_Callable_obj@V<lambda_740eeb7a2f1d2c38bf9d2a55ba51dd10>@@$0A@@std@@V?$allocator@V?$_Func_class@W4StreamResult@baro@@ABV?$CStringT@_WV?$StrTraitMFC_DLL@_WV?$ChTraitsCRT@_W@ATL@@@@@ATL@@@std@@@2@W4StreamResult@baro@@ABV?$CStringT@_WV?$StrTraitMFC_DLL@_WV?$ChTraitsCRT@_W@ATL@@@@@ATL@@@std@@UAEPAXI@Z 1001c170 f i * CIL library *:* CIL module *
 0001:0001b170       ??_G?$_Func_impl@U?$_Callable_obj@V<lambda_187152e110f699ad5b1ab81533769cf2>@@$0A@@std@@V?$allocator@V?$_Func_class@W4StreamResult@baro@@ABV?$CStringT@_WV?$StrTraitMFC_DLL@_WV?$ChTraitsCRT@_W@ATL@@@@@ATL@@@std@@@2@W4StreamResult@baro@@ABV?$CStringT@_WV?$StrTraitMFC_DLL@_WV?$ChTraitsCRT@_W@ATL@@@@@ATL@@@std@@UAEPAXI@Z 1001c170 f i stdafx.obj
 0001:0001b1a0       ??_G?$_Func_impl@U?$_Callable_obj@V<lambda_5c9231035f6c38fca048a0864a8210ea>@@$0A@@std@@V?$allocator@V?$_Func_class@W4StreamResult@baro@@AAV?$CStringT@_WV?$StrTraitMFC_DLL@_WV?$ChTraitsCRT@_W@ATL@@@@@ATL@@@std@@@2@W4StreamResult@baro@@AAV?$CStringT@_WV?$StrTraitMFC_DLL@_WV?$ChTraitsCRT@_W@ATL@@@@@ATL@@@std@@UAEPAXI@Z 1001c1a0 f i stdafx.obj
 0001:0001b1a0       ??_E?$_Func_impl@U?$_Callable_obj@V<lambda_71f23d2cacd049d0fc44bb672969fbab>@@$0A@@std@@V?$allocator@V?$_Func_class@W4StreamResult@baro@@AAV?$CStringT@_WV?$StrTraitMFC_DLL@_WV?$ChTraitsCRT@_W@ATL@@@@@ATL@@@std@@@2@W4StreamResult@baro@@AAV?$CStringT@_WV?$StrTraitMFC_DLL@_WV?$ChTraitsCRT@_W@ATL@@@@@ATL@@@std@@UAEPAXI@Z 1001c1a0 f i * CIL library *:* CIL module *
 0001:0001b1a0       ??_E?$_Func_base@W4StreamResult@baro@@AAV?$CStringT@_WV?$StrTraitMFC_DLL@_WV?$ChTraitsCRT@_W@ATL@@@@@ATL@@@std@@UAEPAXI@Z 1001c1a0 f i * CIL library *:* CIL module *
 0001:0001b1a0       ??_G?$_Func_impl@U?$_Callable_obj@V<lambda_e76177b2965f6f295be7c5f96021c124>@@$0A@@std@@V?$allocator@V?$_Func_class@W4StreamResult@baro@@AAV?$CStringT@_WV?$StrTraitMFC_DLL@_WV?$ChTraitsCRT@_W@ATL@@@@@ATL@@@std@@@2@W4StreamResult@baro@@AAV?$CStringT@_WV?$StrTraitMFC_DLL@_WV?$ChTraitsCRT@_W@ATL@@@@@ATL@@@std@@UAEPAXI@Z 1001c1a0 f i stdafx.obj
 0001:0001b1a0       ??_G?$_Func_base@W4StreamResult@baro@@AAV?$CStringT@_WV?$StrTraitMFC_DLL@_WV?$ChTraitsCRT@_W@ATL@@@@@ATL@@@std@@UAEPAXI@Z 1001c1a0 f i stdafx.obj
 0001:0001b1a0       ??_G?$_Func_impl@U?$_Callable_obj@V<lambda_71f23d2cacd049d0fc44bb672969fbab>@@$0A@@std@@V?$allocator@V?$_Func_class@W4StreamResult@baro@@AAV?$CStringT@_WV?$StrTraitMFC_DLL@_WV?$ChTraitsCRT@_W@ATL@@@@@ATL@@@std@@@2@W4StreamResult@baro@@AAV?$CStringT@_WV?$StrTraitMFC_DLL@_WV?$ChTraitsCRT@_W@ATL@@@@@ATL@@@std@@UAEPAXI@Z 1001c1a0 f i stdafx.obj
 0001:0001b1a0       ??_E?$_Func_impl@U?$_Callable_obj@V<lambda_e76177b2965f6f295be7c5f96021c124>@@$0A@@std@@V?$allocator@V?$_Func_class@W4StreamResult@baro@@AAV?$CStringT@_WV?$StrTraitMFC_DLL@_WV?$ChTraitsCRT@_W@ATL@@@@@ATL@@@std@@@2@W4StreamResult@baro@@AAV?$CStringT@_WV?$StrTraitMFC_DLL@_WV?$ChTraitsCRT@_W@ATL@@@@@ATL@@@std@@UAEPAXI@Z 1001c1a0 f i * CIL library *:* CIL module *
 0001:0001b1a0       ??_E?$_Func_impl@U?$_Callable_obj@V<lambda_5c9231035f6c38fca048a0864a8210ea>@@$0A@@std@@V?$allocator@V?$_Func_class@W4StreamResult@baro@@AAV?$CStringT@_WV?$StrTraitMFC_DLL@_WV?$ChTraitsCRT@_W@ATL@@@@@ATL@@@std@@@2@W4StreamResult@baro@@AAV?$CStringT@_WV?$StrTraitMFC_DLL@_WV?$ChTraitsCRT@_W@ATL@@@@@ATL@@@std@@UAEPAXI@Z 1001c1a0 f i * CIL library *:* CIL module *
 0001:0001b1d0       ??$NextWriteVector@V?$CStringT@_WV?$StrTraitMFC_DLL@_WV?$ChTraitsCRT@_W@ATL@@@@@ATL@@@Stream@baro@@AAE?AW4StreamResult@1@ABV?$vector@V?$CStringT@_WV?$StrTraitMFC_DLL@_WV?$ChTraitsCRT@_W@ATL@@@@@ATL@@V?$allocator@V?$CStringT@_WV?$StrTraitMFC_DLL@_WV?$ChTraitsCRT@_W@ATL@@@@@ATL@@@std@@@std@@V?$function@$$A6A?AW4StreamResult@baro@@ABV?$CStringT@_WV?$StrTraitMFC_DLL@_WV?$ChTraitsCRT@_W@ATL@@@@@ATL@@@Z@4@@Z 1001c1d0 f i stdafx.obj
 0001:0001b2b0       ??$NextWriteMap@V?$CStringT@_WV?$StrTraitMFC_DLL@_WV?$ChTraitsCRT@_W@ATL@@@@@ATL@@V12@@Stream@baro@@AAE?AW4StreamResult@1@ABV?$map@V?$CStringT@_WV?$StrTraitMFC_DLL@_WV?$ChTraitsCRT@_W@ATL@@@@@ATL@@V12@U?$less@V?$CStringT@_WV?$StrTraitMFC_DLL@_WV?$ChTraitsCRT@_W@ATL@@@@@ATL@@@std@@V?$allocator@U?$pair@$$CBV?$CStringT@_WV?$StrTraitMFC_DLL@_WV?$ChTraitsCRT@_W@ATL@@@@@ATL@@V12@@std@@@4@@std@@V?$function@$$A6A?AW4StreamResult@baro@@ABV?$CStringT@_WV?$StrTraitMFC_DLL@_WV?$ChTraitsCRT@_W@ATL@@@@@ATL@@@Z@4@1@Z 1001c2b0 f i stdafx.obj
 0001:0001b410       ??$NextReadVector@V?$CStringT@_WV?$StrTraitMFC_DLL@_WV?$ChTraitsCRT@_W@ATL@@@@@ATL@@@Stream@baro@@AAE?AW4StreamResult@1@AAV?$vector@V?$CStringT@_WV?$StrTraitMFC_DLL@_WV?$ChTraitsCRT@_W@ATL@@@@@ATL@@V?$allocator@V?$CStringT@_WV?$StrTraitMFC_DLL@_WV?$ChTraitsCRT@_W@ATL@@@@@ATL@@@std@@@std@@V?$function@$$A6A?AW4StreamResult@baro@@AAV?$CStringT@_WV?$StrTraitMFC_DLL@_WV?$ChTraitsCRT@_W@ATL@@@@@ATL@@@Z@4@@Z 1001c410 f i stdafx.obj
 0001:0001b540       ??$NextReadMap@V?$CStringT@_WV?$StrTraitMFC_DLL@_WV?$ChTraitsCRT@_W@ATL@@@@@ATL@@V12@@Stream@baro@@AAE?AW4StreamResult@1@AAV?$map@V?$CStringT@_WV?$StrTraitMFC_DLL@_WV?$ChTraitsCRT@_W@ATL@@@@@ATL@@V12@U?$less@V?$CStringT@_WV?$StrTraitMFC_DLL@_WV?$ChTraitsCRT@_W@ATL@@@@@ATL@@@std@@V?$allocator@U?$pair@$$CBV?$CStringT@_WV?$StrTraitMFC_DLL@_WV?$ChTraitsCRT@_W@ATL@@@@@ATL@@V12@@std@@@4@@std@@V?$function@$$A6A?AW4StreamResult@baro@@AAV?$CStringT@_WV?$StrTraitMFC_DLL@_WV?$ChTraitsCRT@_W@ATL@@@@@ATL@@@Z@4@1@Z 1001c540 f i stdafx.obj
 0001:0001b710       ??$_Copy_impl@PAVPointF@Gdiplus@@PAV12@@std@@YAPAVPointF@Gdiplus@@PAV12@00@Z 1001c710 f i stdafx.obj
 0001:0001b740       ??$_Copy@U?$integral_constant@_N$0A@@std@@@?$_Tree@V?$_Tmap_traits@HVColor@Gdiplus@@U?$less@H@std@@V?$allocator@U?$pair@$$CBHVColor@Gdiplus@@@std@@@4@$0A@@std@@@std@@IAEXABV01@U?$integral_constant@_N$0A@@1@@Z 1001c740 f i stdafx.obj
 0001:0001b7c0       ??1?$pair@V?$CStringT@_WV?$StrTraitMFC_DLL@_WV?$ChTraitsCRT@_W@ATL@@@@@ATL@@V12@@std@@QAE@XZ 1001c7c0 f i stdafx.obj
 0001:0001b7e0       ?_Erase@?$_Tree@V?$_Tmap_traits@V?$CStringT@_WV?$StrTraitMFC_DLL@_WV?$ChTraitsCRT@_W@ATL@@@@@ATL@@V12@U?$less@V?$CStringT@_WV?$StrTraitMFC_DLL@_WV?$ChTraitsCRT@_W@ATL@@@@@ATL@@@std@@V?$allocator@U?$pair@$$CBV?$CStringT@_WV?$StrTraitMFC_DLL@_WV?$ChTraitsCRT@_W@ATL@@@@@ATL@@V12@@std@@@4@$0A@@std@@@std@@IAEXPAU?$_Tree_node@U?$pair@$$CBV?$CStringT@_WV?$StrTraitMFC_DLL@_WV?$ChTraitsCRT@_W@ATL@@@@@ATL@@V12@@std@@PAX@2@@Z 1001c7e0 f i stdafx.obj
 0001:0001b830       ??$make_pair@AAV?$CStringT@_WV?$StrTraitMFC_DLL@_WV?$ChTraitsCRT@_W@ATL@@@@@ATL@@AAV12@@std@@YA?AU?$pair@V?$CStringT@_WV?$StrTraitMFC_DLL@_WV?$ChTraitsCRT@_W@ATL@@@@@ATL@@V12@@0@AAV?$CStringT@_WV?$StrTraitMFC_DLL@_WV?$ChTraitsCRT@_W@ATL@@@@@ATL@@0@Z 1001c830 f i stdafx.obj
 0001:0001b890       ??$_Copy_nodes@U?$integral_constant@_N$0A@@std@@@?$_Tree@V?$_Tmap_traits@HVColor@Gdiplus@@U?$less@H@std@@V?$allocator@U?$pair@$$CBHVColor@Gdiplus@@@std@@@4@$0A@@std@@@std@@IAEPAU?$_Tree_node@U?$pair@$$CBHVColor@Gdiplus@@@std@@PAX@1@PAU21@0U?$integral_constant@_N$0A@@1@@Z 1001c890 f i stdafx.obj
 0001:0001b950       ??$_Buynode@U?$pair@V?$CStringT@_WV?$StrTraitMFC_DLL@_WV?$ChTraitsCRT@_W@ATL@@@@@ATL@@V12@@std@@@?$_Tree_buy@U?$pair@$$CBV?$CStringT@_WV?$StrTraitMFC_DLL@_WV?$ChTraitsCRT@_W@ATL@@@@@ATL@@V12@@std@@V?$allocator@U?$pair@$$CBV?$CStringT@_WV?$StrTraitMFC_DLL@_WV?$ChTraitsCRT@_W@ATL@@@@@ATL@@V12@@std@@@2@@std@@QAEPAU?$_Tree_node@U?$pair@$$CBV?$CStringT@_WV?$StrTraitMFC_DLL@_WV?$ChTraitsCRT@_W@ATL@@@@@ATL@@V12@@std@@PAX@1@$$QAU?$pair@V?$CStringT@_WV?$StrTraitMFC_DLL@_WV?$ChTraitsCRT@_W@ATL@@@@@ATL@@V12@@1@@Z 1001c950 f i stdafx.obj
 0001:0001b9f0       ??$_Insert_nohint@AAU?$pair@$$CBV?$CStringT@_WV?$StrTraitMFC_DLL@_WV?$ChTraitsCRT@_W@ATL@@@@@ATL@@V12@@std@@PAU?$_Tree_node@U?$pair@$$CBV?$CStringT@_WV?$StrTraitMFC_DLL@_WV?$ChTraitsCRT@_W@ATL@@@@@ATL@@V12@@std@@PAX@2@@?$_Tree@V?$_Tmap_traits@V?$CStringT@_WV?$StrTraitMFC_DLL@_WV?$ChTraitsCRT@_W@ATL@@@@@ATL@@V12@U?$less@V?$CStringT@_WV?$StrTraitMFC_DLL@_WV?$ChTraitsCRT@_W@ATL@@@@@ATL@@@std@@V?$allocator@U?$pair@$$CBV?$CStringT@_WV?$StrTraitMFC_DLL@_WV?$ChTraitsCRT@_W@ATL@@@@@ATL@@V12@@std@@@4@$0A@@std@@@std@@IAE?AU?$pair@V?$_Tree_iterator@V?$_Tree_val@U?$_Tree_simple_types@U?$pair@$$CBV?$CStringT@_WV?$StrTraitMFC_DLL@_WV?$ChTraitsCRT@_W@ATL@@@@@ATL@@V12@@std@@@std@@@std@@@std@@_N@1@_NAAU?$pair@$$CBV?$CStringT@_WV?$StrTraitMFC_DLL@_WV?$ChTraitsCRT@_W@ATL@@@@@ATL@@V12@@1@PAU?$_Tree_node@U?$pair@$$CBV?$CStringT@_WV?$StrTraitMFC_DLL@_WV?$ChTraitsCRT@_W@ATL@@@@@ATL@@V12@@std@@PAX@1@@Z 1001c9f0 f i stdafx.obj
 0001:0001bb50       ?_Destroy_if_not_nil@?$_Tree@V?$_Tmap_traits@V?$CStringT@_WV?$StrTraitMFC_DLL@_WV?$ChTraitsCRT@_W@ATL@@@@@ATL@@V12@U?$less@V?$CStringT@_WV?$StrTraitMFC_DLL@_WV?$ChTraitsCRT@_W@ATL@@@@@ATL@@@std@@V?$allocator@U?$pair@$$CBV?$CStringT@_WV?$StrTraitMFC_DLL@_WV?$ChTraitsCRT@_W@ATL@@@@@ATL@@V12@@std@@@4@$0A@@std@@@std@@IAEXPAU?$_Tree_node@U?$pair@$$CBV?$CStringT@_WV?$StrTraitMFC_DLL@_WV?$ChTraitsCRT@_W@ATL@@@@@ATL@@V12@@std@@PAX@2@@Z 1001cb50 f i stdafx.obj
 0001:0001bb80       ??$_Insert_at@AAU?$pair@$$CBV?$CStringT@_WV?$StrTraitMFC_DLL@_WV?$ChTraitsCRT@_W@ATL@@@@@ATL@@V12@@std@@PAU?$_Tree_node@U?$pair@$$CBV?$CStringT@_WV?$StrTraitMFC_DLL@_WV?$ChTraitsCRT@_W@ATL@@@@@ATL@@V12@@std@@PAX@2@@?$_Tree@V?$_Tmap_traits@V?$CStringT@_WV?$StrTraitMFC_DLL@_WV?$ChTraitsCRT@_W@ATL@@@@@ATL@@V12@U?$less@V?$CStringT@_WV?$StrTraitMFC_DLL@_WV?$ChTraitsCRT@_W@ATL@@@@@ATL@@@std@@V?$allocator@U?$pair@$$CBV?$CStringT@_WV?$StrTraitMFC_DLL@_WV?$ChTraitsCRT@_W@ATL@@@@@ATL@@V12@@std@@@4@$0A@@std@@@std@@IAE?AV?$_Tree_iterator@V?$_Tree_val@U?$_Tree_simple_types@U?$pair@$$CBV?$CStringT@_WV?$StrTraitMFC_DLL@_WV?$ChTraitsCRT@_W@ATL@@@@@ATL@@V12@@std@@@std@@@std@@@1@_NPAU?$_Tree_node@U?$pair@$$CBV?$CStringT@_WV?$StrTraitMFC_DLL@_WV?$ChTraitsCRT@_W@ATL@@@@@ATL@@V12@@std@@PAX@1@AAU?$pair@$$CBV?$CStringT@_WV?$StrTraitMFC_DLL@_WV?$ChTraitsCRT@_W@ATL@@@@@ATL@@V12@@1@1@Z 1001cb80 f i stdafx.obj
 0001:0001bda0       ?_Copy@?$_Func_impl@U?$_Callable_obj@V<lambda_740eeb7a2f1d2c38bf9d2a55ba51dd10>@@$0A@@std@@V?$allocator@V?$_Func_class@W4StreamResult@baro@@ABV?$CStringT@_WV?$StrTraitMFC_DLL@_WV?$ChTraitsCRT@_W@ATL@@@@@ATL@@@std@@@2@W4StreamResult@baro@@ABV?$CStringT@_WV?$StrTraitMFC_DLL@_WV?$ChTraitsCRT@_W@ATL@@@@@ATL@@@std@@UAEPAV?$_Func_base@W4StreamResult@baro@@ABV?$CStringT@_WV?$StrTraitMFC_DLL@_WV?$ChTraitsCRT@_W@ATL@@@@@ATL@@@2@PAX@Z 1001cda0 f i stdafx.obj
 0001:0001bda0       ?_Move@?$_Func_impl@U?$_Callable_obj@V<lambda_740eeb7a2f1d2c38bf9d2a55ba51dd10>@@$0A@@std@@V?$allocator@V?$_Func_class@W4StreamResult@baro@@ABV?$CStringT@_WV?$StrTraitMFC_DLL@_WV?$ChTraitsCRT@_W@ATL@@@@@ATL@@@std@@@2@W4StreamResult@baro@@ABV?$CStringT@_WV?$StrTraitMFC_DLL@_WV?$ChTraitsCRT@_W@ATL@@@@@ATL@@@std@@UAEPAV?$_Func_base@W4StreamResult@baro@@ABV?$CStringT@_WV?$StrTraitMFC_DLL@_WV?$ChTraitsCRT@_W@ATL@@@@@ATL@@@2@PAX@Z 1001cda0 f i stdafx.obj
 0001:0001bde0       ?_Do_call@?$_Func_impl@U?$_Callable_obj@V<lambda_740eeb7a2f1d2c38bf9d2a55ba51dd10>@@$0A@@std@@V?$allocator@V?$_Func_class@W4StreamResult@baro@@ABV?$CStringT@_WV?$StrTraitMFC_DLL@_WV?$ChTraitsCRT@_W@ATL@@@@@ATL@@@std@@@2@W4StreamResult@baro@@ABV?$CStringT@_WV?$StrTraitMFC_DLL@_WV?$ChTraitsCRT@_W@ATL@@@@@ATL@@@std@@UAE?AW4StreamResult@baro@@ABV?$CStringT@_WV?$StrTraitMFC_DLL@_WV?$ChTraitsCRT@_W@ATL@@@@@ATL@@@Z 1001cde0 f i stdafx.obj
 0001:0001bde0       ?_Do_call@?$_Func_impl@U?$_Callable_obj@V<lambda_187152e110f699ad5b1ab81533769cf2>@@$0A@@std@@V?$allocator@V?$_Func_class@W4StreamResult@baro@@ABV?$CStringT@_WV?$StrTraitMFC_DLL@_WV?$ChTraitsCRT@_W@ATL@@@@@ATL@@@std@@@2@W4StreamResult@baro@@ABV?$CStringT@_WV?$StrTraitMFC_DLL@_WV?$ChTraitsCRT@_W@ATL@@@@@ATL@@@std@@UAE?AW4StreamResult@baro@@ABV?$CStringT@_WV?$StrTraitMFC_DLL@_WV?$ChTraitsCRT@_W@ATL@@@@@ATL@@@Z 1001cde0 f i stdafx.obj
 0001:0001bde0       ?_Do_call@?$_Func_impl@U?$_Callable_obj@V<lambda_75f487c1c530e75cedd270693ab9589c>@@$0A@@std@@V?$allocator@V?$_Func_class@W4StreamResult@baro@@ABV?$CStringT@_WV?$StrTraitMFC_DLL@_WV?$ChTraitsCRT@_W@ATL@@@@@ATL@@@std@@@2@W4StreamResult@baro@@ABV?$CStringT@_WV?$StrTraitMFC_DLL@_WV?$ChTraitsCRT@_W@ATL@@@@@ATL@@@std@@UAE?AW4StreamResult@baro@@ABV?$CStringT@_WV?$StrTraitMFC_DLL@_WV?$ChTraitsCRT@_W@ATL@@@@@ATL@@@Z 1001cde0 f i stdafx.obj
 0001:0001be00       ?_Target_type@?$_Func_impl@U?$_Callable_obj@V<lambda_740eeb7a2f1d2c38bf9d2a55ba51dd10>@@$0A@@std@@V?$allocator@V?$_Func_class@W4StreamResult@baro@@ABV?$CStringT@_WV?$StrTraitMFC_DLL@_WV?$ChTraitsCRT@_W@ATL@@@@@ATL@@@std@@@2@W4StreamResult@baro@@ABV?$CStringT@_WV?$StrTraitMFC_DLL@_WV?$ChTraitsCRT@_W@ATL@@@@@ATL@@@std@@UBEABVtype_info@@XZ 1001ce00 f i stdafx.obj
 0001:0001be10       ?_Copy@?$_Func_impl@U?$_Callable_obj@V<lambda_187152e110f699ad5b1ab81533769cf2>@@$0A@@std@@V?$allocator@V?$_Func_class@W4StreamResult@baro@@ABV?$CStringT@_WV?$StrTraitMFC_DLL@_WV?$ChTraitsCRT@_W@ATL@@@@@ATL@@@std@@@2@W4StreamResult@baro@@ABV?$CStringT@_WV?$StrTraitMFC_DLL@_WV?$ChTraitsCRT@_W@ATL@@@@@ATL@@@std@@UAEPAV?$_Func_base@W4StreamResult@baro@@ABV?$CStringT@_WV?$StrTraitMFC_DLL@_WV?$ChTraitsCRT@_W@ATL@@@@@ATL@@@2@PAX@Z 1001ce10 f i stdafx.obj
 0001:0001be10       ?_Move@?$_Func_impl@U?$_Callable_obj@V<lambda_187152e110f699ad5b1ab81533769cf2>@@$0A@@std@@V?$allocator@V?$_Func_class@W4StreamResult@baro@@ABV?$CStringT@_WV?$StrTraitMFC_DLL@_WV?$ChTraitsCRT@_W@ATL@@@@@ATL@@@std@@@2@W4StreamResult@baro@@ABV?$CStringT@_WV?$StrTraitMFC_DLL@_WV?$ChTraitsCRT@_W@ATL@@@@@ATL@@@std@@UAEPAV?$_Func_base@W4StreamResult@baro@@ABV?$CStringT@_WV?$StrTraitMFC_DLL@_WV?$ChTraitsCRT@_W@ATL@@@@@ATL@@@2@PAX@Z 1001ce10 f i stdafx.obj
 0001:0001be50       ?_Target_type@?$_Func_impl@U?$_Callable_obj@V<lambda_187152e110f699ad5b1ab81533769cf2>@@$0A@@std@@V?$allocator@V?$_Func_class@W4StreamResult@baro@@ABV?$CStringT@_WV?$StrTraitMFC_DLL@_WV?$ChTraitsCRT@_W@ATL@@@@@ATL@@@std@@@2@W4StreamResult@baro@@ABV?$CStringT@_WV?$StrTraitMFC_DLL@_WV?$ChTraitsCRT@_W@ATL@@@@@ATL@@@std@@UBEABVtype_info@@XZ 1001ce50 f i stdafx.obj
 0001:0001be60       ?_Copy@?$_Func_impl@U?$_Callable_obj@V<lambda_75f487c1c530e75cedd270693ab9589c>@@$0A@@std@@V?$allocator@V?$_Func_class@W4StreamResult@baro@@ABV?$CStringT@_WV?$StrTraitMFC_DLL@_WV?$ChTraitsCRT@_W@ATL@@@@@ATL@@@std@@@2@W4StreamResult@baro@@ABV?$CStringT@_WV?$StrTraitMFC_DLL@_WV?$ChTraitsCRT@_W@ATL@@@@@ATL@@@std@@UAEPAV?$_Func_base@W4StreamResult@baro@@ABV?$CStringT@_WV?$StrTraitMFC_DLL@_WV?$ChTraitsCRT@_W@ATL@@@@@ATL@@@2@PAX@Z 1001ce60 f i stdafx.obj
 0001:0001be60       ?_Move@?$_Func_impl@U?$_Callable_obj@V<lambda_75f487c1c530e75cedd270693ab9589c>@@$0A@@std@@V?$allocator@V?$_Func_class@W4StreamResult@baro@@ABV?$CStringT@_WV?$StrTraitMFC_DLL@_WV?$ChTraitsCRT@_W@ATL@@@@@ATL@@@std@@@2@W4StreamResult@baro@@ABV?$CStringT@_WV?$StrTraitMFC_DLL@_WV?$ChTraitsCRT@_W@ATL@@@@@ATL@@@std@@UAEPAV?$_Func_base@W4StreamResult@baro@@ABV?$CStringT@_WV?$StrTraitMFC_DLL@_WV?$ChTraitsCRT@_W@ATL@@@@@ATL@@@2@PAX@Z 1001ce60 f i stdafx.obj
 0001:0001bea0       ?_Target_type@?$_Func_impl@U?$_Callable_obj@V<lambda_75f487c1c530e75cedd270693ab9589c>@@$0A@@std@@V?$allocator@V?$_Func_class@W4StreamResult@baro@@ABV?$CStringT@_WV?$StrTraitMFC_DLL@_WV?$ChTraitsCRT@_W@ATL@@@@@ATL@@@std@@@2@W4StreamResult@baro@@ABV?$CStringT@_WV?$StrTraitMFC_DLL@_WV?$ChTraitsCRT@_W@ATL@@@@@ATL@@@std@@UBEABVtype_info@@XZ 1001cea0 f i stdafx.obj
 0001:0001beb0       ?_Move@?$_Func_impl@U?$_Callable_obj@V<lambda_5c9231035f6c38fca048a0864a8210ea>@@$0A@@std@@V?$allocator@V?$_Func_class@W4StreamResult@baro@@AAV?$CStringT@_WV?$StrTraitMFC_DLL@_WV?$ChTraitsCRT@_W@ATL@@@@@ATL@@@std@@@2@W4StreamResult@baro@@AAV?$CStringT@_WV?$StrTraitMFC_DLL@_WV?$ChTraitsCRT@_W@ATL@@@@@ATL@@@std@@UAEPAV?$_Func_base@W4StreamResult@baro@@AAV?$CStringT@_WV?$StrTraitMFC_DLL@_WV?$ChTraitsCRT@_W@ATL@@@@@ATL@@@2@PAX@Z 1001ceb0 f i stdafx.obj
 0001:0001beb0       ?_Copy@?$_Func_impl@U?$_Callable_obj@V<lambda_5c9231035f6c38fca048a0864a8210ea>@@$0A@@std@@V?$allocator@V?$_Func_class@W4StreamResult@baro@@AAV?$CStringT@_WV?$StrTraitMFC_DLL@_WV?$ChTraitsCRT@_W@ATL@@@@@ATL@@@std@@@2@W4StreamResult@baro@@AAV?$CStringT@_WV?$StrTraitMFC_DLL@_WV?$ChTraitsCRT@_W@ATL@@@@@ATL@@@std@@UAEPAV?$_Func_base@W4StreamResult@baro@@AAV?$CStringT@_WV?$StrTraitMFC_DLL@_WV?$ChTraitsCRT@_W@ATL@@@@@ATL@@@2@PAX@Z 1001ceb0 f i stdafx.obj
 0001:0001bef0       ?_Do_call@?$_Func_impl@U?$_Callable_obj@V<lambda_5c9231035f6c38fca048a0864a8210ea>@@$0A@@std@@V?$allocator@V?$_Func_class@W4StreamResult@baro@@AAV?$CStringT@_WV?$StrTraitMFC_DLL@_WV?$ChTraitsCRT@_W@ATL@@@@@ATL@@@std@@@2@W4StreamResult@baro@@AAV?$CStringT@_WV?$StrTraitMFC_DLL@_WV?$ChTraitsCRT@_W@ATL@@@@@ATL@@@std@@UAE?AW4StreamResult@baro@@AAV?$CStringT@_WV?$StrTraitMFC_DLL@_WV?$ChTraitsCRT@_W@ATL@@@@@ATL@@@Z 1001cef0 f i stdafx.obj
 0001:0001bef0       ?_Do_call@?$_Func_impl@U?$_Callable_obj@V<lambda_e76177b2965f6f295be7c5f96021c124>@@$0A@@std@@V?$allocator@V?$_Func_class@W4StreamResult@baro@@AAV?$CStringT@_WV?$StrTraitMFC_DLL@_WV?$ChTraitsCRT@_W@ATL@@@@@ATL@@@std@@@2@W4StreamResult@baro@@AAV?$CStringT@_WV?$StrTraitMFC_DLL@_WV?$ChTraitsCRT@_W@ATL@@@@@ATL@@@std@@UAE?AW4StreamResult@baro@@AAV?$CStringT@_WV?$StrTraitMFC_DLL@_WV?$ChTraitsCRT@_W@ATL@@@@@ATL@@@Z 1001cef0 f i stdafx.obj
 0001:0001bef0       ?_Do_call@?$_Func_impl@U?$_Callable_obj@V<lambda_71f23d2cacd049d0fc44bb672969fbab>@@$0A@@std@@V?$allocator@V?$_Func_class@W4StreamResult@baro@@AAV?$CStringT@_WV?$StrTraitMFC_DLL@_WV?$ChTraitsCRT@_W@ATL@@@@@ATL@@@std@@@2@W4StreamResult@baro@@AAV?$CStringT@_WV?$StrTraitMFC_DLL@_WV?$ChTraitsCRT@_W@ATL@@@@@ATL@@@std@@UAE?AW4StreamResult@baro@@AAV?$CStringT@_WV?$StrTraitMFC_DLL@_WV?$ChTraitsCRT@_W@ATL@@@@@ATL@@@Z 1001cef0 f i stdafx.obj
 0001:0001bf40       ?_Target_type@?$_Func_impl@U?$_Callable_obj@V<lambda_5c9231035f6c38fca048a0864a8210ea>@@$0A@@std@@V?$allocator@V?$_Func_class@W4StreamResult@baro@@AAV?$CStringT@_WV?$StrTraitMFC_DLL@_WV?$ChTraitsCRT@_W@ATL@@@@@ATL@@@std@@@2@W4StreamResult@baro@@AAV?$CStringT@_WV?$StrTraitMFC_DLL@_WV?$ChTraitsCRT@_W@ATL@@@@@ATL@@@std@@UBEABVtype_info@@XZ 1001cf40 f i stdafx.obj
 0001:0001bf50       ?_Move@?$_Func_impl@U?$_Callable_obj@V<lambda_e76177b2965f6f295be7c5f96021c124>@@$0A@@std@@V?$allocator@V?$_Func_class@W4StreamResult@baro@@AAV?$CStringT@_WV?$StrTraitMFC_DLL@_WV?$ChTraitsCRT@_W@ATL@@@@@ATL@@@std@@@2@W4StreamResult@baro@@AAV?$CStringT@_WV?$StrTraitMFC_DLL@_WV?$ChTraitsCRT@_W@ATL@@@@@ATL@@@std@@UAEPAV?$_Func_base@W4StreamResult@baro@@AAV?$CStringT@_WV?$StrTraitMFC_DLL@_WV?$ChTraitsCRT@_W@ATL@@@@@ATL@@@2@PAX@Z 1001cf50 f i stdafx.obj
 0001:0001bf50       ?_Copy@?$_Func_impl@U?$_Callable_obj@V<lambda_e76177b2965f6f295be7c5f96021c124>@@$0A@@std@@V?$allocator@V?$_Func_class@W4StreamResult@baro@@AAV?$CStringT@_WV?$StrTraitMFC_DLL@_WV?$ChTraitsCRT@_W@ATL@@@@@ATL@@@std@@@2@W4StreamResult@baro@@AAV?$CStringT@_WV?$StrTraitMFC_DLL@_WV?$ChTraitsCRT@_W@ATL@@@@@ATL@@@std@@UAEPAV?$_Func_base@W4StreamResult@baro@@AAV?$CStringT@_WV?$StrTraitMFC_DLL@_WV?$ChTraitsCRT@_W@ATL@@@@@ATL@@@2@PAX@Z 1001cf50 f i stdafx.obj
 0001:0001bf90       ?_Target_type@?$_Func_impl@U?$_Callable_obj@V<lambda_e76177b2965f6f295be7c5f96021c124>@@$0A@@std@@V?$allocator@V?$_Func_class@W4StreamResult@baro@@AAV?$CStringT@_WV?$StrTraitMFC_DLL@_WV?$ChTraitsCRT@_W@ATL@@@@@ATL@@@std@@@2@W4StreamResult@baro@@AAV?$CStringT@_WV?$StrTraitMFC_DLL@_WV?$ChTraitsCRT@_W@ATL@@@@@ATL@@@std@@UBEABVtype_info@@XZ 1001cf90 f i stdafx.obj
 0001:0001bfa0       ?_Move@?$_Func_impl@U?$_Callable_obj@V<lambda_71f23d2cacd049d0fc44bb672969fbab>@@$0A@@std@@V?$allocator@V?$_Func_class@W4StreamResult@baro@@AAV?$CStringT@_WV?$StrTraitMFC_DLL@_WV?$ChTraitsCRT@_W@ATL@@@@@ATL@@@std@@@2@W4StreamResult@baro@@AAV?$CStringT@_WV?$StrTraitMFC_DLL@_WV?$ChTraitsCRT@_W@ATL@@@@@ATL@@@std@@UAEPAV?$_Func_base@W4StreamResult@baro@@AAV?$CStringT@_WV?$StrTraitMFC_DLL@_WV?$ChTraitsCRT@_W@ATL@@@@@ATL@@@2@PAX@Z 1001cfa0 f i stdafx.obj
 0001:0001bfa0       ?_Copy@?$_Func_impl@U?$_Callable_obj@V<lambda_71f23d2cacd049d0fc44bb672969fbab>@@$0A@@std@@V?$allocator@V?$_Func_class@W4StreamResult@baro@@AAV?$CStringT@_WV?$StrTraitMFC_DLL@_WV?$ChTraitsCRT@_W@ATL@@@@@ATL@@@std@@@2@W4StreamResult@baro@@AAV?$CStringT@_WV?$StrTraitMFC_DLL@_WV?$ChTraitsCRT@_W@ATL@@@@@ATL@@@std@@UAEPAV?$_Func_base@W4StreamResult@baro@@AAV?$CStringT@_WV?$StrTraitMFC_DLL@_WV?$ChTraitsCRT@_W@ATL@@@@@ATL@@@2@PAX@Z 1001cfa0 f i stdafx.obj
 0001:0001bfe0       ?_Target_type@?$_Func_impl@U?$_Callable_obj@V<lambda_71f23d2cacd049d0fc44bb672969fbab>@@$0A@@std@@V?$allocator@V?$_Func_class@W4StreamResult@baro@@AAV?$CStringT@_WV?$StrTraitMFC_DLL@_WV?$ChTraitsCRT@_W@ATL@@@@@ATL@@@std@@@2@W4StreamResult@baro@@AAV?$CStringT@_WV?$StrTraitMFC_DLL@_WV?$ChTraitsCRT@_W@ATL@@@@@ATL@@@std@@UBEABVtype_info@@XZ 1001cfe0 f i stdafx.obj
 0001:0001bfe6       ??3@YAXPAX@Z               1001cfe6 f   mfc120u:mfc120u.dll
 0001:0001bfec       ?GetThisMessageMap@CWinApp@@KGPBUAFX_MSGMAP@@XZ 1001cfec f   mfc120u:mfc120u.dll
 0001:0001bff2       ?GetRuntimeClass@CWinApp@@UBEPAUCRuntimeClass@@XZ 1001cff2 f   mfc120u:mfc120u.dll
 0001:0001bff8       ?OnCmdMsg@CCmdTarget@@UAEHIHPAXPAUAFX_CMDHANDLERINFO@@@Z 1001cff8 f   mfc120u:mfc120u.dll
 0001:0001bffe       ?OnFinalRelease@CCmdTarget@@UAEXXZ 1001cffe f   mfc120u:mfc120u.dll
 0001:0001c004       ?IsInvokeAllowed@CCmdTarget@@UAEHJ@Z 1001d004 f   mfc120u:mfc120u.dll
 0001:0001c00a       ?GetDispatchIID@CCmdTarget@@UAEHPAU_GUID@@@Z 1001d00a f   mfc120u:mfc120u.dll
 0001:0001c010       ?GetTypeInfoCount@CCmdTarget@@UAEIXZ 1001d010 f   mfc120u:mfc120u.dll
 0001:0001c016       ?GetTypeLibCache@CCmdTarget@@UAEPAVCTypeLibCache@@XZ 1001d016 f   mfc120u:mfc120u.dll
 0001:0001c01c       ?GetTypeLib@CCmdTarget@@UAEJKPAPAUITypeLib@@@Z 1001d01c f   mfc120u:mfc120u.dll
 0001:0001c022       ?GetCommandMap@CCmdTarget@@MBEPBUAFX_OLECMDMAP@@XZ 1001d022 f   mfc120u:mfc120u.dll
 0001:0001c028       ?GetDispatchMap@CCmdTarget@@MBEPBUAFX_DISPMAP@@XZ 1001d028 f   mfc120u:mfc120u.dll
 0001:0001c02e       ?GetConnectionMap@CCmdTarget@@MBEPBUAFX_CONNECTIONMAP@@XZ 1001d02e f   mfc120u:mfc120u.dll
 0001:0001c034       ?GetInterfaceMap@CCmdTarget@@MBEPBUAFX_INTERFACEMAP@@XZ 1001d034 f   mfc120u:mfc120u.dll
 0001:0001c03a       ?GetEventSinkMap@CCmdTarget@@MBEPBUAFX_EVENTSINKMAP@@XZ 1001d03a f   mfc120u:mfc120u.dll
 0001:0001c040       ?OnCreateAggregates@CCmdTarget@@UAEHXZ 1001d040 f   mfc120u:mfc120u.dll
 0001:0001c046       ?GetInterfaceHook@CCmdTarget@@UAEPAUIUnknown@@PBX@Z 1001d046 f   mfc120u:mfc120u.dll
 0001:0001c04c       ?GetExtraConnectionPoints@CCmdTarget@@MAEHPAVCPtrArray@@@Z 1001d04c f   mfc120u:mfc120u.dll
 0001:0001c052       ?GetConnectionHook@CCmdTarget@@MAEPAUIConnectionPoint@@ABU_GUID@@@Z 1001d052 f   mfc120u:mfc120u.dll
 0001:0001c058       ?Run@CWinApp@@UAEHXZ       1001d058 f   mfc120u:mfc120u.dll
 0001:0001c05e       ?PreTranslateMessage@CWinThread@@UAEHPAUtagMSG@@@Z 1001d05e f   mfc120u:mfc120u.dll
 0001:0001c064       ?PumpMessage@CWinThread@@UAEHXZ 1001d064 f   mfc120u:mfc120u.dll
 0001:0001c06a       ?OnIdle@CWinApp@@UAEHJ@Z   1001d06a f   mfc120u:mfc120u.dll
 0001:0001c070       ?IsIdleMessage@CWinThread@@UAEHPAUtagMSG@@@Z 1001d070 f   mfc120u:mfc120u.dll
 0001:0001c076       ?ProcessWndProcException@CWinApp@@UAEJPAVCException@@PBUtagMSG@@@Z 1001d076 f   mfc120u:mfc120u.dll
 0001:0001c07c       ?ProcessMessageFilter@CWinThread@@UAEHHPAUtagMSG@@@Z 1001d07c f   mfc120u:mfc120u.dll
 0001:0001c082       ?GetMainWnd@CWinThread@@UAEPAVCWnd@@XZ 1001d082 f   mfc120u:mfc120u.dll
 0001:0001c088       ?Delete@CWinThread@@UAEXXZ 1001d088 f   mfc120u:mfc120u.dll
 0001:0001c08e       ?GetProfileIntW@CWinApp@@UAEIPB_W0H@Z 1001d08e f   mfc120u:mfc120u.dll
 0001:0001c094       ?WriteProfileInt@CWinApp@@UAEHPB_W0H@Z 1001d094 f   mfc120u:mfc120u.dll
 0001:0001c09a       ?GetProfileStringW@CWinApp@@UAE?AV?$CStringT@_WV?$StrTraitMFC_DLL@_WV?$ChTraitsCRT@_W@ATL@@@@@ATL@@PB_W00@Z 1001d09a f   mfc120u:mfc120u.dll
 0001:0001c0a0       ?WriteProfileStringW@CWinApp@@UAEHPB_W00@Z 1001d0a0 f   mfc120u:mfc120u.dll
 0001:0001c0a6       ?GetProfileBinary@CWinApp@@UAEHPB_W0PAPAEPAI@Z 1001d0a6 f   mfc120u:mfc120u.dll
 0001:0001c0ac       ?WriteProfileBinary@CWinApp@@UAEHPB_W0PAEI@Z 1001d0ac f   mfc120u:mfc120u.dll
 0001:0001c0b2       ?InitLibId@CWinApp@@UAEXXZ 1001d0b2 f   mfc120u:mfc120u.dll
 0001:0001c0b8       ?Register@CWinApp@@UAEHXZ  1001d0b8 f   mfc120u:mfc120u.dll
 0001:0001c0be       ?Unregister@CWinApp@@UAEHXZ 1001d0be f   mfc120u:mfc120u.dll
 0001:0001c0c4       ?OpenDocumentFile@CWinApp@@UAEPAVCDocument@@PB_WH@Z 1001d0c4 f   mfc120u:mfc120u.dll
 0001:0001c0ca       ?OpenDocumentFile@CWinApp@@UAEPAVCDocument@@PB_W@Z 1001d0ca f   mfc120u:mfc120u.dll
 0001:0001c0d0       ?AddToRecentFileList@CWinApp@@UAEXPB_W@Z 1001d0d0 f   mfc120u:mfc120u.dll
 0001:0001c0d6       ?InitApplication@CWinApp@@UAEHXZ 1001d0d6 f   mfc120u:mfc120u.dll
 0001:0001c0dc       ?SaveAllModified@CWinApp@@UAEHXZ 1001d0dc f   mfc120u:mfc120u.dll
 0001:0001c0e2       ?DoMessageBox@CWinApp@@UAEHPB_WII@Z 1001d0e2 f   mfc120u:mfc120u.dll
 0001:0001c0e8       ?DoWaitCursor@CWinApp@@UAEXH@Z 1001d0e8 f   mfc120u:mfc120u.dll
 0001:0001c0ee       ?OnDDECommand@CWinApp@@UAEHPA_W@Z 1001d0ee f   mfc120u:mfc120u.dll
 0001:0001c0f4       ?WinHelpW@CWinApp@@UAEXKI@Z 1001d0f4 f   mfc120u:mfc120u.dll
 0001:0001c0fa       ?HtmlHelpW@CWinApp@@UAEXKI@Z 1001d0fa f   mfc120u:mfc120u.dll
 0001:0001c100       ?WinHelpInternal@CWinApp@@UAEXKI@Z 1001d100 f   mfc120u:mfc120u.dll
 0001:0001c106       ?RegisterWithRestartManager@CWinApp@@UAEJPB_WKP6GKPAX@Z1KK@Z 1001d106 f   mfc120u:mfc120u.dll
 0001:0001c10c       ?RegisterWithRestartManager@CWinApp@@UAEJHABV?$CStringT@_WV?$StrTraitMFC_DLL@_WV?$ChTraitsCRT@_W@ATL@@@@@ATL@@@Z 1001d10c f   mfc120u:mfc120u.dll
 0001:0001c112       ?ApplicationRecoveryCallback@CWinApp@@UAEKPAX@Z 1001d112 f   mfc120u:mfc120u.dll
 0001:0001c118       ?GetDataRecoveryHandler@CWinApp@@UAEPAVCDataRecoveryHandler@@XZ 1001d118 f   mfc120u:mfc120u.dll
 0001:0001c11e       ?IsTaskbarInteractionEnabled@CWinApp@@UAEHXZ 1001d11e f   mfc120u:mfc120u.dll
 0001:0001c124       ?RestartInstance@CWinApp@@UAEHXZ 1001d124 f   mfc120u:mfc120u.dll
 0001:0001c12a       ?LoadAppLangResourceDLL@CWinApp@@UAEPAUHINSTANCE__@@XZ 1001d12a f   mfc120u:mfc120u.dll
 0001:0001c130       ?LoadSysPolicies@CWinApp@@UAEHXZ 1001d130 f   mfc120u:mfc120u.dll
 0001:0001c136       ?AfxGetModuleState@@YGPAVAFX_MODULE_STATE@@XZ 1001d136 f   mfc120u:mfc120u.dll
 0001:0001c13c       ??0AFX_MAINTAIN_STATE2@@QAE@PAVAFX_MODULE_STATE@@@Z 1001d13c f   mfc120u:mfc120u.dll
 0001:0001c142       ??1AFX_MAINTAIN_STATE2@@QAE@XZ 1001d142 f   mfc120u:mfc120u.dll
 0001:0001c148       ?GetRuntimeClass@CPen@@UBEPAUCRuntimeClass@@XZ 1001d148 f   mfc120u:mfc120u.dll
 0001:0001c14e       ?GetRuntimeClass@CGdiObject@@UBEPAUCRuntimeClass@@XZ 1001d14e f   mfc120u:mfc120u.dll
 0001:0001c154       ?Delete@CException@@QAEXXZ 1001d154 f   mfc120u:mfc120u.dll
 0001:0001c15a       ?GetThisMessageMap@CCmdTarget@@KGPBUAFX_MSGMAP@@XZ 1001d15a f   mfc120u:mfc120u.dll
 0001:0001c160       ?Run@CWinThread@@UAEHXZ    1001d160 f   mfc120u:mfc120u.dll
 0001:0001c166       ?ProcessWndProcException@CWinThread@@UAEJPAVCException@@PBUtagMSG@@@Z 1001d166 f   mfc120u:mfc120u.dll
 0001:0001c16c       ?GetRuntimeClass@CBitmap@@UBEPAUCRuntimeClass@@XZ 1001d16c f   mfc120u:mfc120u.dll
 0001:0001c172       _RawDllMain@12             1001d172 f   mfcs120u:dllmodul.obj
 0001:0001c1c5       ??_G_AFX_DLL_MODULE_STATE@@UAEPAXI@Z 1001d1c5 f i mfcs120u:dllmodul.obj
 0001:0001c1c5       ??_E_AFX_DLL_MODULE_STATE@@UAEPAXI@Z 1001d1c5 f i mfcs120u:dllmodul.obj
 0001:0001c1e3       ?AfxGetStaticModuleState@@YGPAVAFX_MODULE_STATE@@XZ 1001d1e3 f   mfcs120u:dllmodul.obj
 0001:0001c1e9       ?AfxWndProcDllStatic@@YGJPAUHWND__@@IIJ@Z 1001d1e9 f   mfcs120u:dllmodul.obj
 0001:0001c234       _DllMain@12                1001d234 f   mfcs120u:dllmodul.obj
 0001:0001c27d       _InternalDllMain@12        1001d27d f   mfcs120u:dllmodul.obj
 0001:0001c3d8       @__security_check_cookie@4 1001d3d8 f   msvcrt:secchk.obj
 0001:0001c3e7       ___atonexitinit            1001d3e7 f   msvcrt:atonexit.obj
 0001:0001c423       __onexit                   1001d423 f   msvcrt:atonexit.obj
 0001:0001c4cc       _atexit                    1001d4cc f   msvcrt:atonexit.obj
 0001:0001c4e1       ??_Etype_info@@UAEPAXI@Z   1001d4e1 f i msvcrt:ti_inst.obj
 0001:0001c52b       ___raise_securityfailure   1001d52b f   msvcrt:gs_report.obj
 0001:0001c568       ___report_gsfailure        1001d568 f   msvcrt:gs_report.obj
 0001:0001c664       __purecall                 1001d664 f   msvcrt:MSVCR120.dll
 0001:0001c66a       _free                      1001d66a f   msvcrt:MSVCR120.dll
 0001:0001c670       ??_M@YGXPAXIHP6EX0@Z@Z     1001d670 f   msvcrt:ehvecdtr.obj
 0001:0001c6df       ?__ArrayUnwind@@YGXPAXIHP6EX0@Z@Z 1001d6df f   msvcrt:ehvecdtr.obj
 0001:0001c73d       ??_L@YGXPAXIHP6EX0@Z1@Z    1001d73d f   msvcrt:ehvecctr.obj
 0001:0001c7eb       __CRT_INIT@12              1001d7eb f   msvcrt:crtdll.obj
 0001:0001c9e2       __DllMainCRTStartup@12     1001d9e2 f   msvcrt:crtdll.obj
 0001:0001cb38       _memset                    1001db38 f   msvcrt:MSVCR120.dll
 0001:0001cb40       __SEH_prolog4              1001db40 f   msvcrt:sehprolg4.obj
 0001:0001cb85       __SEH_epilog4              1001db85 f   msvcrt:sehprolg4.obj
 0001:0001cba0       __SEH_prolog4_GS           1001dba0 f   msvcrt:sehprolg4gs.obj
 0001:0001cbe8       __SEH_epilog4_GS           1001dbe8 f   msvcrt:sehprolg4gs.obj
 0001:0001cbf7       __except_handler4          1001dbf7 f   msvcrt:chandler4gs.obj
 0001:0001cc1a       __EH_epilog3               1001dc1a f   msvcrt:ehprolg3.obj
 0001:0001cc2e       __EH_prolog3               1001dc2e f   msvcrt:ehprolg3.obj
 0001:0001cc61       __EH_prolog3_catch         1001dc61 f   msvcrt:ehprolg3.obj
 0001:0001cc98       ___CxxFrameHandler3        1001dc98 f   msvcrt:MSVCR120.dll
 0001:0001cc9e       __lock                     1001dc9e f   msvcrt:MSVCR120.dll
 0001:0001cca4       __unlock                   1001dca4 f   msvcrt:MSVCR120.dll
 0001:0001ccaa       ___dllonexit               1001dcaa f   msvcrt:MSVCR120.dll
 0001:0001ccb0       ??1type_info@@UAE@XZ       1001dcb0 f   msvcrt:MSVCR120.dll
 0001:0001ccb6       __crt_debugger_hook        1001dcb6 f   msvcrt:MSVCR120.dll
 0001:0001ccbc       ___crtUnhandledException   1001dcbc f   msvcrt:MSVCR120.dll
 0001:0001ccc2       ___crtTerminateProcess     1001dcc2 f   msvcrt:MSVCR120.dll
 0001:0001ccc8       ?terminate@@YAXXZ          1001dcc8 f   msvcrt:MSVCR120.dll
 0001:0001ccce       ___CppXcptFilter           1001dcce f   msvcrt:MSVCR120.dll
 0001:0001ccd4       __amsg_exit                1001dcd4 f   msvcrt:MSVCR120.dll
 0001:0001cce0       __FindPESection            1001dce0 f   msvcrt:pesect.obj
 0001:0001cd30       __IsNonwritableInCurrentImage 1001dd30 f   msvcrt:pesect.obj
 0001:0001cdf0       __ValidateImageBase        1001ddf0 f   msvcrt:pesect.obj
 0001:0001ce21       ___security_init_cookie    1001de21 f   msvcrt:gs_support.obj
 0001:0001cebd       __RTC_Initialize           1001debd f   msvcrt:initsect.obj
 0001:0001cedd       __RTC_Terminate            1001dedd f   msvcrt:initsect.obj
 0001:0001cefe       __initterm                 1001defe f   msvcrt:MSVCR120.dll
 0001:0001cf04       __initterm_e               1001df04 f   msvcrt:MSVCR120.dll
 0001:0001cf0a       ___clean_type_info_names   1001df0a f   msvcrt:tncleanup.obj
 0001:0001cf16       __except_handler4_common   1001df16 f   msvcrt:MSVCR120.dll
 0001:0001cf1c       ___clean_type_info_names_internal 1001df1c f   msvcrt:MSVCR120.dll
 0001:0001cf22       _IsProcessorFeaturePresent@4 1001df22 f   kernel32:KERNEL32.dll
 0001:0001cf28       ??0CAtlBaseModule@ATL@@QAE@XZ 1001df28 f   atls:atlbase.obj
 0001:0001cf7b       ??0_ATL_BASE_MODULE70@ATL@@QAE@XZ 1001df7b f i atls:atlbase.obj
 0001:0001cf9e       ??1CAtlBaseModule@ATL@@QAE@XZ 1001df9e f   atls:atlbase.obj
 0001:0001cfb4       ?RemoveAll@?$CSimpleArray@PAUHINSTANCE__@@V?$CSimpleArrayEqualHelper@PAUHINSTANCE__@@@ATL@@@ATL@@QAEXXZ 1001dfb4 f i atls:atlbase.obj
 0001:0001cfd2       ??3CNoTrackObject@@SGXPAX@Z 1001dfd2 f   mfc120u:mfc120u.dll
 0001:0001cfd8       ??0AFX_MODULE_STATE@@QAE@HP6GJPAUHWND__@@IIJ@ZKH@Z 1001dfd8 f   mfc120u:mfc120u.dll
 0001:0001cfde       ??1AFX_MODULE_STATE@@UAE@XZ 1001dfde f   mfc120u:mfc120u.dll
 0001:0001cfe4       ?AfxSetModuleState@@YGPAVAFX_MODULE_STATE@@PAV1@@Z 1001dfe4 f   mfc120u:mfc120u.dll
 0001:0001cfea       ?AfxWinInit@@YGHPAUHINSTANCE__@@0PA_WH@Z 1001dfea f   mfc120u:mfc120u.dll
 0001:0001cff0       ?AfxWndProc@@YGJPAUHWND__@@IIJ@Z 1001dff0 f   mfc120u:mfc120u.dll
 0001:0001cff6       ?AfxTermThread@@YGXPAUHINSTANCE__@@@Z 1001dff6 f   mfc120u:mfc120u.dll
 0001:0001cffe       ?AfxWinTerm@@YGXXZ         1001dffe f   mfc120u:mfc120u.dll
 0001:0001d004       ??0CDynLinkLibrary@@QAE@AAUAFX_EXTENSION_MODULE@@H@Z 1001e004 f   mfc120u:mfc120u.dll
 0001:0001d00a       ?AfxInitExtensionModule@@YGHAAUAFX_EXTENSION_MODULE@@PAUHINSTANCE__@@@Z 1001e00a f   mfc120u:mfc120u.dll
 0001:0001d010       ?AfxTermExtensionModule@@YGXAAUAFX_EXTENSION_MODULE@@H@Z 1001e010 f   mfc120u:mfc120u.dll
 0001:0001d016       ?AfxCoreInitModule@@YGXXZ  1001e016 f   mfc120u:mfc120u.dll
 0001:0001d01c       ?AfxLockTempMaps@@YGXXZ    1001e01c f   mfc120u:mfc120u.dll
 0001:0001d022       ?AfxUnlockTempMaps@@YGHH@Z 1001e022 f   mfc120u:mfc120u.dll
 0001:0001d028       __RawDllMainProxy@12       1001e028 f   mfcs120u:rawdllmainproxy.obj
 0001:0001d122       __CxxThrowException@8      1001e122 f   msvcrt:MSVCR120.dll
 0001:0001d130       __alldiv                   1001e130 f   msvcrt:lldiv.obj
 0001:0001d1e0       __allmul                   1001e1e0 f   msvcrt:llmul.obj
 0001:0001d220       __aulldiv                  1001e220 f   msvcrt:ulldiv.obj
 0001:0001d290       __aulldvrm                 1001e290 f   msvcrt:ulldvrm.obj
 0001:0001d330       __aullrem                  1001e330 f   msvcrt:ullrem.obj
 0001:0001d3b0       __chkstk                   1001e3b0 f   msvcrt:chkstk.obj
 0001:0001d3b0       __alloca_probe             1001e3b0 f   msvcrt:chkstk.obj
 0001:0001d3e0       __ftoui3                   1001e3e0 f   msvcrt:ftol3.obj
 0001:0001d3ef       __ftoul3                   1001e3ef f   msvcrt:ftol3.obj
 0001:0001d3fe       __ftol3                    1001e3fe f   msvcrt:ftol3.obj
 0001:0001d40b       __ftol3_NaN                1001e40b f   msvcrt:ftol3.obj
 0001:0001d423       __ftol3_work               1001e423 f   msvcrt:ftol3.obj
 0001:0001d4a9       __ftol3_common             1001e4a9 f   msvcrt:ftol3.obj
 0001:0001d56b       __ftol3_arg_error          1001e56b f   msvcrt:ftol3.obj
 0001:0001d57d       __ftol3_except             1001e57d f   msvcrt:ftol3.obj
 0001:0001d5c1       __dtoui3                   1001e5c1 f   msvcrt:ftol3.obj
 0001:0001d5d0       __dtoul3                   1001e5d0 f   msvcrt:ftol3.obj
 0001:0001d5df       __dtol3                    1001e5df f   msvcrt:ftol3.obj
 0001:0001d5ec       __dtol3_NaN                1001e5ec f   msvcrt:ftol3.obj
 0001:0001d609       __dtol3_work               1001e609 f   msvcrt:ftol3.obj
 0001:0001d6ee       __ultod3                   1001e6ee f   msvcrt:ftol3.obj
 0001:0001d77f       __ltod3                    1001e77f f   msvcrt:ftol3.obj
 0001:0001d7ae       _memcpy                    1001e7ae f   msvcrt:MSVCR120.dll
 0001:0001d7c0       __except1                  1001e7c0 f   msvcrt:MSVCR120.dll
 0001:00020060       ??__Finstance@?1??GetInstance@?$TSingleton@$$CBVSystemInfo@baro@@@baro@@SAABVSystemInfo@2@XZ@YAXXZ 10021060 f i system.obj
 0002:00000000       __imp__CryptGetHashParam@20 10022000     advapi32:ADVAPI32.dll
 0002:00000004       __imp__CryptDecrypt@24     10022004     advapi32:ADVAPI32.dll
 0002:00000008       __imp__RegOpenKeyExW@20    10022008     advapi32:ADVAPI32.dll
 0002:0000000c       __imp__RegCloseKey@4       1002200c     advapi32:ADVAPI32.dll
 0002:00000010       __imp__RegCreateKeyExW@36  10022010     advapi32:ADVAPI32.dll
 0002:00000014       __imp__RegSetValueExW@24   10022014     advapi32:ADVAPI32.dll
 0002:00000018       __imp__RegQueryValueExW@24 10022018     advapi32:ADVAPI32.dll
 0002:0000001c       __imp__GetUserNameW@8      1002201c     advapi32:ADVAPI32.dll
 0002:00000020       __imp__CryptDestroyKey@4   10022020     advapi32:ADVAPI32.dll
 0002:00000024       __imp__CryptImportKey@24   10022024     advapi32:ADVAPI32.dll
 0002:00000028       __imp__CryptSetKeyParam@16 10022028     advapi32:ADVAPI32.dll
 0002:0000002c       __imp__CryptDestroyHash@4  1002202c     advapi32:ADVAPI32.dll
 0002:00000030       __imp__CryptEncrypt@28     10022030     advapi32:ADVAPI32.dll
 0002:00000034       __imp__CryptDeriveKey@20   10022034     advapi32:ADVAPI32.dll
 0002:00000038       __imp__CryptAcquireContextW@20 10022038     advapi32:ADVAPI32.dll
 0002:0000003c       __imp__CryptCreateHash@20  1002203c     advapi32:ADVAPI32.dll
 0002:00000040       __imp__CryptReleaseContext@8 10022040     advapi32:ADVAPI32.dll
 0002:00000044       __imp__CryptHashData@16    10022044     advapi32:ADVAPI32.dll
 0002:00000048       \177ADVAPI32_NULL_THUNK_DATA 10022048     advapi32:ADVAPI32.dll
 0002:0000004c       __imp__ImageList_Create@20 1002204c     comctl32:COMCTL32.dll
 0002:00000050       __imp__ImageList_ReplaceIcon@12 10022050     comctl32:COMCTL32.dll
 0002:00000054       __imp__ImageList_Destroy@4 10022054     comctl32:COMCTL32.dll
 0002:00000058       __imp__ImageList_Merge@24  10022058     comctl32:COMCTL32.dll
 0002:0000005c       __imp__ImageList_GetIcon@12 1002205c     comctl32:COMCTL32.dll
 0002:00000060       \177COMCTL32_NULL_THUNK_DATA 10022060     comctl32:COMCTL32.dll
 0002:00000064       __imp__CryptBinaryToStringW@20 10022064     crypt32:CRYPT32.dll
 0002:00000068       __imp__CryptStringToBinaryA@28 10022068     crypt32:CRYPT32.dll
 0002:0000006c       __imp__CryptBinaryToStringA@20 1002206c     crypt32:CRYPT32.dll
 0002:00000070       __imp__CryptStringToBinaryW@28 10022070     crypt32:CRYPT32.dll
 0002:00000074       \177CRYPT32_NULL_THUNK_DATA 10022074     crypt32:CRYPT32.dll
 0002:00000078       __imp__StretchBlt@44       10022078     gdi32:GDI32.dll
 0002:0000007c       __imp__BitBlt@36           1002207c     gdi32:GDI32.dll
 0002:00000080       __imp__GetTextExtentExPointW@28 10022080     gdi32:GDI32.dll
 0002:00000084       __imp__CreateCompatibleBitmap@12 10022084     gdi32:GDI32.dll
 0002:00000088       __imp__DeleteObject@4      10022088     gdi32:GDI32.dll
 0002:0000008c       __imp__SelectObject@8      1002208c     gdi32:GDI32.dll
 0002:00000090       __imp__CreateCompatibleDC@4 10022090     gdi32:GDI32.dll
 0002:00000094       __imp__CreateDIBSection@24 10022094     gdi32:GDI32.dll
 0002:00000098       __imp__GetStockObject@4    10022098     gdi32:GDI32.dll
 0002:0000009c       __imp__GetBitmapBits@12    1002209c     gdi32:GDI32.dll
 0002:000000a0       __imp__GetObjectW@12       100220a0     gdi32:GDI32.dll
 0002:000000a4       __imp__SetPixel@16         100220a4     gdi32:GDI32.dll
 0002:000000a8       __imp__CreatePen@12        100220a8     gdi32:GDI32.dll
 0002:000000ac       \177GDI32_NULL_THUNK_DATA  100220ac     gdi32:GDI32.dll
 0002:000000b0       __imp__GetAdaptersInfo@8   100220b0     IPHLPAPI:IPHLPAPI.DLL
 0002:000000b4       \177IPHLPAPI_NULL_THUNK_DATA 100220b4     IPHLPAPI:IPHLPAPI.DLL
 0002:000000b8       __imp__GetLocalTime@4      100220b8     kernel32:KERNEL32.dll
 0002:000000bc       __imp__CloseHandle@4       100220bc     kernel32:KERNEL32.dll
 0002:000000c0       __imp__GetFileInformationByHandle@8 100220c0     kernel32:KERNEL32.dll
 0002:000000c4       __imp__CreateFileW@28      100220c4     kernel32:KERNEL32.dll
 0002:000000c8       __imp__FindClose@4         100220c8     kernel32:KERNEL32.dll
 0002:000000cc       __imp__FormatMessageW@28   100220cc     kernel32:KERNEL32.dll
 0002:000000d0       __imp__DeleteFileW@4       100220d0     kernel32:KERNEL32.dll
 0002:000000d4       __imp__SetFileAttributesW@8 100220d4     kernel32:KERNEL32.dll
 0002:000000d8       __imp__RemoveDirectoryW@4  100220d8     kernel32:KERNEL32.dll
 0002:000000dc       __imp__FindFirstFileW@8    100220dc     kernel32:KERNEL32.dll
 0002:000000e0       __imp__lstrcatW@8          100220e0     kernel32:KERNEL32.dll
 0002:000000e4       __imp__lstrlenW@4          100220e4     kernel32:KERNEL32.dll
 0002:000000e8       __imp__FindNextFileW@8     100220e8     kernel32:KERNEL32.dll
 0002:000000ec       __imp__MultiByteToWideChar@24 100220ec     kernel32:KERNEL32.dll
 0002:000000f0       __imp__lstrcmpW@8          100220f0     kernel32:KERNEL32.dll
 0002:000000f4       __imp__OutputDebugStringW@4 100220f4     kernel32:KERNEL32.dll
 0002:000000f8       __imp__lstrcpyW@8          100220f8     kernel32:KERNEL32.dll
 0002:000000fc       __imp__CreateDirectoryW@8  100220fc     kernel32:KERNEL32.dll
 0002:00000100       __imp__AllocConsole@0      10022100     kernel32:KERNEL32.dll
 0002:00000104       __imp__GetSystemTimeAsFileTime@4 10022104     kernel32:KERNEL32.dll
 0002:00000108       __imp__GetCurrentProcessId@0 10022108     kernel32:KERNEL32.dll
 0002:0000010c       __imp__IsProcessorFeaturePresent@4 1002210c     kernel32:KERNEL32.dll
 0002:00000110       __imp__IsDebuggerPresent@0 10022110     kernel32:KERNEL32.dll
 0002:00000114       __imp__EncodePointer@4     10022114     kernel32:KERNEL32.dll
 0002:00000118       __imp__LocalFree@4         10022118     kernel32:KERNEL32.dll
 0002:0000011c       __imp__LocalAlloc@8        1002211c     kernel32:KERNEL32.dll
 0002:00000120       __imp__DecodePointer@4     10022120     kernel32:KERNEL32.dll
 0002:00000124       __imp__InitializeCriticalSectionEx@12 10022124     kernel32:KERNEL32.dll
 0002:00000128       __imp__GetSystemInfo@4     10022128     kernel32:KERNEL32.dll
 0002:0000012c       __imp__GetModuleHandleW@4  1002212c     kernel32:KERNEL32.dll
 0002:00000130       __imp__FreeLibrary@4       10022130     kernel32:KERNEL32.dll
 0002:00000134       __imp__GetProcAddress@8    10022134     kernel32:KERNEL32.dll
 0002:00000138       __imp__LoadLibraryW@4      10022138     kernel32:KERNEL32.dll
 0002:0000013c       __imp__GlobalMemoryStatusEx@4 1002213c     kernel32:KERNEL32.dll
 0002:00000140       __imp__QueryPerformanceCounter@4 10022140     kernel32:KERNEL32.dll
 0002:00000144       __imp__QueryPerformanceFrequency@4 10022144     kernel32:KERNEL32.dll
 0002:00000148       __imp__GetConsoleWindow@0  10022148     kernel32:KERNEL32.dll
 0002:0000014c       __imp__FreeConsole@0       1002214c     kernel32:KERNEL32.dll
 0002:00000150       __imp__SetCurrentConsoleFontEx@12 10022150     kernel32:KERNEL32.dll
 0002:00000154       __imp__GetCurrentConsoleFontEx@12 10022154     kernel32:KERNEL32.dll
 0002:00000158       __imp__SetConsoleWindowInfo@12 10022158     kernel32:KERNEL32.dll
 0002:0000015c       __imp__SetConsoleScreenBufferSize@8 1002215c     kernel32:KERNEL32.dll
 0002:00000160       __imp__WideCharToMultiByte@32 10022160     kernel32:KERNEL32.dll
 0002:00000164       __imp__GetStdHandle@4      10022164     kernel32:KERNEL32.dll
 0002:00000168       __imp__SetConsoleTextAttribute@8 10022168     kernel32:KERNEL32.dll
 0002:0000016c       __imp__GetCurrentThreadId@0 1002216c     kernel32:KERNEL32.dll
 0002:00000170       __imp__EnterCriticalSection@4 10022170     kernel32:KERNEL32.dll
 0002:00000174       __imp__LeaveCriticalSection@4 10022174     kernel32:KERNEL32.dll
 0002:00000178       __imp__TerminateThread@8   10022178     kernel32:KERNEL32.dll
 0002:0000017c       __imp__WaitForSingleObject@8 1002217c     kernel32:KERNEL32.dll
 0002:00000180       __imp__GetExitCodeThread@8 10022180     kernel32:KERNEL32.dll
 0002:00000184       __imp__GetThreadId@4       10022184     kernel32:KERNEL32.dll
 0002:00000188       __imp__Sleep@4             10022188     kernel32:KERNEL32.dll
 0002:0000018c       __imp__DeleteCriticalSection@4 1002218c     kernel32:KERNEL32.dll
 0002:00000190       __imp__InitializeCriticalSection@4 10022190     kernel32:KERNEL32.dll
 0002:00000194       __imp__GetLastError@0      10022194     kernel32:KERNEL32.dll
 0002:00000198       __imp__GetComputerNameW@8  10022198     kernel32:KERNEL32.dll
 0002:0000019c       __imp__GetModuleFileNameW@12 1002219c     kernel32:KERNEL32.dll
 0002:000001a0       \177KERNEL32_NULL_THUNK_DATA 100221a0     kernel32:KERNEL32.dll
 0002:000001a4       __imp_?_Xbad_alloc@std@@YAXXZ 100221a4     msvcprt:MSVCP120.dll
 0002:000001a8       __imp_?_Xlength_error@std@@YAXPBD@Z 100221a8     msvcprt:MSVCP120.dll
 0002:000001ac       __imp_?_Xbad_function_call@std@@YAXXZ 100221ac     msvcprt:MSVCP120.dll
 0002:000001b0       __imp_?_Random_device@std@@YAIXZ 100221b0     msvcprt:MSVCP120.dll
 0002:000001b4       __imp_?_Xout_of_range@std@@YAXPBD@Z 100221b4     msvcprt:MSVCP120.dll
 0002:000001b8       __imp_?_Winerror_map@std@@YAPBDH@Z 100221b8     msvcprt:MSVCP120.dll
 0002:000001bc       __imp_?_Syserror_map@std@@YAPBDH@Z 100221bc     msvcprt:MSVCP120.dll
 0002:000001c0       \177MSVCP120_NULL_THUNK_DATA 100221c0     msvcprt:MSVCP120.dll
 0002:000001c4       __imp___CxxThrowException@8 100221c4     msvcrt:MSVCR120.dll
 0002:000001c8       __imp__memcpy              100221c8     msvcrt:MSVCR120.dll
 0002:000001cc       __imp___except1            100221cc     msvcrt:MSVCR120.dll
 0002:000001d0       __imp____clean_type_info_names_internal 100221d0     msvcrt:MSVCR120.dll
 0002:000001d4       __imp___except_handler4_common 100221d4     msvcrt:MSVCR120.dll
 0002:000001d8       __imp___initterm_e         100221d8     msvcrt:MSVCR120.dll
 0002:000001dc       __imp___initterm           100221dc     msvcrt:MSVCR120.dll
 0002:000001e0       __imp___malloc_crt         100221e0     msvcrt:MSVCR120.dll
 0002:000001e4       __imp___amsg_exit          100221e4     msvcrt:MSVCR120.dll
 0002:000001e8       __imp____CppXcptFilter     100221e8     msvcrt:MSVCR120.dll
 0002:000001ec       __imp_?terminate@@YAXXZ    100221ec     msvcrt:MSVCR120.dll
 0002:000001f0       __imp____crtTerminateProcess 100221f0     msvcrt:MSVCR120.dll
 0002:000001f4       __imp____crtUnhandledException 100221f4     msvcrt:MSVCR120.dll
 0002:000001f8       __imp___crt_debugger_hook  100221f8     msvcrt:MSVCR120.dll
 0002:000001fc       __imp_??1type_info@@UAE@XZ 100221fc     msvcrt:MSVCR120.dll
 0002:00000200       __imp___onexit             10022200     msvcrt:MSVCR120.dll
 0002:00000204       __imp____dllonexit         10022204     msvcrt:MSVCR120.dll
 0002:00000208       __imp___calloc_crt         10022208     msvcrt:MSVCR120.dll
 0002:0000020c       __imp___unlock             1002220c     msvcrt:MSVCR120.dll
 0002:00000210       __imp___lock               10022210     msvcrt:MSVCR120.dll
 0002:00000214       __imp____CxxFrameHandler3  10022214     msvcrt:MSVCR120.dll
 0002:00000218       __imp__memset              10022218     msvcrt:MSVCR120.dll
 0002:0000021c       __imp__fclose              1002221c     msvcrt:MSVCR120.dll
 0002:00000220       __imp__system              10022220     msvcrt:MSVCR120.dll
 0002:00000224       __imp__swprintf_s          10022224     msvcrt:MSVCR120.dll
 0002:00000228       __imp___wtoi               10022228     msvcrt:MSVCR120.dll
 0002:0000022c       __imp__calloc              1002222c     msvcrt:MSVCR120.dll
 0002:00000230       __imp___purecall           10022230     msvcrt:MSVCR120.dll
 0002:00000234       __imp__memmove             10022234     msvcrt:MSVCR120.dll
 0002:00000238       __imp__malloc              10022238     msvcrt:MSVCR120.dll
 0002:0000023c       __imp__free                1002223c     msvcrt:MSVCR120.dll
 0002:00000240       __imp__wcstod              10022240     msvcrt:MSVCR120.dll
 0002:00000244       __imp__wcstoul             10022244     msvcrt:MSVCR120.dll
 0002:00000248       __imp___vscwprintf         10022248     msvcrt:MSVCR120.dll
 0002:0000024c       __imp__vswprintf_s         1002224c     msvcrt:MSVCR120.dll
 0002:00000250       __imp__memmove_s           10022250     msvcrt:MSVCR120.dll
 0002:00000254       __imp__realloc             10022254     msvcrt:MSVCR120.dll
 0002:00000258       __imp__wcscpy_s            10022258     msvcrt:MSVCR120.dll
 0002:0000025c       __imp__wprintf             1002225c     msvcrt:MSVCR120.dll
 0002:00000260       __imp__fwprintf            10022260     msvcrt:MSVCR120.dll
 0002:00000264       __imp__setlocale           10022264     msvcrt:MSVCR120.dll
 0002:00000268       __imp___wfreopen_s         10022268     msvcrt:MSVCR120.dll
 0002:0000026c       __imp____iob_func          1002226c     msvcrt:MSVCR120.dll
 0002:00000270       __imp___wfopen_s           10022270     msvcrt:MSVCR120.dll
 0002:00000274       \177MSVCR120_NULL_THUNK_DATA 10022274     msvcrt:MSVCR120.dll
 0002:00000278       __imp__NetWkstaGetInfo@12  10022278     netapi32:NETAPI32.dll
 0002:0000027c       __imp__NetApiBufferFree@4  1002227c     netapi32:NETAPI32.dll
 0002:00000280       \177NETAPI32_NULL_THUNK_DATA 10022280     netapi32:NETAPI32.dll
 0002:00000284       __imp__VariantTimeToSystemTime@12 10022284     oleaut32:OLEAUT32.dll
 0002:00000288       __imp__SysAllocStringLen@8 10022288     oleaut32:OLEAUT32.dll
 0002:0000028c       __imp__SysFreeString@4     1002228c     oleaut32:OLEAUT32.dll
 0002:00000290       __imp__SystemTimeToVariantTime@8 10022290     oleaut32:OLEAUT32.dll
 0002:00000294       \177OLEAUT32_NULL_THUNK_DATA 10022294     oleaut32:OLEAUT32.dll
 0002:00000298       __imp__SHGetFileInfoW@20   10022298     shell32:SHELL32.dll
 0002:0000029c       __imp__ExtractIconW@12     1002229c     shell32:SHELL32.dll
 0002:000002a0       __imp__ExtractIconExW@20   100222a0     shell32:SHELL32.dll
 0002:000002a4       \177SHELL32_NULL_THUNK_DATA 100222a4     shell32:SHELL32.dll
 0002:000002a8       __imp__PathFindFileNameW@4 100222a8     shlwapi:SHLWAPI.dll
 0002:000002ac       __imp__PathFileExistsW@4   100222ac     shlwapi:SHLWAPI.dll
 0002:000002b0       __imp__PathRemoveFileSpecW@4 100222b0     shlwapi:SHLWAPI.dll
 0002:000002b4       __imp__PathIsDirectoryW@4  100222b4     shlwapi:SHLWAPI.dll
 0002:000002b8       __imp__PathFindExtensionW@4 100222b8     shlwapi:SHLWAPI.dll
 0002:000002bc       \177SHLWAPI_NULL_THUNK_DATA 100222bc     shlwapi:SHLWAPI.dll
 0002:000002c0       __imp__DestroyIcon@4       100222c0     user32:USER32.dll
 0002:000002c4       __imp__ShowWindow@8        100222c4     user32:USER32.dll
 0002:000002c8       __imp__EnumDisplayMonitors@16 100222c8     user32:USER32.dll
 0002:000002cc       __imp__GetMonitorInfoW@8   100222cc     user32:USER32.dll
 0002:000002d0       __imp__GetSystemMetrics@4  100222d0     user32:USER32.dll
 0002:000002d4       __imp__PtInRect@12         100222d4     user32:USER32.dll
 0002:000002d8       __imp__wsprintfW           100222d8     user32:USER32.dll
 0002:000002dc       __imp__IsWindowVisible@4   100222dc     user32:USER32.dll
 0002:000002e0       __imp__SystemParametersInfoW@16 100222e0     user32:USER32.dll
 0002:000002e4       __imp__PostMessageW@16     100222e4     user32:USER32.dll
 0002:000002e8       __imp__SendMessageW@16     100222e8     user32:USER32.dll
 0002:000002ec       __imp__PostThreadMessageW@16 100222ec     user32:USER32.dll
 0002:000002f0       __imp__PeekMessageW@20     100222f0     user32:USER32.dll
 0002:000002f4       __imp__SetWindowLongW@12   100222f4     user32:USER32.dll
 0002:000002f8       __imp__IsWindow@4          100222f8     user32:USER32.dll
 0002:000002fc       __imp__DefWindowProcW@16   100222fc     user32:USER32.dll
 0002:00000300       __imp__GetWindowLongW@8    10022300     user32:USER32.dll
 0002:00000304       __imp__FindWindowExW@16    10022304     user32:USER32.dll
 0002:00000308       __imp__FindWindowW@8       10022308     user32:USER32.dll
 0002:0000030c       __imp__WindowFromPoint@8   1002230c     user32:USER32.dll
 0002:00000310       __imp__GetCursorPos@4      10022310     user32:USER32.dll
 0002:00000314       __imp__GetWindowRect@8     10022314     user32:USER32.dll
 0002:00000318       __imp__MonitorFromRect@8   10022318     user32:USER32.dll
 0002:0000031c       __imp__GetDesktopWindow@0  1002231c     user32:USER32.dll
 0002:00000320       __imp__MonitorFromWindow@8 10022320     user32:USER32.dll
 0002:00000324       __imp__CopyRect@8          10022324     user32:USER32.dll
 0002:00000328       \177USER32_NULL_THUNK_DATA 10022328     user32:USER32.dll
 0002:0000032c       __imp__GetFileVersionInfoSizeW@8 1002232c     version:VERSION.dll
 0002:00000330       __imp__GetFileVersionInfoW@16 10022330     version:VERSION.dll
 0002:00000334       __imp__VerQueryValueW@16   10022334     version:VERSION.dll
 0002:00000338       \177VERSION_NULL_THUNK_DATA 10022338     version:VERSION.dll
 0002:0000033c       __imp__InternetGetConnectedState@8 1002233c     Wininet:WININET.dll
 0002:00000340       \177WININET_NULL_THUNK_DATA 10022340     Wininet:WININET.dll
 0002:00000344       __imp__GdipFillRectangleI@24 10022344     gdiplus:gdiplus.dll
 0002:00000348       __imp__GdipDeleteBrush@4   10022348     gdiplus:gdiplus.dll
 0002:0000034c       __imp__GdipCreateSolidFill@8 1002234c     gdiplus:gdiplus.dll
 0002:00000350       __imp__GdipDrawImageI@16   10022350     gdiplus:gdiplus.dll
 0002:00000354       __imp__GdipCreateBitmapFromScan0@24 10022354     gdiplus:gdiplus.dll
 0002:00000358       __imp__GdipGetDC@8         10022358     gdiplus:gdiplus.dll
 0002:0000035c       __imp__GdipGetImageGraphicsContext@8 1002235c     gdiplus:gdiplus.dll
 0002:00000360       __imp__GdipDrawLine@24     10022360     gdiplus:gdiplus.dll
 0002:00000364       __imp__GdipDeletePen@4     10022364     gdiplus:gdiplus.dll
 0002:00000368       __imp__GdipCreatePen1@16   10022368     gdiplus:gdiplus.dll
 0002:0000036c       __imp__GdipReleaseDC@8     1002236c     gdiplus:gdiplus.dll
 0002:00000370       __imp__GdipDrawImageRectRect@56 10022370     gdiplus:gdiplus.dll
 0002:00000374       __imp__GdipDeleteGraphics@4 10022374     gdiplus:gdiplus.dll
 0002:00000378       __imp__GdipCreateFromHDC@8 10022378     gdiplus:gdiplus.dll
 0002:0000037c       __imp__GdipGetImageWidth@8 1002237c     gdiplus:gdiplus.dll
 0002:00000380       __imp__GdipGetImageHeight@8 10022380     gdiplus:gdiplus.dll
 0002:00000384       __imp__GdipCreateBitmapFromHBITMAP@12 10022384     gdiplus:gdiplus.dll
 0002:00000388       __imp__GdipGetImageEncoders@12 10022388     gdiplus:gdiplus.dll
 0002:0000038c       __imp__GdipGetImageEncodersSize@8 1002238c     gdiplus:gdiplus.dll
 0002:00000390       __imp__GdipSaveImageToFile@16 10022390     gdiplus:gdiplus.dll
 0002:00000394       __imp__GdipDisposeImage@4  10022394     gdiplus:gdiplus.dll
 0002:00000398       __imp__GdipCloneImage@8    10022398     gdiplus:gdiplus.dll
 0002:0000039c       __imp__GdipAlloc@4         1002239c     gdiplus:gdiplus.dll
 0002:000003a0       __imp__GdipFree@4          100223a0     gdiplus:gdiplus.dll
 0002:000003a4       __imp__GdipLoadImageFromFile@8 100223a4     gdiplus:gdiplus.dll
 0002:000003a8       __imp__GdipDrawLineI@24    100223a8     gdiplus:gdiplus.dll
 0002:000003ac       __imp__GdipSetInterpolationMode@8 100223ac     gdiplus:gdiplus.dll
 0002:000003b0       __imp__GdipSetSmoothingMode@8 100223b0     gdiplus:gdiplus.dll
 0002:000003b4       __imp__GdipSetCompositingQuality@8 100223b4     gdiplus:gdiplus.dll
 0002:000003b8       __imp__GdipSetCompositingMode@8 100223b8     gdiplus:gdiplus.dll
 0002:000003bc       __imp__GdiplusShutdown@4   100223bc     gdiplus:gdiplus.dll
 0002:000003c0       __imp__GdiplusStartup@12   100223c0     gdiplus:gdiplus.dll
 0002:000003c4       __imp__GdipCreateLineBrushFromRectI@24 100223c4     gdiplus:gdiplus.dll
 0002:000003c8       \177gdiplus_NULL_THUNK_DATA 100223c8     gdiplus:gdiplus.dll
 0002:000003cc       __imp_??4?$CStringT@_WV?$StrTraitMFC_DLL@_WV?$ChTraitsCRT@_W@ATL@@@@@ATL@@QAEAAV01@PB_W@Z 100223cc     mfc120u:mfc120u.dll
 0002:000003d0       __imp_?Find@?$CStringT@_WV?$StrTraitMFC_DLL@_WV?$ChTraitsCRT@_W@ATL@@@@@ATL@@QBEH_WH@Z 100223d0     mfc120u:mfc120u.dll
 0002:000003d4       __imp_?GetBuffer@?$CSimpleStringT@_W$00@ATL@@QAEPA_WXZ 100223d4     mfc120u:mfc120u.dll
 0002:000003d8       __imp_?MoveTo@CDC@@QAE?AVCPoint@@HH@Z 100223d8     mfc120u:mfc120u.dll
 0002:000003dc       __imp_?LineTo@CDC@@QAEHHH@Z 100223dc     mfc120u:mfc120u.dll
 0002:000003e0       __imp_?GetRuntimeClass@CPen@@UBEPAUCRuntimeClass@@XZ 100223e0     mfc120u:mfc120u.dll
 0002:000003e4       __imp_?AfxMessageBox@@YGHPB_WII@Z 100223e4     mfc120u:mfc120u.dll
 0002:000003e8       __imp_?DeleteObject@CGdiObject@@QAEHXZ 100223e8     mfc120u:mfc120u.dll
 0002:000003ec       __imp_?GetRuntimeClass@CGdiObject@@UBEPAUCRuntimeClass@@XZ 100223ec     mfc120u:mfc120u.dll
 0002:000003f0       __imp_?Attach@CGdiObject@@QAEHPAX@Z 100223f0     mfc120u:mfc120u.dll
 0002:000003f4       __imp_?SelectObject@CDC@@QAEPAVCPen@@PAV2@@Z 100223f4     mfc120u:mfc120u.dll
 0002:000003f8       __imp_?FromHandle@CGdiObject@@SGPAV1@PAX@Z 100223f8     mfc120u:mfc120u.dll
 0002:000003fc       __imp_?MakeReverse@?$CStringT@_WV?$StrTraitMFC_DLL@_WV?$ChTraitsCRT@_W@ATL@@@@@ATL@@QAEAAV12@XZ 100223fc     mfc120u:mfc120u.dll
 0002:00000400       __imp_??Y?$CStringT@_WV?$StrTraitMFC_DLL@_WV?$ChTraitsCRT@_W@ATL@@@@@ATL@@QAEAAV01@PB_W@Z 10022400     mfc120u:mfc120u.dll
 0002:00000404       __imp_??0CDC@@QAE@XZ       10022404     mfc120u:mfc120u.dll
 0002:00000408       __imp_??1CDC@@UAE@XZ       10022408     mfc120u:mfc120u.dll
 0002:0000040c       __imp_?Attach@CDC@@QAEHPAUHDC__@@@Z 1002240c     mfc120u:mfc120u.dll
 0002:00000410       __imp_?FillSolidRect@CDC@@QAEXHHHHK@Z 10022410     mfc120u:mfc120u.dll
 0002:00000414       __imp_?SetStretchBltMode@CDC@@QAEHH@Z 10022414     mfc120u:mfc120u.dll
 0002:00000418       __imp_?DeleteDC@CDC@@QAEHXZ 10022418     mfc120u:mfc120u.dll
 0002:0000041c       __imp_?AfxThrowOleException@@YGXJ@Z 1002241c     mfc120u:mfc120u.dll
 0002:00000420       __imp_?AfxThrowMemoryException@@YGXXZ 10022420     mfc120u:mfc120u.dll
 0002:00000424       __imp_?AfxThrowInvalidArgException@@YGXXZ 10022424     mfc120u:mfc120u.dll
 0002:00000428       __imp_?Delete@CException@@QAEXXZ 10022428     mfc120u:mfc120u.dll
 0002:0000042c       __imp_?Mid@?$CStringT@_WV?$StrTraitMFC_DLL@_WV?$ChTraitsCRT@_W@ATL@@@@@ATL@@QBE?AV12@H@Z 1002242c     mfc120u:mfc120u.dll
 0002:00000430       __imp_??0?$CStringT@DV?$StrTraitMFC_DLL@DV?$ChTraitsCRT@D@ATL@@@@@ATL@@QAE@ABV01@@Z 10022430     mfc120u:mfc120u.dll
 0002:00000434       __imp_??0?$CStringT@DV?$StrTraitMFC_DLL@DV?$ChTraitsCRT@D@ATL@@@@@ATL@@QAE@XZ 10022434     mfc120u:mfc120u.dll
 0002:00000438       __imp_?SetAt@?$CSimpleStringT@_W$00@ATL@@QAEXH_W@Z 10022438     mfc120u:mfc120u.dll
 0002:0000043c       __imp_?FromHandle@CWnd@@SGPAV1@PAUHWND__@@@Z 1002243c     mfc120u:mfc120u.dll
 0002:00000440       __imp_?Replace@?$CStringT@_WV?$StrTraitMFC_DLL@_WV?$ChTraitsCRT@_W@ATL@@@@@ATL@@QAEHPB_W0@Z 10022440     mfc120u:mfc120u.dll
 0002:00000444       __imp_??0?$CStringT@DV?$StrTraitMFC_DLL@DV?$ChTraitsCRT@D@ATL@@@@@ATL@@QAE@PB_W@Z 10022444     mfc120u:mfc120u.dll
 0002:00000448       __imp_??1?$CStringT@_WV?$StrTraitMFC_DLL@_WV?$ChTraitsCRT@_W@ATL@@@@@ATL@@QAE@XZ 10022448     mfc120u:mfc120u.dll
 0002:0000044c       __imp_??0?$CStringT@_WV?$StrTraitMFC_DLL@_WV?$ChTraitsCRT@_W@ATL@@@@@ATL@@QAE@PB_W@Z 1002244c     mfc120u:mfc120u.dll
 0002:00000450       __imp_??_V@YAXPAX@Z        10022450     mfc120u:mfc120u.dll
 0002:00000454       __imp_??_U@YAPAXI@Z        10022454     mfc120u:mfc120u.dll
 0002:00000458       __imp_?LoadSysPolicies@CWinApp@@UAEHXZ 10022458     mfc120u:mfc120u.dll
 0002:0000045c       __imp_?LoadAppLangResourceDLL@CWinApp@@UAEPAUHINSTANCE__@@XZ 1002245c     mfc120u:mfc120u.dll
 0002:00000460       __imp_?RestartInstance@CWinApp@@UAEHXZ 10022460     mfc120u:mfc120u.dll
 0002:00000464       __imp_?IsTaskbarInteractionEnabled@CWinApp@@UAEHXZ 10022464     mfc120u:mfc120u.dll
 0002:00000468       __imp_?GetDataRecoveryHandler@CWinApp@@UAEPAVCDataRecoveryHandler@@XZ 10022468     mfc120u:mfc120u.dll
 0002:0000046c       __imp_?ApplicationRecoveryCallback@CWinApp@@UAEKPAX@Z 1002246c     mfc120u:mfc120u.dll
 0002:00000470       __imp_?RegisterWithRestartManager@CWinApp@@UAEJHABV?$CStringT@_WV?$StrTraitMFC_DLL@_WV?$ChTraitsCRT@_W@ATL@@@@@ATL@@@Z 10022470     mfc120u:mfc120u.dll
 0002:00000474       __imp_?RegisterWithRestartManager@CWinApp@@UAEJPB_WKP6GKPAX@Z1KK@Z 10022474     mfc120u:mfc120u.dll
 0002:00000478       __imp_?WinHelpInternal@CWinApp@@UAEXKI@Z 10022478     mfc120u:mfc120u.dll
 0002:0000047c       __imp_?HtmlHelpW@CWinApp@@UAEXKI@Z 1002247c     mfc120u:mfc120u.dll
 0002:00000480       __imp_?WinHelpW@CWinApp@@UAEXKI@Z 10022480     mfc120u:mfc120u.dll
 0002:00000484       __imp_?OnDDECommand@CWinApp@@UAEHPA_W@Z 10022484     mfc120u:mfc120u.dll
 0002:00000488       __imp_?DoWaitCursor@CWinApp@@UAEXH@Z 10022488     mfc120u:mfc120u.dll
 0002:0000048c       __imp_?DoMessageBox@CWinApp@@UAEHPB_WII@Z 1002248c     mfc120u:mfc120u.dll
 0002:00000490       __imp_?SaveAllModified@CWinApp@@UAEHXZ 10022490     mfc120u:mfc120u.dll
 0002:00000494       __imp_?InitApplication@CWinApp@@UAEHXZ 10022494     mfc120u:mfc120u.dll
 0002:00000498       __imp_?OpenDocumentFile@CWinApp@@UAEPAVCDocument@@PB_W@Z 10022498     mfc120u:mfc120u.dll
 0002:0000049c       __imp_?OpenDocumentFile@CWinApp@@UAEPAVCDocument@@PB_WH@Z 1002249c     mfc120u:mfc120u.dll
 0002:000004a0       __imp_?Unregister@CWinApp@@UAEHXZ 100224a0     mfc120u:mfc120u.dll
 0002:000004a4       __imp_?Register@CWinApp@@UAEHXZ 100224a4     mfc120u:mfc120u.dll
 0002:000004a8       __imp_?InitLibId@CWinApp@@UAEXXZ 100224a8     mfc120u:mfc120u.dll
 0002:000004ac       __imp_?WriteProfileBinary@CWinApp@@UAEHPB_W0PAEI@Z 100224ac     mfc120u:mfc120u.dll
 0002:000004b0       __imp_?GetProfileBinary@CWinApp@@UAEHPB_W0PAPAEPAI@Z 100224b0     mfc120u:mfc120u.dll
 0002:000004b4       __imp_?WriteProfileStringW@CWinApp@@UAEHPB_W00@Z 100224b4     mfc120u:mfc120u.dll
 0002:000004b8       __imp_?GetProfileStringW@CWinApp@@UAE?AV?$CStringT@_WV?$StrTraitMFC_DLL@_WV?$ChTraitsCRT@_W@ATL@@@@@ATL@@PB_W00@Z 100224b8     mfc120u:mfc120u.dll
 0002:000004bc       __imp_?WriteProfileInt@CWinApp@@UAEHPB_W0H@Z 100224bc     mfc120u:mfc120u.dll
 0002:000004c0       __imp_?GetProfileIntW@CWinApp@@UAEIPB_W0H@Z 100224c0     mfc120u:mfc120u.dll
 0002:000004c4       __imp_?GetThisClass@CWinThread@@SGPAUCRuntimeClass@@XZ 100224c4     mfc120u:mfc120u.dll
 0002:000004c8       __imp_??0CWinThread@@QAE@XZ 100224c8     mfc120u:mfc120u.dll
 0002:000004cc       __imp_??1CWinThread@@UAE@XZ 100224cc     mfc120u:mfc120u.dll
 0002:000004d0       __imp_??0CWnd@@QAE@XZ      100224d0     mfc120u:mfc120u.dll
 0002:000004d4       __imp_?Delete@CWinThread@@UAEXXZ 100224d4     mfc120u:mfc120u.dll
 0002:000004d8       __imp_?GetMainWnd@CWinThread@@UAEPAVCWnd@@XZ 100224d8     mfc120u:mfc120u.dll
 0002:000004dc       __imp_?ProcessMessageFilter@CWinThread@@UAEHHPAUtagMSG@@@Z 100224dc     mfc120u:mfc120u.dll
 0002:000004e0       __imp_?ProcessWndProcException@CWinApp@@UAEJPAVCException@@PBUtagMSG@@@Z 100224e0     mfc120u:mfc120u.dll
 0002:000004e4       __imp_?IsIdleMessage@CWinThread@@UAEHPAUtagMSG@@@Z 100224e4     mfc120u:mfc120u.dll
 0002:000004e8       __imp_?OnIdle@CWinApp@@UAEHJ@Z 100224e8     mfc120u:mfc120u.dll
 0002:000004ec       __imp_??1CWnd@@UAE@XZ      100224ec     mfc120u:mfc120u.dll
 0002:000004f0       __imp_?ExitInstance@CWinThread@@UAEHXZ 100224f0     mfc120u:mfc120u.dll
 0002:000004f4       __imp_?GetThisMessageMap@CCmdTarget@@KGPBUAFX_MSGMAP@@XZ 100224f4     mfc120u:mfc120u.dll
 0002:000004f8       __imp_?AfxBeginThread@@YGPAVCWinThread@@PAUCRuntimeClass@@HIKPAU_SECURITY_ATTRIBUTES@@@Z 100224f8     mfc120u:mfc120u.dll
 0002:000004fc       __imp_?Run@CWinThread@@UAEHXZ 100224fc     mfc120u:mfc120u.dll
 0002:00000500       __imp_?ProcessWndProcException@CWinThread@@UAEJPAVCException@@PBUtagMSG@@@Z 10022500     mfc120u:mfc120u.dll
 0002:00000504       __imp_?GetThisMessageMap@CWinApp@@KGPBUAFX_MSGMAP@@XZ 10022504     mfc120u:mfc120u.dll
 0002:00000508       __imp_??0CWinApp@@QAE@PB_W@Z 10022508     mfc120u:mfc120u.dll
 0002:0000050c       __imp_??1CWinApp@@UAE@XZ   1002250c     mfc120u:mfc120u.dll
 0002:00000510       __imp_?MakeUpper@?$CStringT@_WV?$StrTraitMFC_DLL@_WV?$ChTraitsCRT@_W@ATL@@@@@ATL@@QAEAAV12@XZ 10022510     mfc120u:mfc120u.dll
 0002:00000514       __imp_?GetRuntimeClass@CBitmap@@UBEPAUCRuntimeClass@@XZ 10022514     mfc120u:mfc120u.dll
 0002:00000518       __imp_??0CClientDC@@QAE@PAVCWnd@@@Z 10022518     mfc120u:mfc120u.dll
 0002:0000051c       __imp_??1CClientDC@@UAE@XZ 1002251c     mfc120u:mfc120u.dll
 0002:00000520       __imp_?SelectGdiObject@CDC@@KGPAVCGdiObject@@PAUHDC__@@PAX@Z 10022520     mfc120u:mfc120u.dll
 0002:00000524       __imp_?PumpMessage@CWinThread@@UAEHXZ 10022524     mfc120u:mfc120u.dll
 0002:00000528       __imp_?PreTranslateMessage@CWinThread@@UAEHPAUtagMSG@@@Z 10022528     mfc120u:mfc120u.dll
 0002:0000052c       __imp_?Run@CWinApp@@UAEHXZ 1002252c     mfc120u:mfc120u.dll
 0002:00000530       __imp_?GetConnectionHook@CCmdTarget@@MAEPAUIConnectionPoint@@ABU_GUID@@@Z 10022530     mfc120u:mfc120u.dll
 0002:00000534       __imp_?GetExtraConnectionPoints@CCmdTarget@@MAEHPAVCPtrArray@@@Z 10022534     mfc120u:mfc120u.dll
 0002:00000538       __imp_?GetInterfaceHook@CCmdTarget@@UAEPAUIUnknown@@PBX@Z 10022538     mfc120u:mfc120u.dll
 0002:0000053c       __imp_?OnCreateAggregates@CCmdTarget@@UAEHXZ 1002253c     mfc120u:mfc120u.dll
 0002:00000540       __imp_?GetEventSinkMap@CCmdTarget@@MBEPBUAFX_EVENTSINKMAP@@XZ 10022540     mfc120u:mfc120u.dll
 0002:00000544       __imp_?GetInterfaceMap@CCmdTarget@@MBEPBUAFX_INTERFACEMAP@@XZ 10022544     mfc120u:mfc120u.dll
 0002:00000548       __imp_?GetConnectionMap@CCmdTarget@@MBEPBUAFX_CONNECTIONMAP@@XZ 10022548     mfc120u:mfc120u.dll
 0002:0000054c       __imp_?GetDispatchMap@CCmdTarget@@MBEPBUAFX_DISPMAP@@XZ 1002254c     mfc120u:mfc120u.dll
 0002:00000550       __imp_?GetCommandMap@CCmdTarget@@MBEPBUAFX_OLECMDMAP@@XZ 10022550     mfc120u:mfc120u.dll
 0002:00000554       __imp_?GetTypeLib@CCmdTarget@@UAEJKPAPAUITypeLib@@@Z 10022554     mfc120u:mfc120u.dll
 0002:00000558       __imp_?GetTypeLibCache@CCmdTarget@@UAEPAVCTypeLibCache@@XZ 10022558     mfc120u:mfc120u.dll
 0002:0000055c       __imp_?GetTypeInfoCount@CCmdTarget@@UAEIXZ 1002255c     mfc120u:mfc120u.dll
 0002:00000560       __imp_?GetDispatchIID@CCmdTarget@@UAEHPAU_GUID@@@Z 10022560     mfc120u:mfc120u.dll
 0002:00000564       __imp_?IsInvokeAllowed@CCmdTarget@@UAEHJ@Z 10022564     mfc120u:mfc120u.dll
 0002:00000568       __imp_?OnFinalRelease@CCmdTarget@@UAEXXZ 10022568     mfc120u:mfc120u.dll
 0002:0000056c       __imp_?OnCmdMsg@CCmdTarget@@UAEHIHPAXPAUAFX_CMDHANDLERINFO@@@Z 1002256c     mfc120u:mfc120u.dll
 0002:00000570       __imp_??4?$CStringT@_WV?$StrTraitMFC_DLL@_WV?$ChTraitsCRT@_W@ATL@@@@@ATL@@QAEAAV01@PBD@Z 10022570     mfc120u:mfc120u.dll
 0002:00000574       __imp_??4?$CStringT@DV?$StrTraitMFC_DLL@DV?$ChTraitsCRT@D@ATL@@@@@ATL@@QAEAAV01@PBD@Z 10022574     mfc120u:mfc120u.dll
 0002:00000578       __imp_??1?$CStringT@DV?$StrTraitMFC_DLL@DV?$ChTraitsCRT@D@ATL@@@@@ATL@@QAE@XZ 10022578     mfc120u:mfc120u.dll
 0002:0000057c       __imp_??0?$CStringT@_WV?$StrTraitMFC_DLL@_WV?$ChTraitsCRT@_W@ATL@@@@@ATL@@QAE@XZ 1002257c     mfc120u:mfc120u.dll
 0002:00000580       __imp_?GetBuffer@?$CSimpleStringT@_W$00@ATL@@QAEPA_WH@Z 10022580     mfc120u:mfc120u.dll
 0002:00000584       __imp_?AfxGetModuleState@@YGPAVAFX_MODULE_STATE@@XZ 10022584     mfc120u:mfc120u.dll
 0002:00000588       __imp_?ReleaseBuffer@?$CSimpleStringT@_W$00@ATL@@QAEXH@Z 10022588     mfc120u:mfc120u.dll
 0002:0000058c       __imp_??4?$CStringT@_WV?$StrTraitMFC_DLL@_WV?$ChTraitsCRT@_W@ATL@@@@@ATL@@QAEAAV01@ABV01@@Z 1002258c     mfc120u:mfc120u.dll
 0002:00000590       __imp_??Y?$CStringT@_WV?$StrTraitMFC_DLL@_WV?$ChTraitsCRT@_W@ATL@@@@@ATL@@QAEAAV01@ABV?$CSimpleStringT@_W$00@1@@Z 10022590     mfc120u:mfc120u.dll
 0002:00000594       __imp_?Format@?$CStringT@_WV?$StrTraitMFC_DLL@_WV?$ChTraitsCRT@_W@ATL@@@@@ATL@@QAAXPB_WZZ 10022594     mfc120u:mfc120u.dll
 0002:00000598       __imp_??0AFX_MAINTAIN_STATE2@@QAE@PAVAFX_MODULE_STATE@@@Z 10022598     mfc120u:mfc120u.dll
 0002:0000059c       __imp_??1AFX_MAINTAIN_STATE2@@QAE@XZ 1002259c     mfc120u:mfc120u.dll
 0002:000005a0       __imp_??0CFile@@QAE@XZ     100225a0     mfc120u:mfc120u.dll
 0002:000005a4       __imp_??1CFile@@UAE@XZ     100225a4     mfc120u:mfc120u.dll
 0002:000005a8       __imp_?Open@CFile@@UAEHPB_WIPAVCFileException@@@Z 100225a8     mfc120u:mfc120u.dll
 0002:000005ac       __imp_?Close@CFile@@UAEXXZ 100225ac     mfc120u:mfc120u.dll
 0002:000005b0       __imp_??0CFileFind@@QAE@XZ 100225b0     mfc120u:mfc120u.dll
 0002:000005b4       __imp_??1CFileFind@@UAE@XZ 100225b4     mfc120u:mfc120u.dll
 0002:000005b8       __imp_?FindFile@CFileFind@@UAEHPB_WK@Z 100225b8     mfc120u:mfc120u.dll
 0002:000005bc       __imp_?FindNextFileW@CFileFind@@UAEHXZ 100225bc     mfc120u:mfc120u.dll
 0002:000005c0       __imp_?IsDots@CFileFind@@UBEHXZ 100225c0     mfc120u:mfc120u.dll
 0002:000005c4       __imp_?GetFilePath@CFileFind@@UBE?AV?$CStringT@_WV?$StrTraitMFC_DLL@_WV?$ChTraitsCRT@_W@ATL@@@@@ATL@@XZ 100225c4     mfc120u:mfc120u.dll
 0002:000005c8       __imp_?Close@CFileFind@@QAEXXZ 100225c8     mfc120u:mfc120u.dll
 0002:000005cc       __imp_?Concatenate@?$CSimpleStringT@_W$00@ATL@@KAXAAV12@PB_WH1H@Z 100225cc     mfc120u:mfc120u.dll
 0002:000005d0       __imp_?GetManager@?$CStringT@_WV?$StrTraitMFC_DLL@_WV?$ChTraitsCRT@_W@ATL@@@@@ATL@@QBEPAUIAtlStringMgr@2@XZ 100225d0     mfc120u:mfc120u.dll
 0002:000005d4       __imp_??0?$CStringT@_WV?$StrTraitMFC_DLL@_WV?$ChTraitsCRT@_W@ATL@@@@@ATL@@QAE@PAUIAtlStringMgr@1@@Z 100225d4     mfc120u:mfc120u.dll
 0002:000005d8       __imp_?CompareNoCase@?$CStringT@_WV?$StrTraitMFC_DLL@_WV?$ChTraitsCRT@_W@ATL@@@@@ATL@@QBEHPB_W@Z 100225d8     mfc120u:mfc120u.dll
 0002:000005dc       __imp_??2@YAPAXI@Z         100225dc     mfc120u:mfc120u.dll
 0002:000005e0       __imp_?Compare@?$CStringT@_WV?$StrTraitMFC_DLL@_WV?$ChTraitsCRT@_W@ATL@@@@@ATL@@QBEHPB_W@Z 100225e0     mfc120u:mfc120u.dll
 0002:000005e4       __imp_?Left@?$CStringT@_WV?$StrTraitMFC_DLL@_WV?$ChTraitsCRT@_W@ATL@@@@@ATL@@QBE?AV12@H@Z 100225e4     mfc120u:mfc120u.dll
 0002:000005e8       __imp_?Right@?$CStringT@_WV?$StrTraitMFC_DLL@_WV?$ChTraitsCRT@_W@ATL@@@@@ATL@@QBE?AV12@H@Z 100225e8     mfc120u:mfc120u.dll
 0002:000005ec       __imp_?ReverseFind@?$CStringT@_WV?$StrTraitMFC_DLL@_WV?$ChTraitsCRT@_W@ATL@@@@@ATL@@QBEH_W@Z 100225ec     mfc120u:mfc120u.dll
 0002:000005f0       __imp_?MakeLower@?$CStringT@_WV?$StrTraitMFC_DLL@_WV?$ChTraitsCRT@_W@ATL@@@@@ATL@@QAEAAV12@XZ 100225f0     mfc120u:mfc120u.dll
 0002:000005f4       __imp_?AddToRecentFileList@CWinApp@@UAEXPB_W@Z 100225f4     mfc120u:mfc120u.dll
 0002:000005f8       __imp_?Find@?$CStringT@_WV?$StrTraitMFC_DLL@_WV?$ChTraitsCRT@_W@ATL@@@@@ATL@@QBEHPB_WH@Z 100225f8     mfc120u:mfc120u.dll
 0002:000005fc       __imp_?Detach@CGdiObject@@QAEPAXXZ 100225fc     mfc120u:mfc120u.dll
 0002:00000600       __imp_?FillSolidRect@CDC@@QAEXPBUtagRECT@@K@Z 10022600     mfc120u:mfc120u.dll
 0002:00000604       __imp_?SetTextAlign@CDC@@QAEII@Z 10022604     mfc120u:mfc120u.dll
 0002:00000608       __imp_?SetBkMode@CDC@@QAEHH@Z 10022608     mfc120u:mfc120u.dll
 0002:0000060c       __imp_?FromHandle@CDC@@SGPAV1@PAUHDC__@@@Z 1002260c     mfc120u:mfc120u.dll
 0002:00000610       __imp_??0?$CStringT@_WV?$StrTraitMFC_DLL@_WV?$ChTraitsCRT@_W@ATL@@@@@ATL@@QAE@ABV01@@Z 10022610     mfc120u:mfc120u.dll
 0002:00000614       __imp_?InitInstance@CWinApp@@UAEHXZ 10022614     mfc120u:mfc120u.dll
 0002:00000618       __imp_?AfxUnlockTempMaps@@YGHH@Z 10022618     mfc120u:mfc120u.dll
 0002:0000061c       __imp_?AfxLockTempMaps@@YGXXZ 1002261c     mfc120u:mfc120u.dll
 0002:00000620       __imp_?AfxCoreInitModule@@YGXXZ 10022620     mfc120u:mfc120u.dll
 0002:00000624       __imp_?AfxTermExtensionModule@@YGXAAUAFX_EXTENSION_MODULE@@H@Z 10022624     mfc120u:mfc120u.dll
 0002:00000628       __imp_?AfxInitExtensionModule@@YGHAAUAFX_EXTENSION_MODULE@@PAUHINSTANCE__@@@Z 10022628     mfc120u:mfc120u.dll
 0002:0000062c       __imp_??0CDynLinkLibrary@@QAE@AAUAFX_EXTENSION_MODULE@@H@Z 1002262c     mfc120u:mfc120u.dll
 0002:00000630       __imp_?AfxWinTerm@@YGXXZ   10022630     mfc120u:mfc120u.dll
 0002:00000634       __imp_?AfxTermThread@@YGXPAUHINSTANCE__@@@Z 10022634     mfc120u:mfc120u.dll
 0002:00000638       __imp_?AfxWndProc@@YGJPAUHWND__@@IIJ@Z 10022638     mfc120u:mfc120u.dll
 0002:0000063c       __imp_?AfxWinInit@@YGHPAUHINSTANCE__@@0PA_WH@Z 1002263c     mfc120u:mfc120u.dll
 0002:00000640       __imp_?AfxSetModuleState@@YGPAVAFX_MODULE_STATE@@PAV1@@Z 10022640     mfc120u:mfc120u.dll
 0002:00000644       __imp_??1AFX_MODULE_STATE@@UAE@XZ 10022644     mfc120u:mfc120u.dll
 0002:00000648       __imp_??0AFX_MODULE_STATE@@QAE@HP6GJPAUHWND__@@IIJ@ZKH@Z 10022648     mfc120u:mfc120u.dll
 0002:0000064c       __imp_??3CNoTrackObject@@SGXPAX@Z 1002264c     mfc120u:mfc120u.dll
 0002:00000650       __imp_?ExitInstance@CWinApp@@UAEHXZ 10022650     mfc120u:mfc120u.dll
 0002:00000654       __imp_?GetRuntimeClass@CWinApp@@UBEPAUCRuntimeClass@@XZ 10022654     mfc120u:mfc120u.dll
 0002:00000658       __imp_??3@YAXPAX@Z         10022658     mfc120u:mfc120u.dll
 0002:0000065c       \177mfc120u_NULL_THUNK_DATA 1002265c     mfc120u:mfc120u.dll
 0002:00000660       __imp__CoCreateGuid@4      10022660     ole32:ole32.dll
 0002:00000664       __imp__CoCreateInstance@20 10022664     ole32:ole32.dll
 0002:00000668       \177ole32_NULL_THUNK_DATA  10022668     ole32:ole32.dll
 0002:0000066c       __imp__sqlite3_column_blob 1002266c     sqlite3:sqlite3.dll
 0002:00000670       __imp__sqlite3_column_name16 10022670     sqlite3:sqlite3.dll
 0002:00000674       __imp__sqlite3_column_decltype16 10022674     sqlite3:sqlite3.dll
 0002:00000678       __imp__sqlite3_column_type 10022678     sqlite3:sqlite3.dll
 0002:0000067c       __imp__sqlite3_column_count 1002267c     sqlite3:sqlite3.dll
 0002:00000680       __imp__sqlite3_column_bytes16 10022680     sqlite3:sqlite3.dll
 0002:00000684       __imp__sqlite3_prepare16   10022684     sqlite3:sqlite3.dll
 0002:00000688       __imp__sqlite3_busy_timeout 10022688     sqlite3:sqlite3.dll
 0002:0000068c       __imp__sqlite3_finalize    1002268c     sqlite3:sqlite3.dll
 0002:00000690       __imp__sqlite3_step        10022690     sqlite3:sqlite3.dll
 0002:00000694       __imp__sqlite3_close       10022694     sqlite3:sqlite3.dll
 0002:00000698       __imp__sqlite3_errmsg16    10022698     sqlite3:sqlite3.dll
 0002:0000069c       __imp__sqlite3_open16      1002269c     sqlite3:sqlite3.dll
 0002:000006a0       __imp__sqlite3_column_double 100226a0     sqlite3:sqlite3.dll
 0002:000006a4       __imp__sqlite3_column_int  100226a4     sqlite3:sqlite3.dll
 0002:000006a8       __imp__sqlite3_column_text16 100226a8     sqlite3:sqlite3.dll
 0002:000006ac       \177sqlite3_NULL_THUNK_DATA 100226ac     sqlite3:sqlite3.dll
 0002:000006b0       ___xc_a                    100226b0     msvcrt:cinitexe.obj
 0002:000006d8       ___xc_z                    100226d8     msvcrt:cinitexe.obj
 0002:000006dc       ___xi_a                    100226dc     msvcrt:cinitexe.obj
 0002:000006e8       ___xi_z                    100226e8     msvcrt:cinitexe.obj
 0002:00000728       __pActualRawDllMain        10022728     mfcs120u:dllmodul.obj
 0002:00000730       ??_7_AFX_DLL_MODULE_STATE@@6B@ 10022730     mfcs120u:dllmodul.obj
 0002:00000738       ??_7type_info@@6B@         10022738     msvcrt:ti_inst.obj
 0002:00000744       __pDefaultRawDllMain       10022744     msvcrt:crtdll.obj
 0002:00000748       _IID_IShellLinkW           10022748     shell32:shguid.obj
 0002:00000758       _CLSID_ShellLink           10022758     uuid:shguids2.obj
 0002:00000768       _IID_IPersistFile          10022768     uuid:objidl_i.obj
 0002:00000778       _GUID_NULL                 10022778     uuid:cguid_i.obj
 0002:00000788       _GUID_ATLVer110            10022788     atls:atlbase.obj
 0002:00000798       ??_C@_1IC@ONKHOIDK@?$AAE?$AAR?$AAR?$AAO?$AAR?$AA?5?$AA?3?$AA?5?$AAU?$AAn?$AAa?$AAb?$AAl?$AAe?$AA?5?$AAt?$AAo?$AA?5?$AAi?$AAn?$AAi?$AAt?$AAi?$AAa?$AAl?$AAi?$AAz?$AAe?$AA?5?$AAc?$AAr?$AAi@ 10022798     atls:atlbase.obj
 0002:0000081c       __pRawDllMain              1002281c     mfcs120u:rawdllmainproxy.obj
 0002:00000824       ??_7CBaronow23App@@6B@     10022824     Baronow23.obj
 0002:0000095c       ??_C@_1BG@GPNNHEBD@?$AA?$CF?$AAs?$AA?$FL?$AA?$CF?$AAd?$AA?$FN?$AA?3?$AA?5?$AA?$CF?$AAs?$AA?$AA@ 1002295c     CppSQLite3U.obj
 0002:00000974       ??_C@_15GANGMFKL@?$AA?$CF?$AAs?$AA?$AA@ 10022974     CppSQLite3U.obj
 0002:0000097c       ??_C@_1BE@OOIBLOOJ@?$AAS?$AAQ?$AAL?$AAI?$AAT?$AAE?$AA_?$AAO?$AAK?$AA?$AA@ 1002297c     CppSQLite3U.obj
 0002:00000990       ??_C@_1BK@NBKABJKD@?$AAS?$AAQ?$AAL?$AAI?$AAT?$AAE?$AA_?$AAE?$AAR?$AAR?$AAO?$AAR?$AA?$AA@ 10022990     CppSQLite3U.obj
 0002:000009ac       ??_C@_1CA@FFIAAJKJ@?$AAS?$AAQ?$AAL?$AAI?$AAT?$AAE?$AA_?$AAI?$AAN?$AAT?$AAE?$AAR?$AAN?$AAA?$AAL?$AA?$AA@ 100229ac     CppSQLite3U.obj
 0002:000009cc       ??_C@_1BI@OKIKFKJG@?$AAS?$AAQ?$AAL?$AAI?$AAT?$AAE?$AA_?$AAP?$AAE?$AAR?$AAM?$AA?$AA@ 100229cc     CppSQLite3U.obj
 0002:000009e4       ??_C@_1BK@IIJFMJFH@?$AAS?$AAQ?$AAL?$AAI?$AAT?$AAE?$AA_?$AAA?$AAB?$AAO?$AAR?$AAT?$AA?$AA@ 100229e4     CppSQLite3U.obj
 0002:00000a00       ??_C@_1BI@KBENCJAF@?$AAS?$AAQ?$AAL?$AAI?$AAT?$AAE?$AA_?$AAB?$AAU?$AAS?$AAY?$AA?$AA@ 10022a00     CppSQLite3U.obj
 0002:00000a18       ??_C@_1BM@JLCDJMHN@?$AAS?$AAQ?$AAL?$AAI?$AAT?$AAE?$AA_?$AAL?$AAO?$AAC?$AAK?$AAE?$AAD?$AA?$AA@ 10022a18     CppSQLite3U.obj
 0002:00000a34       ??_C@_1BK@HOBIPANN@?$AAS?$AAQ?$AAL?$AAI?$AAT?$AAE?$AA_?$AAN?$AAO?$AAM?$AAE?$AAM?$AA?$AA@ 10022a34     CppSQLite3U.obj
 0002:00000a50       ??_C@_1CA@KMJCKNCH@?$AAS?$AAQ?$AAL?$AAI?$AAT?$AAE?$AA_?$AAR?$AAE?$AAA?$AAD?$AAO?$AAN?$AAL?$AAY?$AA?$AA@ 10022a50     CppSQLite3U.obj
 0002:00000a70       ??_C@_1CC@PDABOOCG@?$AAS?$AAQ?$AAL?$AAI?$AAT?$AAE?$AA_?$AAI?$AAN?$AAT?$AAE?$AAR?$AAR?$AAU?$AAP?$AAT?$AA?$AA@ 10022a70     CppSQLite3U.obj
 0002:00000a94       ??_C@_1BK@MPMMHHAN@?$AAS?$AAQ?$AAL?$AAI?$AAT?$AAE?$AA_?$AAI?$AAO?$AAE?$AAR?$AAR?$AA?$AA@ 10022a94     CppSQLite3U.obj
 0002:00000ab0       ??_C@_1BO@BFHMGCP@?$AAS?$AAQ?$AAL?$AAI?$AAT?$AAE?$AA_?$AAC?$AAO?$AAR?$AAR?$AAU?$AAP?$AAT?$AA?$AA@ 10022ab0     CppSQLite3U.obj
 0002:00000ad0       ??_C@_1CA@KKDLPNLD@?$AAS?$AAQ?$AAL?$AAI?$AAT?$AAE?$AA_?$AAN?$AAO?$AAT?$AAF?$AAO?$AAU?$AAN?$AAD?$AA?$AA@ 10022ad0     CppSQLite3U.obj
 0002:00000af0       ??_C@_1BI@DNOBJOJM@?$AAS?$AAQ?$AAL?$AAI?$AAT?$AAE?$AA_?$AAF?$AAU?$AAL?$AAL?$AA?$AA@ 10022af0     CppSQLite3U.obj
 0002:00000b08       ??_C@_1CA@GACOEPKE@?$AAS?$AAQ?$AAL?$AAI?$AAT?$AAE?$AA_?$AAC?$AAA?$AAN?$AAT?$AAO?$AAP?$AAE?$AAN?$AA?$AA@ 10022b08     CppSQLite3U.obj
 0002:00000b28       ??_C@_1CA@PENHIOB@?$AAS?$AAQ?$AAL?$AAI?$AAT?$AAE?$AA_?$AAP?$AAR?$AAO?$AAT?$AAO?$AAC?$AAO?$AAL?$AA?$AA@ 10022b28     CppSQLite3U.obj
 0002:00000b48       ??_C@_1BK@PLDALBOC@?$AAS?$AAQ?$AAL?$AAI?$AAT?$AAE?$AA_?$AAE?$AAM?$AAP?$AAT?$AAY?$AA?$AA@ 10022b48     CppSQLite3U.obj
 0002:00000b64       ??_C@_1BM@JIOIMCPM@?$AAS?$AAQ?$AAL?$AAI?$AAT?$AAE?$AA_?$AAS?$AAC?$AAH?$AAE?$AAM?$AAA?$AA?$AA@ 10022b64     CppSQLite3U.obj
 0002:00000b80       ??_C@_1BM@KOMMCKBH@?$AAS?$AAQ?$AAL?$AAI?$AAT?$AAE?$AA_?$AAT?$AAO?$AAO?$AAB?$AAI?$AAG?$AA?$AA@ 10022b80     CppSQLite3U.obj
 0002:00000b9c       ??_C@_1CE@KMNJFMFN@?$AAS?$AAQ?$AAL?$AAI?$AAT?$AAE?$AA_?$AAC?$AAO?$AAN?$AAS?$AAT?$AAR?$AAA?$AAI?$AAN?$AAT?$AA?$AA@ 10022b9c     CppSQLite3U.obj
 0002:00000bc0       ??_C@_1CA@CDFINLLA@?$AAS?$AAQ?$AAL?$AAI?$AAT?$AAE?$AA_?$AAM?$AAI?$AAS?$AAM?$AAA?$AAT?$AAC?$AAH?$AA?$AA@ 10022bc0     CppSQLite3U.obj
 0002:00000be0       ??_C@_1BM@MKLNPMPJ@?$AAS?$AAQ?$AAL?$AAI?$AAT?$AAE?$AA_?$AAM?$AAI?$AAS?$AAU?$AAS?$AAE?$AA?$AA@ 10022be0     CppSQLite3U.obj
 0002:00000bfc       ??_C@_1BK@IEOAKCEB@?$AAS?$AAQ?$AAL?$AAI?$AAT?$AAE?$AA_?$AAN?$AAO?$AAL?$AAF?$AAS?$AA?$AA@ 10022bfc     CppSQLite3U.obj
 0002:00000c18       ??_C@_1BI@LPNKJCEE@?$AAS?$AAQ?$AAL?$AAI?$AAT?$AAE?$AA_?$AAA?$AAU?$AAT?$AAH?$AA?$AA@ 10022c18     CppSQLite3U.obj
 0002:00000c30       ??_C@_1BM@IMJPLADO@?$AAS?$AAQ?$AAL?$AAI?$AAT?$AAE?$AA_?$AAF?$AAO?$AAR?$AAM?$AAA?$AAT?$AA?$AA@ 10022c30     CppSQLite3U.obj
 0002:00000c4c       ??_C@_1BK@GPDAOOBE@?$AAS?$AAQ?$AAL?$AAI?$AAT?$AAE?$AA_?$AAR?$AAA?$AAN?$AAG?$AAE?$AA?$AA@ 10022c4c     CppSQLite3U.obj
 0002:00000c68       ??_C@_1BG@IJJAGJFI@?$AAS?$AAQ?$AAL?$AAI?$AAT?$AAE?$AA_?$AAR?$AAO?$AAW?$AA?$AA@ 10022c68     CppSQLite3U.obj
 0002:00000c80       ??_C@_1BI@OEKPINMD@?$AAS?$AAQ?$AAL?$AAI?$AAT?$AAE?$AA_?$AAD?$AAO?$AAN?$AAE?$AA?$AA@ 10022c80     CppSQLite3U.obj
 0002:00000c98       ??_C@_1CA@MFDBBNPM@?$AAC?$AAP?$AAP?$AAS?$AAQ?$AAL?$AAI?$AAT?$AAE?$AA_?$AAE?$AAR?$AAR?$AAO?$AAR?$AA?$AA@ 10022c98     CppSQLite3U.obj
 0002:00000cb8       ??_C@_1BM@NDPPCEAK@?$AAU?$AAN?$AAK?$AAN?$AAO?$AAW?$AAN?$AA_?$AAE?$AAR?$AAR?$AAO?$AAR?$AA?$AA@ 10022cb8     CppSQLite3U.obj
 0002:00000cd4       ??_C@_1CE@DEBEEHPP@?$AAD?$AAa?$AAt?$AAa?$AAb?$AAa?$AAs?$AAe?$AA?5?$AAn?$AAo?$AAt?$AA?5?$AAo?$AAp?$AAe?$AAn?$AA?$AA@ 10022cd4     CppSQLite3U.obj
 0002:00000cf8       ??_C@_1DK@KLPLIGKF@?$AAN?$AAu?$AAl?$AAl?$AA?5?$AAV?$AAi?$AAr?$AAt?$AAu?$AAa?$AAl?$AA?5?$AAM?$AAa?$AAc?$AAh?$AAi?$AAn?$AAe?$AA?5?$AAp?$AAo?$AAi?$AAn?$AAt?$AAe?$AAr?$AA?$AA@ 10022cf8     CppSQLite3U.obj
 0002:00000d34       ??_C@_1DM@GLIPCMHE@?$AAI?$AAn?$AAv?$AAa?$AAl?$AAi?$AAd?$AA?5?$AAf?$AAi?$AAe?$AAl?$AAd?$AA?5?$AAi?$AAn?$AAd?$AAe?$AAx?$AA?5?$AAr?$AAe?$AAq?$AAu?$AAe?$AAs?$AAt?$AAe?$AAd?$AA?$AA@ 10022d34     CppSQLite3U.obj
 0002:00000d70       ??_C@_1DK@BAIPGNB@?$AAI?$AAn?$AAv?$AAa?$AAl?$AAi?$AAd?$AA?5?$AAf?$AAi?$AAe?$AAl?$AAd?$AA?5?$AAn?$AAa?$AAm?$AAe?$AA?5?$AAr?$AAe?$AAq?$AAu?$AAe?$AAs?$AAt?$AAe?$AAd?$AA?$AA@ 10022d70     CppSQLite3U.obj
 0002:00000db0       ??_7CppSqlite3Query@@6B@   10022db0     CppSQLite3U.obj
 0002:00000db8       ??_7CppSqlite3DB@@6B@      10022db8     CppSQLite3U.obj
 0002:00000dbc       ??_C@_11LOCGONAA@?$AA?$AA@ 10022dbc     CppSQLite3U.obj
 0002:00000dc4       ??_7CppSqlite3Exception@@6B@ 10022dc4     CppSQLite3U.obj
 0002:00000dc8       ??_C@_1FO@GBKEFGLF@?$AAM?$AAi?$AAc?$AAr?$AAo?$AAs?$AAo?$AAf?$AAt?$AA?5?$AAE?$AAn?$AAh?$AAa?$AAn?$AAc?$AAe?$AAd?$AA?5?$AAC?$AAr?$AAy?$AAp?$AAt?$AAo?$AAg?$AAr?$AAa?$AAp?$AAh?$AAi?$AAc@ 10022dc8     crypt.obj
 0002:00000e2c       ??_7?$TBuffer@D@baro@@6B@  10022e2c     crypt.obj
 0002:00000e34       ??_7?$TBuffer@_W@baro@@6B@ 10022e34     crypt.obj
 0002:00000e38       ??_C@_00CNPNBAHC@?$AA@     10022e38     crypt.obj
 0002:00000e3c       ??_C@_19CFMCKEMN@?$AA?2?$AA?$CK?$AA?4?$AA?$CK?$AA?$AA@ 10022e3c     file.obj
 0002:00000e48       ??_C@_1M@DFKENGJN@?$AA?$CF?$AAs?$AA?2?$AA?$CF?$AAs?$AA?$AA@ 10022e48     file.obj
 0002:00000e54       ??_C@_13JOFGPIOO@?$AA?4?$AA?$AA@ 10022e54     file.obj
 0002:00000e58       ??_C@_15DDHGOCBH@?$AA?4?$AA?4?$AA?$AA@ 10022e58     file.obj
 0002:00000e60       ??_C@_1O@JHBEEBGH@?$AA?$CF?$AAs?$AA?$CI?$AA?$CF?$AAd?$AA?$CJ?$AA?$AA@ 10022e60     file.obj
 0002:00000e70       ??_C@_1BC@LJIHGCAI@?$AA?$CF?$AAs?$AA?$CI?$AA?$CF?$AAd?$AA?$CJ?$AA?$CF?$AAs?$AA?$AA@ 10022e70     file.obj
 0002:00000e84       ??_C@_15KIOHKAAB@?$AA?$CK?$AA?4?$AA?$AA@ 10022e84     file.obj
 0002:00000e8c       ??_C@_13BBDEGPLJ@?$AA?$CK?$AA?$AA@ 10022e8c     file.obj
 0002:00000e90       ??_C@_1BA@KDMGPDJH@?$AAu?$AAn?$AAk?$AAn?$AAo?$AAw?$AAn?$AA?$AA@ 10022e90     file.obj
 0002:00000ea0       ??_C@_1BI@FCMLLAGN@?$AA?$CF?$AAd?$AA?4?$AA?$CF?$AAd?$AA?4?$AA?$CF?$AAd?$AA?4?$AA?$CF?$AAd?$AA?$AA@ 10022ea0     file.obj
 0002:00000ebc       ??_7?$_Func_impl@U?$_Callable_obj@V<lambda_92ae8a6edb3cc5c1e2896be211724754>@@$0A@@std@@V?$allocator@V?$_Func_class@XV?$CStringT@_WV?$StrTraitMFC_DLL@_WV?$ChTraitsCRT@_W@ATL@@@@@ATL@@AAV?$vector@V?$CStringT@_WV?$StrTraitMFC_DLL@_WV?$ChTraitsCRT@_W@ATL@@@@@ATL@@V?$allocator@V?$CStringT@_WV?$StrTraitMFC_DLL@_WV?$ChTraitsCRT@_W@ATL@@@@@ATL@@@std@@@std@@@std@@@2@XV?$CStringT@_WV?$StrTraitMFC_DLL@_WV?$ChTraitsCRT@_W@ATL@@@@@ATL@@AAV?$vector@V?$CStringT@_WV?$StrTraitMFC_DLL@_WV?$ChTraitsCRT@_W@ATL@@@@@ATL@@V?$allocator@V?$CStringT@_WV?$StrTraitMFC_DLL@_WV?$ChTraitsCRT@_W@ATL@@@@@ATL@@@std@@@2@@std@@6B@ 10022ebc     file.obj
 0002:00000edc       ??_7?$_Func_base@XV?$CStringT@_WV?$StrTraitMFC_DLL@_WV?$ChTraitsCRT@_W@ATL@@@@@ATL@@AAV?$vector@V?$CStringT@_WV?$StrTraitMFC_DLL@_WV?$ChTraitsCRT@_W@ATL@@@@@ATL@@V?$allocator@V?$CStringT@_WV?$StrTraitMFC_DLL@_WV?$ChTraitsCRT@_W@ATL@@@@@ATL@@@std@@@std@@@std@@6B@ 10022edc     file.obj
 0002:00000ef8       ??_C@_0BD@OLBABOEK@vector?$DMT?$DO?5too?5long?$AA@ 10022ef8     file.obj
 0002:00000f0c       ??_C@_13HOIJIPNN@?$AA?5?$AA?$AA@ 10022f0c     file.obj
 0002:00000f10       ??_C@_13FPGAJAPJ@?$AA?2?$AA?$AA@ 10022f10     file.obj
 0002:00000f14       ??_C@_17LGKOMLJ@?$AA?4?$AA?4?$AA?4?$AA?$AA@ 10022f14     gdi.obj
 0002:00000f1c       ??_C@_0BI@CFPLBAOH@invalid?5string?5position?$AA@ 10022f1c     gdi.obj
 0002:00000f34       ??_C@_0BA@JFNIOLAK@string?5too?5long?$AA@ 10022f34     gdi.obj
 0002:00000f48       ??_7CGdiObject@@6B@        10022f48     gdi.obj
 0002:00000f5c       ??_C@_1BM@OLJBNBGC@?$AA?$CF?$AAs?$AA?5?$AA?$CI?$AA?$CF?$AAs?$AA?3?$AA?$CF?$AAd?$AA?$CJ?$AA?6?$AA?$CF?$AAs?$AA?$AA@ 10022f5c     gdi.obj
 0002:00000f78       ??_C@_1KE@LHEIJHIM@?$AAC?$AA?3?$AA?2?$AAP?$AAr?$AAo?$AAg?$AAr?$AAa?$AAm?$AA?5?$AAF?$AAi?$AAl?$AAe?$AAs?$AA?5?$AA?$CI?$AAx?$AA8?$AA6?$AA?$CJ?$AA?2?$AAM?$AAi?$AAc?$AAr?$AAo?$AAs?$AAo?$AAf?$AAt@ 10022f78     gdi.obj
 0002:0000101c       ??_C@_1DO@DFDGGJKE@?$AAE?$AAx?$AAc?$AAe?$AAp?$AAt?$AAi?$AAo?$AAn?$AA?5?$AAt?$AAh?$AAr?$AAo?$AAw?$AAn?$AA?5?$AAi?$AAn?$AA?5?$AAd?$AAe?$AAs?$AAt?$AAr?$AAu?$AAc?$AAt?$AAo?$AAr?$AA?$AA@ 1002301c     gdi.obj
 0002:0000105c       ??_C@_1BG@FHMKPHGG@?$AA?$CF?$AAs?$AA?5?$AA?$CI?$AA?$CF?$AAs?$AA?3?$AA?$CF?$AAd?$AA?$CJ?$AA?$AA@ 1002305c     gdi.obj
 0002:00001078       ??_7CPen@@6B@              10023078     gdi.obj
 0002:0000108c       ??_C@_1BK@JONBILKO@?$AA?2?$AAD?$AAe?$AAf?$AAa?$AAu?$AAl?$AAt?$AAI?$AAc?$AAo?$AAn?$AA?$AA@ 1002308c     image.obj
 0002:000010a8       ??_C@_1BI@BNFKGMFK@?$AAs?$AAh?$AAe?$AAl?$AAl?$AA3?$AA2?$AA?4?$AAd?$AAl?$AAl?$AA?$AA@ 100230a8     image.obj
 0002:000010c0       ??_C@_1BE@HLDDDEJK@?$AAi?$AAm?$AAa?$AAg?$AAe?$AA?1?$AAp?$AAn?$AAg?$AA?$AA@ 100230c0     image.obj
 0002:000010d8       ??_7Bitmap@Gdiplus@@6B@    100230d8     image.obj
 0002:000010e4       ??_7Image@Gdiplus@@6B@     100230e4     image.obj
 0002:000010ec       ??_C@_15LHNHECKK@?$AA?$CF?$AAx?$AA?$AA@ 100230ec     registry.obj
 0002:000010f4       ??_C@_1DE@LDLCAIEB@?$AA?$CF?$AA0?$AA4?$AAd?$AA?$CF?$AA0?$AA2?$AAd?$AA?$CF?$AA0?$AA2?$AAd?$AA_?$AA?$CF?$AA0?$AA2?$AAd?$AA?$CF?$AA0?$AA2?$AAd?$AA?$CF?$AA0?$AA2?$AAd?$AA?$AA@ 100230f4     string.obj
 0002:00001128       ??_C@_1BA@LEPJIIOK@?$AAU?$AAn?$AAk?$AAn?$AAo?$AAw?$AAn?$AA?$AA@ 10023128     string.obj
 0002:00001138       ??_C@_15GNHNPEDO@?$AAG?$AAB?$AA?$AA@ 10023138     string.obj
 0002:00001140       ??_C@_15MMOGNHFI@?$AAM?$AAB?$AA?$AA@ 10023140     string.obj
 0002:00001148       ??_C@_15BKLPDEEF@?$AAK?$AAB?$AA?$AA@ 10023148     string.obj
 0002:00001150       ??_C@_1M@FLIHLAFM@?$AAB?$AAy?$AAt?$AAe?$AAs?$AA?$AA@ 10023150     string.obj
 0002:0000115c       ??_C@_1BC@HKGBEILF@?$AA?$CF?$AA?4?$AA2?$AAl?$AAf?$AA?5?$AA?$CF?$AAs?$AA?$AA@ 1002315c     string.obj
 0002:00001170       ??_C@_1BA@HDHLEBDH@?$AA?$CF?$AA?4?$AA2?$AAl?$AAf?$AA?$CF?$AAs?$AA?$AA@ 10023170     string.obj
 0002:00001180       ??_C@_15FMBEJGOH@?$AAO?$AAk?$AA?$AA@ 10023180     string.obj
 0002:00001188       ??_C@_1BK@KFGJEPKJ@?$AAG?$AAe?$AAn?$AAe?$AAr?$AAi?$AAc?$AAE?$AAr?$AAr?$AAo?$AAr?$AA?$AA@ 10023188     string.obj
 0002:000011a4       ??_C@_1CC@EJIMNKEC@?$AAI?$AAn?$AAv?$AAa?$AAl?$AAi?$AAd?$AAP?$AAa?$AAr?$AAa?$AAm?$AAe?$AAt?$AAe?$AAr?$AA?$AA@ 100231a4     string.obj
 0002:000011c8       ??_C@_1BI@KFOIKKJF@?$AAO?$AAu?$AAt?$AAO?$AAf?$AAM?$AAe?$AAm?$AAo?$AAr?$AAy?$AA?$AA@ 100231c8     string.obj
 0002:000011e0       ??_C@_1BG@CABAGGCO@?$AAO?$AAb?$AAj?$AAe?$AAc?$AAt?$AAB?$AAu?$AAs?$AAy?$AA?$AA@ 100231e0     string.obj
 0002:000011f8       ??_C@_1CG@DHFIMKPL@?$AAI?$AAn?$AAs?$AAu?$AAf?$AAf?$AAi?$AAc?$AAi?$AAe?$AAn?$AAt?$AAB?$AAu?$AAf?$AAf?$AAe?$AAr?$AA?$AA@ 100231f8     string.obj
 0002:00001220       ??_C@_1BO@PNDJEODI@?$AAN?$AAo?$AAt?$AAI?$AAm?$AAp?$AAl?$AAe?$AAm?$AAe?$AAn?$AAt?$AAe?$AAd?$AA?$AA@ 10023220     string.obj
 0002:00001240       ??_C@_1BG@GGBNHJNB@?$AAW?$AAi?$AAn?$AA3?$AA2?$AAE?$AAr?$AAr?$AAo?$AAr?$AA?$AA@ 10023240     string.obj
 0002:00001258       ??_C@_1BG@IBJAEDEN@?$AAW?$AAr?$AAo?$AAn?$AAg?$AAS?$AAt?$AAa?$AAt?$AAe?$AA?$AA@ 10023258     string.obj
 0002:00001270       ??_C@_1BA@JCPMFPEO@?$AAA?$AAb?$AAo?$AAr?$AAt?$AAe?$AAd?$AA?$AA@ 10023270     string.obj
 0002:00001280       ??_C@_1BK@PJPIOKGC@?$AAF?$AAi?$AAl?$AAe?$AAN?$AAo?$AAt?$AAF?$AAo?$AAu?$AAn?$AAd?$AA?$AA@ 10023280     string.obj
 0002:0000129c       ??_C@_1BM@DDNMPPNH@?$AAV?$AAa?$AAl?$AAu?$AAe?$AAO?$AAv?$AAe?$AAr?$AAf?$AAl?$AAo?$AAw?$AA?$AA@ 1002329c     string.obj
 0002:000012b8       ??_C@_1BK@FNLEENAF@?$AAA?$AAc?$AAc?$AAe?$AAs?$AAs?$AAD?$AAe?$AAn?$AAi?$AAe?$AAd?$AA?$AA@ 100232b8     string.obj
 0002:000012d4       ??_C@_1CG@CADFDLAB@?$AAU?$AAn?$AAk?$AAn?$AAo?$AAw?$AAn?$AAI?$AAm?$AAa?$AAg?$AAe?$AAF?$AAo?$AAr?$AAm?$AAa?$AAt?$AA?$AA@ 100232d4     string.obj
 0002:000012fc       ??_C@_1CG@OCBCLAJD@?$AAF?$AAo?$AAn?$AAt?$AAF?$AAa?$AAm?$AAi?$AAl?$AAy?$AAN?$AAo?$AAt?$AAF?$AAo?$AAu?$AAn?$AAd?$AA?$AA@ 100232fc     string.obj
 0002:00001324       ??_C@_1CE@LNHPMMGM@?$AAF?$AAo?$AAn?$AAt?$AAS?$AAt?$AAy?$AAl?$AAe?$AAN?$AAo?$AAt?$AAF?$AAo?$AAu?$AAn?$AAd?$AA?$AA@ 10023324     string.obj
 0002:00001348       ??_C@_1CA@BOGAIJKH@?$AAN?$AAo?$AAt?$AAT?$AAr?$AAu?$AAe?$AAT?$AAy?$AAp?$AAe?$AAF?$AAo?$AAn?$AAt?$AA?$AA@ 10023348     string.obj
 0002:00001368       ??_C@_1DE@IBBLHNOG@?$AAU?$AAn?$AAs?$AAu?$AAp?$AAp?$AAo?$AAr?$AAt?$AAe?$AAd?$AAG?$AAd?$AAi?$AAp?$AAl?$AAu?$AAs?$AAV?$AAe?$AAr?$AAs?$AAi?$AAo?$AAn?$AA?$AA@ 10023368     string.obj
 0002:0000139c       ??_C@_1CM@NFINLEPP@?$AAG?$AAd?$AAi?$AAp?$AAl?$AAu?$AAs?$AAN?$AAo?$AAt?$AAI?$AAn?$AAi?$AAt?$AAi?$AAa?$AAl?$AAi?$AAz?$AAe?$AAd?$AA?$AA@ 1002339c     string.obj
 0002:000013c8       ??_C@_1CC@FBCMADPG@?$AAP?$AAr?$AAo?$AAp?$AAe?$AAr?$AAt?$AAy?$AAN?$AAo?$AAt?$AAF?$AAo?$AAu?$AAn?$AAd?$AA?$AA@ 100233c8     string.obj
 0002:000013ec       ??_C@_1CK@BKKCOCEN@?$AAP?$AAr?$AAo?$AAp?$AAe?$AAr?$AAt?$AAy?$AAN?$AAo?$AAt?$AAS?$AAu?$AAp?$AAp?$AAo?$AAr?$AAt?$AAe?$AAd?$AA?$AA@ 100233ec     string.obj
 0002:00001418       ??_C@_1GG@FCALANDO@?$AA?$HL?$AA?$CF?$AA0?$AA8?$AAX?$AA?9?$AA?$CF?$AA0?$AA4?$AAX?$AA?9?$AA?$CF?$AA0?$AA4?$AAX?$AA?9?$AA?$CF?$AA0?$AA2?$AAX?$AA?$CF?$AA0?$AA2?$AAX?$AA?9?$AA?$CF?$AA0?$AA2?$AAX?$AA?$CF?$AA0?$AA2@ 10023418     string.obj
 0002:00001480       ??_C@_15KEILFEKI@?F$?H?$AE?$AA?$AA@ 10023480     string.obj
 0002:00001488       ??_C@_1BK@OLKEAGNM@?$AA?$CF?$AAs?$AA?5?$AA?$CF?$AA0?$AA2?$AAd?$AA?3?$AA?$CF?$AA0?$AA2?$AAd?$AA?$AA@ 10023488     string.obj
 0002:000014a4       ??_C@_15KHLOHDC@?F$?$LC?$JI?$AA?$AA@ 100234a4     string.obj
 0002:000014ac       ??_C@_1M@MOFLFCEC@?$AA?$CF?$AAs?$AA?5?$AA?$CF?$AAs?$AA?$AA@ 100234ac     string.obj
 0002:000014b8       ??_C@_1BK@OJPLECFE@?F$?H?$AE?$AA?5?$AA?$CF?$AA0?$AA2?$AAd?$AA?3?$AA?$CF?$AA0?$AA2?$AAd?$AA?$AA@ 100234b8     string.obj
 0002:000014d4       ??_C@_1BK@GOJPPKJL@?F$?V?D?$AA?5?$AA?$CF?$AA0?$AA2?$AAd?$AA?3?$AA?$CF?$AA0?$AA2?$AAd?$AA?$AA@ 100234d4     string.obj
 0002:000014f0       ??_C@_15KNPLLHDC@?$LM?$CJ?$KO?$AI?$AA?$AA@ 100234f0     string.obj
 0002:000014f8       ??_C@_1M@FNBFMBKL@?$AA?$CF?$AAd?$LN?$IE?$AA?5?H?$AE?$AA?$AA@ 100234f8     string.obj
 0002:00001504       ??_C@_1BI@DMMLAHAG@?$AA?$CF?$AAd?$LBD?$AA?5?$AA?$CF?$AAd?F?T?$AA?5?$AA?$CF?$AAd?G?$HM?$AA?$AA@ 10023504     string.obj
 0002:0000151c       ??_C@_1BG@HOKLKAPJ@?$AA?$CF?$AAs?$AA?5?$AA?$CF?$AAd?$AA?3?$AA?$CF?$AA0?$AA2?$AAd?$AA?$AA@ 1002351c     string.obj
 0002:00001534       ??_C@_15MEHODENE@?F$?V?D?$AA?$AA@ 10023534     string.obj
 0002:00001540       ??_C@_1EG@LLAKIBL@?$AA?$CF?$AA0?$AA4?$AAd?$AA?9?$AA?$CF?$AA0?$AA2?$AAd?$AA?9?$AA?$CF?$AA0?$AA2?$AAd?$AA?5?$AA?$CF?$AA0?$AA2?$AAd?$AA?3?$AA?$CF?$AA0?$AA2?$AAd?$AA?3?$AA?$CF?$AA0?$AA2?$AAd?$AA?4?$AA?$CF?$AA0@ 10023540     string.obj
 0002:00001588       ??_C@_1BA@EFMEIEBA@?$AAJ?$AAa?$AAn?$AAu?$AAa?$AAr?$AAy?$AA?$AA@ 10023588     string.obj
 0002:00001598       ??_C@_1BC@JGDDFFAM@?$AAF?$AAe?$AAb?$AAr?$AAu?$AAa?$AAr?$AAy?$AA?$AA@ 10023598     string.obj
 0002:000015ac       ??_C@_1M@IKEENEDF@?$AAM?$AAa?$AAr?$AAc?$AAh?$AA?$AA@ 100235ac     string.obj
 0002:000015b8       ??_C@_1M@GJNLMHFD@?$AAA?$AAp?$AAr?$AAi?$AAl?$AA?$AA@ 100235b8     string.obj
 0002:000015c4       ??_C@_17PNNKMEED@?$AAM?$AAa?$AAy?$AA?$AA@ 100235c4     string.obj
 0002:000015cc       ??_C@_19EPFLPGAP@?$AAJ?$AAu?$AAn?$AAe?$AA?$AA@ 100235cc     string.obj
 0002:000015d8       ??_C@_19BIFMLPCD@?$AAJ?$AAu?$AAl?$AAy?$AA?$AA@ 100235d8     string.obj
 0002:000015e4       ??_C@_1O@PAHLKOAC@?$AAA?$AAu?$AAg?$AAu?$AAs?$AAt?$AA?$AA@ 100235e4     string.obj
 0002:000015f4       ??_C@_1BC@MJLOGIIH@?$AAS?$AAe?$AAt?$AAe?$AAm?$AAb?$AAe?$AAr?$AA?$AA@ 100235f4     string.obj
 0002:00001608       ??_C@_1BA@EPANDLNG@?$AAO?$AAc?$AAt?$AAo?$AAb?$AAe?$AAr?$AA?$AA@ 10023608     string.obj
 0002:00001618       ??_C@_1BC@BGLIFPF@?$AAN?$AAo?$AAv?$AAe?$AAm?$AAb?$AAe?$AAr?$AA?$AA@ 10023618     string.obj
 0002:0000162c       ??_C@_1BC@FEMKIFH@?$AAD?$AAe?$AAc?$AAe?$AAm?$AAb?$AAe?$AAr?$AA?$AA@ 1002362c     string.obj
 0002:00001640       ??_C@_17GGPMGCPJ@?$AAS?$AAU?$AAN?$AA?$AA@ 10023640     string.obj
 0002:00001648       ??_C@_17KNIAGABN@?$AAM?$AAO?$AAN?$AA?$AA@ 10023648     string.obj
 0002:00001650       ??_C@_17LLDIOMOB@?$AAT?$AAU?$AAE?$AA?$AA@ 10023650     string.obj
 0002:00001658       ??_C@_17IONNIOPM@?$AAW?$AAE?$AAD?$AA?$AA@ 10023658     string.obj
 0002:00001660       ??_C@_17FEGJKKDL@?$AAT?$AAH?$AAU?$AA?$AA@ 10023660     string.obj
 0002:00001668       ??_C@_17NCHFFFLH@?$AAF?$AAR?$AAI?$AA?$AA@ 10023668     string.obj
 0002:00001670       ??_C@_17MBBPJFIP@?$AAS?$AAA?$AAT?$AA?$AA@ 10023670     string.obj
 0002:00001678       ??_C@_19GGGBJDH@?$AA?$CF?$AA0?$AA3?$AAd?$AA?$AA@ 10023678     string.obj
 0002:00001684       ??_C@_19MNDKMKJC@?$AA?$CF?$AA0?$AA2?$AAd?$AA?$AA@ 10023684     string.obj
 0002:00001690       ??_C@_13DEFPDAGF@?$AA?0?$AA?$AA@ 10023690     string.obj
 0002:00001694       ??_C@_13IMODFHAA@?$AA?9?$AA?$AA@ 10023694     string.obj
 0002:00001698       ??_C@_15KNBIKKIN@?$AA?$CF?$AAd?$AA?$AA@ 10023698     string.obj
 0002:000016a0       ??_C@_1FK@EDIIEKBJ@?$AAS?$AAO?$AAF?$AAT?$AAW?$AAA?$AAR?$AAE?$AA?2?$AAM?$AAi?$AAc?$AAr?$AAo?$AAs?$AAo?$AAf?$AAt?$AA?2?$AAW?$AAi?$AAn?$AAd?$AAo?$AAw?$AAs?$AA?5?$AAN?$AAT?$AA?2?$AAC?$AAu@ 100236a0     system.obj
 0002:000016fc       ??_C@_1DE@FEFODBMC@?$AAC?$AAu?$AAr?$AAr?$AAe?$AAn?$AAt?$AAM?$AAa?$AAj?$AAo?$AAr?$AAV?$AAe?$AAr?$AAs?$AAi?$AAo?$AAn?$AAN?$AAu?$AAm?$AAb?$AAe?$AAr?$AA?$AA@ 100236fc     system.obj
 0002:00001730       ??_C@_1DE@LGPHMEDE@?$AAC?$AAu?$AAr?$AAr?$AAe?$AAn?$AAt?$AAM?$AAi?$AAn?$AAo?$AAr?$AAV?$AAe?$AAr?$AAs?$AAi?$AAo?$AAn?$AAN?$AAu?$AAm?$AAb?$AAe?$AAr?$AA?$AA@ 10023730     system.obj
 0002:00001764       ??_C@_1CG@HMPMFHA@?$AAC?$AAu?$AAr?$AAr?$AAe?$AAn?$AAt?$AAB?$AAu?$AAi?$AAl?$AAd?$AAN?$AAu?$AAm?$AAb?$AAe?$AAr?$AA?$AA@ 10023764     system.obj
 0002:00001790       ??_C@_1FA@PDHGNLDN@?$AA?$CF?$AA0?$AA2?$AAX?$AA?3?$AA?$CF?$AA0?$AA2?$AAX?$AA?3?$AA?$CF?$AA0?$AA2?$AAX?$AA?3?$AA?$CF?$AA0?$AA2?$AAX?$AA?3?$AA?$CF?$AA0?$AA2?$AAX?$AA?3?$AA?$CF?$AA0?$AA2?$AAX?$AA?3?$AA?$CF?$AA0@ 10023790     system.obj
 0002:000017e0       ??_C@_1BM@GLLFNEEF@?$AAS?$AAh?$AAe?$AAl?$AAl?$AA_?$AAT?$AAr?$AAa?$AAy?$AAW?$AAn?$AAd?$AA?$AA@ 100237e0     window.obj
 0002:000017fc       ??_C@_1BM@OHAPGOLP@?$AAT?$AAr?$AAa?$AAy?$AAN?$AAo?$AAt?$AAi?$AAf?$AAy?$AAW?$AAn?$AAd?$AA?$AA@ 100237fc     window.obj
 0002:0000181c       ??_7?$TBuffer@E@baro@@6B@  1002381c     A256B64.obj
 0002:00001820       ??_C@_1M@OLEMGGOE@?$AA?$CF?$AA0?$AA2?$AAX?$AA?5?$AA?$AA@ 10023820     CryptBuffer.obj
 0002:00001830       ??_7CryptBuffer@baro@@6B@  10023830     CryptBuffer.obj
 0002:00001838       ??_7CheckPointer@baro@@6B@ 10023838     CryptBuffer.obj
 0002:00001840       ??_7?$_Ref_count_obj@VCryptHandle@baro@@@std@@6B@ 10023840     CryptFactory.obj
 0002:00001854       ??_7_Ref_count_base@std@@6B@ 10023854     CryptFactory.obj
 0002:00001864       ??_C@_1CA@JLKLKCOM@?$AAB?$AAN?$AAS?$AAQ?$AAL?$AA_?$AAE?$AAR?$AAR?$AA_?$AAP?$AAA?$AAR?$AAA?$AAM?$AA?$AA@ 10023864     Sqlite.obj
 0002:00001884       ??_C@_1CE@PHCACMKF@?$AAS?$AAE?$AAL?$AAE?$AAC?$AAT?$AA?5?$AA?$CK?$AA?5?$AAF?$AAR?$AAO?$AAM?$AA?5?$AA?$CF?$AAs?$AA?$DL?$AA?$AA@ 10023884     Sqlite.obj
 0002:000018a8       ??_C@_1FM@GJMDHCPA@?$AAC?$AAR?$AAE?$AAA?$AAT?$AAE?$AA?5?$AAT?$AAA?$AAB?$AAL?$AAE?$AA?5?$AA?$CF?$AAs?$AA?$CI?$AA?$CF?$AAs?$AA?5?$AAN?$AAO?$AAT?$AA?5?$AAN?$AAU?$AAL?$AAL?$AA?5?$AAP?$AAR?$AAI?$AAM@ 100238a8     Sqlite.obj
 0002:00001904       ??_C@_1BO@LODMNBI@?$AAD?$AAR?$AAO?$AAP?$AA?5?$AAT?$AAA?$AAB?$AAL?$AAE?$AA?5?$AA?$CF?$AAs?$AA?$DL?$AA?$AA@ 10023904     Sqlite.obj
 0002:00001924       ??_C@_1CG@FKMIIPAJ@?$AAB?$AAE?$AAG?$AAI?$AAN?$AA?5?$AAT?$AAR?$AAA?$AAN?$AAS?$AAA?$AAC?$AAT?$AAI?$AAO?$AAN?$AA?$DL?$AA?$AA@ 10023924     Sqlite.obj
 0002:0000194c       ??_C@_1CI@PDNKBIGG@?$AAC?$AAO?$AAM?$AAM?$AAI?$AAT?$AA?5?$AAT?$AAR?$AAA?$AAN?$AAS?$AAA?$AAC?$AAT?$AAI?$AAO?$AAN?$AA?$DL?$AA?$AA@ 1002394c     Sqlite.obj
 0002:00001974       ??_C@_1CM@LGELBKDO@?$AAR?$AAO?$AAL?$AAL?$AAB?$AAA?$AAC?$AAK?$AA?5?$AAT?$AAR?$AAA?$AAN?$AAS?$AAA?$AAC?$AAT?$AAI?$AAO?$AAN?$AA?$DL?$AA?$AA@ 10023974     Sqlite.obj
 0002:000019a0       ??_C@_1CO@GNJEIBOE@?$AAA?$AAL?$AAT?$AAE?$AAR?$AA?5?$AAT?$AAA?$AAB?$AAL?$AAE?$AA?5?$AA?$CF?$AAs?$AA?5?$AAA?$AAD?$AAD?$AA?5?$AA?$CF?$AAs?$AA?$DL?$AA?$AA@ 100239a0     Sqlite.obj
 0002:000019d0       ??_C@_1DA@CLNCKCOK@?$AAA?$AAL?$AAT?$AAE?$AAR?$AA?5?$AAT?$AAA?$AAB?$AAL?$AAE?$AA?5?$AA?$CF?$AAs?$AA?5?$AAD?$AAR?$AAO?$AAP?$AA?5?$AA?$CF?$AAs?$AA?$DL?$AA?$AA@ 100239d0     Sqlite.obj
 0002:00001a00       ??_C@_1EA@DBNAOGO@?$AAI?$AAN?$AAS?$AAE?$AAR?$AAT?$AA?5?$AAI?$AAN?$AAT?$AAO?$AA?5?$AA?$CF?$AAs?$AA?$CI?$AA?$CF?$AAs?$AA?$CJ?$AA?5?$AAV?$AAA?$AAL?$AAU?$AAE?$AAS?$AA?5?$AA?$CI?$AA?$CF?$AAs?$AA?$CJ?$AA?$DL?$AA?$AA@ 10023a00     Sqlite.obj
 0002:00001a40       ??_C@_1CA@OFFILKAG@?$AAD?$AAE?$AAL?$AAE?$AAT?$AAE?$AA?5?$AAF?$AAR?$AAO?$AAM?$AA?5?$AA?$CF?$AAs?$AA?$DL?$AA?$AA@ 10023a40     Sqlite.obj
 0002:00001a60       ??_C@_1DG@EIPAHKDG@?$AAD?$AAE?$AAL?$AAE?$AAT?$AAE?$AA?5?$AAF?$AAR?$AAO?$AAM?$AA?5?$AA?$CF?$AAs?$AA?5?$AAW?$AAH?$AAE?$AAR?$AAE?$AA?5?$AA?$CI?$AA?$CF?$AAs?$AA?$CJ?$AA?$DL?$AA?$AA@ 10023a60     Sqlite.obj
 0002:00001a98       ??_C@_1DM@OLOOMBLN@?$AAS?$AAE?$AAL?$AAE?$AAC?$AAT?$AA?5?$AA?$CF?$AAs?$AA?5?$AAF?$AAR?$AAO?$AAM?$AA?5?$AA?$CF?$AAs?$AA?5?$AAW?$AAH?$AAE?$AAR?$AAE?$AA?5?$AA?$CI?$AA?$CF?$AAs?$AA?$CJ?$AA?$DL?$AA?$AA@ 10023a98     Sqlite.obj
 0002:00001ad4       ??_C@_1CG@NPOPOJJO@?$AAS?$AAE?$AAL?$AAE?$AAC?$AAT?$AA?5?$AA?$CF?$AAs?$AA?5?$AAF?$AAR?$AAO?$AAM?$AA?5?$AA?$CF?$AAs?$AA?$DL?$AA?$AA@ 10023ad4     Sqlite.obj
 0002:00001afc       ??_C@_1DG@PLCPMECF@?$AAU?$AAP?$AAD?$AAA?$AAT?$AAE?$AA?5?$AA?$CF?$AAs?$AA?5?$AAS?$AAE?$AAT?$AA?5?$AA?$CF?$AAs?$AA?5?$AAW?$AAH?$AAE?$AAR?$AAE?$AA?5?$AA?$CF?$AAs?$AA?$DL?$AA?$AA@ 10023afc     Sqlite.obj
 0002:00001b34       ??_C@_0BE@JONHPENG@map?1set?$DMT?$DO?5too?5long?$AA@ 10023b34     Sqlite.obj
 0002:00001b48       ??_C@_09JAGCLGJC@MsgThread?$AA@ 10023b48     MsgThread.obj
 0002:00001b54       ??_C@_1BE@JJHHOHLA@?$AAM?$AAs?$AAg?$AAT?$AAh?$AAr?$AAe?$AAa?$AAd?$AA?$AA@ 10023b54     MsgThread.obj
 0002:00001b68       ??_C@_1CC@FNECGJNP@?$AA?$FL?$AAI?$AAn?$AAt?$AAe?$AAr?$AAn?$AAe?$AAt?$AA?5?$AAS?$AAt?$AAa?$AAt?$AAe?$AA?$FN?$AA?$AA@ 10023b68     MsgThread.obj
 0002:00001b8c       ??_C@_1BG@EEGPDJAB@?$AA?5?$AAC?$AAo?$AAn?$AAn?$AAe?$AAc?$AAt?$AAe?$AAd?$AA?$AA@ 10023b8c     MsgThread.obj
 0002:00001ba4       ??_C@_1BC@DLHGGGBO@?$AA?5?$AA?$HM?$AA?5?$AAM?$AAo?$AAd?$AAe?$AAm?$AA?$AA@ 10023ba4     MsgThread.obj
 0002:00001bb8       ??_C@_1O@OLFOLKCI@?$AA?5?$AA?$HM?$AA?5?$AAL?$AAa?$AAn?$AA?$AA@ 10023bb8     MsgThread.obj
 0002:00001bc8       ??_C@_1BC@EGMIENIP@?$AA?5?$AA?$HM?$AA?5?$AAP?$AAr?$AAo?$AAx?$AAy?$AA?$AA@ 10023bc8     MsgThread.obj
 0002:00001bdc       ??_C@_1BM@CLAKCDCC@?$AA?5?$AA?$HM?$AA?5?$AAM?$AAo?$AAd?$AAe?$AAm?$AA?5?$AAB?$AAu?$AAs?$AAy?$AA?$AA@ 10023bdc     MsgThread.obj
 0002:00001bf8       ??_C@_1CC@FPEJIAJO@?$AA?5?$AA?$HM?$AA?5?$AAR?$AAa?$AAs?$AA?5?$AAI?$AAn?$AAs?$AAt?$AAa?$AAl?$AAl?$AAe?$AAd?$AA?$AA@ 10023bf8     MsgThread.obj
 0002:00001c1c       ??_C@_1BI@BHFHMOKM@?$AA?5?$AA?$HM?$AA?5?$AAO?$AAf?$AAf?$AA?9?$AAL?$AAi?$AAn?$AAe?$AA?$AA@ 10023c1c     MsgThread.obj
 0002:00001c34       ??_C@_1BM@HBLEABCH@?$AA?5?$AA?$HM?$AA?5?$AAC?$AAo?$AAn?$AAf?$AAi?$AAg?$AAu?$AAr?$AAe?$AAd?$AA?$AA@ 10023c34     MsgThread.obj
 0002:00001c50       ??_C@_1BM@HPNIGEMO@?$AA?5?$AAD?$AAi?$AAs?$AAc?$AAo?$AAn?$AAn?$AAe?$AAc?$AAt?$AAe?$AAd?$AA?$AA@ 10023c50     MsgThread.obj
 0002:00001c70       ??_7MsgProcedure@helper@baro@@6B@ 10023c70     MsgThread.obj
 0002:00001c94       ??_7MsgThread@baro@@6B@    10023c94     MsgThread.obj
 0002:00001d18       ?classMsgThread@MsgThread@baro@@2UCRuntimeClass@@B 10023d18     MsgThread.obj
 0002:00001d38       ??_7?$_Func_impl@U?$_Callable_obj@V<lambda_bbe7db543262a53344bc92964eb41292>@@$0A@@std@@V?$allocator@V?$_Func_class@_NAAVCFile@@@std@@@2@_NAAVCFile@@@std@@6B@ 10023d38     Stream.obj
 0002:00001d58       ??_7?$_Func_impl@U?$_Callable_obj@V<lambda_f8882b2bf4f22a473592eb1ff5482a78>@@$0A@@std@@V?$allocator@V?$_Func_class@_NAAVCFile@@@std@@@2@_NAAVCFile@@@std@@6B@ 10023d58     Stream.obj
 0002:00001d78       ??_7?$_Func_impl@U?$_Callable_obj@V<lambda_257dd9aa029b0bb95eaf18bd787825cc>@@$0A@@std@@V?$allocator@V?$_Func_class@_NAAVCFile@@@std@@@2@_NAAVCFile@@@std@@6B@ 10023d78     Stream.obj
 0002:00001d98       ??_7?$_Func_base@_NAAVCFile@@@std@@6B@ 10023d98     Stream.obj
 0002:00001db8       ??_7Stream@baro@@6B@       10023db8     Stream.obj
 0002:00001dbc       ??_C@_19NOBBBEJB@?$AAX?$AAX?$AAX?$AAX?$AA?$AA@ 10023dbc     Logger.obj
 0002:00001dc8       ??_C@_19CNMPAJGF@?$AA?9?$AA?9?$AA?9?$AA?9?$AA?$AA@ 10023dc8     Logger.obj
 0002:00001dd4       ??_C@_19BKMMBKI@?$AA?$CF?$AA0?$AA4?$AAx?$AA?$AA@ 10023dd4     Logger.obj
 0002:00001de0       ??_C@_1BE@NJKIEDKB@?$AA?3?$AA?3?$AA?$DM?$AAl?$AAa?$AAm?$AAb?$AAd?$AAa?$AA?$AA@ 10023de0     Logger.obj
 0002:00001df4       ??_C@_1DO@JLGOLKNE@?$AA?$CF?$AAs?$AA?3?$AA?3?$AA?$DM?$AAl?$AAa?$AAm?$AAb?$AAd?$AAa?$AA?$DO?$AA?3?$AA?3?$AAo?$AAp?$AAe?$AAr?$AAa?$AAt?$AAo?$AAr?$AA?5?$AA?$CI?$AA?$CJ?$AA?5?$AA?$CI?$AA?$CF?$AAd?$AA?$CJ?$AA?$AA@ 10023df4     Logger.obj
 0002:00001e34       ??_C@_1BA@FDFONNEJ@?$AA?$CF?$AAs?$AA?5?$AA?$CI?$AA?$CF?$AAd?$AA?$CJ?$AA?$AA@ 10023e34     Logger.obj
 0002:00001e44       ??_C@_13KDLDGPGJ@?$AA?7?$AA?$AA@ 10023e44     Logger.obj
 0002:00001e48       ??_C@_1FG@MEKADGBF@?$AA?$FL?$AA?$CF?$AA0?$AA8?$AAd?$AA?$FN?$AA?5?$AA?$CF?$AAs?$AA?5?$AA?$FL?$AA?$CF?$AA0?$AA2?$AAd?$AA?3?$AA?$CF?$AA0?$AA2?$AAd?$AA?3?$AA?$CF?$AA0?$AA2?$AAd?$AA?4?$AA?$CF?$AA0?$AA3?$AAd?$AA?$FN?$AA?5@ 10023e48     Logger.obj
 0002:00001ea0       ??_C@_13BPINEIPE@?$AAr?$AA?$AA@ 10023ea0     Logger.obj
 0002:00001ea4       ??_C@_1BA@BALFACEM@?$AAC?$AAO?$AAN?$AAO?$AAU?$AAT?$AA$?$AA?$AA@ 10023ea4     Logger.obj
 0002:00001eb4       ??_C@_13CIFDLIMG@?$AAw?$AA?$AA@ 10023eb4     Logger.obj
 0002:00001eb8       ??_C@_1M@KEDMPENM@?$AA?2?$AAL?$AAo?$AAg?$AA?2?$AA?$AA@ 10023eb8     Logger.obj
 0002:00001ec4       ??_C@_1DM@KMBPFIMA@?$AA?$CF?$AA0?$AA4?$AAd?$AA?$CF?$AA0?$AA2?$AAd?$AA?$CF?$AA0?$AA2?$AAd?$AA_?$AA?$CF?$AA0?$AA2?$AAd?$AA?$CF?$AA0?$AA2?$AAd?$AA?$CF?$AA0?$AA2?$AAd?$AA?4?$AAt?$AAx?$AAt?$AA?$AA@ 10023ec4     Logger.obj
 0002:00001f00       ??_C@_15LMEHFEOO@?$AAw?$AAt?$AA?$AA@ 10023f00     Logger.obj
 0002:00001f08       ??_C@_1KK@GJMDIMJP@?$CF?O?$AA?9?$AA?9?$AA?9?$AA?9?$AA?9?$AA?9?$AA?9?$AA?9?$AA?9?$AA?9?$AA?9?$AA?9?$AA?9?$AA?9?$AA?9?$AA?9?$AA?9?$AA?9?$AA?9?$AA?9?$AA?9?$AA?9?$AA?9?$AA?9?$AA?9?$AA?9?$AA?9?$AA?9?$AA?9?$AA?9?$AA?9@ 10023f08     Logger.obj
 0002:00001fb4       ??_C@_1CA@FHCGGNEI@?$AAD?$AAr?$AAo?$AAi?$AAd?$AA?5?$AAS?$AAa?$AAn?$AAs?$AA?5?$AAM?$AAo?$AAn?$AAo?$AA?$AA@ 10023fb4     Logger.obj
 0002:00001fd4       ??_C@_1CK@EJIJIGGJ@?$AA?3?$AA?5?$AA?$CF?$AA0?$AA8?$AAd?$AA?5?$AA?1?$AA?5?$AA?$CF?$AA0?$AA8?$AAd?$AA?5?$AA?$CI?$AA?$CF?$AA0?$AA8?$AAd?$AA?$CJ?$AA?$AA@ 10023fd4     Logger.obj
 0002:00002000       ??_C@_1KK@CDLAEBOE@?$AA?$DM?$AA?9?$AA?9?$AA?9?$AA?9?$AA?9?$AA?9?$AA?9?$AA?9?$AA?9?$AA?9?$AA?9?$AA?9?$AA?9?$AA?9?$AA?9?$AA?9?$AA?9?$AA?9?$AA?9?$AA?9?$AA?9?$AA?9?$AA?9?$AA?9?$AA?9?$AA?9?$AA?9?$AA?9?$AA?9?$AA?9?$AA?9@ 10024000     Logger.obj
 0002:000020ac       ??_C@_05PDJBBECF@pause?$AA@ 100240ac     Logger.obj
 0002:000020b4       ??_C@_15HEEKGCFC@?$AA?3?$AA?3?$AA?$AA@ 100240b4     Logger.obj
 0002:000020bc       ??_C@_1M@PHKJPIGK@?$AA?5?$AA?$CF?$AA0?$AA2?$AAX?$AA?$AA@ 100240bc     Logger.obj
 0002:000020c8       ??_C@_19HHMHINIL@?$AA?$CF?$AA0?$AA2?$AAX?$AA?$AA@ 100240c8     Logger.obj
 0002:000020d8       ??_7CriticalSection@baro@@6B@ 100240d8     Logger.obj
 0002:000020e0       ??_7CBitmap@@6B@           100240e0     BitmapDC.obj
 0002:000020f8       ??_7BitmapDC@baro@@6B@     100240f8     BitmapDC.obj
 0002:00002100       ??_7?$_Func_impl@U?$_Callable_obj@V?$_Bind@$00XU?$_Pmf_wrap@P8CustomGraph@baro@@AEXAAVGraphics@Gdiplus@@AAVCDC@@IK@ZXV12@AAV34@AAV5@IK@std@@QAVCustomGraph@baro@@AAV?$_Ph@$00@2@AAV?$_Ph@$01@2@AAV?$_Ph@$02@2@AAV?$_Ph@$03@2@@std@@$0A@@std@@V?$allocator@V?$_Func_class@XAAVGraphics@Gdiplus@@AAVCDC@@IK@std@@@2@XAAVGraphics@Gdiplus@@AAVCDC@@IK@std@@6B@ 10024100     CustomGraph.obj
 0002:00002120       ??_7?$_Ref_count_obj@VPointCoord@baro@@@std@@6B@ 10024120     CustomGraph.obj
 0002:00002134       ??_7?$_Func_base@XAAVGraphics@Gdiplus@@AAVCDC@@IK@std@@6B@ 10024134     CustomGraph.obj
 0002:00002154       ??_7CustomGraph@baro@@6B@  10024154     CustomGraph.obj
 0002:00002178       ??_7GradientRect@baro@@6B@ 10024178     GradientRect.obj
 0002:0000217c       ??_C@_0BG@EOMJEIFA@vector?$DMbool?$DO?5too?5long?$AA@ 1002417c     PointCoord.obj
 0002:00002198       ??_7?$_Func_impl@U?$_Callable_obj@V<lambda_f15cf28b79eebeba7dee09e3ec20cd6a>@@$0A@@std@@V?$allocator@V?$_Func_class@MI@std@@@2@MI@std@@6B@ 10024198     PointCoord.obj
 0002:000021b8       ??_7?$_Func_impl@U?$_Callable_obj@V<lambda_660079388d01d824f1d4f65d6714bd9d>@@$0A@@std@@V?$allocator@V?$_Func_class@MI@std@@@2@MI@std@@6B@ 100241b8     PointCoord.obj
 0002:000021d8       ??_7?$_Func_base@MI@std@@6B@ 100241d8     PointCoord.obj
 0002:000021f8       ??_7PointCoord@baro@@6B@   100241f8     PointCoord.obj
 0002:000021fc       ??_C@_1CE@FAJJAJHO@?$AAI?$AAn?$AAv?$AAa?$AAl?$AAi?$AAd?$AA?5?$AAP?$AAa?$AAr?$AAa?$AAm?$AAe?$AAt?$AAe?$AAr?$AA?$AA@ 100241fc     ISerialize.obj
 0002:00002220       ??_C@_1BM@PNCICCAG@?$AAO?$AAu?$AAt?$AA?5?$AAO?$AAf?$AA?5?$AAM?$AAe?$AAm?$AAo?$AAr?$AAy?$AA?$AA@ 10024220     ISerialize.obj
 0002:0000223c       ??_C@_1BO@NBFENKDJ@?$AAF?$AAi?$AAl?$AAe?$AA?5?$AAn?$AAo?$AAt?$AA?5?$AAf?$AAo?$AAu?$AAn?$AAd?$AA?$AA@ 1002423c     ISerialize.obj
 0002:0000225c       ??_C@_1BO@PNCJOPEK@?$AAI?$AAn?$AAd?$AAe?$AAx?$AA?5?$AAO?$AAv?$AAe?$AAr?$AAf?$AAl?$AAo?$AAw?$AA?$AA@ 1002425c     ISerialize.obj
 0002:0000227c       ??_C@_1CC@DANCPKGP@?$AAI?$AAn?$AAv?$AAa?$AAl?$AAi?$AAd?$AA?5?$AAP?$AAr?$AAo?$AAt?$AAo?$AAc?$AAo?$AAl?$AA?$AA@ 1002427c     ISerialize.obj
 0002:000022a0       ??_C@_1CI@NGOPAAML@?$AAI?$AAn?$AAs?$AAu?$AAf?$AAf?$AAi?$AAc?$AAi?$AAe?$AAn?$AAt?$AA?5?$AAB?$AAu?$AAf?$AAf?$AAe?$AAr?$AA?$AA@ 100242a0     ISerialize.obj
 0002:000022c8       ??_C@_1BG@KOIFGAID@?$AAW?$AAr?$AAo?$AAn?$AAg?$AA?5?$AAG?$AAu?$AAi?$AAd?$AA?$AA@ 100242c8     ISerialize.obj
 0002:000022e0       ??_C@_1BM@HDINOBHH@?$AAW?$AAr?$AAo?$AAn?$AAg?$AA?5?$AAV?$AAe?$AAr?$AAs?$AAi?$AAo?$AAn?$AA?$AA@ 100242e0     ISerialize.obj
 0002:000022fc       ??_C@_1BM@MFLAANHA@?$AAE?$AAn?$AAc?$AAr?$AAy?$AAp?$AAt?$AA?5?$AAE?$AAr?$AAr?$AAo?$AAr?$AA?$AA@ 100242fc     ISerialize.obj
 0002:00002318       ??_C@_1BM@GDHLDACJ@?$AAD?$AAe?$AAc?$AAr?$AAy?$AAp?$AAt?$AA?5?$AAE?$AAr?$AAr?$AAo?$AAr?$AA?$AA@ 10024318     ISerialize.obj
 0002:00002334       ??_C@_1BO@FLANDNOH@?$AAF?$AAi?$AAl?$AAe?$AA?5?$AAE?$AAx?$AAc?$AAe?$AAp?$AAt?$AAi?$AAo?$AAn?$AA?$AA@ 10024334     ISerialize.obj
 0002:00002354       ??_C@_1BG@EJEKEIMN@?$AAE?$AAm?$AAp?$AAt?$AAy?$AA?5?$AAD?$AAa?$AAt?$AAa?$AA?$AA@ 10024354     ISerialize.obj
 0002:0000236c       ??_C@_1BM@FMJGLKEJ@?$AAF?$AAi?$AAl?$AAe?$AAs?$AAi?$AAz?$AAe?$AA?5?$AAO?$AAv?$AAe?$AAr?$AA?$AA@ 1002436c     ISerialize.obj
 0002:00002388       ??_C@_1CE@BGFJFNCP@?$AAW?$AAr?$AAo?$AAn?$AAg?$AA?5?$AAH?$AAe?$AAa?$AAd?$AAe?$AAr?$AA?5?$AAS?$AAi?$AAz?$AAe?$AA?$AA@ 10024388     ISerialize.obj
 0002:000023ac       ??_C@_1CM@HDHJPFNC@?$AAW?$AAr?$AAo?$AAn?$AAg?$AA?5?$AAH?$AAe?$AAa?$AAd?$AAe?$AAr?$AA?5?$AAP?$AAr?$AAo?$AAt?$AAo?$AAc?$AAo?$AAl?$AA?$AA@ 100243ac     ISerialize.obj
 0002:000023d8       ??_C@_1CE@LFKGCKCM@?$AAW?$AAr?$AAo?$AAn?$AAg?$AA?5?$AAH?$AAe?$AAa?$AAd?$AAe?$AAr?$AA?5?$AAD?$AAa?$AAt?$AAa?$AA?$AA@ 100243d8     ISerialize.obj
 0002:000023fc       ??_C@_1CA@LBEHCDHI@?$AAW?$AAr?$AAo?$AAn?$AAg?$AA?5?$AAB?$AAo?$AAd?$AAy?$AA?5?$AAS?$AAi?$AAz?$AAe?$AA?$AA@ 100243fc     ISerialize.obj
 0002:00002420       ??_7ISerialize@baro@@6B@   10024420     ISerialize.obj
 0002:00002434       ?s_DefaultGuid@ISerialize@baro@@2U_GUID@@B 10024434     ISerialize.obj
 0002:00002444       ??_C@_1CI@HONJKKAP@?$AAP?$AAr?$AAo?$AAc?$AAe?$AAs?$AAs?$AAo?$AAr?$AAN?$AAa?$AAm?$AAe?$AAS?$AAt?$AAr?$AAi?$AAn?$AAg?$AA?$AA@ 10024444     SystemInfo.obj
 0002:00002470       ??_C@_1FO@JMGGDBHO@?$AAH?$AAA?$AAR?$AAD?$AAW?$AAA?$AAR?$AAE?$AA?2?$AAD?$AAE?$AAS?$AAC?$AAR?$AAI?$AAP?$AAT?$AAI?$AAO?$AAN?$AA?2?$AAS?$AAy?$AAs?$AAt?$AAe?$AAm?$AA?2?$AAC?$AAe?$AAn?$AAt@ 10024470     SystemInfo.obj
 0002:000024d0       ??_C@_1CM@JGECPIII@?$AAB?$AAa?$AAs?$AAe?$AAB?$AAo?$AAa?$AAr?$AAd?$AAM?$AAa?$AAn?$AAu?$AAf?$AAa?$AAc?$AAt?$AAu?$AAr?$AAe?$AAr?$AA?$AA@ 100244d0     SystemInfo.obj
 0002:00002500       ??_C@_1EC@BDKLIPNE@?$AAH?$AAA?$AAR?$AAD?$AAW?$AAA?$AAR?$AAE?$AA?2?$AAD?$AAE?$AAS?$AAC?$AAR?$AAI?$AAP?$AAT?$AAI?$AAO?$AAN?$AA?2?$AAS?$AAy?$AAs?$AAt?$AAe?$AAm?$AA?2?$AAB?$AAI?$AAO?$AAS@ 10024500     SystemInfo.obj
 0002:00002544       ??_C@_1CC@NHKPLHGP@?$AAB?$AAa?$AAs?$AAe?$AAB?$AAo?$AAa?$AAr?$AAd?$AAP?$AAr?$AAo?$AAd?$AAu?$AAc?$AAt?$AA?$AA@ 10024544     SystemInfo.obj
 0002:00002568       ??_C@_1BI@GGDFOMNN@?$AAP?$AAr?$AAo?$AAd?$AAu?$AAc?$AAt?$AAn?$AAa?$AAm?$AAe?$AA?$AA@ 10024568     SystemInfo.obj
 0002:00002580       ??_C@_1BE@GJOFHIHD@?$AAn?$AAt?$AAd?$AAl?$AAl?$AA?4?$AAd?$AAl?$AAl?$AA?$AA@ 10024580     SystemInfo.obj
 0002:00002594       ??_C@_0O@JGECDCHJ@RtlGetVersion?$AA@ 10024594     SystemInfo.obj
 0002:000025a4       ??_C@_0BE@HLKFLAJF@GetNativeSystemInfo?$AA@ 100245a4     SystemInfo.obj
 0002:000025b8       ??_C@_1BC@JNJAIJGK@?$AA?$CF?$AAd?$AA?4?$AA?$CF?$AAd?$AA?4?$AA?$CF?$AAd?$AA?$AA@ 100245b8     SystemInfo.obj
 0002:000025cc       ??_C@_1M@NDGNLFMH@?$AA?$CF?$AAd?$AA?4?$AA?$CF?$AAd?$AA?$AA@ 100245cc     SystemInfo.obj
 0002:000025d8       ??_C@_1EM@BDHKHKNE@?$AAW?$AAi?$AAn?$AAd?$AAo?$AAw?$AAs?$AA?5?$AAS?$AAe?$AAr?$AAv?$AAe?$AAr?$AA?5?$AA2?$AA0?$AA1?$AA6?$AA?5?$AAT?$AAe?$AAc?$AAh?$AAn?$AAi?$AAc?$AAa?$AAl?$AA?5?$AAP?$AAr@ 100245d8     SystemInfo.obj
 0002:00002624       ??_C@_1BG@MEAGDMCJ@?$AAW?$AAi?$AAn?$AAd?$AAo?$AAw?$AAs?$AA?5?$AA1?$AA0?$AA?$AA@ 10024624     SystemInfo.obj
 0002:0000263c       ??_C@_1CO@JGODFMPC@?$AAW?$AAi?$AAn?$AAd?$AAo?$AAw?$AAs?$AA?5?$AAS?$AAe?$AAr?$AAv?$AAe?$AAr?$AA?5?$AA2?$AA0?$AA1?$AA2?$AA?5?$AAR?$AA2?$AA?$AA@ 1002463c     SystemInfo.obj
 0002:0000266c       ??_C@_1BI@FCNMAGO@?$AAW?$AAi?$AAn?$AAd?$AAo?$AAw?$AAs?$AA?5?$AA8?$AA?4?$AA1?$AA?$AA@ 1002466c     SystemInfo.obj
 0002:00002684       ??_C@_1CI@JDMAKOGO@?$AAW?$AAi?$AAn?$AAd?$AAo?$AAw?$AAs?$AA?5?$AAS?$AAe?$AAr?$AAv?$AAe?$AAr?$AA?5?$AA2?$AA0?$AA1?$AA2?$AA?$AA@ 10024684     SystemInfo.obj
 0002:000026ac       ??_C@_1BE@JJFEMOC@?$AAW?$AAi?$AAn?$AAd?$AAo?$AAw?$AAs?$AA?5?$AA8?$AA?$AA@ 100246ac     SystemInfo.obj
 0002:000026c0       ??_C@_1CO@BKGEIAFE@?$AAW?$AAi?$AAn?$AAd?$AAo?$AAw?$AAs?$AA?5?$AAS?$AAe?$AAr?$AAv?$AAe?$AAr?$AA?5?$AA2?$AA0?$AA0?$AA8?$AA?5?$AAR?$AA2?$AA?$AA@ 100246c0     SystemInfo.obj
 0002:000026f0       ??_C@_1BE@FBPGFMLE@?$AAW?$AAi?$AAn?$AAd?$AAo?$AAw?$AAs?$AA?5?$AA7?$AA?$AA@ 100246f0     SystemInfo.obj
 0002:00002704       ??_C@_1CI@DHCBJNKP@?$AAW?$AAi?$AAn?$AAd?$AAo?$AAw?$AAs?$AA?5?$AAS?$AAe?$AAr?$AAv?$AAe?$AAr?$AA?5?$AA2?$AA0?$AA0?$AA8?$AA?$AA@ 10024704     SystemInfo.obj
 0002:0000272c       ??_C@_1BM@NPICABPO@?$AAW?$AAi?$AAn?$AAd?$AAo?$AAw?$AAs?$AA?5?$AAV?$AAi?$AAs?$AAt?$AAa?$AA?$AA@ 1002472c     SystemInfo.obj
 0002:00002748       ??_C@_1CO@OCIEHLKD@?$AAW?$AAi?$AAn?$AAd?$AAo?$AAw?$AAs?$AA?5?$AAS?$AAe?$AAr?$AAv?$AAe?$AAr?$AA?5?$AA2?$AA0?$AA0?$AA3?$AA?5?$AAR?$AA2?$AA?$AA@ 10024748     SystemInfo.obj
 0002:00002778       ??_C@_1CI@HIBIFNIP@?$AAW?$AAi?$AAn?$AAd?$AAo?$AAw?$AAs?$AA?5?$AAH?$AAo?$AAm?$AAe?$AA?5?$AAS?$AAe?$AAr?$AAv?$AAe?$AAr?$AA?$AA@ 10024778     SystemInfo.obj
 0002:000027a0       ??_C@_1CI@OACABKKO@?$AAW?$AAi?$AAn?$AAd?$AAo?$AAw?$AAs?$AA?5?$AAS?$AAe?$AAr?$AAv?$AAe?$AAr?$AA?5?$AA2?$AA0?$AA0?$AA3?$AA?$AA@ 100247a0     SystemInfo.obj
 0002:000027c8       ??_C@_1EI@NFFMNOOL@?$AAW?$AAi?$AAn?$AAd?$AAo?$AAw?$AAs?$AA?5?$AAX?$AAP?$AA?5?$AAP?$AAr?$AAo?$AAf?$AAe?$AAs?$AAs?$AAi?$AAo?$AAn?$AAa?$AAl?$AA?5?$AAx?$AA6?$AA4?$AA?5?$AAE?$AAd?$AAi?$AAt@ 100247c8     SystemInfo.obj
 0002:00002810       ??_C@_1BG@NANLJFLI@?$AAW?$AAi?$AAn?$AAd?$AAo?$AAw?$AAs?$AA?5?$AAX?$AAP?$AA?$AA@ 10024810     SystemInfo.obj
 0002:00002828       ??_C@_1BK@CFHOBJGA@?$AAW?$AAi?$AAn?$AAd?$AAo?$AAw?$AAs?$AA?5?$AA2?$AA0?$AA0?$AA0?$AA?$AA@ 10024828     SystemInfo.obj
 0002:00002844       ??_C@_1BK@MGMFAEKH@?$AAk?$AAe?$AAr?$AAn?$AAe?$AAl?$AA3?$AA2?$AA?4?$AAd?$AAl?$AAl?$AA?$AA@ 10024844     SystemInfo.obj
 0002:00002864       ??_7SystemInfo@baro@@6B@   10024864     SystemInfo.obj
 0002:0000286c       ??_7?$TSingleton@$$CBVSystemInfo@baro@@@baro@@6B@ 1002486c     SystemInfo.obj
 0002:00002874       ??_7?$_Func_base@W4StreamResult@baro@@AAV?$CStringT@_WV?$StrTraitMFC_DLL@_WV?$ChTraitsCRT@_W@ATL@@@@@ATL@@@std@@6B@ 10024874     stdafx.obj
 0002:00002894       ??_7?$_Func_impl@U?$_Callable_obj@V<lambda_71f23d2cacd049d0fc44bb672969fbab>@@$0A@@std@@V?$allocator@V?$_Func_class@W4StreamResult@baro@@AAV?$CStringT@_WV?$StrTraitMFC_DLL@_WV?$ChTraitsCRT@_W@ATL@@@@@ATL@@@std@@@2@W4StreamResult@baro@@AAV?$CStringT@_WV?$StrTraitMFC_DLL@_WV?$ChTraitsCRT@_W@ATL@@@@@ATL@@@std@@6B@ 10024894     stdafx.obj
 0002:000028b0       ??_C@_07DCLBNMLN@generic?$AA@ 100248b0     stdafx.obj
 0002:000028b8       ??_C@_0O@BFJCFAAK@unknown?5error?$AA@ 100248b8     stdafx.obj
 0002:000028c8       ??_C@_08LLGCOLLL@iostream?$AA@ 100248c8     stdafx.obj
 0002:000028d4       ??_C@_0BG@PADBLCHM@iostream?5stream?5error?$AA@ 100248d4     stdafx.obj
 0002:000028ec       ??_C@_06FHFOAHML@system?$AA@ 100248ec     stdafx.obj
 0002:000028f8       ??_7_Generic_error_category@std@@6B@ 100248f8     stdafx.obj
 0002:00002914       ??_7?$_Func_impl@U?$_Callable_obj@V<lambda_187152e110f699ad5b1ab81533769cf2>@@$0A@@std@@V?$allocator@V?$_Func_class@W4StreamResult@baro@@ABV?$CStringT@_WV?$StrTraitMFC_DLL@_WV?$ChTraitsCRT@_W@ATL@@@@@ATL@@@std@@@2@W4StreamResult@baro@@ABV?$CStringT@_WV?$StrTraitMFC_DLL@_WV?$ChTraitsCRT@_W@ATL@@@@@ATL@@@std@@6B@ 10024914     stdafx.obj
 0002:00002934       ??_7?$_Func_impl@U?$_Callable_obj@V<lambda_e76177b2965f6f295be7c5f96021c124>@@$0A@@std@@V?$allocator@V?$_Func_class@W4StreamResult@baro@@AAV?$CStringT@_WV?$StrTraitMFC_DLL@_WV?$ChTraitsCRT@_W@ATL@@@@@ATL@@@std@@@2@W4StreamResult@baro@@AAV?$CStringT@_WV?$StrTraitMFC_DLL@_WV?$ChTraitsCRT@_W@ATL@@@@@ATL@@@std@@6B@ 10024934     stdafx.obj
 0002:00002954       ??_7?$_Func_impl@U?$_Callable_obj@V<lambda_740eeb7a2f1d2c38bf9d2a55ba51dd10>@@$0A@@std@@V?$allocator@V?$_Func_class@W4StreamResult@baro@@ABV?$CStringT@_WV?$StrTraitMFC_DLL@_WV?$ChTraitsCRT@_W@ATL@@@@@ATL@@@std@@@2@W4StreamResult@baro@@ABV?$CStringT@_WV?$StrTraitMFC_DLL@_WV?$ChTraitsCRT@_W@ATL@@@@@ATL@@@std@@6B@ 10024954     stdafx.obj
 0002:00002974       ??_7?$_Func_base@W4StreamResult@baro@@ABV?$CStringT@_WV?$StrTraitMFC_DLL@_WV?$ChTraitsCRT@_W@ATL@@@@@ATL@@@std@@6B@ 10024974     stdafx.obj
 0002:00002994       ??_7_System_error_category@std@@6B@ 10024994     stdafx.obj
 0002:000029b0       ??_7_Iostream_error_category@std@@6B@ 100249b0     stdafx.obj
 0002:000029cc       ??_7error_category@std@@6B@ 100249cc     stdafx.obj
 0002:000029e8       ??_7?$_Func_impl@U?$_Callable_obj@V<lambda_5c9231035f6c38fca048a0864a8210ea>@@$0A@@std@@V?$allocator@V?$_Func_class@W4StreamResult@baro@@AAV?$CStringT@_WV?$StrTraitMFC_DLL@_WV?$ChTraitsCRT@_W@ATL@@@@@ATL@@@std@@@2@W4StreamResult@baro@@AAV?$CStringT@_WV?$StrTraitMFC_DLL@_WV?$ChTraitsCRT@_W@ATL@@@@@ATL@@@std@@6B@ 100249e8     stdafx.obj
 0002:00002a08       ??_7?$_Func_impl@U?$_Callable_obj@V<lambda_75f487c1c530e75cedd270693ab9589c>@@$0A@@std@@V?$allocator@V?$_Func_class@W4StreamResult@baro@@ABV?$CStringT@_WV?$StrTraitMFC_DLL@_WV?$ChTraitsCRT@_W@ATL@@@@@ATL@@@std@@@2@W4StreamResult@baro@@ABV?$CStringT@_WV?$StrTraitMFC_DLL@_WV?$ChTraitsCRT@_W@ATL@@@@@ATL@@@std@@6B@ 10024a08     stdafx.obj
 0002:00002a24       __real@00000000            10024a24     stdafx.obj
 0002:00002a28       __real@0000000000000000    10024a28     Performance.obj
 0002:00002a30       __real@3e10000000000000    10024a30     string.obj
 0002:00002a38       __real@3e48daea1d7e9e10    10024a38     string.obj
 0002:00002a40       __real@3eb0000000000000    10024a40     string.obj
 0002:00002a48       __real@3ed845c8a0cda65c    10024a48     string.obj
 0002:00002a50       __real@3f000000            10024a50     CustomGraph.obj
 0002:00002a58       __real@3f50000000000000    10024a58     string.obj
 0002:00002a60       __real@3f800000            10024a60     ISerialize.obj
 0002:00002a68       __real@3fe0000000000000    10024a68     string.obj
 0002:00002a70       __real@3ff0000000000000    10024a70     Performance.obj
 0002:00002a78       __real@40000000            10024a78     PointCoord.obj
 0002:00002a80       __real@4038000000000000    10024a80     string.obj
 0002:00002a88       __real@404e000000000000    10024a88     string.obj
 0002:00002a90       __real@408f380000000000    10024a90     string.obj
 0002:00002a98       __real@408f400000000000    10024a98     Performance.obj
 0002:00002aa0       __real@4090000000000000    10024aa0     string.obj
 0002:00002aa8       __real@40e00000            10024aa8     CustomGraph.obj
 0002:00002aac       __real@41200000            10024aac     CustomGraph.obj
 0002:00002ab0       __real@4130000000000000    10024ab0     string.obj
 0002:00002ab8       __real@41d0000000000000    10024ab8     string.obj
 0002:00002ac0       __xmm@41f00000000000000000000000000000 10024ac0     file.obj
 0002:00002ad0       __xmm@7fffffffffffffff7fffffffffffffff 10024ad0     PointCoord.obj
 0002:00002b68       __load_config_used         10024b68     msvcrt:loadcfg.obj
 0002:00002c14       ??_R3CNoTrackObject@@8     10024c14     mfcs120u:dllmodul.obj
 0002:00002c24       ??_R2CNoTrackObject@@8     10024c24     mfcs120u:dllmodul.obj
 0002:00002c2c       ??_R1A@?0A@EA@CNoTrackObject@@8 10024c2c     mfcs120u:dllmodul.obj
 0002:00002c48       ??_R4_AFX_DLL_MODULE_STATE@@6B@ 10024c48     mfcs120u:dllmodul.obj
 0002:00002c5c       ??_R3_AFX_DLL_MODULE_STATE@@8 10024c5c     mfcs120u:dllmodul.obj
 0002:00002c6c       ??_R2_AFX_DLL_MODULE_STATE@@8 10024c6c     mfcs120u:dllmodul.obj
 0002:00002c7c       ??_R1A@?0A@EA@_AFX_DLL_MODULE_STATE@@8 10024c7c     mfcs120u:dllmodul.obj
 0002:00002c98       ??_R1A@?0A@EA@AFX_MODULE_STATE@@8 10024c98     mfcs120u:dllmodul.obj
 0002:00002cb4       ??_R3AFX_MODULE_STATE@@8   10024cb4     mfcs120u:dllmodul.obj
 0002:00002cc4       ??_R2AFX_MODULE_STATE@@8   10024cc4     mfcs120u:dllmodul.obj
 0002:00002cd0       ??_R4type_info@@6B@        10024cd0     msvcrt:ti_inst.obj
 0002:00002ce4       ??_R3type_info@@8          10024ce4     msvcrt:ti_inst.obj
 0002:00002cf4       ??_R2type_info@@8          10024cf4     msvcrt:ti_inst.obj
 0002:00002cfc       ??_R1A@?0A@EA@type_info@@8 10024cfc     msvcrt:ti_inst.obj
 0002:00002d18       ??_R2CBaronow23App@@8      10024d18     Baronow23.obj
 0002:00002d30       ??_R2CWinApp@@8            10024d30     Baronow23.obj
 0002:00002d44       ??_R2CWinThread@@8         10024d44     Baronow23.obj
 0002:00002d54       ??_R1A@?0A@EA@CBaronow23App@@8 10024d54     Baronow23.obj
 0002:00002d70       ??_R1A@?0A@EA@CWinApp@@8   10024d70     Baronow23.obj
 0002:00002d8c       ??_R2CObject@@8            10024d8c     Baronow23.obj
 0002:00002d94       ??_R3CObject@@8            10024d94     Baronow23.obj
 0002:00002da4       ??_R1A@?0A@EA@CObject@@8   10024da4     Baronow23.obj
 0002:00002dc0       ??_R2CCmdTarget@@8         10024dc0     Baronow23.obj
 0002:00002dcc       ??_R3CCmdTarget@@8         10024dcc     Baronow23.obj
 0002:00002ddc       ??_R1A@?0A@EA@CCmdTarget@@8 10024ddc     Baronow23.obj
 0002:00002df8       ??_R1A@?0A@EA@CWinThread@@8 10024df8     Baronow23.obj
 0002:00002e14       ??_R3CWinApp@@8            10024e14     Baronow23.obj
 0002:00002e24       ??_R3CWinThread@@8         10024e24     Baronow23.obj
 0002:00002e34       ??_R3CBaronow23App@@8      10024e34     Baronow23.obj
 0002:00002e44       ??_R4CBaronow23App@@6B@    10024e44     Baronow23.obj
 0002:00002e58       ??_R2CppSqlite3DB@@8       10024e58     CppSQLite3U.obj
 0002:00002e60       ??_R2CppSqlite3Exception@@8 10024e60     CppSQLite3U.obj
 0002:00002e68       ??_R2CppSqlite3Query@@8    10024e68     CppSQLite3U.obj
 0002:00002e70       ??_R1A@?0A@EA@CppSqlite3DB@@8 10024e70     CppSQLite3U.obj
 0002:00002e8c       ??_R1A@?0A@EA@CppSqlite3Exception@@8 10024e8c     CppSQLite3U.obj
 0002:00002ea8       ??_R1A@?0A@EA@CppSqlite3Query@@8 10024ea8     CppSQLite3U.obj
 0002:00002ec4       ??_R3CppSqlite3DB@@8       10024ec4     CppSQLite3U.obj
 0002:00002ed4       ??_R3CppSqlite3Exception@@8 10024ed4     CppSQLite3U.obj
 0002:00002ee4       ??_R3CppSqlite3Query@@8    10024ee4     CppSQLite3U.obj
 0002:00002ef4       ??_R4CppSqlite3DB@@6B@     10024ef4     CppSQLite3U.obj
 0002:00002f08       ??_R4CppSqlite3Exception@@6B@ 10024f08     CppSQLite3U.obj
 0002:00002f1c       ??_R4CppSqlite3Query@@6B@  10024f1c     CppSQLite3U.obj
 0002:00002f30       ??_R2?$TBuffer@D@baro@@8   10024f30     crypt.obj
 0002:00002f38       ??_R1A@?0A@EA@?$TBuffer@D@baro@@8 10024f38     crypt.obj
 0002:00002f54       ??_R3?$TBuffer@D@baro@@8   10024f54     crypt.obj
 0002:00002f64       ??_R4?$TBuffer@D@baro@@6B@ 10024f64     crypt.obj
 0002:00002f78       ??_R1A@?0A@EA@?$TBuffer@_W@baro@@8 10024f78     crypt.obj
 0002:00002f94       ??_R2?$TBuffer@_W@baro@@8  10024f94     crypt.obj
 0002:00002f9c       ??_R3?$TBuffer@_W@baro@@8  10024f9c     crypt.obj
 0002:00002fac       ??_R4?$TBuffer@_W@baro@@6B@ 10024fac     crypt.obj
 0002:00002fc0       ??_R2?$_Func_impl@U?$_Callable_obj@V<lambda_92ae8a6edb3cc5c1e2896be211724754>@@$0A@@std@@V?$allocator@V?$_Func_class@XV?$CStringT@_WV?$StrTraitMFC_DLL@_WV?$ChTraitsCRT@_W@ATL@@@@@ATL@@AAV?$vector@V?$CStringT@_WV?$StrTraitMFC_DLL@_WV?$ChTraitsCRT@_W@ATL@@@@@ATL@@V?$allocator@V?$CStringT@_WV?$StrTraitMFC_DLL@_WV?$ChTraitsCRT@_W@ATL@@@@@ATL@@@std@@@std@@@std@@@2@XV?$CStringT@_WV?$StrTraitMFC_DLL@_WV?$ChTraitsCRT@_W@ATL@@@@@ATL@@AAV?$vector@V?$CStringT@_WV?$StrTraitMFC_DLL@_WV?$ChTraitsCRT@_W@ATL@@@@@ATL@@V?$allocator@V?$CStringT@_WV?$StrTraitMFC_DLL@_WV?$ChTraitsCRT@_W@ATL@@@@@ATL@@@std@@@2@@std@@8 10024fc0     file.obj
 0002:00002fcc       ??_R2?$_Func_base@XV?$CStringT@_WV?$StrTraitMFC_DLL@_WV?$ChTraitsCRT@_W@ATL@@@@@ATL@@AAV?$vector@V?$CStringT@_WV?$StrTraitMFC_DLL@_WV?$ChTraitsCRT@_W@ATL@@@@@ATL@@V?$allocator@V?$CStringT@_WV?$StrTraitMFC_DLL@_WV?$ChTraitsCRT@_W@ATL@@@@@ATL@@@std@@@std@@@std@@8 10024fcc     file.obj
 0002:00002fd4       ??_R1A@?0A@EA@?$_Func_impl@U?$_Callable_obj@V<lambda_92ae8a6edb3cc5c1e2896be211724754>@@$0A@@std@@V?$allocator@V?$_Func_class@XV?$CStringT@_WV?$StrTraitMFC_DLL@_WV?$ChTraitsCRT@_W@ATL@@@@@ATL@@AAV?$vector@V?$CStringT@_WV?$StrTraitMFC_DLL@_WV?$ChTraitsCRT@_W@ATL@@@@@ATL@@V?$allocator@V?$CStringT@_WV?$StrTraitMFC_DLL@_WV?$ChTraitsCRT@_W@ATL@@@@@ATL@@@std@@@std@@@std@@@2@XV?$CStringT@_WV?$StrTraitMFC_DLL@_WV?$ChTraitsCRT@_W@ATL@@@@@ATL@@AAV?$vector@V?$CStringT@_WV?$StrTraitMFC_DLL@_WV?$ChTraitsCRT@_W@ATL@@@@@ATL@@V?$allocator@V?$CStringT@_WV?$StrTraitMFC_DLL@_WV?$ChTraitsCRT@_W@ATL@@@@@ATL@@@std@@@2@@std@@8 10024fd4     file.obj
 0002:00002ff0       ??_R1A@?0A@EA@?$_Func_base@XV?$CStringT@_WV?$StrTraitMFC_DLL@_WV?$ChTraitsCRT@_W@ATL@@@@@ATL@@AAV?$vector@V?$CStringT@_WV?$StrTraitMFC_DLL@_WV?$ChTraitsCRT@_W@ATL@@@@@ATL@@V?$allocator@V?$CStringT@_WV?$StrTraitMFC_DLL@_WV?$ChTraitsCRT@_W@ATL@@@@@ATL@@@std@@@std@@@std@@8 10024ff0     file.obj
 0002:0000300c       ??_R3?$_Func_impl@U?$_Callable_obj@V<lambda_92ae8a6edb3cc5c1e2896be211724754>@@$0A@@std@@V?$allocator@V?$_Func_class@XV?$CStringT@_WV?$StrTraitMFC_DLL@_WV?$ChTraitsCRT@_W@ATL@@@@@ATL@@AAV?$vector@V?$CStringT@_WV?$StrTraitMFC_DLL@_WV?$ChTraitsCRT@_W@ATL@@@@@ATL@@V?$allocator@V?$CStringT@_WV?$StrTraitMFC_DLL@_WV?$ChTraitsCRT@_W@ATL@@@@@ATL@@@std@@@std@@@std@@@2@XV?$CStringT@_WV?$StrTraitMFC_DLL@_WV?$ChTraitsCRT@_W@ATL@@@@@ATL@@AAV?$vector@V?$CStringT@_WV?$StrTraitMFC_DLL@_WV?$ChTraitsCRT@_W@ATL@@@@@ATL@@V?$allocator@V?$CStringT@_WV?$StrTraitMFC_DLL@_WV?$ChTraitsCRT@_W@ATL@@@@@ATL@@@std@@@2@@std@@8 1002500c     file.obj
 0002:0000301c       ??_R3?$_Func_base@XV?$CStringT@_WV?$StrTraitMFC_DLL@_WV?$ChTraitsCRT@_W@ATL@@@@@ATL@@AAV?$vector@V?$CStringT@_WV?$StrTraitMFC_DLL@_WV?$ChTraitsCRT@_W@ATL@@@@@ATL@@V?$allocator@V?$CStringT@_WV?$StrTraitMFC_DLL@_WV?$ChTraitsCRT@_W@ATL@@@@@ATL@@@std@@@std@@@std@@8 1002501c     file.obj
 0002:0000302c       ??_R4?$_Func_impl@U?$_Callable_obj@V<lambda_92ae8a6edb3cc5c1e2896be211724754>@@$0A@@std@@V?$allocator@V?$_Func_class@XV?$CStringT@_WV?$StrTraitMFC_DLL@_WV?$ChTraitsCRT@_W@ATL@@@@@ATL@@AAV?$vector@V?$CStringT@_WV?$StrTraitMFC_DLL@_WV?$ChTraitsCRT@_W@ATL@@@@@ATL@@V?$allocator@V?$CStringT@_WV?$StrTraitMFC_DLL@_WV?$ChTraitsCRT@_W@ATL@@@@@ATL@@@std@@@std@@@std@@@2@XV?$CStringT@_WV?$StrTraitMFC_DLL@_WV?$ChTraitsCRT@_W@ATL@@@@@ATL@@AAV?$vector@V?$CStringT@_WV?$StrTraitMFC_DLL@_WV?$ChTraitsCRT@_W@ATL@@@@@ATL@@V?$allocator@V?$CStringT@_WV?$StrTraitMFC_DLL@_WV?$ChTraitsCRT@_W@ATL@@@@@ATL@@@std@@@2@@std@@6B@ 1002502c     file.obj
 0002:00003040       ??_R4?$_Func_base@XV?$CStringT@_WV?$StrTraitMFC_DLL@_WV?$ChTraitsCRT@_W@ATL@@@@@ATL@@AAV?$vector@V?$CStringT@_WV?$StrTraitMFC_DLL@_WV?$ChTraitsCRT@_W@ATL@@@@@ATL@@V?$allocator@V?$CStringT@_WV?$StrTraitMFC_DLL@_WV?$ChTraitsCRT@_W@ATL@@@@@ATL@@@std@@@std@@@std@@6B@ 10025040     file.obj
 0002:00003054       ??_R4CGdiObject@@6B@       10025054     gdi.obj
 0002:00003068       ??_R1A@?0A@EA@CPen@@8      10025068     gdi.obj
 0002:00003084       ??_R2CGdiObject@@8         10025084     gdi.obj
 0002:00003090       ??_R3CGdiObject@@8         10025090     gdi.obj
 0002:000030a0       ??_R1A@?0A@EA@CGdiObject@@8 100250a0     gdi.obj
 0002:000030bc       ??_R2CPen@@8               100250bc     gdi.obj
 0002:000030cc       ??_R3CPen@@8               100250cc     gdi.obj
 0002:000030dc       ??_R4CPen@@6B@             100250dc     gdi.obj
 0002:000030f0       ??_R1A@?0A@EA@Bitmap@Gdiplus@@8 100250f0     image.obj
 0002:0000310c       ??_R2Bitmap@Gdiplus@@8     1002510c     image.obj
 0002:0000311c       ??_R3Bitmap@Gdiplus@@8     1002511c     image.obj
 0002:0000312c       ??_R4Bitmap@Gdiplus@@6B@   1002512c     image.obj
 0002:00003140       ??_R1A@?0A@EA@Image@Gdiplus@@8 10025140     image.obj
 0002:0000315c       ??_R1A@?0A@EA@GdiplusBase@Gdiplus@@8 1002515c     image.obj
 0002:00003178       ??_R2GdiplusBase@Gdiplus@@8 10025178     image.obj
 0002:00003180       ??_R3GdiplusBase@Gdiplus@@8 10025180     image.obj
 0002:00003190       ??_R13?0A@EA@GdiplusBase@Gdiplus@@8 10025190     image.obj
 0002:000031ac       ??_R2Image@Gdiplus@@8      100251ac     image.obj
 0002:000031b8       ??_R3Image@Gdiplus@@8      100251b8     image.obj
 0002:000031c8       ??_R4Image@Gdiplus@@6B@    100251c8     image.obj
 0002:000031dc       ??_R1A@?0A@EA@?$TBuffer@E@baro@@8 100251dc     A256B64.obj
 0002:000031f8       ??_R2?$TBuffer@E@baro@@8   100251f8     A256B64.obj
 0002:00003200       ??_R3?$TBuffer@E@baro@@8   10025200     A256B64.obj
 0002:00003210       ??_R4?$TBuffer@E@baro@@6B@ 10025210     A256B64.obj
 0002:00003224       ??_R2CryptBuffer@baro@@8   10025224     CryptBuffer.obj
 0002:00003230       ??_R1A@?0A@EA@CryptBuffer@baro@@8 10025230     CryptBuffer.obj
 0002:0000324c       ??_R3CryptBuffer@baro@@8   1002524c     CryptBuffer.obj
 0002:0000325c       ??_R4CryptBuffer@baro@@6B@ 1002525c     CryptBuffer.obj
 0002:00003270       ??_R1A@?0A@EA@CheckPointer@baro@@8 10025270     CryptBuffer.obj
 0002:0000328c       ??_R2CheckPointer@baro@@8  1002528c     CryptBuffer.obj
 0002:00003294       ??_R3CheckPointer@baro@@8  10025294     CryptBuffer.obj
 0002:000032a4       ??_R4CheckPointer@baro@@6B@ 100252a4     CryptBuffer.obj
 0002:000032b8       ??_R2?$_Ref_count_obj@VCryptHandle@baro@@@std@@8 100252b8     CryptFactory.obj
 0002:000032c4       ??_R1A@?0A@EA@?$_Ref_count_obj@VCryptHandle@baro@@@std@@8 100252c4     CryptFactory.obj
 0002:000032e0       ??_R3?$_Ref_count_obj@VCryptHandle@baro@@@std@@8 100252e0     CryptFactory.obj
 0002:000032f0       ??_R4?$_Ref_count_obj@VCryptHandle@baro@@@std@@6B@ 100252f0     CryptFactory.obj
 0002:00003304       ??_R1A@?0A@EA@_Ref_count_base@std@@8 10025304     CryptFactory.obj
 0002:00003320       ??_R2_Ref_count_base@std@@8 10025320     CryptFactory.obj
 0002:00003328       ??_R3_Ref_count_base@std@@8 10025328     CryptFactory.obj
 0002:00003338       ??_R4_Ref_count_base@std@@6B@ 10025338     CryptFactory.obj
 0002:0000334c       ??_R2MsgThread@baro@@8     1002534c     MsgThread.obj
 0002:00003360       ??_R1A@?0A@EA@MsgThread@baro@@8 10025360     MsgThread.obj
 0002:0000337c       ??_R3MsgThread@baro@@8     1002537c     MsgThread.obj
 0002:0000338c       ??_R4MsgThread@baro@@6B@   1002538c     MsgThread.obj
 0002:000033a0       ??_R1A@?0A@EA@MsgProcedure@helper@baro@@8 100253a0     MsgThread.obj
 0002:000033bc       ??_R2MsgProcedure@helper@baro@@8 100253bc     MsgThread.obj
 0002:000033c4       ??_R3MsgProcedure@helper@baro@@8 100253c4     MsgThread.obj
 0002:000033d4       ??_R4MsgProcedure@helper@baro@@6B@ 100253d4     MsgThread.obj
 0002:000033e8       ??_R2?$_Func_impl@U?$_Callable_obj@V<lambda_bbe7db543262a53344bc92964eb41292>@@$0A@@std@@V?$allocator@V?$_Func_class@_NAAVCFile@@@std@@@2@_NAAVCFile@@@std@@8 100253e8     Stream.obj
 0002:000033f4       ??_R2?$_Func_impl@U?$_Callable_obj@V<lambda_f8882b2bf4f22a473592eb1ff5482a78>@@$0A@@std@@V?$allocator@V?$_Func_class@_NAAVCFile@@@std@@@2@_NAAVCFile@@@std@@8 100253f4     Stream.obj
 0002:00003400       ??_R2?$_Func_impl@U?$_Callable_obj@V<lambda_257dd9aa029b0bb95eaf18bd787825cc>@@$0A@@std@@V?$allocator@V?$_Func_class@_NAAVCFile@@@std@@@2@_NAAVCFile@@@std@@8 10025400     Stream.obj
 0002:0000340c       ??_R2?$_Func_base@_NAAVCFile@@@std@@8 1002540c     Stream.obj
 0002:00003414       ??_R1A@?0A@EA@?$_Func_impl@U?$_Callable_obj@V<lambda_bbe7db543262a53344bc92964eb41292>@@$0A@@std@@V?$allocator@V?$_Func_class@_NAAVCFile@@@std@@@2@_NAAVCFile@@@std@@8 10025414     Stream.obj
 0002:00003430       ??_R1A@?0A@EA@?$_Func_impl@U?$_Callable_obj@V<lambda_f8882b2bf4f22a473592eb1ff5482a78>@@$0A@@std@@V?$allocator@V?$_Func_class@_NAAVCFile@@@std@@@2@_NAAVCFile@@@std@@8 10025430     Stream.obj
 0002:0000344c       ??_R1A@?0A@EA@?$_Func_impl@U?$_Callable_obj@V<lambda_257dd9aa029b0bb95eaf18bd787825cc>@@$0A@@std@@V?$allocator@V?$_Func_class@_NAAVCFile@@@std@@@2@_NAAVCFile@@@std@@8 1002544c     Stream.obj
 0002:00003468       ??_R1A@?0A@EA@?$_Func_base@_NAAVCFile@@@std@@8 10025468     Stream.obj
 0002:00003484       ??_R3?$_Func_impl@U?$_Callable_obj@V<lambda_bbe7db543262a53344bc92964eb41292>@@$0A@@std@@V?$allocator@V?$_Func_class@_NAAVCFile@@@std@@@2@_NAAVCFile@@@std@@8 10025484     Stream.obj
 0002:00003494       ??_R3?$_Func_impl@U?$_Callable_obj@V<lambda_f8882b2bf4f22a473592eb1ff5482a78>@@$0A@@std@@V?$allocator@V?$_Func_class@_NAAVCFile@@@std@@@2@_NAAVCFile@@@std@@8 10025494     Stream.obj
 0002:000034a4       ??_R3?$_Func_impl@U?$_Callable_obj@V<lambda_257dd9aa029b0bb95eaf18bd787825cc>@@$0A@@std@@V?$allocator@V?$_Func_class@_NAAVCFile@@@std@@@2@_NAAVCFile@@@std@@8 100254a4     Stream.obj
 0002:000034b4       ??_R3?$_Func_base@_NAAVCFile@@@std@@8 100254b4     Stream.obj
 0002:000034c4       ??_R4?$_Func_impl@U?$_Callable_obj@V<lambda_bbe7db543262a53344bc92964eb41292>@@$0A@@std@@V?$allocator@V?$_Func_class@_NAAVCFile@@@std@@@2@_NAAVCFile@@@std@@6B@ 100254c4     Stream.obj
 0002:000034d8       ??_R4?$_Func_impl@U?$_Callable_obj@V<lambda_f8882b2bf4f22a473592eb1ff5482a78>@@$0A@@std@@V?$allocator@V?$_Func_class@_NAAVCFile@@@std@@@2@_NAAVCFile@@@std@@6B@ 100254d8     Stream.obj
 0002:000034ec       ??_R4?$_Func_impl@U?$_Callable_obj@V<lambda_257dd9aa029b0bb95eaf18bd787825cc>@@$0A@@std@@V?$allocator@V?$_Func_class@_NAAVCFile@@@std@@@2@_NAAVCFile@@@std@@6B@ 100254ec     Stream.obj
 0002:00003500       ??_R4?$_Func_base@_NAAVCFile@@@std@@6B@ 10025500     Stream.obj
 0002:00003514       ??_R1A@?0A@EA@Stream@baro@@8 10025514     Stream.obj
 0002:00003530       ??_R1A@?0A@EN@?$TBuffer@E@baro@@8 10025530     Stream.obj
 0002:0000354c       ??_R2Stream@baro@@8        1002554c     Stream.obj
 0002:00003558       ??_R3Stream@baro@@8        10025558     Stream.obj
 0002:00003568       ??_R4Stream@baro@@6B@      10025568     Stream.obj
 0002:0000357c       ??_R1A@?0A@EA@CriticalSection@baro@@8 1002557c     Logger.obj
 0002:00003598       ??_R2CriticalSection@baro@@8 10025598     Logger.obj
 0002:000035a4       ??_R3CriticalSection@baro@@8 100255a4     Logger.obj
 0002:000035b4       ??_R4CriticalSection@baro@@6B@ 100255b4     Logger.obj
 0002:000035c8       ??_R2BitmapDC@baro@@8      100255c8     BitmapDC.obj
 0002:000035d4       ??_R1A@?0A@EA@BitmapDC@baro@@8 100255d4     BitmapDC.obj
 0002:000035f0       ??_R3BitmapDC@baro@@8      100255f0     BitmapDC.obj
 0002:00003600       ??_R4BitmapDC@baro@@6B@    10025600     BitmapDC.obj
 0002:00003614       ??_R1A@?0A@EA@CBitmap@@8   10025614     BitmapDC.obj
 0002:00003630       ??_R2CBitmap@@8            10025630     BitmapDC.obj
 0002:00003640       ??_R3CBitmap@@8            10025640     BitmapDC.obj
 0002:00003650       ??_R4CBitmap@@6B@          10025650     BitmapDC.obj
 0002:00003664       ??_R2?$_Func_impl@U?$_Callable_obj@V?$_Bind@$00XU?$_Pmf_wrap@P8CustomGraph@baro@@AEXAAVGraphics@Gdiplus@@AAVCDC@@IK@ZXV12@AAV34@AAV5@IK@std@@QAVCustomGraph@baro@@AAV?$_Ph@$00@2@AAV?$_Ph@$01@2@AAV?$_Ph@$02@2@AAV?$_Ph@$03@2@@std@@$0A@@std@@V?$allocator@V?$_Func_class@XAAVGraphics@Gdiplus@@AAVCDC@@IK@std@@@2@XAAVGraphics@Gdiplus@@AAVCDC@@IK@std@@8 10025664     CustomGraph.obj
 0002:00003670       ??_R2?$_Ref_count_obj@VPointCoord@baro@@@std@@8 10025670     CustomGraph.obj
 0002:0000367c       ??_R2?$_Func_base@XAAVGraphics@Gdiplus@@AAVCDC@@IK@std@@8 1002567c     CustomGraph.obj
 0002:00003684       ??_R2CustomGraph@baro@@8   10025684     CustomGraph.obj
 0002:00003690       ??_R1A@?0A@EA@?$_Func_impl@U?$_Callable_obj@V?$_Bind@$00XU?$_Pmf_wrap@P8CustomGraph@baro@@AEXAAVGraphics@Gdiplus@@AAVCDC@@IK@ZXV12@AAV34@AAV5@IK@std@@QAVCustomGraph@baro@@AAV?$_Ph@$00@2@AAV?$_Ph@$01@2@AAV?$_Ph@$02@2@AAV?$_Ph@$03@2@@std@@$0A@@std@@V?$allocator@V?$_Func_class@XAAVGraphics@Gdiplus@@AAVCDC@@IK@std@@@2@XAAVGraphics@Gdiplus@@AAVCDC@@IK@std@@8 10025690     CustomGraph.obj
 0002:000036ac       ??_R1A@?0A@EA@?$_Ref_count_obj@VPointCoord@baro@@@std@@8 100256ac     CustomGraph.obj
 0002:000036c8       ??_R1A@?0A@EA@?$_Func_base@XAAVGraphics@Gdiplus@@AAVCDC@@IK@std@@8 100256c8     CustomGraph.obj
 0002:000036e4       ??_R1A@?0A@EA@CustomGraph@baro@@8 100256e4     CustomGraph.obj
 0002:00003700       ??_R3?$_Func_impl@U?$_Callable_obj@V?$_Bind@$00XU?$_Pmf_wrap@P8CustomGraph@baro@@AEXAAVGraphics@Gdiplus@@AAVCDC@@IK@ZXV12@AAV34@AAV5@IK@std@@QAVCustomGraph@baro@@AAV?$_Ph@$00@2@AAV?$_Ph@$01@2@AAV?$_Ph@$02@2@AAV?$_Ph@$03@2@@std@@$0A@@std@@V?$allocator@V?$_Func_class@XAAVGraphics@Gdiplus@@AAVCDC@@IK@std@@@2@XAAVGraphics@Gdiplus@@AAVCDC@@IK@std@@8 10025700     CustomGraph.obj
 0002:00003710       ??_R3?$_Ref_count_obj@VPointCoord@baro@@@std@@8 10025710     CustomGraph.obj
 0002:00003720       ??_R3?$_Func_base@XAAVGraphics@Gdiplus@@AAVCDC@@IK@std@@8 10025720     CustomGraph.obj
 0002:00003730       ??_R3CustomGraph@baro@@8   10025730     CustomGraph.obj
 0002:00003740       ??_R4?$_Func_impl@U?$_Callable_obj@V?$_Bind@$00XU?$_Pmf_wrap@P8CustomGraph@baro@@AEXAAVGraphics@Gdiplus@@AAVCDC@@IK@ZXV12@AAV34@AAV5@IK@std@@QAVCustomGraph@baro@@AAV?$_Ph@$00@2@AAV?$_Ph@$01@2@AAV?$_Ph@$02@2@AAV?$_Ph@$03@2@@std@@$0A@@std@@V?$allocator@V?$_Func_class@XAAVGraphics@Gdiplus@@AAVCDC@@IK@std@@@2@XAAVGraphics@Gdiplus@@AAVCDC@@IK@std@@6B@ 10025740     CustomGraph.obj
 0002:00003754       ??_R4?$_Ref_count_obj@VPointCoord@baro@@@std@@6B@ 10025754     CustomGraph.obj
 0002:00003768       ??_R4?$_Func_base@XAAVGraphics@Gdiplus@@AAVCDC@@IK@std@@6B@ 10025768     CustomGraph.obj
 0002:0000377c       ??_R4CustomGraph@baro@@6B@ 1002577c     CustomGraph.obj
 0002:00003790       ??_R1A@?0A@EA@GradientRect@baro@@8 10025790     GradientRect.obj
 0002:000037ac       ??_R2GradientRect@baro@@8  100257ac     GradientRect.obj
 0002:000037b8       ??_R3GradientRect@baro@@8  100257b8     GradientRect.obj
 0002:000037c8       ??_R4GradientRect@baro@@6B@ 100257c8     GradientRect.obj
 0002:000037dc       ??_R2?$_Func_impl@U?$_Callable_obj@V<lambda_f15cf28b79eebeba7dee09e3ec20cd6a>@@$0A@@std@@V?$allocator@V?$_Func_class@MI@std@@@2@MI@std@@8 100257dc     PointCoord.obj
 0002:000037e8       ??_R2?$_Func_impl@U?$_Callable_obj@V<lambda_660079388d01d824f1d4f65d6714bd9d>@@$0A@@std@@V?$allocator@V?$_Func_class@MI@std@@@2@MI@std@@8 100257e8     PointCoord.obj
 0002:000037f4       ??_R2?$_Func_base@MI@std@@8 100257f4     PointCoord.obj
 0002:000037fc       ??_R1A@?0A@EA@?$_Func_impl@U?$_Callable_obj@V<lambda_f15cf28b79eebeba7dee09e3ec20cd6a>@@$0A@@std@@V?$allocator@V?$_Func_class@MI@std@@@2@MI@std@@8 100257fc     PointCoord.obj
 0002:00003818       ??_R1A@?0A@EA@?$_Func_impl@U?$_Callable_obj@V<lambda_660079388d01d824f1d4f65d6714bd9d>@@$0A@@std@@V?$allocator@V?$_Func_class@MI@std@@@2@MI@std@@8 10025818     PointCoord.obj
 0002:00003834       ??_R1A@?0A@EA@?$_Func_base@MI@std@@8 10025834     PointCoord.obj
 0002:00003850       ??_R3?$_Func_impl@U?$_Callable_obj@V<lambda_f15cf28b79eebeba7dee09e3ec20cd6a>@@$0A@@std@@V?$allocator@V?$_Func_class@MI@std@@@2@MI@std@@8 10025850     PointCoord.obj
 0002:00003860       ??_R3?$_Func_impl@U?$_Callable_obj@V<lambda_660079388d01d824f1d4f65d6714bd9d>@@$0A@@std@@V?$allocator@V?$_Func_class@MI@std@@@2@MI@std@@8 10025860     PointCoord.obj
 0002:00003870       ??_R3?$_Func_base@MI@std@@8 10025870     PointCoord.obj
 0002:00003880       ??_R4?$_Func_impl@U?$_Callable_obj@V<lambda_f15cf28b79eebeba7dee09e3ec20cd6a>@@$0A@@std@@V?$allocator@V?$_Func_class@MI@std@@@2@MI@std@@6B@ 10025880     PointCoord.obj
 0002:00003894       ??_R4?$_Func_impl@U?$_Callable_obj@V<lambda_660079388d01d824f1d4f65d6714bd9d>@@$0A@@std@@V?$allocator@V?$_Func_class@MI@std@@@2@MI@std@@6B@ 10025894     PointCoord.obj
 0002:000038a8       ??_R4?$_Func_base@MI@std@@6B@ 100258a8     PointCoord.obj
 0002:000038bc       ??_R1A@?0A@EA@PointCoord@baro@@8 100258bc     PointCoord.obj
 0002:000038d8       ??_R2PointCoord@baro@@8    100258d8     PointCoord.obj
 0002:000038e4       ??_R3PointCoord@baro@@8    100258e4     PointCoord.obj
 0002:000038f4       ??_R4PointCoord@baro@@6B@  100258f4     PointCoord.obj
 0002:00003908       ??_R2ISerialize@baro@@8    10025908     ISerialize.obj
 0002:00003918       ??_R1A@?0A@EA@ISerialize@baro@@8 10025918     ISerialize.obj
 0002:00003934       ??_R3ISerialize@baro@@8    10025934     ISerialize.obj
 0002:00003944       ??_R4ISerialize@baro@@6B@  10025944     ISerialize.obj
 0002:00003958       ??_R2SystemInfo@baro@@8    10025958     SystemInfo.obj
 0002:0000396c       ??_R1A@?0A@EA@SystemInfo@baro@@8 1002596c     SystemInfo.obj
 0002:00003988       ??_R3SystemInfo@baro@@8    10025988     SystemInfo.obj
 0002:00003998       ??_R4SystemInfo@baro@@6B@  10025998     SystemInfo.obj
 0002:000039ac       ??_R1A@?0A@EA@?$TSingleton@$$CBVSystemInfo@baro@@@baro@@8 100259ac     SystemInfo.obj
 0002:000039c8       ??_R2?$TSingleton@$$CBVSystemInfo@baro@@@baro@@8 100259c8     SystemInfo.obj
 0002:000039d8       ??_R3?$TSingleton@$$CBVSystemInfo@baro@@@baro@@8 100259d8     SystemInfo.obj
 0002:000039e8       ??_R4?$TSingleton@$$CBVSystemInfo@baro@@@baro@@6B@ 100259e8     SystemInfo.obj
 0002:000039fc       ??_R1A@?0A@EA@?$_Func_base@W4StreamResult@baro@@ABV?$CStringT@_WV?$StrTraitMFC_DLL@_WV?$ChTraitsCRT@_W@ATL@@@@@ATL@@@std@@8 100259fc     stdafx.obj
 0002:00003a18       ??_R2_Iostream_error_category@std@@8 10025a18     stdafx.obj
 0002:00003a28       ??_R2?$_Func_impl@U?$_Callable_obj@V<lambda_e76177b2965f6f295be7c5f96021c124>@@$0A@@std@@V?$allocator@V?$_Func_class@W4StreamResult@baro@@AAV?$CStringT@_WV?$StrTraitMFC_DLL@_WV?$ChTraitsCRT@_W@ATL@@@@@ATL@@@std@@@2@W4StreamResult@baro@@AAV?$CStringT@_WV?$StrTraitMFC_DLL@_WV?$ChTraitsCRT@_W@ATL@@@@@ATL@@@std@@8 10025a28     stdafx.obj
 0002:00003a34       ??_R1A@?0A@EA@?$_Func_impl@U?$_Callable_obj@V<lambda_71f23d2cacd049d0fc44bb672969fbab>@@$0A@@std@@V?$allocator@V?$_Func_class@W4StreamResult@baro@@AAV?$CStringT@_WV?$StrTraitMFC_DLL@_WV?$ChTraitsCRT@_W@ATL@@@@@ATL@@@std@@@2@W4StreamResult@baro@@AAV?$CStringT@_WV?$StrTraitMFC_DLL@_WV?$ChTraitsCRT@_W@ATL@@@@@ATL@@@std@@8 10025a34     stdafx.obj
 0002:00003a50       ??_R4?$_Func_impl@U?$_Callable_obj@V<lambda_740eeb7a2f1d2c38bf9d2a55ba51dd10>@@$0A@@std@@V?$allocator@V?$_Func_class@W4StreamResult@baro@@ABV?$CStringT@_WV?$StrTraitMFC_DLL@_WV?$ChTraitsCRT@_W@ATL@@@@@ATL@@@std@@@2@W4StreamResult@baro@@ABV?$CStringT@_WV?$StrTraitMFC_DLL@_WV?$ChTraitsCRT@_W@ATL@@@@@ATL@@@std@@6B@ 10025a50     stdafx.obj
 0002:00003a64       ??_R1A@?0A@EA@?$_Func_base@W4StreamResult@baro@@AAV?$CStringT@_WV?$StrTraitMFC_DLL@_WV?$ChTraitsCRT@_W@ATL@@@@@ATL@@@std@@8 10025a64     stdafx.obj
 0002:00003a80       ??_R3error_category@std@@8 10025a80     stdafx.obj
 0002:00003a90       ??_R1A@?0A@EA@?$_Func_impl@U?$_Callable_obj@V<lambda_5c9231035f6c38fca048a0864a8210ea>@@$0A@@std@@V?$allocator@V?$_Func_class@W4StreamResult@baro@@AAV?$CStringT@_WV?$StrTraitMFC_DLL@_WV?$ChTraitsCRT@_W@ATL@@@@@ATL@@@std@@@2@W4StreamResult@baro@@AAV?$CStringT@_WV?$StrTraitMFC_DLL@_WV?$ChTraitsCRT@_W@ATL@@@@@ATL@@@std@@8 10025a90     stdafx.obj
 0002:00003aac       ??_R3?$_Func_impl@U?$_Callable_obj@V<lambda_5c9231035f6c38fca048a0864a8210ea>@@$0A@@std@@V?$allocator@V?$_Func_class@W4StreamResult@baro@@AAV?$CStringT@_WV?$StrTraitMFC_DLL@_WV?$ChTraitsCRT@_W@ATL@@@@@ATL@@@std@@@2@W4StreamResult@baro@@AAV?$CStringT@_WV?$StrTraitMFC_DLL@_WV?$ChTraitsCRT@_W@ATL@@@@@ATL@@@std@@8 10025aac     stdafx.obj
 0002:00003abc       ??_R1A@?0A@EA@?$_Func_impl@U?$_Callable_obj@V<lambda_75f487c1c530e75cedd270693ab9589c>@@$0A@@std@@V?$allocator@V?$_Func_class@W4StreamResult@baro@@ABV?$CStringT@_WV?$StrTraitMFC_DLL@_WV?$ChTraitsCRT@_W@ATL@@@@@ATL@@@std@@@2@W4StreamResult@baro@@ABV?$CStringT@_WV?$StrTraitMFC_DLL@_WV?$ChTraitsCRT@_W@ATL@@@@@ATL@@@std@@8 10025abc     stdafx.obj
 0002:00003ad8       ??_R1A@?0A@EA@error_category@std@@8 10025ad8     stdafx.obj
 0002:00003af4       ??_R3_System_error_category@std@@8 10025af4     stdafx.obj
 0002:00003b04       ??_R4?$_Func_impl@U?$_Callable_obj@V<lambda_75f487c1c530e75cedd270693ab9589c>@@$0A@@std@@V?$allocator@V?$_Func_class@W4StreamResult@baro@@ABV?$CStringT@_WV?$StrTraitMFC_DLL@_WV?$ChTraitsCRT@_W@ATL@@@@@ATL@@@std@@@2@W4StreamResult@baro@@ABV?$CStringT@_WV?$StrTraitMFC_DLL@_WV?$ChTraitsCRT@_W@ATL@@@@@ATL@@@std@@6B@ 10025b04     stdafx.obj
 0002:00003b18       ??_R2_System_error_category@std@@8 10025b18     stdafx.obj
 0002:00003b28       ??_R2?$_Func_impl@U?$_Callable_obj@V<lambda_187152e110f699ad5b1ab81533769cf2>@@$0A@@std@@V?$allocator@V?$_Func_class@W4StreamResult@baro@@ABV?$CStringT@_WV?$StrTraitMFC_DLL@_WV?$ChTraitsCRT@_W@ATL@@@@@ATL@@@std@@@2@W4StreamResult@baro@@ABV?$CStringT@_WV?$StrTraitMFC_DLL@_WV?$ChTraitsCRT@_W@ATL@@@@@ATL@@@std@@8 10025b28     stdafx.obj
 0002:00003b34       ??_R3?$_Func_impl@U?$_Callable_obj@V<lambda_187152e110f699ad5b1ab81533769cf2>@@$0A@@std@@V?$allocator@V?$_Func_class@W4StreamResult@baro@@ABV?$CStringT@_WV?$StrTraitMFC_DLL@_WV?$ChTraitsCRT@_W@ATL@@@@@ATL@@@std@@@2@W4StreamResult@baro@@ABV?$CStringT@_WV?$StrTraitMFC_DLL@_WV?$ChTraitsCRT@_W@ATL@@@@@ATL@@@std@@8 10025b34     stdafx.obj
 0002:00003b44       ??_R4_Generic_error_category@std@@6B@ 10025b44     stdafx.obj
 0002:00003b58       ??_R4?$_Func_impl@U?$_Callable_obj@V<lambda_71f23d2cacd049d0fc44bb672969fbab>@@$0A@@std@@V?$allocator@V?$_Func_class@W4StreamResult@baro@@AAV?$CStringT@_WV?$StrTraitMFC_DLL@_WV?$ChTraitsCRT@_W@ATL@@@@@ATL@@@std@@@2@W4StreamResult@baro@@AAV?$CStringT@_WV?$StrTraitMFC_DLL@_WV?$ChTraitsCRT@_W@ATL@@@@@ATL@@@std@@6B@ 10025b58     stdafx.obj
 0002:00003b6c       ??_R2?$_Func_impl@U?$_Callable_obj@V<lambda_75f487c1c530e75cedd270693ab9589c>@@$0A@@std@@V?$allocator@V?$_Func_class@W4StreamResult@baro@@ABV?$CStringT@_WV?$StrTraitMFC_DLL@_WV?$ChTraitsCRT@_W@ATL@@@@@ATL@@@std@@@2@W4StreamResult@baro@@ABV?$CStringT@_WV?$StrTraitMFC_DLL@_WV?$ChTraitsCRT@_W@ATL@@@@@ATL@@@std@@8 10025b6c     stdafx.obj
 0002:00003b78       ??_R1A@?0A@EA@?$_Func_impl@U?$_Callable_obj@V<lambda_740eeb7a2f1d2c38bf9d2a55ba51dd10>@@$0A@@std@@V?$allocator@V?$_Func_class@W4StreamResult@baro@@ABV?$CStringT@_WV?$StrTraitMFC_DLL@_WV?$ChTraitsCRT@_W@ATL@@@@@ATL@@@std@@@2@W4StreamResult@baro@@ABV?$CStringT@_WV?$StrTraitMFC_DLL@_WV?$ChTraitsCRT@_W@ATL@@@@@ATL@@@std@@8 10025b78     stdafx.obj
 0002:00003b94       ??_R4?$_Func_impl@U?$_Callable_obj@V<lambda_187152e110f699ad5b1ab81533769cf2>@@$0A@@std@@V?$allocator@V?$_Func_class@W4StreamResult@baro@@ABV?$CStringT@_WV?$StrTraitMFC_DLL@_WV?$ChTraitsCRT@_W@ATL@@@@@ATL@@@std@@@2@W4StreamResult@baro@@ABV?$CStringT@_WV?$StrTraitMFC_DLL@_WV?$ChTraitsCRT@_W@ATL@@@@@ATL@@@std@@6B@ 10025b94     stdafx.obj
 0002:00003ba8       ??_R1A@?0A@EA@_Generic_error_category@std@@8 10025ba8     stdafx.obj
 0002:00003bc4       ??_R2?$_Func_base@W4StreamResult@baro@@ABV?$CStringT@_WV?$StrTraitMFC_DLL@_WV?$ChTraitsCRT@_W@ATL@@@@@ATL@@@std@@8 10025bc4     stdafx.obj
 0002:00003bcc       ??_R1A@?0A@EA@_Iostream_error_category@std@@8 10025bcc     stdafx.obj
 0002:00003be8       ??_R2?$_Func_impl@U?$_Callable_obj@V<lambda_71f23d2cacd049d0fc44bb672969fbab>@@$0A@@std@@V?$allocator@V?$_Func_class@W4StreamResult@baro@@AAV?$CStringT@_WV?$StrTraitMFC_DLL@_WV?$ChTraitsCRT@_W@ATL@@@@@ATL@@@std@@@2@W4StreamResult@baro@@AAV?$CStringT@_WV?$StrTraitMFC_DLL@_WV?$ChTraitsCRT@_W@ATL@@@@@ATL@@@std@@8 10025be8     stdafx.obj
 0002:00003bf4       ??_R4error_category@std@@6B@ 10025bf4     stdafx.obj
 0002:00003c08       ??_R4_Iostream_error_category@std@@6B@ 10025c08     stdafx.obj
 0002:00003c1c       ??_R2?$_Func_base@W4StreamResult@baro@@AAV?$CStringT@_WV?$StrTraitMFC_DLL@_WV?$ChTraitsCRT@_W@ATL@@@@@ATL@@@std@@8 10025c1c     stdafx.obj
 0002:00003c24       ??_R1A@?0A@EA@?$_Func_impl@U?$_Callable_obj@V<lambda_e76177b2965f6f295be7c5f96021c124>@@$0A@@std@@V?$allocator@V?$_Func_class@W4StreamResult@baro@@AAV?$CStringT@_WV?$StrTraitMFC_DLL@_WV?$ChTraitsCRT@_W@ATL@@@@@ATL@@@std@@@2@W4StreamResult@baro@@AAV?$CStringT@_WV?$StrTraitMFC_DLL@_WV?$ChTraitsCRT@_W@ATL@@@@@ATL@@@std@@8 10025c24     stdafx.obj
 0002:00003c40       ??_R2?$_Func_impl@U?$_Callable_obj@V<lambda_740eeb7a2f1d2c38bf9d2a55ba51dd10>@@$0A@@std@@V?$allocator@V?$_Func_class@W4StreamResult@baro@@ABV?$CStringT@_WV?$StrTraitMFC_DLL@_WV?$ChTraitsCRT@_W@ATL@@@@@ATL@@@std@@@2@W4StreamResult@baro@@ABV?$CStringT@_WV?$StrTraitMFC_DLL@_WV?$ChTraitsCRT@_W@ATL@@@@@ATL@@@std@@8 10025c40     stdafx.obj
 0002:00003c4c       ??_R2error_category@std@@8 10025c4c     stdafx.obj
 0002:00003c54       ??_R3?$_Func_impl@U?$_Callable_obj@V<lambda_71f23d2cacd049d0fc44bb672969fbab>@@$0A@@std@@V?$allocator@V?$_Func_class@W4StreamResult@baro@@AAV?$CStringT@_WV?$StrTraitMFC_DLL@_WV?$ChTraitsCRT@_W@ATL@@@@@ATL@@@std@@@2@W4StreamResult@baro@@AAV?$CStringT@_WV?$StrTraitMFC_DLL@_WV?$ChTraitsCRT@_W@ATL@@@@@ATL@@@std@@8 10025c54     stdafx.obj
 0002:00003c64       ??_R3?$_Func_base@W4StreamResult@baro@@AAV?$CStringT@_WV?$StrTraitMFC_DLL@_WV?$ChTraitsCRT@_W@ATL@@@@@ATL@@@std@@8 10025c64     stdafx.obj
 0002:00003c74       ??_R1A@?0A@EA@_System_error_category@std@@8 10025c74     stdafx.obj
 0002:00003c90       ??_R3_Iostream_error_category@std@@8 10025c90     stdafx.obj
 0002:00003ca0       ??_R3?$_Func_base@W4StreamResult@baro@@ABV?$CStringT@_WV?$StrTraitMFC_DLL@_WV?$ChTraitsCRT@_W@ATL@@@@@ATL@@@std@@8 10025ca0     stdafx.obj
 0002:00003cb0       ??_R1A@?0A@EA@?$_Func_impl@U?$_Callable_obj@V<lambda_187152e110f699ad5b1ab81533769cf2>@@$0A@@std@@V?$allocator@V?$_Func_class@W4StreamResult@baro@@ABV?$CStringT@_WV?$StrTraitMFC_DLL@_WV?$ChTraitsCRT@_W@ATL@@@@@ATL@@@std@@@2@W4StreamResult@baro@@ABV?$CStringT@_WV?$StrTraitMFC_DLL@_WV?$ChTraitsCRT@_W@ATL@@@@@ATL@@@std@@8 10025cb0     stdafx.obj
 0002:00003ccc       ??_R4_System_error_category@std@@6B@ 10025ccc     stdafx.obj
 0002:00003ce0       ??_R3?$_Func_impl@U?$_Callable_obj@V<lambda_740eeb7a2f1d2c38bf9d2a55ba51dd10>@@$0A@@std@@V?$allocator@V?$_Func_class@W4StreamResult@baro@@ABV?$CStringT@_WV?$StrTraitMFC_DLL@_WV?$ChTraitsCRT@_W@ATL@@@@@ATL@@@std@@@2@W4StreamResult@baro@@ABV?$CStringT@_WV?$StrTraitMFC_DLL@_WV?$ChTraitsCRT@_W@ATL@@@@@ATL@@@std@@8 10025ce0     stdafx.obj
 0002:00003cf0       ??_R3?$_Func_impl@U?$_Callable_obj@V<lambda_e76177b2965f6f295be7c5f96021c124>@@$0A@@std@@V?$allocator@V?$_Func_class@W4StreamResult@baro@@AAV?$CStringT@_WV?$StrTraitMFC_DLL@_WV?$ChTraitsCRT@_W@ATL@@@@@ATL@@@std@@@2@W4StreamResult@baro@@AAV?$CStringT@_WV?$StrTraitMFC_DLL@_WV?$ChTraitsCRT@_W@ATL@@@@@ATL@@@std@@8 10025cf0     stdafx.obj
 0002:00003d00       ??_R4?$_Func_base@W4StreamResult@baro@@ABV?$CStringT@_WV?$StrTraitMFC_DLL@_WV?$ChTraitsCRT@_W@ATL@@@@@ATL@@@std@@6B@ 10025d00     stdafx.obj
 0002:00003d14       ??_R4?$_Func_impl@U?$_Callable_obj@V<lambda_5c9231035f6c38fca048a0864a8210ea>@@$0A@@std@@V?$allocator@V?$_Func_class@W4StreamResult@baro@@AAV?$CStringT@_WV?$StrTraitMFC_DLL@_WV?$ChTraitsCRT@_W@ATL@@@@@ATL@@@std@@@2@W4StreamResult@baro@@AAV?$CStringT@_WV?$StrTraitMFC_DLL@_WV?$ChTraitsCRT@_W@ATL@@@@@ATL@@@std@@6B@ 10025d14     stdafx.obj
 0002:00003d28       ??_R4?$_Func_impl@U?$_Callable_obj@V<lambda_e76177b2965f6f295be7c5f96021c124>@@$0A@@std@@V?$allocator@V?$_Func_class@W4StreamResult@baro@@AAV?$CStringT@_WV?$StrTraitMFC_DLL@_WV?$ChTraitsCRT@_W@ATL@@@@@ATL@@@std@@@2@W4StreamResult@baro@@AAV?$CStringT@_WV?$StrTraitMFC_DLL@_WV?$ChTraitsCRT@_W@ATL@@@@@ATL@@@std@@6B@ 10025d28     stdafx.obj
 0002:00003d3c       ??_R2_Generic_error_category@std@@8 10025d3c     stdafx.obj
 0002:00003d48       ??_R4?$_Func_base@W4StreamResult@baro@@AAV?$CStringT@_WV?$StrTraitMFC_DLL@_WV?$ChTraitsCRT@_W@ATL@@@@@ATL@@@std@@6B@ 10025d48     stdafx.obj
 0002:00003d5c       ??_R2?$_Func_impl@U?$_Callable_obj@V<lambda_5c9231035f6c38fca048a0864a8210ea>@@$0A@@std@@V?$allocator@V?$_Func_class@W4StreamResult@baro@@AAV?$CStringT@_WV?$StrTraitMFC_DLL@_WV?$ChTraitsCRT@_W@ATL@@@@@ATL@@@std@@@2@W4StreamResult@baro@@AAV?$CStringT@_WV?$StrTraitMFC_DLL@_WV?$ChTraitsCRT@_W@ATL@@@@@ATL@@@std@@8 10025d5c     stdafx.obj
 0002:00003d68       ??_R3?$_Func_impl@U?$_Callable_obj@V<lambda_75f487c1c530e75cedd270693ab9589c>@@$0A@@std@@V?$allocator@V?$_Func_class@W4StreamResult@baro@@ABV?$CStringT@_WV?$StrTraitMFC_DLL@_WV?$ChTraitsCRT@_W@ATL@@@@@ATL@@@std@@@2@W4StreamResult@baro@@ABV?$CStringT@_WV?$StrTraitMFC_DLL@_WV?$ChTraitsCRT@_W@ATL@@@@@ATL@@@std@@8 10025d68     stdafx.obj
 0002:00003d78       ??_R3_Generic_error_category@std@@8 10025d78     stdafx.obj
 0002:00003d90       ___safe_se_handler_table   10025d90     <linker-defined>
 0002:00004010       ___rtc_iaa                 10026010     msvcrt:initsect.obj
 0002:00004014       ___rtc_izz                 10026014     msvcrt:initsect.obj
 0002:00004018       ___rtc_taa                 10026018     msvcrt:initsect.obj
 0002:0000401c       ___rtc_tzz                 1002601c     msvcrt:initsect.obj
 0002:00006a0c       __CTA1?AVCppSqlite3Exception@@ 10028a0c     CppSQLite3U.obj
 0002:00006a14       __CT??_R0?AVCppSqlite3Exception@@@8??0CppSqlite3Exception@@QAE@ABV0@@Z12 10028a14     CppSQLite3U.obj
 0002:00006a30       __TI1?AVCppSqlite3Exception@@ 10028a30     CppSQLite3U.obj
 0002:0000f518       __IMPORT_DESCRIPTOR_mfc120u 10031518     mfc120u:mfc120u.dll
 0002:0000f52c       __IMPORT_DESCRIPTOR_MSVCR120 1003152c     msvcrt:MSVCR120.dll
 0002:0000f540       __IMPORT_DESCRIPTOR_KERNEL32 10031540     kernel32:KERNEL32.dll
 0002:0000f554       __IMPORT_DESCRIPTOR_USER32 10031554     user32:USER32.dll
 0002:0000f568       __IMPORT_DESCRIPTOR_GDI32  10031568     gdi32:GDI32.dll
 0002:0000f57c       __IMPORT_DESCRIPTOR_ADVAPI32 1003157c     advapi32:ADVAPI32.dll
 0002:0000f590       __IMPORT_DESCRIPTOR_SHELL32 10031590     shell32:SHELL32.dll
 0002:0000f5a4       __IMPORT_DESCRIPTOR_COMCTL32 100315a4     comctl32:COMCTL32.dll
 0002:0000f5b8       __IMPORT_DESCRIPTOR_SHLWAPI 100315b8     shlwapi:SHLWAPI.dll
 0002:0000f5cc       __IMPORT_DESCRIPTOR_ole32  100315cc     ole32:ole32.dll
 0002:0000f5e0       __IMPORT_DESCRIPTOR_OLEAUT32 100315e0     oleaut32:OLEAUT32.dll
 0002:0000f5f4       __IMPORT_DESCRIPTOR_CRYPT32 100315f4     crypt32:CRYPT32.dll
 0002:0000f608       __IMPORT_DESCRIPTOR_MSVCP120 10031608     msvcprt:MSVCP120.dll
 0002:0000f61c       __IMPORT_DESCRIPTOR_gdiplus 1003161c     gdiplus:gdiplus.dll
 0002:0000f630       __IMPORT_DESCRIPTOR_WININET 10031630     Wininet:WININET.dll
 0002:0000f644       __IMPORT_DESCRIPTOR_VERSION 10031644     version:VERSION.dll
 0002:0000f658       __IMPORT_DESCRIPTOR_NETAPI32 10031658     netapi32:NETAPI32.dll
 0002:0000f66c       __IMPORT_DESCRIPTOR_sqlite3 1003166c     sqlite3:sqlite3.dll
 0002:0000f680       __IMPORT_DESCRIPTOR_IPHLPAPI 10031680     IPHLPAPI:IPHLPAPI.DLL
 0002:0000f694       __NULL_IMPORT_DESCRIPTOR   10031694     mfc120u:mfc120u.dll
 0003:00000000       ___security_cookie         10034000     msvcrt:gs_cookie.obj
 0003:00000004       ___security_cookie_complement 10034004     msvcrt:gs_cookie.obj
 0003:00000008       ___native_dllmain_reason   10034008     msvcrt:natstart.obj
 0003:0000000c       ?g_nMaxTab@@3HA            1003400c     Logger.obj
 0003:00000010       ?g_csPrint@@3VCriticalSection@baro@@A 10034010     Logger.obj
 0003:00000034       ?g_csConstruct@@3VCriticalSection@baro@@A 10034034     Logger.obj
 0003:00000058       ?_System_object@?$_Error_objects@H@std@@2V_System_error_category@2@A 10034058     stdafx.obj
 0003:0000005c       ?_Generic_object@?$_Error_objects@H@std@@2V_Generic_error_category@2@A 1003405c     stdafx.obj
 0003:00000060       ?_Iostream_object@?$_Error_objects@H@std@@2V_Iostream_error_category@2@A 10034060     stdafx.obj
 0003:00000070       ??_R0?AVCNoTrackObject@@@8 10034070     mfcs120u:dllmodul.obj
 0003:00000090       ??_R0?AV_AFX_DLL_MODULE_STATE@@@8 10034090     mfcs120u:dllmodul.obj
 0003:000000b4       ??_R0?AVAFX_MODULE_STATE@@@8 100340b4     mfcs120u:dllmodul.obj
 0003:000000d4       ??_R0?AVtype_info@@@8      100340d4     msvcrt:ti_inst.obj
 0003:000000ec       ??_R0?AVCCmdTarget@@@8     100340ec     Baronow23.obj
 0003:00000108       ??_R0?AVCObject@@@8        10034108     Baronow23.obj
 0003:00000120       ??_R0?AVCWinApp@@@8        10034120     Baronow23.obj
 0003:00000138       ??_R0?AVCWinThread@@@8     10034138     Baronow23.obj
 0003:00000154       ??_R0?AVCBaronow23App@@@8  10034154     Baronow23.obj
 0003:00000170       ??_R0?AVCppSqlite3DB@@@8   10034170     CppSQLite3U.obj
 0003:0000018c       ??_R0?AVCppSqlite3Query@@@8 1003418c     CppSQLite3U.obj
 0003:000001ac       ??_R0?AVCppSqlite3Exception@@@8 100341ac     CppSQLite3U.obj
 0003:000001d0       ??_R0?AV?$TBuffer@D@baro@@@8 100341d0     crypt.obj
 0003:000001f0       ??_R0?AV?$TBuffer@_W@baro@@@8 100341f0     crypt.obj
 0003:00000210       ??_R0?AV?$_Func_impl@U?$_Callable_obj@V<lambda_92ae8a6edb3cc5c1e2896be211724754>@@$0A@@std@@V?$allocator@V?$_Func_class@XV?$CStringT@_WV?$StrTraitMFC_DLL@_WV?$ChTraitsCRT@_W@ATL@@@@@ATL@@AAV?$vector@V?$CStringT@_WV?$StrTraitMFC_DLL@_WV?$ChTraitsCRT@_W@ATL@@@@@ATL@@V?$allocator@V?$CStringT@_WV?$StrTraitMFC_DLL@_WV?$ChTraitsCRT@_W@ATL@@@@@ATL@@@std@@@std@@@std@@@2@XV?$CStringT@_WV?$StrTraitMFC_DLL@_WV?$ChTraitsCRT@_W@ATL@@@@@ATL@@AAV?$vector@V?$CStringT@_WV?$StrTraitMFC_DLL@_WV?$ChTraitsCRT@_W@ATL@@@@@ATL@@V?$allocator@V?$CStringT@_WV?$StrTraitMFC_DLL@_WV?$ChTraitsCRT@_W@ATL@@@@@ATL@@@std@@@2@@std@@@8 10034210     file.obj
 0003:00000478       ??_R0?AV?$_Func_base@XV?$CStringT@_WV?$StrTraitMFC_DLL@_WV?$ChTraitsCRT@_W@ATL@@@@@ATL@@AAV?$vector@V?$CStringT@_WV?$StrTraitMFC_DLL@_WV?$ChTraitsCRT@_W@ATL@@@@@ATL@@V?$allocator@V?$CStringT@_WV?$StrTraitMFC_DLL@_WV?$ChTraitsCRT@_W@ATL@@@@@ATL@@@std@@@std@@@std@@@8 10034478     file.obj
 0003:00000584       ??_R0?AV<lambda_92ae8a6edb3cc5c1e2896be211724754>@@@8 10034584     file.obj
 0003:000005bc       ??_R0PAVCException@@@8     100345bc     file.obj
 0003:000005d8       ??_R0PAVCFileException@@@8 100345d8     file.obj
 0003:000005f8       ??_R0PAVCMemoryException@@@8 100345f8     file.obj
 0003:00000618       ??_R0?AVCPen@@@8           10034618     gdi.obj
 0003:0000062c       ??_R0?AVCGdiObject@@@8     1003462c     gdi.obj
 0003:00000648       ??_R0?AVBitmap@Gdiplus@@@8 10034648     image.obj
 0003:00000668       ??_R0?AVImage@Gdiplus@@@8  10034668     image.obj
 0003:00000684       ??_R0?AVGdiplusBase@Gdiplus@@@8 10034684     image.obj
 0003:000006a8       ??_R0?AV?$TBuffer@E@baro@@@8 100346a8     A256B64.obj
 0003:000006c8       ??_R0?AVCryptBuffer@baro@@@8 100346c8     CryptBuffer.obj
 0003:000006e8       ??_R0?AVCheckPointer@baro@@@8 100346e8     CryptBuffer.obj
 0003:00000708       ??_R0?AV?$_Ref_count_obj@VCryptHandle@baro@@@std@@@8 10034708     CryptFactory.obj
 0003:00000740       ??_R0?AV_Ref_count_base@std@@@8 10034740     CryptFactory.obj
 0003:00000764       ??_R0?AVMsgThread@baro@@@8 10034764     MsgThread.obj
 0003:00000784       ??_R0?AVMsgProcedure@helper@baro@@@8 10034784     MsgThread.obj
 0003:000007b0       ??_R0?AV?$_Func_impl@U?$_Callable_obj@V<lambda_bbe7db543262a53344bc92964eb41292>@@$0A@@std@@V?$allocator@V?$_Func_class@_NAAVCFile@@@std@@@2@_NAAVCFile@@@std@@@8 100347b0     Stream.obj
 0003:00000858       ??_R0?AV?$_Func_impl@U?$_Callable_obj@V<lambda_f8882b2bf4f22a473592eb1ff5482a78>@@$0A@@std@@V?$allocator@V?$_Func_class@_NAAVCFile@@@std@@@2@_NAAVCFile@@@std@@@8 10034858     Stream.obj
 0003:00000900       ??_R0?AV?$_Func_impl@U?$_Callable_obj@V<lambda_257dd9aa029b0bb95eaf18bd787825cc>@@$0A@@std@@V?$allocator@V?$_Func_class@_NAAVCFile@@@std@@@2@_NAAVCFile@@@std@@@8 10034900     Stream.obj
 0003:000009a4       ??_R0?AV?$_Func_base@_NAAVCFile@@@std@@@8 100349a4     Stream.obj
 0003:000009d0       ??_R0?AV<lambda_bbe7db543262a53344bc92964eb41292>@@@8 100349d0     Stream.obj
 0003:00000a08       ??_R0?AV<lambda_f8882b2bf4f22a473592eb1ff5482a78>@@@8 10034a08     Stream.obj
 0003:00000a40       ??_R0?AV<lambda_257dd9aa029b0bb95eaf18bd787825cc>@@@8 10034a40     Stream.obj
 0003:00000a78       ??_R0?AVStream@baro@@@8    10034a78     Stream.obj
 0003:00000a94       ??_R0?AVCriticalSection@baro@@@8 10034a94     Logger.obj
 0003:00000ab8       ??_R0?AVBitmapDC@baro@@@8  10034ab8     BitmapDC.obj
 0003:00000ad4       ??_R0?AVCBitmap@@@8        10034ad4     BitmapDC.obj
 0003:00000af0       ??_R0?AV?$_Func_impl@U?$_Callable_obj@V?$_Bind@$00XU?$_Pmf_wrap@P8CustomGraph@baro@@AEXAAVGraphics@Gdiplus@@AAVCDC@@IK@ZXV12@AAV34@AAV5@IK@std@@QAVCustomGraph@baro@@AAV?$_Ph@$00@2@AAV?$_Ph@$01@2@AAV?$_Ph@$02@2@AAV?$_Ph@$03@2@@std@@$0A@@std@@V?$allocator@V?$_Func_class@XAAVGraphics@Gdiplus@@AAVCDC@@IK@std@@@2@XAAVGraphics@Gdiplus@@AAVCDC@@IK@std@@@8 10034af0     CustomGraph.obj
 0003:00000c54       ??_R0?AV?$_Ref_count_obj@VPointCoord@baro@@@std@@@8 10034c54     CustomGraph.obj
 0003:00000c90       ??_R0?AV?$_Func_base@XAAVGraphics@Gdiplus@@AAVCDC@@IK@std@@@8 10034c90     CustomGraph.obj
 0003:00000cd0       ??_R0?AVCustomGraph@baro@@@8 10034cd0     CustomGraph.obj
 0003:00000cf0       ??_R0?AV?$_Bind@$00XU?$_Pmf_wrap@P8CustomGraph@baro@@AEXAAVGraphics@Gdiplus@@AAVCDC@@IK@ZXV12@AAV34@AAV5@IK@std@@QAVCustomGraph@baro@@AAV?$_Ph@$00@2@AAV?$_Ph@$01@2@AAV?$_Ph@$02@2@AAV?$_Ph@$03@2@@std@@@8 10034cf0     CustomGraph.obj
 0003:00000dc0       ??_R0?AVGradientRect@baro@@@8 10034dc0     GradientRect.obj
 0003:00000de0       ??_R0?AV?$_Func_impl@U?$_Callable_obj@V<lambda_f15cf28b79eebeba7dee09e3ec20cd6a>@@$0A@@std@@V?$allocator@V?$_Func_class@MI@std@@@2@MI@std@@@8 10034de0     PointCoord.obj
 0003:00000e70       ??_R0?AV?$_Func_impl@U?$_Callable_obj@V<lambda_660079388d01d824f1d4f65d6714bd9d>@@$0A@@std@@V?$allocator@V?$_Func_class@MI@std@@@2@MI@std@@@8 10034e70     PointCoord.obj
 0003:00000f00       ??_R0?AV?$_Func_base@MI@std@@@8 10034f00     PointCoord.obj
 0003:00000f24       ??_R0?AV<lambda_f15cf28b79eebeba7dee09e3ec20cd6a>@@@8 10034f24     PointCoord.obj
 0003:00000f5c       ??_R0?AV<lambda_660079388d01d824f1d4f65d6714bd9d>@@@8 10034f5c     PointCoord.obj
 0003:00000f94       ??_R0?AVPointCoord@baro@@@8 10034f94     PointCoord.obj
 0003:00000fb4       ??_R0?AVISerialize@baro@@@8 10034fb4     ISerialize.obj
 0003:00000fd4       ??_R0?AVSystemInfo@baro@@@8 10034fd4     SystemInfo.obj
 0003:00000ff4       ??_R0?AV?$TSingleton@$$CBVSystemInfo@baro@@@baro@@@8 10034ff4     SystemInfo.obj
 0003:00001030       ??_R0?AV?$_Func_impl@U?$_Callable_obj@V<lambda_5c9231035f6c38fca048a0864a8210ea>@@$0A@@std@@V?$allocator@V?$_Func_class@W4StreamResult@baro@@AAV?$CStringT@_WV?$StrTraitMFC_DLL@_WV?$ChTraitsCRT@_W@ATL@@@@@ATL@@@std@@@2@W4StreamResult@baro@@AAV?$CStringT@_WV?$StrTraitMFC_DLL@_WV?$ChTraitsCRT@_W@ATL@@@@@ATL@@@std@@@8 10035030     stdafx.obj
 0003:00001170       ??_R0?AV?$_Func_base@W4StreamResult@baro@@ABV?$CStringT@_WV?$StrTraitMFC_DLL@_WV?$ChTraitsCRT@_W@ATL@@@@@ATL@@@std@@@8 10035170     stdafx.obj
 0003:000011ec       ??_R0?AV_Iostream_error_category@std@@@8 100351ec     stdafx.obj
 0003:00001218       ??_R0?AV<lambda_740eeb7a2f1d2c38bf9d2a55ba51dd10>@@@8 10035218     stdafx.obj
 0003:00001250       ??_R0?AV<lambda_e76177b2965f6f295be7c5f96021c124>@@@8 10035250     stdafx.obj
 0003:00001288       ??_R0?AV<lambda_71f23d2cacd049d0fc44bb672969fbab>@@@8 10035288     stdafx.obj
 0003:000012c0       ??_R0?AV?$_Func_impl@U?$_Callable_obj@V<lambda_e76177b2965f6f295be7c5f96021c124>@@$0A@@std@@V?$allocator@V?$_Func_class@W4StreamResult@baro@@AAV?$CStringT@_WV?$StrTraitMFC_DLL@_WV?$ChTraitsCRT@_W@ATL@@@@@ATL@@@std@@@2@W4StreamResult@baro@@AAV?$CStringT@_WV?$StrTraitMFC_DLL@_WV?$ChTraitsCRT@_W@ATL@@@@@ATL@@@std@@@8 100352c0     stdafx.obj
 0003:00001400       ??_R0?AV<lambda_187152e110f699ad5b1ab81533769cf2>@@@8 10035400     stdafx.obj
 0003:00001438       ??_R0?AV_System_error_category@std@@@8 10035438     stdafx.obj
 0003:00001464       ??_R0?AV<lambda_5c9231035f6c38fca048a0864a8210ea>@@@8 10035464     stdafx.obj
 0003:000014a0       ??_R0?AV?$_Func_impl@U?$_Callable_obj@V<lambda_740eeb7a2f1d2c38bf9d2a55ba51dd10>@@$0A@@std@@V?$allocator@V?$_Func_class@W4StreamResult@baro@@ABV?$CStringT@_WV?$StrTraitMFC_DLL@_WV?$ChTraitsCRT@_W@ATL@@@@@ATL@@@std@@@2@W4StreamResult@baro@@ABV?$CStringT@_WV?$StrTraitMFC_DLL@_WV?$ChTraitsCRT@_W@ATL@@@@@ATL@@@std@@@8 100354a0     stdafx.obj
 0003:000015e0       ??_R0?AVerror_category@std@@@8 100355e0     stdafx.obj
 0003:00001608       ??_R0?AV?$_Func_base@W4StreamResult@baro@@AAV?$CStringT@_WV?$StrTraitMFC_DLL@_WV?$ChTraitsCRT@_W@ATL@@@@@ATL@@@std@@@8 10035608     stdafx.obj
 0003:00001684       ??_R0?AV<lambda_75f487c1c530e75cedd270693ab9589c>@@@8 10035684     stdafx.obj
 0003:000016c0       ??_R0?AV?$_Func_impl@U?$_Callable_obj@V<lambda_71f23d2cacd049d0fc44bb672969fbab>@@$0A@@std@@V?$allocator@V?$_Func_class@W4StreamResult@baro@@AAV?$CStringT@_WV?$StrTraitMFC_DLL@_WV?$ChTraitsCRT@_W@ATL@@@@@ATL@@@std@@@2@W4StreamResult@baro@@AAV?$CStringT@_WV?$StrTraitMFC_DLL@_WV?$ChTraitsCRT@_W@ATL@@@@@ATL@@@std@@@8 100356c0     stdafx.obj
 0003:00001800       ??_R0?AV_Generic_error_category@std@@@8 10035800     stdafx.obj
 0003:00001830       ??_R0?AV?$_Func_impl@U?$_Callable_obj@V<lambda_75f487c1c530e75cedd270693ab9589c>@@$0A@@std@@V?$allocator@V?$_Func_class@W4StreamResult@baro@@ABV?$CStringT@_WV?$StrTraitMFC_DLL@_WV?$ChTraitsCRT@_W@ATL@@@@@ATL@@@std@@@2@W4StreamResult@baro@@ABV?$CStringT@_WV?$StrTraitMFC_DLL@_WV?$ChTraitsCRT@_W@ATL@@@@@ATL@@@std@@@8 10035830     stdafx.obj
 0003:00001970       ??_R0?AV?$_Func_impl@U?$_Callable_obj@V<lambda_187152e110f699ad5b1ab81533769cf2>@@$0A@@std@@V?$allocator@V?$_Func_class@W4StreamResult@baro@@ABV?$CStringT@_WV?$StrTraitMFC_DLL@_WV?$ChTraitsCRT@_W@ATL@@@@@ATL@@@std@@@2@W4StreamResult@baro@@ABV?$CStringT@_WV?$StrTraitMFC_DLL@_WV?$ChTraitsCRT@_W@ATL@@@@@ATL@@@std@@@8 10035970     stdafx.obj
 0003:00001ab0       __afxForceEXCLUDE          10035ab0     mfcs120u:nolib.obj
 0003:00001ab8       __afxForceUSRDLL           10035ab8     mfcs120u:dllmodul.obj
 0003:00001b70       ?__mixedModuleStartup@@3HA 10035b70     mfcs120u:dllmodul.obj
 0003:00001b74       __afxForceSTDAFX           10035b74     mfcs120u:stdafx.obj
 0003:00001e9c       ?__type_info_root_node@@3U__type_info_node@@A 10035e9c     msvcrt:tncleanup.obj
 0003:00001ea4       ?_AtlBaseModule@ATL@@3VCAtlBaseModule@1@A 10035ea4     atls:atlbase.obj
 0003:00001edc       ___@@_PchSym_@00@UwwUexgllohUexHoryhUhsrkUzgonuxUhixUzgoUzgohUlyqBiUrDIGUhgwzucOlyq@78CA5F0B165856AC 10035edc     atls:stdafx.obj
 0003:00001ee0       ??_B?1??GetInstance@?$TSingleton@$$CBVSystemInfo@baro@@@baro@@SAABVSystemInfo@2@XZ@51 10035ee0     system.obj
 0003:00001ee8       ?instance@?1??GetInstance@?$TSingleton@$$CBVSystemInfo@baro@@@baro@@SAABVSystemInfo@3@XZ@4V43@B 10035ee8     system.obj
 0003:00002068       ?g_nMaxClass@@3HA          10036068     Logger.obj
 0003:0000206c       ?g_nIndex@@3IA             1003606c     Logger.obj
 0003:00002070       ?g_dwMainThreadID@@3KA     10036070     Logger.obj
 0003:00002074       ?g_bEnableWrite@@3_NA      10036074     Logger.obj
 0003:00002075       ?g_bEnablePrint@@3_NA      10036075     Logger.obj
 0003:00002078       ?g_pFileTrace@@3PAU_iobuf@@A 10036078     Logger.obj
 0003:000020a4       ?g_ScreenSaverControl@@3VScreenSaverControl@@A 100360a4     Logger.obj
 0003:000020b0       ?theApp@@3VCBaronow23App@@A 100360b0     Baronow23.obj
 0003:00002180       ?g_mConstruct@@3V?$map@V?$CStringT@_WV?$StrTraitMFC_DLL@_WV?$ChTraitsCRT@_W@ATL@@@@@ATL@@U?$pair@II@std@@U?$less@V?$CStringT@_WV?$StrTraitMFC_DLL@_WV?$ChTraitsCRT@_W@ATL@@@@@ATL@@@4@V?$allocator@U?$pair@$$CBV?$CStringT@_WV?$StrTraitMFC_DLL@_WV?$ChTraitsCRT@_W@ATL@@@@@ATL@@U?$pair@II@std@@@std@@@4@@std@@A 10036180     Logger.obj
 0003:0000218c       ___@@_PchSym_@00@UwveUoryizibUyzilmldUyzilmldCDUyzilmldCDUivovzhvUhgwzucOlyq@AC462C9A5FA082D6 1003618c     stdafx.obj
 0003:00002190       ?m_bInitFailed@CAtlBaseModule@ATL@@2_NA 10036190     stdafx.obj
 0003:00002194       ??_B?1???$MakeRandom@H@bapi@@YAHHH@Z@51 10036194     gdi.obj
 0003:000021a0       ?rnd@?1???$MakeRandom@H@bapi@@YAHHH@Z@4V?$mersenne_twister_engine@_K$0EA@$0BDI@$0JM@$0BP@$0?EKPNJAKFFGJJOGBH@$0BN@$0FFFFFFFFFFFFFFFF@$0BB@$0HBNGHPPPONKGAAAA@$0CF@$0?IBBCAAAAAAAAA@$0CL@$0FIFBPECNEMJFHPCN@@std@@A 100361a0     gdi.obj
 0003:00003530       ___native_startup_lock     10037530     <common>
 0003:00003534       ___native_startup_state    10037534     <common>
 0003:00003538       ___dyn_tls_init_callback   10037538     <common>
 0003:0000353c       ___onexitend               1003753c     <common>
 0003:00003540       ___onexitbegin             10037540     <common>

 entry point at        0001:0001c9e2

 Static symbols

 0000:fffc4000       .debug$S                   10000000     mfc120u:mfc120u.dll
 0000:fffc4000       .debug$S                   10000000     IPHLPAPI:IPHLPAPI.DLL
 0000:fffc4000       .debug$S                   10000000     sqlite3:sqlite3.dll
 0000:fffc4000       .debug$S                   10000000     sqlite3:sqlite3.dll
 0000:fffc4000       .debug$S                   10000000     sqlite3:sqlite3.dll
 0000:fffc4000       .debug$S                   10000000     sqlite3:sqlite3.dll
 0000:fffc4000       .debug$S                   10000000     sqlite3:sqlite3.dll
 0000:fffc4000       .debug$S                   10000000     sqlite3:sqlite3.dll
 0000:fffc4000       .debug$S                   10000000     sqlite3:sqlite3.dll
 0000:fffc4000       .debug$S                   10000000     mfc120u:mfc120u.dll
 0000:fffc4000       .debug$S                   10000000     mfc120u:mfc120u.dll
 0000:fffc4000       .debug$S                   10000000     mfc120u:mfc120u.dll
 0000:fffc4000       .debug$S                   10000000     mfc120u:mfc120u.dll
 0000:fffc4000       .debug$S                   10000000     mfc120u:mfc120u.dll
 0000:fffc4000       .debug$S                   10000000     mfc120u:mfc120u.dll
 0000:fffc4000       .debug$S                   10000000     mfc120u:mfc120u.dll
 0000:fffc4000       .debug$S                   10000000     mfc120u:mfc120u.dll
 0000:fffc4000       .debug$S                   10000000     mfc120u:mfc120u.dll
 0000:fffc4000       .debug$S                   10000000     sqlite3:sqlite3.dll
 0000:fffc4000       .debug$S                   10000000     sqlite3:sqlite3.dll
 0000:fffc4000       .debug$S                   10000000     sqlite3:sqlite3.dll
 0000:fffc4000       .debug$S                   10000000     sqlite3:sqlite3.dll
 0000:fffc4000       .debug$S                   10000000     sqlite3:sqlite3.dll
 0000:fffc4000       .debug$S                   10000000     sqlite3:sqlite3.dll
 0000:fffc4000       .debug$S                   10000000     sqlite3:sqlite3.dll
 0000:fffc4000       .debug$S                   10000000     sqlite3:sqlite3.dll
 0000:fffc4000       .debug$S                   10000000     mfc120u:mfc120u.dll
 0000:fffc4000       .debug$S                   10000000     mfc120u:mfc120u.dll
 0000:fffc4000       .debug$S                   10000000     mfc120u:mfc120u.dll
 0000:fffc4000       .debug$S                   10000000     mfc120u:mfc120u.dll
 0000:fffc4000       .debug$S                   10000000     mfc120u:mfc120u.dll
 0000:fffc4000       .debug$S                   10000000     mfc120u:mfc120u.dll
 0000:fffc4000       .debug$S                   10000000     mfc120u:mfc120u.dll
 0000:fffc4000       .debug$S                   10000000     mfc120u:mfc120u.dll
 0000:fffc4000       .debug$S                   10000000     mfc120u:mfc120u.dll
 0000:fffc4000       .debug$S                   10000000     mfc120u:mfc120u.dll
 0000:fffc4000       .debug$S                   10000000     mfc120u:mfc120u.dll
 0000:fffc4000       .debug$S                   10000000     mfc120u:mfc120u.dll
 0000:fffc4000       .debug$S                   10000000     mfc120u:mfc120u.dll
 0000:fffc4000       .debug$S                   10000000     mfc120u:mfc120u.dll
 0000:fffc4000       .debug$S                   10000000     mfc120u:mfc120u.dll
 0000:fffc4000       .debug$S                   10000000     mfc120u:mfc120u.dll
 0000:fffc4000       .debug$S                   10000000     mfc120u:mfc120u.dll
 0000:fffc4000       .debug$S                   10000000     mfc120u:mfc120u.dll
 0000:fffc4000       .debug$S                   10000000     mfc120u:mfc120u.dll
 0000:fffc4000       .debug$S                   10000000     mfc120u:mfc120u.dll
 0000:fffc4000       .debug$S                   10000000     mfc120u:mfc120u.dll
 0000:fffc4000       .debug$S                   10000000     mfc120u:mfc120u.dll
 0000:fffc4000       .debug$S                   10000000     mfc120u:mfc120u.dll
 0000:fffc4000       .debug$S                   10000000     mfc120u:mfc120u.dll
 0000:fffc4000       .debug$S                   10000000     mfc120u:mfc120u.dll
 0000:fffc4000       .debug$S                   10000000     mfc120u:mfc120u.dll
 0000:fffc4000       .debug$S                   10000000     mfc120u:mfc120u.dll
 0000:fffc4000       .debug$S                   10000000     mfc120u:mfc120u.dll
 0000:fffc4000       .debug$S                   10000000     sqlite3:sqlite3.dll
 0000:fffc4000       .debug$S                   10000000     sqlite3:sqlite3.dll
 0000:fffc4000       .debug$S                   10000000     sqlite3:sqlite3.dll
 0000:fffc4000       .debug$S                   10000000     sqlite3:sqlite3.dll
 0000:fffc4000       .debug$S                   10000000     sqlite3:sqlite3.dll
 0000:fffc4000       .debug$S                   10000000     sqlite3:sqlite3.dll
 0000:fffc4000       .debug$S                   10000000     sqlite3:sqlite3.dll
 0000:fffc4000       .debug$S                   10000000     sqlite3:sqlite3.dll
 0000:fffc4000       .debug$S                   10000000     sqlite3:sqlite3.dll
 0000:fffc4000       .debug$S                   10000000     sqlite3:sqlite3.dll
 0000:fffc4000       .debug$S                   10000000     netapi32:NETAPI32.dll
 0000:fffc4000       .debug$S                   10000000     netapi32:NETAPI32.dll
 0000:fffc4000       .debug$S                   10000000     version:VERSION.dll
 0000:fffc4000       .debug$S                   10000000     version:VERSION.dll
 0000:fffc4000       .debug$S                   10000000     version:VERSION.dll
 0000:fffc4000       .debug$S                   10000000     Wininet:WININET.dll
 0000:fffc4000       .debug$S                   10000000     gdiplus:gdiplus.dll
 0000:fffc4000       .debug$S                   10000000     gdiplus:gdiplus.dll
 0000:fffc4000       .debug$S                   10000000     gdiplus:gdiplus.dll
 0000:fffc4000       .debug$S                   10000000     gdiplus:gdiplus.dll
 0000:fffc4000       .debug$S                   10000000     mfc120u:mfc120u.dll
 0000:fffc4000       .debug$S                   10000000     mfc120u:mfc120u.dll
 0000:fffc4000       .debug$S                   10000000     mfc120u:mfc120u.dll
 0000:fffc4000       .debug$S                   10000000     mfc120u:mfc120u.dll
 0000:fffc4000       .debug$S                   10000000     mfc120u:mfc120u.dll
 0000:fffc4000       .debug$S                   10000000     mfc120u:mfc120u.dll
 0000:fffc4000       .debug$S                   10000000     mfc120u:mfc120u.dll
 0000:fffc4000       .debug$S                   10000000     mfc120u:mfc120u.dll
 0000:fffc4000       .debug$S                   10000000     mfc120u:mfc120u.dll
 0000:fffc4000       .debug$S                   10000000     mfc120u:mfc120u.dll
 0000:fffc4000       .debug$S                   10000000     mfc120u:mfc120u.dll
 0000:fffc4000       .debug$S                   10000000     mfc120u:mfc120u.dll
 0000:fffc4000       .debug$S                   10000000     mfc120u:mfc120u.dll
 0000:fffc4000       .debug$S                   10000000     mfc120u:mfc120u.dll
 0000:fffc4000       .debug$S                   10000000     mfc120u:mfc120u.dll
 0000:fffc4000       .debug$S                   10000000     mfc120u:mfc120u.dll
 0000:fffc4000       .debug$S                   10000000     mfc120u:mfc120u.dll
 0000:fffc4000       .debug$S                   10000000     mfc120u:mfc120u.dll
 0000:fffc4000       .debug$S                   10000000     mfc120u:mfc120u.dll
 0000:fffc4000       .debug$S                   10000000     mfc120u:mfc120u.dll
 0000:fffc4000       .debug$S                   10000000     mfc120u:mfc120u.dll
 0000:fffc4000       .debug$S                   10000000     mfc120u:mfc120u.dll
 0000:fffc4000       .debug$S                   10000000     mfc120u:mfc120u.dll
 0000:fffc4000       .debug$S                   10000000     mfc120u:mfc120u.dll
 0000:fffc4000       .debug$S                   10000000     mfc120u:mfc120u.dll
 0000:fffc4000       .debug$S                   10000000     mfc120u:mfc120u.dll
 0000:fffc4000       .debug$S                   10000000     mfc120u:mfc120u.dll
 0000:fffc4000       .debug$S                   10000000     mfc120u:mfc120u.dll
 0000:fffc4000       .debug$S                   10000000     mfc120u:mfc120u.dll
 0000:fffc4000       .debug$S                   10000000     mfc120u:mfc120u.dll
 0000:fffc4000       .debug$S                   10000000     mfc120u:mfc120u.dll
 0000:fffc4000       .debug$S                   10000000     mfc120u:mfc120u.dll
 0000:fffc4000       .debug$S                   10000000     mfc120u:mfc120u.dll
 0000:fffc4000       .debug$S                   10000000     mfc120u:mfc120u.dll
 0000:fffc4000       .debug$S                   10000000     mfc120u:mfc120u.dll
 0000:fffc4000       .debug$S                   10000000     mfc120u:mfc120u.dll
 0000:fffc4000       .debug$S                   10000000     mfc120u:mfc120u.dll
 0000:fffc4000       .debug$S                   10000000     mfc120u:mfc120u.dll
 0000:fffc4000       .debug$S                   10000000     mfc120u:mfc120u.dll
 0000:fffc4000       .debug$S                   10000000     mfc120u:mfc120u.dll
 0000:fffc4000       .debug$S                   10000000     mfc120u:mfc120u.dll
 0000:fffc4000       .debug$S                   10000000     mfc120u:mfc120u.dll
 0000:fffc4000       .debug$S                   10000000     mfc120u:mfc120u.dll
 0000:fffc4000       .debug$S                   10000000     mfc120u:mfc120u.dll
 0000:fffc4000       .debug$S                   10000000     mfc120u:mfc120u.dll
 0000:fffc4000       .debug$S                   10000000     mfc120u:mfc120u.dll
 0000:fffc4000       .debug$S                   10000000     mfc120u:mfc120u.dll
 0000:fffc4000       .debug$S                   10000000     mfc120u:mfc120u.dll
 0000:fffc4000       .debug$S                   10000000     mfc120u:mfc120u.dll
 0000:fffc4000       .debug$S                   10000000     mfc120u:mfc120u.dll
 0000:fffc4000       .debug$S                   10000000     mfc120u:mfc120u.dll
 0000:fffc4000       .debug$S                   10000000     mfc120u:mfc120u.dll
 0000:fffc4000       .debug$S                   10000000     mfc120u:mfc120u.dll
 0000:fffc4000       .debug$S                   10000000     mfc120u:mfc120u.dll
 0000:fffc4000       .debug$S                   10000000     mfc120u:mfc120u.dll
 0000:fffc4000       .debug$S                   10000000     mfc120u:mfc120u.dll
 0000:fffc4000       .debug$S                   10000000     mfc120u:mfc120u.dll
 0000:fffc4000       .debug$S                   10000000     mfc120u:mfc120u.dll
 0000:fffc4000       .debug$S                   10000000     mfc120u:mfc120u.dll
 0000:fffc4000       .debug$S                   10000000     mfc120u:mfc120u.dll
 0000:fffc4000       .debug$S                   10000000     mfc120u:mfc120u.dll
 0000:fffc4000       .debug$S                   10000000     mfc120u:mfc120u.dll
 0000:fffc4000       .debug$S                   10000000     mfc120u:mfc120u.dll
 0000:fffc4000       .debug$S                   10000000     mfc120u:mfc120u.dll
 0000:fffc4000       .debug$S                   10000000     mfc120u:mfc120u.dll
 0000:fffc4000       .debug$S                   10000000     mfc120u:mfc120u.dll
 0000:fffc4000       .debug$S                   10000000     mfc120u:mfc120u.dll
 0000:fffc4000       .debug$S                   10000000     mfc120u:mfc120u.dll
 0000:fffc4000       .debug$S                   10000000     mfc120u:mfc120u.dll
 0000:fffc4000       .debug$S                   10000000     mfc120u:mfc120u.dll
 0000:fffc4000       .debug$S                   10000000     mfc120u:mfc120u.dll
 0000:fffc4000       .debug$S                   10000000     mfc120u:mfc120u.dll
 0000:fffc4000       .debug$S                   10000000     mfc120u:mfc120u.dll
 0000:fffc4000       .debug$S                   10000000     mfc120u:mfc120u.dll
 0000:fffc4000       .debug$S                   10000000     mfc120u:mfc120u.dll
 0000:fffc4000       .debug$S                   10000000     mfc120u:mfc120u.dll
 0000:fffc4000       .debug$S                   10000000     mfc120u:mfc120u.dll
 0000:fffc4000       .debug$S                   10000000     mfc120u:mfc120u.dll
 0000:fffc4000       .debug$S                   10000000     mfc120u:mfc120u.dll
 0000:fffc4000       .debug$S                   10000000     mfc120u:mfc120u.dll
 0000:fffc4000       .debug$S                   10000000     mfc120u:mfc120u.dll
 0000:fffc4000       .debug$S                   10000000     mfc120u:mfc120u.dll
 0000:fffc4000       .debug$S                   10000000     mfc120u:mfc120u.dll
 0000:fffc4000       .debug$S                   10000000     mfc120u:mfc120u.dll
 0000:fffc4000       .debug$S                   10000000     mfc120u:mfc120u.dll
 0000:fffc4000       .debug$S                   10000000     mfc120u:mfc120u.dll
 0000:fffc4000       .debug$S                   10000000     mfc120u:mfc120u.dll
 0000:fffc4000       .debug$S                   10000000     mfc120u:mfc120u.dll
 0000:fffc4000       .debug$S                   10000000     mfc120u:mfc120u.dll
 0000:fffc4000       .debug$S                   10000000     mfc120u:mfc120u.dll
 0000:fffc4000       .debug$S                   10000000     mfc120u:mfc120u.dll
 0000:fffc4000       .debug$S                   10000000     mfc120u:mfc120u.dll
 0000:fffc4000       .debug$S                   10000000     mfc120u:mfc120u.dll
 0000:fffc4000       .debug$S                   10000000     mfc120u:mfc120u.dll
 0000:fffc4000       .debug$S                   10000000     msvcrt:MSVCR120.dll
 0000:fffc4000       .debug$S                   10000000     msvcrt:MSVCR120.dll
 0000:fffc4000       .debug$S                   10000000     gdiplus:gdiplus.dll
 0000:fffc4000       .debug$S                   10000000     gdiplus:gdiplus.dll
 0000:fffc4000       .debug$S                   10000000     gdiplus:gdiplus.dll
 0000:fffc4000       .debug$S                   10000000     gdiplus:gdiplus.dll
 0000:fffc4000       .debug$S                   10000000     gdiplus:gdiplus.dll
 0000:fffc4000       .debug$S                   10000000     gdiplus:gdiplus.dll
 0000:fffc4000       .debug$S                   10000000     gdiplus:gdiplus.dll
 0000:fffc4000       .debug$S                   10000000     gdiplus:gdiplus.dll
 0000:fffc4000       .debug$S                   10000000     gdiplus:gdiplus.dll
 0000:fffc4000       .debug$S                   10000000     gdiplus:gdiplus.dll
 0000:fffc4000       .debug$S                   10000000     gdiplus:gdiplus.dll
 0000:fffc4000       .debug$S                   10000000     gdiplus:gdiplus.dll
 0000:fffc4000       .debug$S                   10000000     gdiplus:gdiplus.dll
 0000:fffc4000       .debug$S                   10000000     gdiplus:gdiplus.dll
 0000:fffc4000       .debug$S                   10000000     gdiplus:gdiplus.dll
 0000:fffc4000       .debug$S                   10000000     gdiplus:gdiplus.dll
 0000:fffc4000       .debug$S                   10000000     gdiplus:gdiplus.dll
 0000:fffc4000       .debug$S                   10000000     gdiplus:gdiplus.dll
 0000:fffc4000       .debug$S                   10000000     gdiplus:gdiplus.dll
 0000:fffc4000       .debug$S                   10000000     gdiplus:gdiplus.dll
 0000:fffc4000       .debug$S                   10000000     gdiplus:gdiplus.dll
 0000:fffc4000       .debug$S                   10000000     gdiplus:gdiplus.dll
 0000:fffc4000       .debug$S                   10000000     gdiplus:gdiplus.dll
 0000:fffc4000       .debug$S                   10000000     gdiplus:gdiplus.dll
 0000:fffc4000       .debug$S                   10000000     gdiplus:gdiplus.dll
 0000:fffc4000       .debug$S                   10000000     gdiplus:gdiplus.dll
 0000:fffc4000       .debug$S                   10000000     gdiplus:gdiplus.dll
 0000:fffc4000       .debug$S                   10000000     gdiplus:gdiplus.dll
 0000:fffc4000       .debug$S                   10000000     gdiplus:gdiplus.dll
 0000:fffc4000       .debug$S                   10000000     gdiplus:gdiplus.dll
 0000:fffc4000       .debug$S                   10000000     gdiplus:gdiplus.dll
 0000:fffc4000       .debug$S                   10000000     gdiplus:gdiplus.dll
 0000:fffc4000       .debug$S                   10000000     msvcprt:MSVCP120.dll
 0000:fffc4000       .debug$S                   10000000     msvcprt:MSVCP120.dll
 0000:fffc4000       .debug$S                   10000000     msvcprt:MSVCP120.dll
 0000:fffc4000       .debug$S                   10000000     msvcprt:MSVCP120.dll
 0000:fffc4000       .debug$S                   10000000     msvcprt:MSVCP120.dll
 0000:fffc4000       .debug$S                   10000000     msvcprt:MSVCP120.dll
 0000:fffc4000       .debug$S                   10000000     msvcprt:MSVCP120.dll
 0000:fffc4000       .debug$S                   10000000     msvcprt:MSVCP120.dll
 0000:fffc4000       .debug$S                   10000000     msvcprt:MSVCP120.dll
 0000:fffc4000       .debug$S                   10000000     msvcprt:MSVCP120.dll
 0000:fffc4000       .debug$S                   10000000     msvcprt:MSVCP120.dll
 0000:fffc4000       .debug$S                   10000000     msvcprt:MSVCP120.dll
 0000:fffc4000       .debug$S                   10000000     msvcprt:MSVCP120.dll
 0000:fffc4000       .debug$S                   10000000     crypt32:CRYPT32.dll
 0000:fffc4000       .debug$S                   10000000     crypt32:CRYPT32.dll
 0000:fffc4000       .debug$S                   10000000     crypt32:CRYPT32.dll
 0000:fffc4000       .debug$S                   10000000     crypt32:CRYPT32.dll
 0000:fffc4000       .debug$S                   10000000     oleaut32:OLEAUT32.dll
 0000:fffc4000       .debug$S                   10000000     msvcrt:MSVCR120.dll
 0000:fffc4000       .debug$S                   10000000     msvcrt:MSVCR120.dll
 0000:fffc4000       .debug$S                   10000000     msvcrt:MSVCR120.dll
 0000:fffc4000       .debug$S                   10000000     msvcrt:MSVCR120.dll
 0000:fffc4000       .debug$S                   10000000     msvcrt:MSVCR120.dll
 0000:fffc4000       .debug$S                   10000000     msvcrt:MSVCR120.dll
 0000:fffc4000       .debug$S                   10000000     msvcrt:MSVCR120.dll
 0000:fffc4000       .debug$S                   10000000     msvcrt:MSVCR120.dll
 0000:fffc4000       .debug$S                   10000000     msvcrt:MSVCR120.dll
 0000:fffc4000       .debug$S                   10000000     msvcrt:MSVCR120.dll
 0000:fffc4000       .debug$S                   10000000     msvcrt:MSVCR120.dll
 0000:fffc4000       .debug$S                   10000000     msvcrt:MSVCR120.dll
 0000:fffc4000       .debug$S                   10000000     msvcrt:MSVCR120.dll
 0000:fffc4000       .debug$S                   10000000     msvcrt:MSVCR120.dll
 0000:fffc4000       .debug$S                   10000000     msvcrt:MSVCR120.dll
 0000:fffc4000       .debug$S                   10000000     msvcrt:MSVCR120.dll
 0000:fffc4000       .debug$S                   10000000     msvcrt:MSVCR120.dll
 0000:fffc4000       .debug$S                   10000000     msvcrt:MSVCR120.dll
 0000:fffc4000       .debug$S                   10000000     msvcrt:MSVCR120.dll
 0000:fffc4000       .debug$S                   10000000     msvcrt:MSVCR120.dll
 0000:fffc4000       .debug$S                   10000000     oleaut32:OLEAUT32.dll
 0000:fffc4000       .debug$S                   10000000     oleaut32:OLEAUT32.dll
 0000:fffc4000       .debug$S                   10000000     oleaut32:OLEAUT32.dll
 0000:fffc4000       .debug$S                   10000000     ole32:ole32.dll
 0000:fffc4000       .debug$S                   10000000     ole32:ole32.dll
 0000:fffc4000       .debug$S                   10000000     mfc120u:mfc120u.dll
 0000:fffc4000       .debug$S                   10000000     mfc120u:mfc120u.dll
 0000:fffc4000       .debug$S                   10000000     msvcrt:MSVCR120.dll
 0000:fffc4000       .debug$S                   10000000     shlwapi:SHLWAPI.dll
 0000:fffc4000       .debug$S                   10000000     shlwapi:SHLWAPI.dll
 0000:fffc4000       .debug$S                   10000000     shlwapi:SHLWAPI.dll
 0000:fffc4000       .debug$S                   10000000     shlwapi:SHLWAPI.dll
 0000:fffc4000       .debug$S                   10000000     shlwapi:SHLWAPI.dll
 0000:fffc4000       .debug$S                   10000000     comctl32:COMCTL32.dll
 0000:fffc4000       .debug$S                   10000000     comctl32:COMCTL32.dll
 0000:fffc4000       .debug$S                   10000000     comctl32:COMCTL32.dll
 0000:fffc4000       .debug$S                   10000000     comctl32:COMCTL32.dll
 0000:fffc4000       .debug$S                   10000000     msvcrt:MSVCR120.dll
 0000:fffc4000       .debug$S                   10000000     msvcrt:MSVCR120.dll
 0000:fffc4000       .debug$S                   10000000     msvcrt:MSVCR120.dll
 0000:fffc4000       .debug$S                   10000000     msvcrt:MSVCR120.dll
 0000:fffc4000       .debug$S                   10000000     msvcrt:MSVCR120.dll
 0000:fffc4000       .debug$S                   10000000     msvcrt:MSVCR120.dll
 0000:fffc4000       .debug$S                   10000000     msvcrt:MSVCR120.dll
 0000:fffc4000       .debug$S                   10000000     msvcrt:MSVCR120.dll
 0000:fffc4000       .debug$S                   10000000     msvcrt:MSVCR120.dll
 0000:fffc4000       .debug$S                   10000000     msvcrt:MSVCR120.dll
 0000:fffc4000       .debug$S                   10000000     msvcrt:MSVCR120.dll
 0000:fffc4000       .debug$S                   10000000     msvcrt:MSVCR120.dll
 0000:fffc4000       .debug$S                   10000000     msvcrt:MSVCR120.dll
 0000:fffc4000       .debug$S                   10000000     msvcrt:MSVCR120.dll
 0000:fffc4000       .debug$S                   10000000     msvcrt:MSVCR120.dll
 0000:fffc4000       .debug$S                   10000000     comctl32:COMCTL32.dll
 0000:fffc4000       .debug$S                   10000000     shell32:SHELL32.dll
 0000:fffc4000       .debug$S                   10000000     shell32:SHELL32.dll
 0000:fffc4000       .debug$S                   10000000     shell32:SHELL32.dll
 0000:fffc4000       .debug$S                   10000000     advapi32:ADVAPI32.dll
 0000:fffc4000       .debug$S                   10000000     advapi32:ADVAPI32.dll
 0000:fffc4000       .debug$S                   10000000     advapi32:ADVAPI32.dll
 0000:fffc4000       .debug$S                   10000000     advapi32:ADVAPI32.dll
 0000:fffc4000       .debug$S                   10000000     msvcrt:MSVCR120.dll
 0000:fffc4000       .debug$S                   10000000     msvcrt:MSVCR120.dll
 0000:fffc4000       .debug$S                   10000000     msvcrt:MSVCR120.dll
 0000:fffc4000       .debug$S                   10000000     msvcrt:MSVCR120.dll
 0000:fffc4000       .debug$S                   10000000     msvcrt:MSVCR120.dll
 0000:fffc4000       .debug$S                   10000000     msvcrt:MSVCR120.dll
 0000:fffc4000       .debug$S                   10000000     msvcrt:MSVCR120.dll
 0000:fffc4000       .debug$S                   10000000     msvcrt:MSVCR120.dll
 0000:fffc4000       .debug$S                   10000000     kernel32:KERNEL32.dll
 0000:fffc4000       .debug$S                   10000000     kernel32:KERNEL32.dll
 0000:fffc4000       .debug$S                   10000000     kernel32:KERNEL32.dll
 0000:fffc4000       .debug$S                   10000000     kernel32:KERNEL32.dll
 0000:fffc4000       .debug$S                   10000000     kernel32:KERNEL32.dll
 0000:fffc4000       .debug$S                   10000000     advapi32:ADVAPI32.dll
 0000:fffc4000       .debug$S                   10000000     advapi32:ADVAPI32.dll
 0000:fffc4000       .debug$S                   10000000     advapi32:ADVAPI32.dll
 0000:fffc4000       .debug$S                   10000000     advapi32:ADVAPI32.dll
 0000:fffc4000       .debug$S                   10000000     advapi32:ADVAPI32.dll
 0000:fffc4000       .debug$S                   10000000     advapi32:ADVAPI32.dll
 0000:fffc4000       .debug$S                   10000000     advapi32:ADVAPI32.dll
 0000:fffc4000       .debug$S                   10000000     advapi32:ADVAPI32.dll
 0000:fffc4000       .debug$S                   10000000     advapi32:ADVAPI32.dll
 0000:fffc4000       .debug$S                   10000000     advapi32:ADVAPI32.dll
 0000:fffc4000       .debug$S                   10000000     kernel32:KERNEL32.dll
 0000:fffc4000       .debug$S                   10000000     kernel32:KERNEL32.dll
 0000:fffc4000       .debug$S                   10000000     kernel32:KERNEL32.dll
 0000:fffc4000       .debug$S                   10000000     kernel32:KERNEL32.dll
 0000:fffc4000       .debug$S                   10000000     kernel32:KERNEL32.dll
 0000:fffc4000       .debug$S                   10000000     kernel32:KERNEL32.dll
 0000:fffc4000       .debug$S                   10000000     kernel32:KERNEL32.dll
 0000:fffc4000       .debug$S                   10000000     kernel32:KERNEL32.dll
 0000:fffc4000       .debug$S                   10000000     kernel32:KERNEL32.dll
 0000:fffc4000       .debug$S                   10000000     kernel32:KERNEL32.dll
 0000:fffc4000       .debug$S                   10000000     kernel32:KERNEL32.dll
 0000:fffc4000       .debug$S                   10000000     kernel32:KERNEL32.dll
 0000:fffc4000       .debug$S                   10000000     kernel32:KERNEL32.dll
 0000:fffc4000       .debug$S                   10000000     kernel32:KERNEL32.dll
 0000:fffc4000       .debug$S                   10000000     kernel32:KERNEL32.dll
 0000:fffc4000       .debug$S                   10000000     mfc120u:mfc120u.dll
 0000:fffc4000       .debug$S                   10000000     mfc120u:mfc120u.dll
 0000:fffc4000       .debug$S                   10000000     mfc120u:mfc120u.dll
 0000:fffc4000       .debug$S                   10000000     mfc120u:mfc120u.dll
 0000:fffc4000       .debug$S                   10000000     mfc120u:mfc120u.dll
 0000:fffc4000       .debug$S                   10000000     mfc120u:mfc120u.dll
 0000:fffc4000       .debug$S                   10000000     mfc120u:mfc120u.dll
 0000:fffc4000       .debug$S                   10000000     mfc120u:mfc120u.dll
 0000:fffc4000       .debug$S                   10000000     mfc120u:mfc120u.dll
 0000:fffc4000       .debug$S                   10000000     mfc120u:mfc120u.dll
 0000:fffc4000       .debug$S                   10000000     mfc120u:mfc120u.dll
 0000:fffc4000       .debug$S                   10000000     mfc120u:mfc120u.dll
 0000:fffc4000       .debug$S                   10000000     mfc120u:mfc120u.dll
 0000:fffc4000       .debug$S                   10000000     mfc120u:mfc120u.dll
 0000:fffc4000       .debug$S                   10000000     mfc120u:mfc120u.dll
 0000:fffc4000       .debug$S                   10000000     mfc120u:mfc120u.dll
 0000:fffc4000       .debug$S                   10000000     mfc120u:mfc120u.dll
 0000:fffc4000       .debug$S                   10000000     mfc120u:mfc120u.dll
 0000:fffc4000       .debug$S                   10000000     mfc120u:mfc120u.dll
 0000:fffc4000       .debug$S                   10000000     mfc120u:mfc120u.dll
 0000:fffc4000       .debug$S                   10000000     mfc120u:mfc120u.dll
 0000:fffc4000       .debug$S                   10000000     mfc120u:mfc120u.dll
 0000:fffc4000       .debug$S                   10000000     mfc120u:mfc120u.dll
 0000:fffc4000       .debug$S                   10000000     mfc120u:mfc120u.dll
 0000:fffc4000       .debug$S                   10000000     mfc120u:mfc120u.dll
 0000:fffc4000       .debug$S                   10000000     mfc120u:mfc120u.dll
 0000:fffc4000       .debug$S                   10000000     mfc120u:mfc120u.dll
 0000:fffc4000       .debug$S                   10000000     mfc120u:mfc120u.dll
 0000:fffc4000       .debug$S                   10000000     mfc120u:mfc120u.dll
 0000:fffc4000       .debug$S                   10000000     mfc120u:mfc120u.dll
 0000:fffc4000       .debug$S                   10000000     mfc120u:mfc120u.dll
 0000:fffc4000       .debug$S                   10000000     mfc120u:mfc120u.dll
 0000:fffc4000       .debug$S                   10000000     mfc120u:mfc120u.dll
 0000:fffc4000       .debug$S                   10000000     mfc120u:mfc120u.dll
 0000:fffc4000       .debug$S                   10000000     mfc120u:mfc120u.dll
 0000:fffc4000       .debug$S                   10000000     mfc120u:mfc120u.dll
 0000:fffc4000       .debug$S                   10000000     kernel32:KERNEL32.dll
 0000:fffc4000       .debug$S                   10000000     kernel32:KERNEL32.dll
 0000:fffc4000       .debug$S                   10000000     kernel32:KERNEL32.dll
 0000:fffc4000       .debug$S                   10000000     kernel32:KERNEL32.dll
 0000:fffc4000       .debug$S                   10000000     kernel32:KERNEL32.dll
 0000:fffc4000       .debug$S                   10000000     kernel32:KERNEL32.dll
 0000:fffc4000       .debug$S                   10000000     kernel32:KERNEL32.dll
 0000:fffc4000       .debug$S                   10000000     kernel32:KERNEL32.dll
 0000:fffc4000       .debug$S                   10000000     kernel32:KERNEL32.dll
 0000:fffc4000       .debug$S                   10000000     kernel32:KERNEL32.dll
 0000:fffc4000       .debug$S                   10000000     advapi32:ADVAPI32.dll
 0000:fffc4000       .debug$S                   10000000     advapi32:ADVAPI32.dll
 0000:fffc4000       .debug$S                   10000000     advapi32:ADVAPI32.dll
 0000:fffc4000       .debug$S                   10000000     advapi32:ADVAPI32.dll
 0000:fffc4000       .debug$S                   10000000     gdi32:GDI32.dll
 0000:fffc4000       .debug$S                   10000000     gdi32:GDI32.dll
 0000:fffc4000       .debug$S                   10000000     gdi32:GDI32.dll
 0000:fffc4000       .debug$S                   10000000     gdi32:GDI32.dll
 0000:fffc4000       .debug$S                   10000000     gdi32:GDI32.dll
 0000:fffc4000       .debug$S                   10000000     gdi32:GDI32.dll
 0000:fffc4000       .debug$S                   10000000     gdi32:GDI32.dll
 0000:fffc4000       .debug$S                   10000000     gdi32:GDI32.dll
 0000:fffc4000       .debug$S                   10000000     gdi32:GDI32.dll
 0000:fffc4000       .debug$S                   10000000     gdi32:GDI32.dll
 0000:fffc4000       .debug$S                   10000000     gdi32:GDI32.dll
 0000:fffc4000       .debug$S                   10000000     gdi32:GDI32.dll
 0000:fffc4000       .debug$S                   10000000     gdi32:GDI32.dll
 0000:fffc4000       .debug$S                   10000000     gdi32:GDI32.dll
 0000:fffc4000       .debug$S                   10000000     user32:USER32.dll
 0000:fffc4000       .debug$S                   10000000     user32:USER32.dll
 0000:fffc4000       .debug$S                   10000000     user32:USER32.dll
 0000:fffc4000       .debug$S                   10000000     user32:USER32.dll
 0000:fffc4000       .debug$S                   10000000     user32:USER32.dll
 0000:fffc4000       .debug$S                   10000000     user32:USER32.dll
 0000:fffc4000       .debug$S                   10000000     user32:USER32.dll
 0000:fffc4000       .debug$S                   10000000     user32:USER32.dll
 0000:fffc4000       .debug$S                   10000000     user32:USER32.dll
 0000:fffc4000       .debug$S                   10000000     user32:USER32.dll
 0000:fffc4000       .debug$S                   10000000     user32:USER32.dll
 0000:fffc4000       .debug$S                   10000000     user32:USER32.dll
 0000:fffc4000       .debug$S                   10000000     user32:USER32.dll
 0000:fffc4000       .debug$S                   10000000     user32:USER32.dll
 0000:fffc4000       .debug$S                   10000000     user32:USER32.dll
 0000:fffc4000       .debug$S                   10000000     user32:USER32.dll
 0000:fffc4000       .debug$S                   10000000     kernel32:KERNEL32.dll
 0000:fffc4000       .debug$S                   10000000     kernel32:KERNEL32.dll
 0000:fffc4000       .debug$S                   10000000     kernel32:KERNEL32.dll
 0000:fffc4000       .debug$S                   10000000     kernel32:KERNEL32.dll
 0000:fffc4000       .debug$S                   10000000     kernel32:KERNEL32.dll
 0000:fffc4000       .debug$S                   10000000     kernel32:KERNEL32.dll
 0000:fffc4000       .debug$S                   10000000     kernel32:KERNEL32.dll
 0000:fffc4000       .debug$S                   10000000     kernel32:KERNEL32.dll
 0000:fffc4000       .debug$S                   10000000     kernel32:KERNEL32.dll
 0000:fffc4000       .debug$S                   10000000     kernel32:KERNEL32.dll
 0000:fffc4000       .debug$S                   10000000     kernel32:KERNEL32.dll
 0000:fffc4000       .debug$S                   10000000     kernel32:KERNEL32.dll
 0000:fffc4000       .debug$S                   10000000     kernel32:KERNEL32.dll
 0000:fffc4000       .debug$S                   10000000     kernel32:KERNEL32.dll
 0000:fffc4000       .debug$S                   10000000     kernel32:KERNEL32.dll
 0000:fffc4000       .debug$S                   10000000     kernel32:KERNEL32.dll
 0000:fffc4000       .debug$S                   10000000     user32:USER32.dll
 0000:fffc4000       .debug$S                   10000000     user32:USER32.dll
 0000:fffc4000       .debug$S                   10000000     user32:USER32.dll
 0000:fffc4000       .debug$S                   10000000     user32:USER32.dll
 0000:fffc4000       .debug$S                   10000000     user32:USER32.dll
 0000:fffc4000       .debug$S                   10000000     user32:USER32.dll
 0000:fffc4000       .debug$S                   10000000     user32:USER32.dll
 0000:fffc4000       .debug$S                   10000000     user32:USER32.dll
 0000:fffc4000       .debug$S                   10000000     kernel32:KERNEL32.dll
 0000:fffc4000       .debug$S                   10000000     kernel32:KERNEL32.dll
 0000:fffc4000       .debug$S                   10000000     kernel32:KERNEL32.dll
 0000:fffc4000       .debug$S                   10000000     kernel32:KERNEL32.dll
 0000:fffc4000       .debug$S                   10000000     kernel32:KERNEL32.dll
 0000:fffc4000       .debug$S                   10000000     kernel32:KERNEL32.dll
 0000:fffc4000       .debug$S                   10000000     kernel32:KERNEL32.dll
 0000:fffc4000       .debug$S                   10000000     kernel32:KERNEL32.dll
 0000:fffc4000       .debug$S                   10000000     kernel32:KERNEL32.dll
 0000:fffc4000       .debug$S                   10000000     kernel32:KERNEL32.dll
 0000:fffc4000       .debug$S                   10000000     kernel32:KERNEL32.dll
 0000:fffc4000       .debug$S                   10000000     kernel32:KERNEL32.dll
 0000:fffc4000       .debug$S                   10000000     user32:USER32.dll
 0000:fffc4000       .debug$S                   10000000     user32:USER32.dll
 0000:fffc4000       .debug$S                   10000000     user32:USER32.dll
 0000:fffc4000       .debug$S                   10000000     kernel32:KERNEL32.dll
 0000:fffc4000       .debug$S                   10000000     kernel32:KERNEL32.dll
 0000:fffc4000       .debug$S                   10000000     kernel32:KERNEL32.dll
 0000:fffc4000       .debug$S                   10000000     kernel32:KERNEL32.dll
 0000:fffc4000       .debug$S                   10000000     kernel32:KERNEL32.dll
 0000:fffc4000       .debug$S                   10000000     kernel32:KERNEL32.dll
 0000:fffc4000       .debug$S                   10000000     kernel32:KERNEL32.dll
 0000:fffc4000       .debug$S                   10000000     kernel32:KERNEL32.dll
 0000:fffc4000       .debug$S                   10000000     kernel32:KERNEL32.dll
 0000:fffc4000       .debug$S                   10000000     kernel32:KERNEL32.dll
 0000:fffc4000       .debug$S                   10000000     kernel32:KERNEL32.dll
 0000:fffc4000       .debug$S                   10000000     mfc120u:mfc120u.dll
 0001:00000000       ??__EtheApp@@YAXXZ         10001000 f   Baronow23.obj
 0001:00000030       ??__Eg_csPrint@@YAXXZ      10001030 f   Logger.obj
 0001:00000050       ??__Eg_csConstruct@@YAXXZ  10001050 f   Logger.obj
 0001:00000070       ??__Eg_mConstruct@@YAXXZ   10001070 f   Logger.obj
 0001:00000090       ??__E?_Generic_object@?$_Error_objects@H@std@@2V_Generic_error_category@2@A@@YAXXZ 10001090 f   stdafx.obj
 0001:000000a0       ??__E?_Iostream_object@?$_Error_objects@H@std@@2V_Iostream_error_category@2@A@@YAXXZ 100010a0 f   stdafx.obj
 0001:000000b0       ??__E?_System_object@?$_Error_objects@H@std@@2V_System_error_category@2@A@@YAXXZ 100010b0 f   stdafx.obj
 0001:000000bc       ??__EafxModuleState@@YAXXZ 100010bc f   mfcs120u:dllmodul.obj
 0001:000000ea       ??__E_AtlBaseModule@ATL@@YAXXZ 100010ea f   atls:atlbase.obj
 0001:000004b0       $LN38                      100014b0     CppSQLite3U.obj
 0001:00000524       $LN36                      10001524     CppSQLite3U.obj
 0001:00000a5f       __catch$??1CppSqlite3Query@@UAE@XZ$0 10001a5f f   CppSQLite3U.obj
 0001:00000afc       __catch$??4CppSqlite3Query@@QAEAAV0@ABV0@@Z$0 10001afc f   CppSQLite3U.obj
 0001:00003108       __catch$?ReadBinaryFile@bapi@@YA_NV?$CStringT@_WV?$StrTraitMFC_DLL@_WV?$ChTraitsCRT@_W@ATL@@@@@ATL@@V?$function@$$A6A_NAAVCFile@@@Z@std@@@Z$0 10004108 f   file.obj
 0001:00003110       __catch$?ReadBinaryFile@bapi@@YA_NV?$CStringT@_WV?$StrTraitMFC_DLL@_WV?$ChTraitsCRT@_W@ATL@@@@@ATL@@V?$function@$$A6A_NAAVCFile@@@Z@std@@@Z$1 10004110 f   file.obj
 0001:00003118       __catch$?ReadBinaryFile@bapi@@YA_NV?$CStringT@_WV?$StrTraitMFC_DLL@_WV?$ChTraitsCRT@_W@ATL@@@@@ATL@@V?$function@$$A6A_NAAVCFile@@@Z@std@@@Z$2 10004118 f   file.obj
 0001:000032c5       __catch$?WriteBinaryFile@bapi@@YA_NV?$CStringT@_WV?$StrTraitMFC_DLL@_WV?$ChTraitsCRT@_W@ATL@@@@@ATL@@_NV?$function@$$A6A_NAAVCFile@@@Z@std@@@Z$0 100042c5 f   file.obj
 0001:000032cd       __catch$?WriteBinaryFile@bapi@@YA_NV?$CStringT@_WV?$StrTraitMFC_DLL@_WV?$ChTraitsCRT@_W@ATL@@@@@ATL@@_NV?$function@$$A6A_NAAVCFile@@@Z@std@@@Z$1 100042cd f   file.obj
 0001:000032d5       __catch$?WriteBinaryFile@bapi@@YA_NV?$CStringT@_WV?$StrTraitMFC_DLL@_WV?$ChTraitsCRT@_W@ATL@@@@@ATL@@_NV?$function@$$A6A_NAAVCFile@@@Z@std@@@Z$2 100042d5 f   file.obj
 0001:000033e0       ??R<lambda_92ae8a6edb3cc5c1e2896be211724754>@@QBEXV?$CStringT@_WV?$StrTraitMFC_DLL@_WV?$ChTraitsCRT@_W@ATL@@@@@ATL@@AAV?$vector@V?$CStringT@_WV?$StrTraitMFC_DLL@_WV?$ChTraitsCRT@_W@ATL@@@@@ATL@@V?$allocator@V?$CStringT@_WV?$StrTraitMFC_DLL@_WV?$ChTraitsCRT@_W@ATL@@@@@ATL@@@std@@@std@@@Z 100043e0 f   file.obj
 0001:00004054       __catch$??$_Uninit_move@PAV?$CStringT@_WV?$StrTraitMFC_DLL@_WV?$ChTraitsCRT@_W@ATL@@@@@ATL@@PAV12@V?$allocator@V?$CStringT@_WV?$StrTraitMFC_DLL@_WV?$ChTraitsCRT@_W@ATL@@@@@ATL@@@std@@V12@@std@@YAPAV?$CStringT@_WV?$StrTraitMFC_DLL@_WV?$ChTraitsCRT@_W@ATL@@@@@ATL@@PAV12@00AAU?$_Wrap_alloc@V?$allocator@V?$CStringT@_WV?$StrTraitMFC_DLL@_WV?$ChTraitsCRT@_W@ATL@@@@@ATL@@@std@@@0@0U_Nonscalar_ptr_iterator_tag@0@@Z$0 10005054 f i file.obj
 0001:00004054       __catch$??$_Uninit_copy@PBV?$CStringT@_WV?$StrTraitMFC_DLL@_WV?$ChTraitsCRT@_W@ATL@@@@@ATL@@PAV12@V?$allocator@V?$CStringT@_WV?$StrTraitMFC_DLL@_WV?$ChTraitsCRT@_W@ATL@@@@@ATL@@@std@@@std@@YAPAV?$CStringT@_WV?$StrTraitMFC_DLL@_WV?$ChTraitsCRT@_W@ATL@@@@@ATL@@PBV12@0PAV12@AAU?$_Wrap_alloc@V?$allocator@V?$CStringT@_WV?$StrTraitMFC_DLL@_WV?$ChTraitsCRT@_W@ATL@@@@@ATL@@@std@@@0@U_Nonscalar_ptr_iterator_tag@0@@Z$0 10005054 f i Sqlite.obj
 0001:00004167       __catch$?_Reallocate@?$vector@V?$CStringT@_WV?$StrTraitMFC_DLL@_WV?$ChTraitsCRT@_W@ATL@@@@@ATL@@V?$allocator@V?$CStringT@_WV?$StrTraitMFC_DLL@_WV?$ChTraitsCRT@_W@ATL@@@@@ATL@@@std@@@std@@IAEXI@Z$0 10005167 f i file.obj
 0001:00005817       __catch$?_Copy@?$basic_string@DU?$char_traits@D@std@@V?$allocator@D@2@@std@@QAEXII@Z$0 10006817 f i gdi.obj
 0001:00005851       __catch$?_Copy@?$basic_string@DU?$char_traits@D@std@@V?$allocator@D@2@@std@@QAEXII@Z$1 10006851 f i gdi.obj
 0001:00005ae0       __catch$??1CGdiObject@@UAE@XZ$0 10006ae0 f i gdi.obj
 0001:00006980       ?<helper_func_stdcall>@<lambda_096576fad2be4116e3c81394846aed7e>@@CGHPAUHMONITOR__@@PAUHDC__@@PAUtagRECT@@J@Z 10007980 f   monitor.obj
 0001:00007ef4       $LN30                      10008ef4     string.obj
 0001:00008864       $LN21                      10009864     string.obj
 0001:00008974       $LN16                      10009974     string.obj
 0001:00008f4d       __catch$?ConvertA2W@bapi@@YAPB_WPBDIAAV?$CAutoPtrArray@_W@ATL@@@Z$0 10009f4d f   string.obj
 0001:0000905e       __catch$?ConvertW2A@bapi@@YAPBDPB_WIAAV?$CAutoPtrArray@D@ATL@@@Z$0 1000a05e f   string.obj
 0001:00009818       $LN11                      1000a818     string.obj
 0001:00009828       $LN9                       1000a828     string.obj
 0001:0000a910       ??R<lambda_75059caeba5cc55486e61658909a07f8>@@QBE_NXZ 1000b910 f   A256B64.obj
 0001:0000cbc9       __catch$?Open@Sqlite@baro@@QAE_NV?$CStringT@_WV?$StrTraitMFC_DLL@_WV?$ChTraitsCRT@_W@ATL@@@@@ATL@@@Z$0 1000dbc9 f   Sqlite.obj
 0001:0000cbe0       __catch$?Open@Sqlite@baro@@QAE_NV?$CStringT@_WV?$StrTraitMFC_DLL@_WV?$ChTraitsCRT@_W@ATL@@@@@ATL@@@Z$1 1000dbe0 f   Sqlite.obj
 0001:0000ccb9       __catch$?Close@Sqlite@baro@@QAE_NXZ$0 1000dcb9 f   Sqlite.obj
 0001:0000ccd0       __catch$?Close@Sqlite@baro@@QAE_NXZ$1 1000dcd0 f   Sqlite.obj
 0001:0000cd7c       __catch$?DML@Sqlite@baro@@AAE_NPB_WAAH@Z$0 1000dd7c f   Sqlite.obj
 0001:0000cda9       __catch$?DML@Sqlite@baro@@AAE_NPB_WAAH@Z$1 1000dda9 f   Sqlite.obj
 0001:0000d092       __catch$?GetTableInfo@Sqlite@baro@@QAE_NV?$CStringT@_WV?$StrTraitMFC_DLL@_WV?$ChTraitsCRT@_W@ATL@@@@@ATL@@AAV?$vector@V?$CStringT@_WV?$StrTraitMFC_DLL@_WV?$ChTraitsCRT@_W@ATL@@@@@ATL@@V?$allocator@V?$CStringT@_WV?$StrTraitMFC_DLL@_WV?$ChTraitsCRT@_W@ATL@@@@@ATL@@@std@@@std@@AAH@Z$0 1000e092 f   Sqlite.obj
 0001:0000dfd4       __catch$?Select@Sqlite@baro@@QAE_NV?$CStringT@_WV?$StrTraitMFC_DLL@_WV?$ChTraitsCRT@_W@ATL@@@@@ATL@@AAV?$map@V?$CStringT@_WV?$StrTraitMFC_DLL@_WV?$ChTraitsCRT@_W@ATL@@@@@ATL@@V?$vector@V?$CStringT@_WV?$StrTraitMFC_DLL@_WV?$ChTraitsCRT@_W@ATL@@@@@ATL@@V?$allocator@V?$CStringT@_WV?$StrTraitMFC_DLL@_WV?$ChTraitsCRT@_W@ATL@@@@@ATL@@@std@@@std@@U?$less@V?$CStringT@_WV?$StrTraitMFC_DLL@_WV?$ChTraitsCRT@_W@ATL@@@@@ATL@@@4@V?$allocator@U?$pair@$$CBV?$CStringT@_WV?$StrTraitMFC_DLL@_WV?$ChTraitsCRT@_W@ATL@@@@@ATL@@V?$vector@V?$CStringT@_WV?$StrTraitMFC_DLL@_WV?$ChTraitsCRT@_W@ATL@@@@@ATL@@V?$allocator@V?$CStringT@_WV?$StrTraitMFC_DLL@_WV?$ChTraitsCRT@_W@ATL@@@@@ATL@@@std@@@std@@@std@@@4@@std@@00@Z$0 1000efd4 f   Sqlite.obj
 0001:0000e424       __catch$??$Query@VCppSqlite3Query@@@Sqlite@baro@@AAE_NPB_WAAVCppSqlite3Query@@@Z$0 1000f424 f i Sqlite.obj
 0001:0000e56b       __catch$??$_Buynode@U?$pair@V?$CStringT@_WV?$StrTraitMFC_DLL@_WV?$ChTraitsCRT@_W@ATL@@@@@ATL@@V?$vector@V?$CStringT@_WV?$StrTraitMFC_DLL@_WV?$ChTraitsCRT@_W@ATL@@@@@ATL@@V?$allocator@V?$CStringT@_WV?$StrTraitMFC_DLL@_WV?$ChTraitsCRT@_W@ATL@@@@@ATL@@@std@@@std@@@std@@@?$_Tree_buy@U?$pair@$$CBV?$CStringT@_WV?$StrTraitMFC_DLL@_WV?$ChTraitsCRT@_W@ATL@@@@@ATL@@V?$vector@V?$CStringT@_WV?$StrTraitMFC_DLL@_WV?$ChTraitsCRT@_W@ATL@@@@@ATL@@V?$allocator@V?$CStringT@_WV?$StrTraitMFC_DLL@_WV?$ChTraitsCRT@_W@ATL@@@@@ATL@@@std@@@std@@@std@@V?$allocator@U?$pair@$$CBV?$CStringT@_WV?$StrTraitMFC_DLL@_WV?$ChTraitsCRT@_W@ATL@@@@@ATL@@V?$vector@V?$CStringT@_WV?$StrTraitMFC_DLL@_WV?$ChTraitsCRT@_W@ATL@@@@@ATL@@V?$allocator@V?$CStringT@_WV?$StrTraitMFC_DLL@_WV?$ChTraitsCRT@_W@ATL@@@@@ATL@@@std@@@std@@@std@@@2@@std@@QAEPAU?$_Tree_node@U?$pair@$$CBV?$CStringT@_WV?$StrTraitMFC_DLL@_WV?$ChTraitsCRT@_W@ATL@@@@@ATL@@V?$vector@V?$CStringT@_WV?$StrTraitMFC_DLL@_WV?$ChTraitsCRT@_W@ATL@@@@@ATL@@V?$allocator@V?$CStringT@_WV?$StrTraitMFC_DLL@_WV?$ChTraitsCRT@_W@ATL@@@@@ATL@@@std@@@std@@@std@@PAX@1@$$QAU?$pair@V?$CStringT@_WV?$StrTraitMFC_DLL@_WV?$ChTraitsCRT@_W@ATL@@@@@ATL@@V?$vector@V?$CStringT@_WV?$StrTraitMFC_DLL@_WV?$ChTraitsCRT@_W@ATL@@@@@ATL@@V?$allocator@V?$CStringT@_WV?$StrTraitMFC_DLL@_WV?$ChTraitsCRT@_W@ATL@@@@@ATL@@@std@@@std@@@1@@Z$0 1000f56b f i Sqlite.obj
 0001:0000e6d0       __catch$??$_Insert_nohint@AAU?$pair@$$CBV?$CStringT@_WV?$StrTraitMFC_DLL@_WV?$ChTraitsCRT@_W@ATL@@@@@ATL@@V?$vector@V?$CStringT@_WV?$StrTraitMFC_DLL@_WV?$ChTraitsCRT@_W@ATL@@@@@ATL@@V?$allocator@V?$CStringT@_WV?$StrTraitMFC_DLL@_WV?$ChTraitsCRT@_W@ATL@@@@@ATL@@@std@@@std@@@std@@PAU?$_Tree_node@U?$pair@$$CBV?$CStringT@_WV?$StrTraitMFC_DLL@_WV?$ChTraitsCRT@_W@ATL@@@@@ATL@@V?$vector@V?$CStringT@_WV?$StrTraitMFC_DLL@_WV?$ChTraitsCRT@_W@ATL@@@@@ATL@@V?$allocator@V?$CStringT@_WV?$StrTraitMFC_DLL@_WV?$ChTraitsCRT@_W@ATL@@@@@ATL@@@std@@@std@@@std@@PAX@2@@?$_Tree@V?$_Tmap_traits@V?$CStringT@_WV?$StrTraitMFC_DLL@_WV?$ChTraitsCRT@_W@ATL@@@@@ATL@@V?$vector@V?$CStringT@_WV?$StrTraitMFC_DLL@_WV?$ChTraitsCRT@_W@ATL@@@@@ATL@@V?$allocator@V?$CStringT@_WV?$StrTraitMFC_DLL@_WV?$ChTraitsCRT@_W@ATL@@@@@ATL@@@std@@@std@@U?$less@V?$CStringT@_WV?$StrTraitMFC_DLL@_WV?$ChTraitsCRT@_W@ATL@@@@@ATL@@@4@V?$allocator@U?$pair@$$CBV?$CStringT@_WV?$StrTraitMFC_DLL@_WV?$ChTraitsCRT@_W@ATL@@@@@ATL@@V?$vector@V?$CStringT@_WV?$StrTraitMFC_DLL@_WV?$ChTraitsCRT@_W@ATL@@@@@ATL@@V?$allocator@V?$CStringT@_WV?$StrTraitMFC_DLL@_WV?$ChTraitsCRT@_W@ATL@@@@@ATL@@@std@@@std@@@std@@@4@$0A@@std@@@std@@IAE?AU?$pair@V?$_Tree_iterator@V?$_Tree_val@U?$_Tree_simple_types@U?$pair@$$CBV?$CStringT@_WV?$StrTraitMFC_DLL@_WV?$ChTraitsCRT@_W@ATL@@@@@ATL@@V?$vector@V?$CStringT@_WV?$StrTraitMFC_DLL@_WV?$ChTraitsCRT@_W@ATL@@@@@ATL@@V?$allocator@V?$CStringT@_WV?$StrTraitMFC_DLL@_WV?$ChTraitsCRT@_W@ATL@@@@@ATL@@@std@@@std@@@std@@@std@@@std@@@std@@_N@1@_NAAU?$pair@$$CBV?$CStringT@_WV?$StrTraitMFC_DLL@_WV?$ChTraitsCRT@_W@ATL@@@@@ATL@@V?$vector@V?$CStringT@_WV?$StrTraitMFC_DLL@_WV?$ChTraitsCRT@_W@ATL@@@@@ATL@@V?$allocator@V?$CStringT@_WV?$StrTraitMFC_DLL@_WV?$ChTraitsCRT@_W@ATL@@@@@ATL@@@std@@@std@@@1@PAU?$_Tree_node@U?$pair@$$CBV?$CStringT@_WV?$StrTraitMFC_DLL@_WV?$ChTraitsCRT@_W@ATL@@@@@ATL@@V?$vector@V?$CStringT@_WV?$StrTraitMFC_DLL@_WV?$ChTraitsCRT@_W@ATL@@@@@ATL@@V?$allocator@V?$CStringT@_WV?$StrTraitMFC_DLL@_WV?$ChTraitsCRT@_W@ATL@@@@@ATL@@@std@@@std@@@std@@PAX@1@@Z$0 1000f6d0 f i Sqlite.obj
 0001:0000e77c       __catch$??0?$vector@V?$CStringT@_WV?$StrTraitMFC_DLL@_WV?$ChTraitsCRT@_W@ATL@@@@@ATL@@V?$allocator@V?$CStringT@_WV?$StrTraitMFC_DLL@_WV?$ChTraitsCRT@_W@ATL@@@@@ATL@@@std@@@std@@QAE@ABV01@@Z$0 1000f77c f i Sqlite.obj
 0001:0000fb50       ??R<lambda_257dd9aa029b0bb95eaf18bd787825cc>@@QBE_NAAVCFile@@@Z 10010b50 f   Stream.obj
 0001:0000fce0       ??R<lambda_f8882b2bf4f22a473592eb1ff5482a78>@@QBE_NAAVCFile@@@Z 10010ce0 f   Stream.obj
 0001:0001231b       __catch$??$_Buynode@U?$pair@V?$CStringT@_WV?$StrTraitMFC_DLL@_WV?$ChTraitsCRT@_W@ATL@@@@@ATL@@U?$pair@HH@std@@@std@@@?$_Tree_buy@U?$pair@$$CBV?$CStringT@_WV?$StrTraitMFC_DLL@_WV?$ChTraitsCRT@_W@ATL@@@@@ATL@@U?$pair@II@std@@@std@@V?$allocator@U?$pair@$$CBV?$CStringT@_WV?$StrTraitMFC_DLL@_WV?$ChTraitsCRT@_W@ATL@@@@@ATL@@U?$pair@II@std@@@std@@@2@@std@@QAEPAU?$_Tree_node@U?$pair@$$CBV?$CStringT@_WV?$StrTraitMFC_DLL@_WV?$ChTraitsCRT@_W@ATL@@@@@ATL@@U?$pair@II@std@@@std@@PAX@1@$$QAU?$pair@V?$CStringT@_WV?$StrTraitMFC_DLL@_WV?$ChTraitsCRT@_W@ATL@@@@@ATL@@U?$pair@HH@std@@@1@@Z$0 1001331b f i Logger.obj
 0001:0001247e       __catch$??$_Insert_nohint@AAU?$pair@$$CBV?$CStringT@_WV?$StrTraitMFC_DLL@_WV?$ChTraitsCRT@_W@ATL@@@@@ATL@@U?$pair@II@std@@@std@@PAU?$_Tree_node@U?$pair@$$CBV?$CStringT@_WV?$StrTraitMFC_DLL@_WV?$ChTraitsCRT@_W@ATL@@@@@ATL@@U?$pair@II@std@@@std@@PAX@2@@?$_Tree@V?$_Tmap_traits@V?$CStringT@_WV?$StrTraitMFC_DLL@_WV?$ChTraitsCRT@_W@ATL@@@@@ATL@@U?$pair@II@std@@U?$less@V?$CStringT@_WV?$StrTraitMFC_DLL@_WV?$ChTraitsCRT@_W@ATL@@@@@ATL@@@4@V?$allocator@U?$pair@$$CBV?$CStringT@_WV?$StrTraitMFC_DLL@_WV?$ChTraitsCRT@_W@ATL@@@@@ATL@@U?$pair@II@std@@@std@@@4@$0A@@std@@@std@@IAE?AU?$pair@V?$_Tree_iterator@V?$_Tree_val@U?$_Tree_simple_types@U?$pair@$$CBV?$CStringT@_WV?$StrTraitMFC_DLL@_WV?$ChTraitsCRT@_W@ATL@@@@@ATL@@U?$pair@II@std@@@std@@@std@@@std@@@std@@_N@1@_NAAU?$pair@$$CBV?$CStringT@_WV?$StrTraitMFC_DLL@_WV?$ChTraitsCRT@_W@ATL@@@@@ATL@@U?$pair@II@std@@@1@PAU?$_Tree_node@U?$pair@$$CBV?$CStringT@_WV?$StrTraitMFC_DLL@_WV?$ChTraitsCRT@_W@ATL@@@@@ATL@@U?$pair@II@std@@@std@@PAX@1@@Z$0 1001347e f i Logger.obj
 0001:00014dd4       $LN55                      10015dd4     CustomGraph.obj
 0001:00014f94       $LN67                      10015f94     CustomGraph.obj
 0001:0001617a       __catch$??$_Insert_nohint@AAU?$pair@$$CBHVColor@Gdiplus@@@std@@PAU?$_Tree_node@U?$pair@$$CBHVColor@Gdiplus@@@std@@PAX@2@@?$_Tree@V?$_Tmap_traits@HVColor@Gdiplus@@U?$less@H@std@@V?$allocator@U?$pair@$$CBHVColor@Gdiplus@@@std@@@4@$0A@@std@@@std@@IAE?AU?$pair@V?$_Tree_iterator@V?$_Tree_val@U?$_Tree_simple_types@U?$pair@$$CBHVColor@Gdiplus@@@std@@@std@@@std@@@std@@_N@1@_NAAU?$pair@$$CBHVColor@Gdiplus@@@1@PAU?$_Tree_node@U?$pair@$$CBHVColor@Gdiplus@@@std@@PAX@1@@Z$0 1001717a f i GradientRect.obj
 0001:00017a80       ??R<lambda_d2a4eee18dbdfef9f6a39e7e07b061ab>@@QBEHIMV?$function@$$A6AMI@Z@std@@@Z 10018a80 f   PointCoord.obj
 0001:00018d44       $LN27                      10019d44     ISerialize.obj
 0001:0001b0e6       __catch$??0?$_Tree@V?$_Tmap_traits@HVColor@Gdiplus@@U?$less@H@std@@V?$allocator@U?$pair@$$CBHVColor@Gdiplus@@@std@@@4@$0A@@std@@@std@@QAE@ABV01@ABV?$allocator@U?$pair@$$CBHVColor@Gdiplus@@@std@@@1@@Z$0 1001c0e6 f i stdafx.obj
 0001:0001b92f       __catch$??$_Copy_nodes@U?$integral_constant@_N$0A@@std@@@?$_Tree@V?$_Tmap_traits@HVColor@Gdiplus@@U?$less@H@std@@V?$allocator@U?$pair@$$CBHVColor@Gdiplus@@@std@@@4@$0A@@std@@@std@@IAEPAU?$_Tree_node@U?$pair@$$CBHVColor@Gdiplus@@@std@@PAX@1@PAU21@0U?$integral_constant@_N$0A@@1@@Z$0 1001c92f f i stdafx.obj
 0001:0001b9d3       __catch$??$_Buynode@U?$pair@V?$CStringT@_WV?$StrTraitMFC_DLL@_WV?$ChTraitsCRT@_W@ATL@@@@@ATL@@V12@@std@@@?$_Tree_buy@U?$pair@$$CBV?$CStringT@_WV?$StrTraitMFC_DLL@_WV?$ChTraitsCRT@_W@ATL@@@@@ATL@@V12@@std@@V?$allocator@U?$pair@$$CBV?$CStringT@_WV?$StrTraitMFC_DLL@_WV?$ChTraitsCRT@_W@ATL@@@@@ATL@@V12@@std@@@2@@std@@QAEPAU?$_Tree_node@U?$pair@$$CBV?$CStringT@_WV?$StrTraitMFC_DLL@_WV?$ChTraitsCRT@_W@ATL@@@@@ATL@@V12@@std@@PAX@1@$$QAU?$pair@V?$CStringT@_WV?$StrTraitMFC_DLL@_WV?$ChTraitsCRT@_W@ATL@@@@@ATL@@V12@@1@@Z$0 1001c9d3 f i stdafx.obj
 0001:0001bb3c       __catch$??$_Insert_nohint@AAU?$pair@$$CBV?$CStringT@_WV?$StrTraitMFC_DLL@_WV?$ChTraitsCRT@_W@ATL@@@@@ATL@@V12@@std@@PAU?$_Tree_node@U?$pair@$$CBV?$CStringT@_WV?$StrTraitMFC_DLL@_WV?$ChTraitsCRT@_W@ATL@@@@@ATL@@V12@@std@@PAX@2@@?$_Tree@V?$_Tmap_traits@V?$CStringT@_WV?$StrTraitMFC_DLL@_WV?$ChTraitsCRT@_W@ATL@@@@@ATL@@V12@U?$less@V?$CStringT@_WV?$StrTraitMFC_DLL@_WV?$ChTraitsCRT@_W@ATL@@@@@ATL@@@std@@V?$allocator@U?$pair@$$CBV?$CStringT@_WV?$StrTraitMFC_DLL@_WV?$ChTraitsCRT@_W@ATL@@@@@ATL@@V12@@std@@@4@$0A@@std@@@std@@IAE?AU?$pair@V?$_Tree_iterator@V?$_Tree_val@U?$_Tree_simple_types@U?$pair@$$CBV?$CStringT@_WV?$StrTraitMFC_DLL@_WV?$ChTraitsCRT@_W@ATL@@@@@ATL@@V12@@std@@@std@@@std@@@std@@_N@1@_NAAU?$pair@$$CBV?$CStringT@_WV?$StrTraitMFC_DLL@_WV?$ChTraitsCRT@_W@ATL@@@@@ATL@@V12@@1@PAU?$_Tree_node@U?$pair@$$CBV?$CStringT@_WV?$StrTraitMFC_DLL@_WV?$ChTraitsCRT@_W@ATL@@@@@ATL@@V12@@std@@PAX@1@@Z$0 1001cb3c f i stdafx.obj
 0001:0001c30c       __catch$_InternalDllMain@12$2 1001d30c f   mfcs120u:dllmodul.obj
 0001:0001c79f       _pre_c_init                1001d79f f   msvcrt:crtdll.obj
 0001:0001ca05       ___DllMainCRTStartup       1001da05 f   msvcrt:crtdll.obj
 0001:0001cb40       $$000000                   1001db40     msvcrt:sehprolg4.obj
 0001:0001cba0       $$000000                   1001dba0     msvcrt:sehprolg4gs.obj
 0001:0001d051       __FindPESection            1001e051 f   mfcs120u:rawdllmainproxy.obj
 0001:0001d095       __IsNonwritableInCurrentImage 1001e095 f   mfcs120u:rawdllmainproxy.obj
 0001:0001d130       $$000000                   1001e130     msvcrt:lldiv.obj
 0001:0001d1e0       $$000000                   1001e1e0     msvcrt:llmul.obj
 0001:0001d220       $$000000                   1001e220     msvcrt:ulldiv.obj
 0001:0001d290       $$000000                   1001e290     msvcrt:ulldvrm.obj
 0001:0001d330       $$000000                   1001e330     msvcrt:ullrem.obj
 0001:0001d3b0       $$000000                   1001e3b0     msvcrt:chkstk.obj
 0001:0001d3e0       $$000000                   1001e3e0     msvcrt:ftol3.obj
 0001:0001d7d0       __ehhandler$??1CppSqlite3Query@@UAE@XZ 1001e7d0 f   CppSQLite3U.obj
 0001:0001d7f0       __ehhandler$??4CppSqlite3Query@@QAEAAV0@ABV0@@Z 1001e7f0 f   CppSQLite3U.obj
 0001:0001d810       __unwindfunclet$?DecodeBase64@bapi@@YA_NV?$CStringT@_WV?$StrTraitMFC_DLL@_WV?$ChTraitsCRT@_W@ATL@@@@@ATL@@AAV23@@Z$0 1001e810 f   crypt.obj
 0001:0001d810       __unwindfunclet$?EncodeBase64@bapi@@YA_NV?$CStringT@_WV?$StrTraitMFC_DLL@_WV?$ChTraitsCRT@_W@ATL@@@@@ATL@@AAV23@@Z$0 1001e810 f   crypt.obj
 0001:0001d819       __unwindfunclet$?EncodeBase64@bapi@@YA_NV?$CStringT@_WV?$StrTraitMFC_DLL@_WV?$ChTraitsCRT@_W@ATL@@@@@ATL@@AAV23@@Z$2 1001e819 f   crypt.obj
 0001:0001d819       __unwindfunclet$?DecodeBase64@bapi@@YA_NV?$CStringT@_WV?$StrTraitMFC_DLL@_WV?$ChTraitsCRT@_W@ATL@@@@@ATL@@AAV23@@Z$2 1001e819 f   crypt.obj
 0001:0001d821       __unwindfunclet$?DecodeBase64@bapi@@YA_NV?$CStringT@_WV?$StrTraitMFC_DLL@_WV?$ChTraitsCRT@_W@ATL@@@@@ATL@@AAV23@@Z$1 1001e821 f   crypt.obj
 0001:0001d821       __unwindfunclet$?EncodeBase64@bapi@@YA_NV?$CStringT@_WV?$StrTraitMFC_DLL@_WV?$ChTraitsCRT@_W@ATL@@@@@ATL@@AAV23@@Z$1 1001e821 f   crypt.obj
 0001:0001d829       __ehhandler$?DecodeBase64@bapi@@YA_NV?$CStringT@_WV?$StrTraitMFC_DLL@_WV?$ChTraitsCRT@_W@ATL@@@@@ATL@@AAV23@@Z 1001e829 f   crypt.obj
 0001:0001d829       __ehhandler$?EncodeBase64@bapi@@YA_NV?$CStringT@_WV?$StrTraitMFC_DLL@_WV?$ChTraitsCRT@_W@ATL@@@@@ATL@@AAV23@@Z 1001e829 f   crypt.obj
 0001:0001d850       __unwindfunclet$?EncryptString@bapi@@YA_NV?$CStringT@_WV?$StrTraitMFC_DLL@_WV?$ChTraitsCRT@_W@ATL@@@@@ATL@@KAAV23@@Z$0 1001e850 f   crypt.obj
 0001:0001d850       __unwindfunclet$?DecryptString@bapi@@YA_NV?$CStringT@_WV?$StrTraitMFC_DLL@_WV?$ChTraitsCRT@_W@ATL@@@@@ATL@@KAAV23@@Z$0 1001e850 f   crypt.obj
 0001:0001d850       __unwindfunclet$??0A256B64@baro@@QAE@V?$CStringT@_WV?$StrTraitMFC_DLL@_WV?$ChTraitsCRT@_W@ATL@@@@@ATL@@KK@Z$0 1001e850 f   A256B64.obj
 0001:0001d859       __ehhandler$??0A256B64@baro@@QAE@V?$CStringT@_WV?$StrTraitMFC_DLL@_WV?$ChTraitsCRT@_W@ATL@@@@@ATL@@KK@Z 1001e859 f   A256B64.obj
 0001:0001d859       __ehhandler$?EncryptString@bapi@@YA_NV?$CStringT@_WV?$StrTraitMFC_DLL@_WV?$ChTraitsCRT@_W@ATL@@@@@ATL@@KAAV23@@Z 1001e859 f   crypt.obj
 0001:0001d859       __ehhandler$?DecryptString@bapi@@YA_NV?$CStringT@_WV?$StrTraitMFC_DLL@_WV?$ChTraitsCRT@_W@ATL@@@@@ATL@@KAAV23@@Z 1001e859 f   crypt.obj
 0001:0001d880       __unwindfunclet$?EncryptStringA@bapi@@YA_NV?$CStringT@DV?$StrTraitMFC_DLL@DV?$ChTraitsCRT@D@ATL@@@@@ATL@@KAAV23@@Z$0 1001e880 f   crypt.obj
 0001:0001d889       __unwindfunclet$?EncryptStringA@bapi@@YA_NV?$CStringT@DV?$StrTraitMFC_DLL@DV?$ChTraitsCRT@D@ATL@@@@@ATL@@KAAV23@@Z$1 1001e889 f   crypt.obj
 0001:0001d891       __ehhandler$?EncryptStringA@bapi@@YA_NV?$CStringT@DV?$StrTraitMFC_DLL@DV?$ChTraitsCRT@D@ATL@@@@@ATL@@KAAV23@@Z 1001e891 f   crypt.obj
 0001:0001d8c0       __unwindfunclet$?DecryptStringA@bapi@@YA_NV?$CStringT@DV?$StrTraitMFC_DLL@DV?$ChTraitsCRT@D@ATL@@@@@ATL@@KAAV23@@Z$0 1001e8c0 f   crypt.obj
 0001:0001d8c9       __unwindfunclet$?DecryptStringA@bapi@@YA_NV?$CStringT@DV?$StrTraitMFC_DLL@DV?$ChTraitsCRT@D@ATL@@@@@ATL@@KAAV23@@Z$1 1001e8c9 f   crypt.obj
 0001:0001d8d1       __ehhandler$?DecryptStringA@bapi@@YA_NV?$CStringT@DV?$StrTraitMFC_DLL@DV?$ChTraitsCRT@D@ATL@@@@@ATL@@KAAV23@@Z 1001e8d1 f   crypt.obj
 0001:0001d900       __unwindfunclet$?EncryptStringW@bapi@@YA_NV?$CStringT@_WV?$StrTraitMFC_DLL@_WV?$ChTraitsCRT@_W@ATL@@@@@ATL@@KAAV23@@Z$0 1001e900 f   crypt.obj
 0001:0001d909       __unwindfunclet$?EncryptStringW@bapi@@YA_NV?$CStringT@_WV?$StrTraitMFC_DLL@_WV?$ChTraitsCRT@_W@ATL@@@@@ATL@@KAAV23@@Z$1 1001e909 f   crypt.obj
 0001:0001d911       __ehhandler$?EncryptStringW@bapi@@YA_NV?$CStringT@_WV?$StrTraitMFC_DLL@_WV?$ChTraitsCRT@_W@ATL@@@@@ATL@@KAAV23@@Z 1001e911 f   crypt.obj
 0001:0001d940       __unwindfunclet$?DecryptStringW@bapi@@YA_NV?$CStringT@_WV?$StrTraitMFC_DLL@_WV?$ChTraitsCRT@_W@ATL@@@@@ATL@@KAAV23@@Z$0 1001e940 f   crypt.obj
 0001:0001d949       __unwindfunclet$?DecryptStringW@bapi@@YA_NV?$CStringT@_WV?$StrTraitMFC_DLL@_WV?$ChTraitsCRT@_W@ATL@@@@@ATL@@KAAV23@@Z$1 1001e949 f   crypt.obj
 0001:0001d951       __ehhandler$?DecryptStringW@bapi@@YA_NV?$CStringT@_WV?$StrTraitMFC_DLL@_WV?$ChTraitsCRT@_W@ATL@@@@@ATL@@KAAV23@@Z 1001e951 f   crypt.obj
 0001:0001d980       __unwindfunclet$?BinaryToStringA@bapi@@YA_NPBEKAAV?$CStringT@DV?$StrTraitMFC_DLL@DV?$ChTraitsCRT@D@ATL@@@@@ATL@@@Z$0 1001e980 f   crypt.obj
 0001:0001d988       __ehhandler$?BinaryToStringA@bapi@@YA_NPBEKAAV?$CStringT@DV?$StrTraitMFC_DLL@DV?$ChTraitsCRT@D@ATL@@@@@ATL@@@Z 1001e988 f   crypt.obj
 0001:0001d9b0       __unwindfunclet$?BinaryToStringW@bapi@@YA_NPBEKAAV?$CStringT@_WV?$StrTraitMFC_DLL@_WV?$ChTraitsCRT@_W@ATL@@@@@ATL@@@Z$0 1001e9b0 f   crypt.obj
 0001:0001d9b8       __ehhandler$?BinaryToStringW@bapi@@YA_NPBEKAAV?$CStringT@_WV?$StrTraitMFC_DLL@_WV?$ChTraitsCRT@_W@ATL@@@@@ATL@@@Z 1001e9b8 f   crypt.obj
 0001:0001d9e0       __unwindfunclet$?GetInstancePath@bapi@@YA?AV?$CStringT@_WV?$StrTraitMFC_DLL@_WV?$ChTraitsCRT@_W@ATL@@@@@ATL@@_N@Z$0 1001e9e0 f   file.obj
 0001:0001d9fa       __unwindfunclet$?GetInstancePath@bapi@@YA?AV?$CStringT@_WV?$StrTraitMFC_DLL@_WV?$ChTraitsCRT@_W@ATL@@@@@ATL@@_N@Z$1 1001e9fa f   file.obj
 0001:0001da03       __ehhandler$?GetInstancePath@bapi@@YA?AV?$CStringT@_WV?$StrTraitMFC_DLL@_WV?$ChTraitsCRT@_W@ATL@@@@@ATL@@_N@Z 1001ea03 f   file.obj
 0001:0001da20       __unwindfunclet$?CreateFolder@bapi@@YAHV?$CStringT@_WV?$StrTraitMFC_DLL@_WV?$ChTraitsCRT@_W@ATL@@@@@ATL@@@Z$0 1001ea20 f   file.obj
 0001:0001da29       __unwindfunclet$?CreateFolder@bapi@@YAHV?$CStringT@_WV?$StrTraitMFC_DLL@_WV?$ChTraitsCRT@_W@ATL@@@@@ATL@@@Z$1 1001ea29 f   file.obj
 0001:0001da32       __unwindfunclet$?CreateFolder@bapi@@YAHV?$CStringT@_WV?$StrTraitMFC_DLL@_WV?$ChTraitsCRT@_W@ATL@@@@@ATL@@@Z$2 1001ea32 f   file.obj
 0001:0001da3b       __unwindfunclet$?CreateFolder@bapi@@YAHV?$CStringT@_WV?$StrTraitMFC_DLL@_WV?$ChTraitsCRT@_W@ATL@@@@@ATL@@@Z$3 1001ea3b f   file.obj
 0001:0001da44       __unwindfunclet$?CreateFolder@bapi@@YAHV?$CStringT@_WV?$StrTraitMFC_DLL@_WV?$ChTraitsCRT@_W@ATL@@@@@ATL@@@Z$4 1001ea44 f   file.obj
 0001:0001da4d       __ehhandler$?CreateFolder@bapi@@YAHV?$CStringT@_WV?$StrTraitMFC_DLL@_WV?$ChTraitsCRT@_W@ATL@@@@@ATL@@@Z 1001ea4d f   file.obj
 0001:0001da80       __unwindfunclet$?DeleteFolder@bapi@@YAHV?$CStringT@_WV?$StrTraitMFC_DLL@_WV?$ChTraitsCRT@_W@ATL@@@@@ATL@@H@Z$0 1001ea80 f   file.obj
 0001:0001da89       __ehhandler$?DeleteFolder@bapi@@YAHV?$CStringT@_WV?$StrTraitMFC_DLL@_WV?$ChTraitsCRT@_W@ATL@@@@@ATL@@H@Z 1001ea89 f   file.obj
 0001:0001dac0       __unwindfunclet$?GetPathNameFolder@bapi@@YA_NAAV?$CStringT@_WV?$StrTraitMFC_DLL@_WV?$ChTraitsCRT@_W@ATL@@@@@ATL@@_N00@Z$0 1001eac0 f   file.obj
 0001:0001dac0       __unwindfunclet$?FolderExistIsAddNumbering@bapi@@YAXAAV?$CStringT@_WV?$StrTraitMFC_DLL@_WV?$ChTraitsCRT@_W@ATL@@@@@ATL@@@Z$0 1001eac0 f   file.obj
 0001:0001dac0       __unwindfunclet$?UpdateNetState@MsgProcedure@helper@baro@@QAE_NXZ$0 1001eac0 f   MsgThread.obj
 0001:0001dac9       __ehhandler$?FolderExistIsAddNumbering@bapi@@YAXAAV?$CStringT@_WV?$StrTraitMFC_DLL@_WV?$ChTraitsCRT@_W@ATL@@@@@ATL@@@Z 1001eac9 f   file.obj
 0001:0001dac9       __ehhandler$?UpdateNetState@MsgProcedure@helper@baro@@QAE_NXZ 1001eac9 f   MsgThread.obj
 0001:0001dac9       __ehhandler$?GetPathNameFolder@bapi@@YA_NAAV?$CStringT@_WV?$StrTraitMFC_DLL@_WV?$ChTraitsCRT@_W@ATL@@@@@ATL@@_N00@Z 1001eac9 f   file.obj
 0001:0001daf0       __unwindfunclet$?FileExistAddNumbering@bapi@@YA_NAAV?$CStringT@_WV?$StrTraitMFC_DLL@_WV?$ChTraitsCRT@_W@ATL@@@@@ATL@@@Z$0 1001eaf0 f   file.obj
 0001:0001daf9       __unwindfunclet$?FileExistAddNumbering@bapi@@YA_NAAV?$CStringT@_WV?$StrTraitMFC_DLL@_WV?$ChTraitsCRT@_W@ATL@@@@@ATL@@@Z$1 1001eaf9 f   file.obj
 0001:0001db02       __unwindfunclet$?FileExistAddNumbering@bapi@@YA_NAAV?$CStringT@_WV?$StrTraitMFC_DLL@_WV?$ChTraitsCRT@_W@ATL@@@@@ATL@@@Z$2 1001eb02 f   file.obj
 0001:0001db0b       __unwindfunclet$?FileExistAddNumbering@bapi@@YA_NAAV?$CStringT@_WV?$StrTraitMFC_DLL@_WV?$ChTraitsCRT@_W@ATL@@@@@ATL@@@Z$3 1001eb0b f   file.obj
 0001:0001db14       __unwindfunclet$?FileExistAddNumbering@bapi@@YA_NAAV?$CStringT@_WV?$StrTraitMFC_DLL@_WV?$ChTraitsCRT@_W@ATL@@@@@ATL@@@Z$4 1001eb14 f   file.obj
 0001:0001db1d       __ehhandler$?FileExistAddNumbering@bapi@@YA_NAAV?$CStringT@_WV?$StrTraitMFC_DLL@_WV?$ChTraitsCRT@_W@ATL@@@@@ATL@@@Z 1001eb1d f   file.obj
 0001:0001db50       __unwindfunclet$?IsIncludeExtension@bapi@@YA_NV?$CStringT@_WV?$StrTraitMFC_DLL@_WV?$ChTraitsCRT@_W@ATL@@@@@ATL@@0AAV23@@Z$0 1001eb50 f   file.obj
 0001:0001db59       __unwindfunclet$?IsIncludeExtension@bapi@@YA_NV?$CStringT@_WV?$StrTraitMFC_DLL@_WV?$ChTraitsCRT@_W@ATL@@@@@ATL@@0AAV23@@Z$1 1001eb59 f   file.obj
 0001:0001db62       __unwindfunclet$?IsIncludeExtension@bapi@@YA_NV?$CStringT@_WV?$StrTraitMFC_DLL@_WV?$ChTraitsCRT@_W@ATL@@@@@ATL@@0AAV23@@Z$2 1001eb62 f   file.obj
 0001:0001db6b       __unwindfunclet$?IsIncludeExtension@bapi@@YA_NV?$CStringT@_WV?$StrTraitMFC_DLL@_WV?$ChTraitsCRT@_W@ATL@@@@@ATL@@0AAV23@@Z$3 1001eb6b f   file.obj
 0001:0001db74       __ehhandler$?IsIncludeExtension@bapi@@YA_NV?$CStringT@_WV?$StrTraitMFC_DLL@_WV?$ChTraitsCRT@_W@ATL@@@@@ATL@@0AAV23@@Z 1001eb74 f   file.obj
 0001:0001db90       __unwindfunclet$?GetInstanceFileVersion@bapi@@YA_N_NAAUtagVS_FIXEDFILEINFO@@@Z$0 1001eb90 f   file.obj
 0001:0001db99       __unwindfunclet$?GetInstanceFileVersion@bapi@@YA_N_NAAUtagVS_FIXEDFILEINFO@@@Z$1 1001eb99 f   file.obj
 0001:0001dba2       __ehhandler$?GetInstanceFileVersion@bapi@@YA_N_NAAUtagVS_FIXEDFILEINFO@@@Z 1001eba2 f   file.obj
 0001:0001dbd0       __unwindfunclet$?GetInstanceFileVersion@bapi@@YA?AV?$CStringT@_WV?$StrTraitMFC_DLL@_WV?$ChTraitsCRT@_W@ATL@@@@@ATL@@_N@Z$0 1001ebd0 f   file.obj
 0001:0001dbd9       __ehhandler$?GetInstanceFileVersion@bapi@@YA?AV?$CStringT@_WV?$StrTraitMFC_DLL@_WV?$ChTraitsCRT@_W@ATL@@@@@ATL@@_N@Z 1001ebd9 f   file.obj
 0001:0001dc00       __unwindfunclet$?ReadBinaryFile@bapi@@YA_NV?$CStringT@_WV?$StrTraitMFC_DLL@_WV?$ChTraitsCRT@_W@ATL@@@@@ATL@@V?$function@$$A6A_NAAVCFile@@@Z@std@@@Z$4 1001ec00 f   file.obj
 0001:0001dc08       __unwindfunclet$?ReadBinaryFile@bapi@@YA_NV?$CStringT@_WV?$StrTraitMFC_DLL@_WV?$ChTraitsCRT@_W@ATL@@@@@ATL@@V?$function@$$A6A_NAAVCFile@@@Z@std@@@Z$5 1001ec08 f   file.obj
 0001:0001dc11       __unwindfunclet$?ReadBinaryFile@bapi@@YA_NV?$CStringT@_WV?$StrTraitMFC_DLL@_WV?$ChTraitsCRT@_W@ATL@@@@@ATL@@V?$function@$$A6A_NAAVCFile@@@Z@std@@@Z$8 1001ec11 f   file.obj
 0001:0001dc19       __unwindfunclet$?ReadBinaryFile@bapi@@YA_NV?$CStringT@_WV?$StrTraitMFC_DLL@_WV?$ChTraitsCRT@_W@ATL@@@@@ATL@@V?$function@$$A6A_NAAVCFile@@@Z@std@@@Z$7 1001ec19 f   file.obj
 0001:0001dc22       __ehhandler$?ReadBinaryFile@bapi@@YA_NV?$CStringT@_WV?$StrTraitMFC_DLL@_WV?$ChTraitsCRT@_W@ATL@@@@@ATL@@V?$function@$$A6A_NAAVCFile@@@Z@std@@@Z 1001ec22 f   file.obj
 0001:0001dc50       __unwindfunclet$?WriteBinaryFile@bapi@@YA_NV?$CStringT@_WV?$StrTraitMFC_DLL@_WV?$ChTraitsCRT@_W@ATL@@@@@ATL@@_NV?$function@$$A6A_NAAVCFile@@@Z@std@@@Z$4 1001ec50 f   file.obj
 0001:0001dc58       __unwindfunclet$?WriteBinaryFile@bapi@@YA_NV?$CStringT@_WV?$StrTraitMFC_DLL@_WV?$ChTraitsCRT@_W@ATL@@@@@ATL@@_NV?$function@$$A6A_NAAVCFile@@@Z@std@@@Z$5 1001ec58 f   file.obj
 0001:0001dc61       __unwindfunclet$?WriteBinaryFile@bapi@@YA_NV?$CStringT@_WV?$StrTraitMFC_DLL@_WV?$ChTraitsCRT@_W@ATL@@@@@ATL@@_NV?$function@$$A6A_NAAVCFile@@@Z@std@@@Z$8 1001ec61 f   file.obj
 0001:0001dc69       __unwindfunclet$?WriteBinaryFile@bapi@@YA_NV?$CStringT@_WV?$StrTraitMFC_DLL@_WV?$ChTraitsCRT@_W@ATL@@@@@ATL@@_NV?$function@$$A6A_NAAVCFile@@@Z@std@@@Z$7 1001ec69 f   file.obj
 0001:0001dc72       __ehhandler$?WriteBinaryFile@bapi@@YA_NV?$CStringT@_WV?$StrTraitMFC_DLL@_WV?$ChTraitsCRT@_W@ATL@@@@@ATL@@_NV?$function@$$A6A_NAAVCFile@@@Z@std@@@Z 1001ec72 f   file.obj
 0001:0001dca0       __unwindfunclet$?FindFileList@bapi@@YA?AV?$vector@V?$CStringT@_WV?$StrTraitMFC_DLL@_WV?$ChTraitsCRT@_W@ATL@@@@@ATL@@V?$allocator@V?$CStringT@_WV?$StrTraitMFC_DLL@_WV?$ChTraitsCRT@_W@ATL@@@@@ATL@@@std@@@std@@V?$CStringT@_WV?$StrTraitMFC_DLL@_WV?$ChTraitsCRT@_W@ATL@@@@@ATL@@@Z$0 1001eca0 f   file.obj
 0001:0001dca9       __unwindfunclet$?FindFileList@bapi@@YA?AV?$vector@V?$CStringT@_WV?$StrTraitMFC_DLL@_WV?$ChTraitsCRT@_W@ATL@@@@@ATL@@V?$allocator@V?$CStringT@_WV?$StrTraitMFC_DLL@_WV?$ChTraitsCRT@_W@ATL@@@@@ATL@@@std@@@std@@V?$CStringT@_WV?$StrTraitMFC_DLL@_WV?$ChTraitsCRT@_W@ATL@@@@@ATL@@@Z$1 1001eca9 f   file.obj
 0001:0001dcc2       __unwindfunclet$?FindFileList@bapi@@YA?AV?$vector@V?$CStringT@_WV?$StrTraitMFC_DLL@_WV?$ChTraitsCRT@_W@ATL@@@@@ATL@@V?$allocator@V?$CStringT@_WV?$StrTraitMFC_DLL@_WV?$ChTraitsCRT@_W@ATL@@@@@ATL@@@std@@@std@@V?$CStringT@_WV?$StrTraitMFC_DLL@_WV?$ChTraitsCRT@_W@ATL@@@@@ATL@@@Z$4 1001ecc2 f   file.obj
 0001:0001dcca       __unwindfunclet$?FindFileList@bapi@@YA?AV?$vector@V?$CStringT@_WV?$StrTraitMFC_DLL@_WV?$ChTraitsCRT@_W@ATL@@@@@ATL@@V?$allocator@V?$CStringT@_WV?$StrTraitMFC_DLL@_WV?$ChTraitsCRT@_W@ATL@@@@@ATL@@@std@@@std@@V?$CStringT@_WV?$StrTraitMFC_DLL@_WV?$ChTraitsCRT@_W@ATL@@@@@ATL@@@Z$2 1001ecca f   file.obj
 0001:0001dcd2       __unwindfunclet$?FindFileList@bapi@@YA?AV?$vector@V?$CStringT@_WV?$StrTraitMFC_DLL@_WV?$ChTraitsCRT@_W@ATL@@@@@ATL@@V?$allocator@V?$CStringT@_WV?$StrTraitMFC_DLL@_WV?$ChTraitsCRT@_W@ATL@@@@@ATL@@@std@@@std@@V?$CStringT@_WV?$StrTraitMFC_DLL@_WV?$ChTraitsCRT@_W@ATL@@@@@ATL@@@Z$7 1001ecd2 f   file.obj
 0001:0001dcdb       __ehhandler$?FindFileList@bapi@@YA?AV?$vector@V?$CStringT@_WV?$StrTraitMFC_DLL@_WV?$ChTraitsCRT@_W@ATL@@@@@ATL@@V?$allocator@V?$CStringT@_WV?$StrTraitMFC_DLL@_WV?$ChTraitsCRT@_W@ATL@@@@@ATL@@@std@@@std@@V?$CStringT@_WV?$StrTraitMFC_DLL@_WV?$ChTraitsCRT@_W@ATL@@@@@ATL@@@Z 1001ecdb f   file.obj
 0001:0001dd00       __unwindfunclet$??R<lambda_92ae8a6edb3cc5c1e2896be211724754>@@QBEXV?$CStringT@_WV?$StrTraitMFC_DLL@_WV?$ChTraitsCRT@_W@ATL@@@@@ATL@@AAV?$vector@V?$CStringT@_WV?$StrTraitMFC_DLL@_WV?$ChTraitsCRT@_W@ATL@@@@@ATL@@V?$allocator@V?$CStringT@_WV?$StrTraitMFC_DLL@_WV?$ChTraitsCRT@_W@ATL@@@@@ATL@@@std@@@std@@@Z$0 1001ed00 f   file.obj
 0001:0001dd09       __unwindfunclet$??R<lambda_92ae8a6edb3cc5c1e2896be211724754>@@QBEXV?$CStringT@_WV?$StrTraitMFC_DLL@_WV?$ChTraitsCRT@_W@ATL@@@@@ATL@@AAV?$vector@V?$CStringT@_WV?$StrTraitMFC_DLL@_WV?$ChTraitsCRT@_W@ATL@@@@@ATL@@V?$allocator@V?$CStringT@_WV?$StrTraitMFC_DLL@_WV?$ChTraitsCRT@_W@ATL@@@@@ATL@@@std@@@std@@@Z$1 1001ed09 f   file.obj
 0001:0001dd12       __unwindfunclet$??R<lambda_92ae8a6edb3cc5c1e2896be211724754>@@QBEXV?$CStringT@_WV?$StrTraitMFC_DLL@_WV?$ChTraitsCRT@_W@ATL@@@@@ATL@@AAV?$vector@V?$CStringT@_WV?$StrTraitMFC_DLL@_WV?$ChTraitsCRT@_W@ATL@@@@@ATL@@V?$allocator@V?$CStringT@_WV?$StrTraitMFC_DLL@_WV?$ChTraitsCRT@_W@ATL@@@@@ATL@@@std@@@std@@@Z$2 1001ed12 f   file.obj
 0001:0001dd1b       __unwindfunclet$??R<lambda_92ae8a6edb3cc5c1e2896be211724754>@@QBEXV?$CStringT@_WV?$StrTraitMFC_DLL@_WV?$ChTraitsCRT@_W@ATL@@@@@ATL@@AAV?$vector@V?$CStringT@_WV?$StrTraitMFC_DLL@_WV?$ChTraitsCRT@_W@ATL@@@@@ATL@@V?$allocator@V?$CStringT@_WV?$StrTraitMFC_DLL@_WV?$ChTraitsCRT@_W@ATL@@@@@ATL@@@std@@@std@@@Z$5 1001ed1b f   file.obj
 0001:0001dd24       __unwindfunclet$??R<lambda_92ae8a6edb3cc5c1e2896be211724754>@@QBEXV?$CStringT@_WV?$StrTraitMFC_DLL@_WV?$ChTraitsCRT@_W@ATL@@@@@ATL@@AAV?$vector@V?$CStringT@_WV?$StrTraitMFC_DLL@_WV?$ChTraitsCRT@_W@ATL@@@@@ATL@@V?$allocator@V?$CStringT@_WV?$StrTraitMFC_DLL@_WV?$ChTraitsCRT@_W@ATL@@@@@ATL@@@std@@@std@@@Z$4 1001ed24 f   file.obj
 0001:0001dd2d       __unwindfunclet$??R<lambda_92ae8a6edb3cc5c1e2896be211724754>@@QBEXV?$CStringT@_WV?$StrTraitMFC_DLL@_WV?$ChTraitsCRT@_W@ATL@@@@@ATL@@AAV?$vector@V?$CStringT@_WV?$StrTraitMFC_DLL@_WV?$ChTraitsCRT@_W@ATL@@@@@ATL@@V?$allocator@V?$CStringT@_WV?$StrTraitMFC_DLL@_WV?$ChTraitsCRT@_W@ATL@@@@@ATL@@@std@@@std@@@Z$6 1001ed2d f   file.obj
 0001:0001dd32       __unwindfunclet$??R<lambda_92ae8a6edb3cc5c1e2896be211724754>@@QBEXV?$CStringT@_WV?$StrTraitMFC_DLL@_WV?$ChTraitsCRT@_W@ATL@@@@@ATL@@AAV?$vector@V?$CStringT@_WV?$StrTraitMFC_DLL@_WV?$ChTraitsCRT@_W@ATL@@@@@ATL@@V?$allocator@V?$CStringT@_WV?$StrTraitMFC_DLL@_WV?$ChTraitsCRT@_W@ATL@@@@@ATL@@@std@@@std@@@Z$7 1001ed32 f   file.obj
 0001:0001dd37       __ehhandler$??R<lambda_92ae8a6edb3cc5c1e2896be211724754>@@QBEXV?$CStringT@_WV?$StrTraitMFC_DLL@_WV?$ChTraitsCRT@_W@ATL@@@@@ATL@@AAV?$vector@V?$CStringT@_WV?$StrTraitMFC_DLL@_WV?$ChTraitsCRT@_W@ATL@@@@@ATL@@V?$allocator@V?$CStringT@_WV?$StrTraitMFC_DLL@_WV?$ChTraitsCRT@_W@ATL@@@@@ATL@@@std@@@std@@@Z 1001ed37 f   file.obj
 0001:0001dd60       __unwindfunclet$?FindFileList@bapi@@YA?AV?$vector@V?$CStringT@_WV?$StrTraitMFC_DLL@_WV?$ChTraitsCRT@_W@ATL@@@@@ATL@@V?$allocator@V?$CStringT@_WV?$StrTraitMFC_DLL@_WV?$ChTraitsCRT@_W@ATL@@@@@ATL@@@std@@@std@@V?$CStringT@_WV?$StrTraitMFC_DLL@_WV?$ChTraitsCRT@_W@ATL@@@@@ATL@@0@Z$0 1001ed60 f   file.obj
 0001:0001dd69       __unwindfunclet$?FindFileList@bapi@@YA?AV?$vector@V?$CStringT@_WV?$StrTraitMFC_DLL@_WV?$ChTraitsCRT@_W@ATL@@@@@ATL@@V?$allocator@V?$CStringT@_WV?$StrTraitMFC_DLL@_WV?$ChTraitsCRT@_W@ATL@@@@@ATL@@@std@@@std@@V?$CStringT@_WV?$StrTraitMFC_DLL@_WV?$ChTraitsCRT@_W@ATL@@@@@ATL@@0@Z$1 1001ed69 f   file.obj
 0001:0001dd72       __unwindfunclet$?FindFileList@bapi@@YA?AV?$vector@V?$CStringT@_WV?$StrTraitMFC_DLL@_WV?$ChTraitsCRT@_W@ATL@@@@@ATL@@V?$allocator@V?$CStringT@_WV?$StrTraitMFC_DLL@_WV?$ChTraitsCRT@_W@ATL@@@@@ATL@@@std@@@std@@V?$CStringT@_WV?$StrTraitMFC_DLL@_WV?$ChTraitsCRT@_W@ATL@@@@@ATL@@0@Z$3 1001ed72 f   file.obj
 0001:0001dd7a       __unwindfunclet$?FindFileList@bapi@@YA?AV?$vector@V?$CStringT@_WV?$StrTraitMFC_DLL@_WV?$ChTraitsCRT@_W@ATL@@@@@ATL@@V?$allocator@V?$CStringT@_WV?$StrTraitMFC_DLL@_WV?$ChTraitsCRT@_W@ATL@@@@@ATL@@@std@@@std@@V?$CStringT@_WV?$StrTraitMFC_DLL@_WV?$ChTraitsCRT@_W@ATL@@@@@ATL@@0@Z$5 1001ed7a f   file.obj
 0001:0001dd83       __unwindfunclet$?FindFileList@bapi@@YA?AV?$vector@V?$CStringT@_WV?$StrTraitMFC_DLL@_WV?$ChTraitsCRT@_W@ATL@@@@@ATL@@V?$allocator@V?$CStringT@_WV?$StrTraitMFC_DLL@_WV?$ChTraitsCRT@_W@ATL@@@@@ATL@@@std@@@std@@V?$CStringT@_WV?$StrTraitMFC_DLL@_WV?$ChTraitsCRT@_W@ATL@@@@@ATL@@0@Z$6 1001ed83 f   file.obj
 0001:0001dd8b       __unwindfunclet$?FindFileList@bapi@@YA?AV?$vector@V?$CStringT@_WV?$StrTraitMFC_DLL@_WV?$ChTraitsCRT@_W@ATL@@@@@ATL@@V?$allocator@V?$CStringT@_WV?$StrTraitMFC_DLL@_WV?$ChTraitsCRT@_W@ATL@@@@@ATL@@@std@@@std@@V?$CStringT@_WV?$StrTraitMFC_DLL@_WV?$ChTraitsCRT@_W@ATL@@@@@ATL@@0@Z$7 1001ed8b f   file.obj
 0001:0001dd90       __unwindfunclet$?FindFileList@bapi@@YA?AV?$vector@V?$CStringT@_WV?$StrTraitMFC_DLL@_WV?$ChTraitsCRT@_W@ATL@@@@@ATL@@V?$allocator@V?$CStringT@_WV?$StrTraitMFC_DLL@_WV?$ChTraitsCRT@_W@ATL@@@@@ATL@@@std@@@std@@V?$CStringT@_WV?$StrTraitMFC_DLL@_WV?$ChTraitsCRT@_W@ATL@@@@@ATL@@0@Z$8 1001ed90 f   file.obj
 0001:0001dd95       __ehhandler$?FindFileList@bapi@@YA?AV?$vector@V?$CStringT@_WV?$StrTraitMFC_DLL@_WV?$ChTraitsCRT@_W@ATL@@@@@ATL@@V?$allocator@V?$CStringT@_WV?$StrTraitMFC_DLL@_WV?$ChTraitsCRT@_W@ATL@@@@@ATL@@@std@@@std@@V?$CStringT@_WV?$StrTraitMFC_DLL@_WV?$ChTraitsCRT@_W@ATL@@@@@ATL@@0@Z 1001ed95 f   file.obj
 0001:0001ddc0       __unwindfunclet$?FindFileList@bapi@@YA?AV?$vector@V?$CStringT@_WV?$StrTraitMFC_DLL@_WV?$ChTraitsCRT@_W@ATL@@@@@ATL@@V?$allocator@V?$CStringT@_WV?$StrTraitMFC_DLL@_WV?$ChTraitsCRT@_W@ATL@@@@@ATL@@@std@@@std@@V?$CStringT@_WV?$StrTraitMFC_DLL@_WV?$ChTraitsCRT@_W@ATL@@@@@ATL@@V23@@Z$0 1001edc0 f   file.obj
 0001:0001ddc8       __unwindfunclet$?FindFileList@bapi@@YA?AV?$vector@V?$CStringT@_WV?$StrTraitMFC_DLL@_WV?$ChTraitsCRT@_W@ATL@@@@@ATL@@V?$allocator@V?$CStringT@_WV?$StrTraitMFC_DLL@_WV?$ChTraitsCRT@_W@ATL@@@@@ATL@@@std@@@std@@V?$CStringT@_WV?$StrTraitMFC_DLL@_WV?$ChTraitsCRT@_W@ATL@@@@@ATL@@V23@@Z$1 1001edc8 f   file.obj
 0001:0001ddd1       __unwindfunclet$?FindFileList@bapi@@YA?AV?$vector@V?$CStringT@_WV?$StrTraitMFC_DLL@_WV?$ChTraitsCRT@_W@ATL@@@@@ATL@@V?$allocator@V?$CStringT@_WV?$StrTraitMFC_DLL@_WV?$ChTraitsCRT@_W@ATL@@@@@ATL@@@std@@@std@@V?$CStringT@_WV?$StrTraitMFC_DLL@_WV?$ChTraitsCRT@_W@ATL@@@@@ATL@@V23@@Z$2 1001edd1 f   file.obj
 0001:0001ddd9       __unwindfunclet$?FindFileList@bapi@@YA?AV?$vector@V?$CStringT@_WV?$StrTraitMFC_DLL@_WV?$ChTraitsCRT@_W@ATL@@@@@ATL@@V?$allocator@V?$CStringT@_WV?$StrTraitMFC_DLL@_WV?$ChTraitsCRT@_W@ATL@@@@@ATL@@@std@@@std@@V?$CStringT@_WV?$StrTraitMFC_DLL@_WV?$ChTraitsCRT@_W@ATL@@@@@ATL@@V23@@Z$3 1001edd9 f   file.obj
 0001:0001dde2       __unwindfunclet$?FindFileList@bapi@@YA?AV?$vector@V?$CStringT@_WV?$StrTraitMFC_DLL@_WV?$ChTraitsCRT@_W@ATL@@@@@ATL@@V?$allocator@V?$CStringT@_WV?$StrTraitMFC_DLL@_WV?$ChTraitsCRT@_W@ATL@@@@@ATL@@@std@@@std@@V?$CStringT@_WV?$StrTraitMFC_DLL@_WV?$ChTraitsCRT@_W@ATL@@@@@ATL@@V23@@Z$9 1001ede2 f   file.obj
 0001:0001dde7       __unwindfunclet$?FindFileList@bapi@@YA?AV?$vector@V?$CStringT@_WV?$StrTraitMFC_DLL@_WV?$ChTraitsCRT@_W@ATL@@@@@ATL@@V?$allocator@V?$CStringT@_WV?$StrTraitMFC_DLL@_WV?$ChTraitsCRT@_W@ATL@@@@@ATL@@@std@@@std@@V?$CStringT@_WV?$StrTraitMFC_DLL@_WV?$ChTraitsCRT@_W@ATL@@@@@ATL@@V23@@Z$10 1001ede7 f   file.obj
 0001:0001ddec       __unwindfunclet$?FindFileList@bapi@@YA?AV?$vector@V?$CStringT@_WV?$StrTraitMFC_DLL@_WV?$ChTraitsCRT@_W@ATL@@@@@ATL@@V?$allocator@V?$CStringT@_WV?$StrTraitMFC_DLL@_WV?$ChTraitsCRT@_W@ATL@@@@@ATL@@@std@@@std@@V?$CStringT@_WV?$StrTraitMFC_DLL@_WV?$ChTraitsCRT@_W@ATL@@@@@ATL@@V23@@Z$4 1001edec f   file.obj
 0001:0001ddf4       __unwindfunclet$?FindFileList@bapi@@YA?AV?$vector@V?$CStringT@_WV?$StrTraitMFC_DLL@_WV?$ChTraitsCRT@_W@ATL@@@@@ATL@@V?$allocator@V?$CStringT@_WV?$StrTraitMFC_DLL@_WV?$ChTraitsCRT@_W@ATL@@@@@ATL@@@std@@@std@@V?$CStringT@_WV?$StrTraitMFC_DLL@_WV?$ChTraitsCRT@_W@ATL@@@@@ATL@@V23@@Z$7 1001edf4 f   file.obj
 0001:0001ddfc       __unwindfunclet$?FindFileList@bapi@@YA?AV?$vector@V?$CStringT@_WV?$StrTraitMFC_DLL@_WV?$ChTraitsCRT@_W@ATL@@@@@ATL@@V?$allocator@V?$CStringT@_WV?$StrTraitMFC_DLL@_WV?$ChTraitsCRT@_W@ATL@@@@@ATL@@@std@@@std@@V?$CStringT@_WV?$StrTraitMFC_DLL@_WV?$ChTraitsCRT@_W@ATL@@@@@ATL@@V23@@Z$8 1001edfc f   file.obj
 0001:0001de04       __unwindfunclet$?FindFileList@bapi@@YA?AV?$vector@V?$CStringT@_WV?$StrTraitMFC_DLL@_WV?$ChTraitsCRT@_W@ATL@@@@@ATL@@V?$allocator@V?$CStringT@_WV?$StrTraitMFC_DLL@_WV?$ChTraitsCRT@_W@ATL@@@@@ATL@@@std@@@std@@V?$CStringT@_WV?$StrTraitMFC_DLL@_WV?$ChTraitsCRT@_W@ATL@@@@@ATL@@V23@@Z$11 1001ee04 f   file.obj
 0001:0001de09       __unwindfunclet$?FindFileList@bapi@@YA?AV?$vector@V?$CStringT@_WV?$StrTraitMFC_DLL@_WV?$ChTraitsCRT@_W@ATL@@@@@ATL@@V?$allocator@V?$CStringT@_WV?$StrTraitMFC_DLL@_WV?$ChTraitsCRT@_W@ATL@@@@@ATL@@@std@@@std@@V?$CStringT@_WV?$StrTraitMFC_DLL@_WV?$ChTraitsCRT@_W@ATL@@@@@ATL@@V23@@Z$12 1001ee09 f   file.obj
 0001:0001de0e       __ehhandler$?FindFileList@bapi@@YA?AV?$vector@V?$CStringT@_WV?$StrTraitMFC_DLL@_WV?$ChTraitsCRT@_W@ATL@@@@@ATL@@V?$allocator@V?$CStringT@_WV?$StrTraitMFC_DLL@_WV?$ChTraitsCRT@_W@ATL@@@@@ATL@@@std@@@std@@V?$CStringT@_WV?$StrTraitMFC_DLL@_WV?$ChTraitsCRT@_W@ATL@@@@@ATL@@V23@@Z 1001ee0e f   file.obj
 0001:0001de40       __unwindfunclet$??HATL@@YA?AV?$CStringT@_WV?$StrTraitMFC_DLL@_WV?$ChTraitsCRT@_W@ATL@@@@@0@ABV10@0@Z$0 1001ee40 f   file.obj
 0001:0001de5a       __ehhandler$??HATL@@YA?AV?$CStringT@_WV?$StrTraitMFC_DLL@_WV?$ChTraitsCRT@_W@ATL@@@@@0@ABV10@0@Z 1001ee5a f   file.obj
 0001:0001de80       __unwindfunclet$?MakeString@bapi@@YA?AV?$CStringT@_WV?$StrTraitMFC_DLL@_WV?$ChTraitsCRT@_W@ATL@@@@@ATL@@PB_WZZ$0 1001ee80 f   string.obj
 0001:0001de80       __unwindfunclet$??HATL@@YA?AV?$CStringT@_WV?$StrTraitMFC_DLL@_WV?$ChTraitsCRT@_W@ATL@@@@@0@PB_WABV10@@Z$0 1001ee80 f   file.obj
 0001:0001de80       __unwindfunclet$??HATL@@YA?AV?$CStringT@_WV?$StrTraitMFC_DLL@_WV?$ChTraitsCRT@_W@ATL@@@@@0@ABV10@PB_W@Z$0 1001ee80 f   file.obj
 0001:0001de9a       __ehhandler$??HATL@@YA?AV?$CStringT@_WV?$StrTraitMFC_DLL@_WV?$ChTraitsCRT@_W@ATL@@@@@0@ABV10@PB_W@Z 1001ee9a f   file.obj
 0001:0001de9a       __ehhandler$?MakeString@bapi@@YA?AV?$CStringT@_WV?$StrTraitMFC_DLL@_WV?$ChTraitsCRT@_W@ATL@@@@@ATL@@PB_WZZ 1001ee9a f   string.obj
 0001:0001de9a       __ehhandler$??HATL@@YA?AV?$CStringT@_WV?$StrTraitMFC_DLL@_WV?$ChTraitsCRT@_W@ATL@@@@@0@PB_WABV10@@Z 1001ee9a f   file.obj
 0001:0001dec0       __unwindfunclet$??$_Uninit_move@PAV?$CStringT@_WV?$StrTraitMFC_DLL@_WV?$ChTraitsCRT@_W@ATL@@@@@ATL@@PAV12@V?$allocator@V?$CStringT@_WV?$StrTraitMFC_DLL@_WV?$ChTraitsCRT@_W@ATL@@@@@ATL@@@std@@V12@@std@@YAPAV?$CStringT@_WV?$StrTraitMFC_DLL@_WV?$ChTraitsCRT@_W@ATL@@@@@ATL@@PAV12@00AAU?$_Wrap_alloc@V?$allocator@V?$CStringT@_WV?$StrTraitMFC_DLL@_WV?$ChTraitsCRT@_W@ATL@@@@@ATL@@@std@@@0@0U_Nonscalar_ptr_iterator_tag@0@@Z$2 1001eec0 f   file.obj
 0001:0001dec0       __unwindfunclet$??$_Uninit_copy@PBV?$CStringT@_WV?$StrTraitMFC_DLL@_WV?$ChTraitsCRT@_W@ATL@@@@@ATL@@PAV12@V?$allocator@V?$CStringT@_WV?$StrTraitMFC_DLL@_WV?$ChTraitsCRT@_W@ATL@@@@@ATL@@@std@@@std@@YAPAV?$CStringT@_WV?$StrTraitMFC_DLL@_WV?$ChTraitsCRT@_W@ATL@@@@@ATL@@PBV12@0PAV12@AAU?$_Wrap_alloc@V?$allocator@V?$CStringT@_WV?$StrTraitMFC_DLL@_WV?$ChTraitsCRT@_W@ATL@@@@@ATL@@@std@@@0@U_Nonscalar_ptr_iterator_tag@0@@Z$2 1001eec0 f   Sqlite.obj
 0001:0001dec5       __ehhandler$??$_Uninit_copy@PBV?$CStringT@_WV?$StrTraitMFC_DLL@_WV?$ChTraitsCRT@_W@ATL@@@@@ATL@@PAV12@V?$allocator@V?$CStringT@_WV?$StrTraitMFC_DLL@_WV?$ChTraitsCRT@_W@ATL@@@@@ATL@@@std@@@std@@YAPAV?$CStringT@_WV?$StrTraitMFC_DLL@_WV?$ChTraitsCRT@_W@ATL@@@@@ATL@@PBV12@0PAV12@AAU?$_Wrap_alloc@V?$allocator@V?$CStringT@_WV?$StrTraitMFC_DLL@_WV?$ChTraitsCRT@_W@ATL@@@@@ATL@@@std@@@0@U_Nonscalar_ptr_iterator_tag@0@@Z 1001eec5 f   Sqlite.obj
 0001:0001dec5       __ehhandler$??$_Uninit_move@PAV?$CStringT@_WV?$StrTraitMFC_DLL@_WV?$ChTraitsCRT@_W@ATL@@@@@ATL@@PAV12@V?$allocator@V?$CStringT@_WV?$StrTraitMFC_DLL@_WV?$ChTraitsCRT@_W@ATL@@@@@ATL@@@std@@V12@@std@@YAPAV?$CStringT@_WV?$StrTraitMFC_DLL@_WV?$ChTraitsCRT@_W@ATL@@@@@ATL@@PAV12@00AAU?$_Wrap_alloc@V?$allocator@V?$CStringT@_WV?$StrTraitMFC_DLL@_WV?$ChTraitsCRT@_W@ATL@@@@@ATL@@@std@@@0@0U_Nonscalar_ptr_iterator_tag@0@@Z 1001eec5 f   file.obj
 0001:0001dee0       __ehhandler$?_Reallocate@?$vector@V?$CStringT@_WV?$StrTraitMFC_DLL@_WV?$ChTraitsCRT@_W@ATL@@@@@ATL@@V?$allocator@V?$CStringT@_WV?$StrTraitMFC_DLL@_WV?$ChTraitsCRT@_W@ATL@@@@@ATL@@@std@@@std@@IAEXI@Z 1001eee0 f   file.obj
 0001:0001df00       __unwindfunclet$?push_back@?$vector@V?$CStringT@_WV?$StrTraitMFC_DLL@_WV?$ChTraitsCRT@_W@ATL@@@@@ATL@@V?$allocator@V?$CStringT@_WV?$StrTraitMFC_DLL@_WV?$ChTraitsCRT@_W@ATL@@@@@ATL@@@std@@@std@@QAEXABV?$CStringT@_WV?$StrTraitMFC_DLL@_WV?$ChTraitsCRT@_W@ATL@@@@@ATL@@@Z$0 1001ef00 f   file.obj
 0001:0001df05       __unwindfunclet$?push_back@?$vector@V?$CStringT@_WV?$StrTraitMFC_DLL@_WV?$ChTraitsCRT@_W@ATL@@@@@ATL@@V?$allocator@V?$CStringT@_WV?$StrTraitMFC_DLL@_WV?$ChTraitsCRT@_W@ATL@@@@@ATL@@@std@@@std@@QAEXABV?$CStringT@_WV?$StrTraitMFC_DLL@_WV?$ChTraitsCRT@_W@ATL@@@@@ATL@@@Z$1 1001ef05 f   file.obj
 0001:0001df0a       __ehhandler$?push_back@?$vector@V?$CStringT@_WV?$StrTraitMFC_DLL@_WV?$ChTraitsCRT@_W@ATL@@@@@ATL@@V?$allocator@V?$CStringT@_WV?$StrTraitMFC_DLL@_WV?$ChTraitsCRT@_W@ATL@@@@@ATL@@@std@@@std@@QAEXABV?$CStringT@_WV?$StrTraitMFC_DLL@_WV?$ChTraitsCRT@_W@ATL@@@@@ATL@@@Z 1001ef0a f   file.obj
 0001:0001df30       __unwindfunclet$?GetFitStringAddDot@bapi@@YA?AV?$CStringT@_WV?$StrTraitMFC_DLL@_WV?$ChTraitsCRT@_W@ATL@@@@@ATL@@PAVCDC@@PB_WHPAVCSize@@@Z$1 1001ef30 f   gdi.obj
 0001:0001df39       __unwindfunclet$?GetFitStringAddDot@bapi@@YA?AV?$CStringT@_WV?$StrTraitMFC_DLL@_WV?$ChTraitsCRT@_W@ATL@@@@@ATL@@PAVCDC@@PB_WHPAVCSize@@@Z$2 1001ef39 f   gdi.obj
 0001:0001df42       __unwindfunclet$?GetFitStringAddDot@bapi@@YA?AV?$CStringT@_WV?$StrTraitMFC_DLL@_WV?$ChTraitsCRT@_W@ATL@@@@@ATL@@PAVCDC@@PB_WHPAVCSize@@@Z$3 1001ef42 f   gdi.obj
 0001:0001df4b       __unwindfunclet$?GetFitStringAddDot@bapi@@YA?AV?$CStringT@_WV?$StrTraitMFC_DLL@_WV?$ChTraitsCRT@_W@ATL@@@@@ATL@@PAVCDC@@PB_WHPAVCSize@@@Z$4 1001ef4b f   gdi.obj
 0001:0001df54       __ehhandler$?GetFitStringAddDot@bapi@@YA?AV?$CStringT@_WV?$StrTraitMFC_DLL@_WV?$ChTraitsCRT@_W@ATL@@@@@ATL@@PAVCDC@@PB_WHPAVCSize@@@Z 1001ef54 f   gdi.obj
 0001:0001df80       __unwindfunclet$?GetFitStringAddDotReverse@bapi@@YA?AV?$CStringT@_WV?$StrTraitMFC_DLL@_WV?$ChTraitsCRT@_W@ATL@@@@@ATL@@PAVCDC@@V23@HPAVCSize@@@Z$0 1001ef80 f   gdi.obj
 0001:0001df89       __unwindfunclet$?GetFitStringAddDotReverse@bapi@@YA?AV?$CStringT@_WV?$StrTraitMFC_DLL@_WV?$ChTraitsCRT@_W@ATL@@@@@ATL@@PAVCDC@@V23@HPAVCSize@@@Z$2 1001ef89 f   gdi.obj
 0001:0001df92       __ehhandler$?GetFitStringAddDotReverse@bapi@@YA?AV?$CStringT@_WV?$StrTraitMFC_DLL@_WV?$ChTraitsCRT@_W@ATL@@@@@ATL@@PAVCDC@@V23@HPAVCSize@@@Z 1001ef92 f   gdi.obj
 0001:0001dfb0       __unwindfunclet$?DrawFrameRect@bapi@@YAXPAVCDC@@HHHHKH@Z$0 1001efb0 f   gdi.obj
 0001:0001dfb8       __ehhandler$?DrawFrameRect@bapi@@YAXPAVCDC@@HHHHKH@Z 1001efb8 f   gdi.obj
 0001:0001dff0       __unwindfunclet$??$MakeRandom@H@bapi@@YAHHH@Z$0 1001eff0 f   gdi.obj
 0001:0001dffe       __unwindfunclet$??$MakeRandom@H@bapi@@YAHHH@Z$1 1001effe f   gdi.obj
 0001:0001e006       __unwindfunclet$??$MakeRandom@H@bapi@@YAHHH@Z$2 1001f006 f   gdi.obj
 0001:0001e014       __ehhandler$??$MakeRandom@H@bapi@@YAHHH@Z 1001f014 f   gdi.obj
 0001:0001e030       __ehhandler$?_Copy@?$basic_string@DU?$char_traits@D@std@@V?$allocator@D@2@@std@@QAEXII@Z 1001f030 f   gdi.obj
 0001:0001e050       __unwindfunclet$??1CGdiObject@@UAE@XZ$2 1001f050 f   gdi.obj
 0001:0001e05c       __ehhandler$??1CGdiObject@@UAE@XZ 1001f05c f   gdi.obj
 0001:0001e090       __unwindfunclet$?GetFileExtensionToIcon@Icon@bapi@@YA_NV?$CStringT@_WV?$StrTraitMFC_DLL@_WV?$ChTraitsCRT@_W@ATL@@@@@ATL@@AAPAUHICON__@@1AA_N@Z$0 1001f090 f   image.obj
 0001:0001e099       __unwindfunclet$?GetFileExtensionToIcon@Icon@bapi@@YA_NV?$CStringT@_WV?$StrTraitMFC_DLL@_WV?$ChTraitsCRT@_W@ATL@@@@@ATL@@AAPAUHICON__@@1AA_N@Z$2 1001f099 f   image.obj
 0001:0001e0a2       __unwindfunclet$?GetFileExtensionToIcon@Icon@bapi@@YA_NV?$CStringT@_WV?$StrTraitMFC_DLL@_WV?$ChTraitsCRT@_W@ATL@@@@@ATL@@AAPAUHICON__@@1AA_N@Z$4 1001f0a2 f   image.obj
 0001:0001e0ab       __unwindfunclet$?GetFileExtensionToIcon@Icon@bapi@@YA_NV?$CStringT@_WV?$StrTraitMFC_DLL@_WV?$ChTraitsCRT@_W@ATL@@@@@ATL@@AAPAUHICON__@@1AA_N@Z$6 1001f0ab f   image.obj
 0001:0001e0b4       __ehhandler$?GetFileExtensionToIcon@Icon@bapi@@YA_NV?$CStringT@_WV?$StrTraitMFC_DLL@_WV?$ChTraitsCRT@_W@ATL@@@@@ATL@@AAPAUHICON__@@1AA_N@Z 1001f0b4 f   image.obj
 0001:0001e0e0       __unwindfunclet$?GetFilePathToIcon@Icon@bapi@@YA_NV?$CStringT@_WV?$StrTraitMFC_DLL@_WV?$ChTraitsCRT@_W@ATL@@@@@ATL@@AAPAUHICON__@@1AA_N@Z$0 1001f0e0 f   image.obj
 0001:0001e0e9       __unwindfunclet$?GetFilePathToIcon@Icon@bapi@@YA_NV?$CStringT@_WV?$StrTraitMFC_DLL@_WV?$ChTraitsCRT@_W@ATL@@@@@ATL@@AAPAUHICON__@@1AA_N@Z$1 1001f0e9 f   image.obj
 0001:0001e0f5       __ehhandler$?GetFilePathToIcon@Icon@bapi@@YA_NV?$CStringT@_WV?$StrTraitMFC_DLL@_WV?$ChTraitsCRT@_W@ATL@@@@@ATL@@AAPAUHICON__@@1AA_N@Z 1001f0f5 f   image.obj
 0001:0001e120       __unwindfunclet$?SaveImageFile@Image@bapi@@YA?AW4Status@Gdiplus@@PAUHBITMAP__@@PB_W1@Z$1 1001f120 f   image.obj
 0001:0001e128       __ehhandler$?SaveImageFile@Image@bapi@@YA?AW4Status@Gdiplus@@PAUHBITMAP__@@PB_W1@Z 1001f128 f   image.obj
 0001:0001e150       __unwindfunclet$?CreateImageThumbnail@Image@bapi@@YA_NV?$CStringT@_WV?$StrTraitMFC_DLL@_WV?$ChTraitsCRT@_W@ATL@@@@@ATL@@0AAVCSize@@1@Z$0 1001f150 f   image.obj
 0001:0001e159       __unwindfunclet$?CreateImageThumbnail@Image@bapi@@YA_NV?$CStringT@_WV?$StrTraitMFC_DLL@_WV?$ChTraitsCRT@_W@ATL@@@@@ATL@@0AAVCSize@@1@Z$1 1001f159 f   image.obj
 0001:0001e162       __unwindfunclet$?CreateImageThumbnail@Image@bapi@@YA_NV?$CStringT@_WV?$StrTraitMFC_DLL@_WV?$ChTraitsCRT@_W@ATL@@@@@ATL@@0AAVCSize@@1@Z$2 1001f162 f   image.obj
 0001:0001e16b       __unwindfunclet$?CreateImageThumbnail@Image@bapi@@YA_NV?$CStringT@_WV?$StrTraitMFC_DLL@_WV?$ChTraitsCRT@_W@ATL@@@@@ATL@@0AAVCSize@@1@Z$3 1001f16b f   image.obj
 0001:0001e173       __ehhandler$?CreateImageThumbnail@Image@bapi@@YA_NV?$CStringT@_WV?$StrTraitMFC_DLL@_WV?$ChTraitsCRT@_W@ATL@@@@@ATL@@0AAVCSize@@1@Z 1001f173 f   image.obj
 0001:0001e1a0       __unwindfunclet$?RegistryHwnd@bapi@@YAPAUHWND__@@_NPB_W1PAU2@@Z$0 1001f1a0 f   registry.obj
 0001:0001e1a9       __ehhandler$?RegistryHwnd@bapi@@YAPAUHWND__@@_NPB_W1PAU2@@Z 1001f1a9 f   registry.obj
 0001:0001e1d0       __unwindfunclet$?RegistryString@bapi@@YA?AV?$CStringT@_WV?$StrTraitMFC_DLL@_WV?$ChTraitsCRT@_W@ATL@@@@@ATL@@_NPB_W11@Z$0 1001f1d0 f   registry.obj
 0001:0001e1ea       __unwindfunclet$?RegistryString@bapi@@YA?AV?$CStringT@_WV?$StrTraitMFC_DLL@_WV?$ChTraitsCRT@_W@ATL@@@@@ATL@@_NPB_W11@Z$1 1001f1ea f   registry.obj
 0001:0001e1f3       __ehhandler$?RegistryString@bapi@@YA?AV?$CStringT@_WV?$StrTraitMFC_DLL@_WV?$ChTraitsCRT@_W@ATL@@@@@ATL@@_NPB_W11@Z 1001f1f3 f   registry.obj
 0001:0001e220       __unwindfunclet$?ReadRegistryString@bapi@@YA?AV?$CStringT@_WV?$StrTraitMFC_DLL@_WV?$ChTraitsCRT@_W@ATL@@@@@ATL@@PAUHKEY__@@PB_W1V23@@Z$0 1001f220 f   registry.obj
 0001:0001e229       __unwindfunclet$?ReadRegistryString@bapi@@YA?AV?$CStringT@_WV?$StrTraitMFC_DLL@_WV?$ChTraitsCRT@_W@ATL@@@@@ATL@@PAUHKEY__@@PB_W1V23@@Z$2 1001f229 f   registry.obj
 0001:0001e232       __ehhandler$?ReadRegistryString@bapi@@YA?AV?$CStringT@_WV?$StrTraitMFC_DLL@_WV?$ChTraitsCRT@_W@ATL@@@@@ATL@@PAUHKEY__@@PB_W1V23@@Z 1001f232 f   registry.obj
 0001:0001e260       __unwindfunclet$?ReadUserRegistryString@bapi@@YA?AV?$CStringT@_WV?$StrTraitMFC_DLL@_WV?$ChTraitsCRT@_W@ATL@@@@@ATL@@PB_W0V23@@Z$0 1001f260 f   registry.obj
 0001:0001e260       __unwindfunclet$?ReadLocalRegistryString@bapi@@YA?AV?$CStringT@_WV?$StrTraitMFC_DLL@_WV?$ChTraitsCRT@_W@ATL@@@@@ATL@@PB_W0V23@@Z$0 1001f260 f   registry.obj
 0001:0001e269       __ehhandler$?ReadLocalRegistryString@bapi@@YA?AV?$CStringT@_WV?$StrTraitMFC_DLL@_WV?$ChTraitsCRT@_W@ATL@@@@@ATL@@PB_W0V23@@Z 1001f269 f   registry.obj
 0001:0001e269       __ehhandler$?ReadUserRegistryString@bapi@@YA?AV?$CStringT@_WV?$StrTraitMFC_DLL@_WV?$ChTraitsCRT@_W@ATL@@@@@ATL@@PB_W0V23@@Z 1001f269 f   registry.obj
 0001:0001e290       __unwindfunclet$?FileSizeToString@bapi@@YA?AV?$CStringT@_WV?$StrTraitMFC_DLL@_WV?$ChTraitsCRT@_W@ATL@@@@@ATL@@N_N@Z$1 1001f290 f   string.obj
 0001:0001e299       __ehhandler$?FileSizeToString@bapi@@YA?AV?$CStringT@_WV?$StrTraitMFC_DLL@_WV?$ChTraitsCRT@_W@ATL@@@@@ATL@@N_N@Z 1001f299 f   string.obj
 0001:0001e2d0       __unwindfunclet$?SystemTimeToString@bapi@@YA?AV?$CStringT@_WV?$StrTraitMFC_DLL@_WV?$ChTraitsCRT@_W@ATL@@@@@ATL@@ABU_SYSTEMTIME@@@Z$0 1001f2d0 f   string.obj
 0001:0001e2d9       __unwindfunclet$?SystemTimeToString@bapi@@YA?AV?$CStringT@_WV?$StrTraitMFC_DLL@_WV?$ChTraitsCRT@_W@ATL@@@@@ATL@@ABU_SYSTEMTIME@@@Z$1 1001f2d9 f   string.obj
 0001:0001e2e2       __ehhandler$?SystemTimeToString@bapi@@YA?AV?$CStringT@_WV?$StrTraitMFC_DLL@_WV?$ChTraitsCRT@_W@ATL@@@@@ATL@@ABU_SYSTEMTIME@@@Z 1001f2e2 f   string.obj
 0001:0001e310       __unwindfunclet$?SystemTimeToString2@bapi@@YA?AV?$CStringT@_WV?$StrTraitMFC_DLL@_WV?$ChTraitsCRT@_W@ATL@@@@@ATL@@ABU_SYSTEMTIME@@@Z$0 1001f310 f   string.obj
 0001:0001e32a       __ehhandler$?SystemTimeToString2@bapi@@YA?AV?$CStringT@_WV?$StrTraitMFC_DLL@_WV?$ChTraitsCRT@_W@ATL@@@@@ATL@@ABU_SYSTEMTIME@@@Z 1001f32a f   string.obj
 0001:0001e350       __unwindfunclet$?SystemTimeToStringEx@bapi@@YA?AV?$CStringT@_WV?$StrTraitMFC_DLL@_WV?$ChTraitsCRT@_W@ATL@@@@@ATL@@ABU_SYSTEMTIME@@_N@Z$0 1001f350 f   string.obj
 0001:0001e359       __unwindfunclet$?SystemTimeToStringEx@bapi@@YA?AV?$CStringT@_WV?$StrTraitMFC_DLL@_WV?$ChTraitsCRT@_W@ATL@@@@@ATL@@ABU_SYSTEMTIME@@_N@Z$2 1001f359 f   string.obj
 0001:0001e362       __unwindfunclet$?SystemTimeToStringEx@bapi@@YA?AV?$CStringT@_WV?$StrTraitMFC_DLL@_WV?$ChTraitsCRT@_W@ATL@@@@@ATL@@ABU_SYSTEMTIME@@_N@Z$3 1001f362 f   string.obj
 0001:0001e36b       __ehhandler$?SystemTimeToStringEx@bapi@@YA?AV?$CStringT@_WV?$StrTraitMFC_DLL@_WV?$ChTraitsCRT@_W@ATL@@@@@ATL@@ABU_SYSTEMTIME@@_N@Z 1001f36b f   string.obj
 0001:0001e3a0       __unwindfunclet$?SystemTimeToJustHourString@bapi@@YA?AV?$CStringT@_WV?$StrTraitMFC_DLL@_WV?$ChTraitsCRT@_W@ATL@@@@@ATL@@ABU_SYSTEMTIME@@@Z$1 1001f3a0 f   string.obj
 0001:0001e3a9       __unwindfunclet$?SystemTimeToJustHourString@bapi@@YA?AV?$CStringT@_WV?$StrTraitMFC_DLL@_WV?$ChTraitsCRT@_W@ATL@@@@@ATL@@ABU_SYSTEMTIME@@@Z$2 1001f3a9 f   string.obj
 0001:0001e3b2       __ehhandler$?SystemTimeToJustHourString@bapi@@YA?AV?$CStringT@_WV?$StrTraitMFC_DLL@_WV?$ChTraitsCRT@_W@ATL@@@@@ATL@@ABU_SYSTEMTIME@@@Z 1001f3b2 f   string.obj
 0001:0001e3e0       __unwindfunclet$?FindCharCutReverse@bapi@@YA_NABV?$CStringT@_WV?$StrTraitMFC_DLL@_WV?$ChTraitsCRT@_W@ATL@@@@@ATL@@_WAAV23@2@Z$0 1001f3e0 f   string.obj
 0001:0001e3e0       __unwindfunclet$?FindCharCut@bapi@@YA_NABV?$CStringT@_WV?$StrTraitMFC_DLL@_WV?$ChTraitsCRT@_W@ATL@@@@@ATL@@_WAAV23@2@Z$0 1001f3e0 f   string.obj
 0001:0001e3e9       __unwindfunclet$?FindCharCutReverse@bapi@@YA_NABV?$CStringT@_WV?$StrTraitMFC_DLL@_WV?$ChTraitsCRT@_W@ATL@@@@@ATL@@_WAAV23@2@Z$1 1001f3e9 f   string.obj
 0001:0001e3e9       __unwindfunclet$?FindCharCut@bapi@@YA_NABV?$CStringT@_WV?$StrTraitMFC_DLL@_WV?$ChTraitsCRT@_W@ATL@@@@@ATL@@_WAAV23@2@Z$1 1001f3e9 f   string.obj
 0001:0001e3f2       __ehhandler$?FindCharCut@bapi@@YA_NABV?$CStringT@_WV?$StrTraitMFC_DLL@_WV?$ChTraitsCRT@_W@ATL@@@@@ATL@@_WAAV23@2@Z 1001f3f2 f   string.obj
 0001:0001e3f2       __ehhandler$?FindCharCutReverse@bapi@@YA_NABV?$CStringT@_WV?$StrTraitMFC_DLL@_WV?$ChTraitsCRT@_W@ATL@@@@@ATL@@_WAAV23@2@Z 1001f3f2 f   string.obj
 0001:0001e410       __unwindfunclet$?FindCharCut@bapi@@YA_NABV?$CStringT@_WV?$StrTraitMFC_DLL@_WV?$ChTraitsCRT@_W@ATL@@@@@ATL@@V23@AAV23@2@Z$0 1001f410 f   string.obj
 0001:0001e419       __unwindfunclet$?FindCharCut@bapi@@YA_NABV?$CStringT@_WV?$StrTraitMFC_DLL@_WV?$ChTraitsCRT@_W@ATL@@@@@ATL@@V23@AAV23@2@Z$1 1001f419 f   string.obj
 0001:0001e422       __unwindfunclet$?FindCharCut@bapi@@YA_NABV?$CStringT@_WV?$StrTraitMFC_DLL@_WV?$ChTraitsCRT@_W@ATL@@@@@ATL@@V23@AAV23@2@Z$2 1001f422 f   string.obj
 0001:0001e42b       __ehhandler$?FindCharCut@bapi@@YA_NABV?$CStringT@_WV?$StrTraitMFC_DLL@_WV?$ChTraitsCRT@_W@ATL@@@@@ATL@@V23@AAV23@2@Z 1001f42b f   string.obj
 0001:0001e450       __unwindfunclet$?ConvertA2W@bapi@@YAPB_WPBDIAAV?$CAutoPtrArray@_W@ATL@@@Z$2 1001f450 f   string.obj
 0001:0001e458       __ehhandler$?ConvertA2W@bapi@@YAPB_WPBDIAAV?$CAutoPtrArray@_W@ATL@@@Z 1001f458 f   string.obj
 0001:0001e480       __unwindfunclet$?ConvertW2A@bapi@@YAPBDPB_WIAAV?$CAutoPtrArray@D@ATL@@@Z$2 1001f480 f   string.obj
 0001:0001e488       __ehhandler$?ConvertW2A@bapi@@YAPBDPB_WIAAV?$CAutoPtrArray@D@ATL@@@Z 1001f488 f   string.obj
 0001:0001e4b0       __unwindfunclet$?GetConvertStringA@bapi@@YA?AV?$CStringT@DV?$StrTraitMFC_DLL@DV?$ChTraitsCRT@D@ATL@@@@@ATL@@V?$CStringT@_WV?$StrTraitMFC_DLL@_WV?$ChTraitsCRT@_W@ATL@@@@@3@@Z$0 1001f4b0 f   string.obj
 0001:0001e4b9       __unwindfunclet$?GetConvertStringA@bapi@@YA?AV?$CStringT@DV?$StrTraitMFC_DLL@DV?$ChTraitsCRT@D@ATL@@@@@ATL@@V?$CStringT@_WV?$StrTraitMFC_DLL@_WV?$ChTraitsCRT@_W@ATL@@@@@3@@Z$1 1001f4b9 f   string.obj
 0001:0001e4d3       __unwindfunclet$?GetConvertStringA@bapi@@YA?AV?$CStringT@DV?$StrTraitMFC_DLL@DV?$ChTraitsCRT@D@ATL@@@@@ATL@@V?$CStringT@_WV?$StrTraitMFC_DLL@_WV?$ChTraitsCRT@_W@ATL@@@@@3@@Z$2 1001f4d3 f   string.obj
 0001:0001e4db       __unwindfunclet$?GetConvertStringA@bapi@@YA?AV?$CStringT@DV?$StrTraitMFC_DLL@DV?$ChTraitsCRT@D@ATL@@@@@ATL@@V?$CStringT@_WV?$StrTraitMFC_DLL@_WV?$ChTraitsCRT@_W@ATL@@@@@3@@Z$3 1001f4db f   string.obj
 0001:0001e4e3       __ehhandler$?GetConvertStringA@bapi@@YA?AV?$CStringT@DV?$StrTraitMFC_DLL@DV?$ChTraitsCRT@D@ATL@@@@@ATL@@V?$CStringT@_WV?$StrTraitMFC_DLL@_WV?$ChTraitsCRT@_W@ATL@@@@@3@@Z 1001f4e3 f   string.obj
 0001:0001e510       __unwindfunclet$?GetConvertStringW@bapi@@YA?AV?$CStringT@_WV?$StrTraitMFC_DLL@_WV?$ChTraitsCRT@_W@ATL@@@@@ATL@@V?$CStringT@DV?$StrTraitMFC_DLL@DV?$ChTraitsCRT@D@ATL@@@@@3@@Z$0 1001f510 f   string.obj
 0001:0001e519       __unwindfunclet$?GetConvertStringW@bapi@@YA?AV?$CStringT@_WV?$StrTraitMFC_DLL@_WV?$ChTraitsCRT@_W@ATL@@@@@ATL@@V?$CStringT@DV?$StrTraitMFC_DLL@DV?$ChTraitsCRT@D@ATL@@@@@3@@Z$1 1001f519 f   string.obj
 0001:0001e533       __unwindfunclet$?GetConvertStringW@bapi@@YA?AV?$CStringT@_WV?$StrTraitMFC_DLL@_WV?$ChTraitsCRT@_W@ATL@@@@@ATL@@V?$CStringT@DV?$StrTraitMFC_DLL@DV?$ChTraitsCRT@D@ATL@@@@@3@@Z$2 1001f533 f   string.obj
 0001:0001e53b       __unwindfunclet$?GetConvertStringW@bapi@@YA?AV?$CStringT@_WV?$StrTraitMFC_DLL@_WV?$ChTraitsCRT@_W@ATL@@@@@ATL@@V?$CStringT@DV?$StrTraitMFC_DLL@DV?$ChTraitsCRT@D@ATL@@@@@3@@Z$3 1001f53b f   string.obj
 0001:0001e543       __ehhandler$?GetConvertStringW@bapi@@YA?AV?$CStringT@_WV?$StrTraitMFC_DLL@_WV?$ChTraitsCRT@_W@ATL@@@@@ATL@@V?$CStringT@DV?$StrTraitMFC_DLL@DV?$ChTraitsCRT@D@ATL@@@@@3@@Z 1001f543 f   string.obj
 0001:0001e570       __unwindfunclet$??$MakeNumberString@H@bapi@@YA?AV?$CStringT@_WV?$StrTraitMFC_DLL@_WV?$ChTraitsCRT@_W@ATL@@@@@ATL@@H@Z$0 1001f570 f   string.obj
 0001:0001e579       __unwindfunclet$??$MakeNumberString@H@bapi@@YA?AV?$CStringT@_WV?$StrTraitMFC_DLL@_WV?$ChTraitsCRT@_W@ATL@@@@@ATL@@H@Z$1 1001f579 f   string.obj
 0001:0001e582       __unwindfunclet$??$MakeNumberString@H@bapi@@YA?AV?$CStringT@_WV?$StrTraitMFC_DLL@_WV?$ChTraitsCRT@_W@ATL@@@@@ATL@@H@Z$2 1001f582 f   string.obj
 0001:0001e58b       __unwindfunclet$??$MakeNumberString@H@bapi@@YA?AV?$CStringT@_WV?$StrTraitMFC_DLL@_WV?$ChTraitsCRT@_W@ATL@@@@@ATL@@H@Z$3 1001f58b f   string.obj
 0001:0001e594       __unwindfunclet$??$MakeNumberString@H@bapi@@YA?AV?$CStringT@_WV?$StrTraitMFC_DLL@_WV?$ChTraitsCRT@_W@ATL@@@@@ATL@@H@Z$4 1001f594 f   string.obj
 0001:0001e5ae       __unwindfunclet$??$MakeNumberString@H@bapi@@YA?AV?$CStringT@_WV?$StrTraitMFC_DLL@_WV?$ChTraitsCRT@_W@ATL@@@@@ATL@@H@Z$5 1001f5ae f   string.obj
 0001:0001e5c8       __ehhandler$??$MakeNumberString@H@bapi@@YA?AV?$CStringT@_WV?$StrTraitMFC_DLL@_WV?$ChTraitsCRT@_W@ATL@@@@@ATL@@H@Z 1001f5c8 f   string.obj
 0001:0001e5f0       __unwindfunclet$??$MakeNumberString@_J@bapi@@YA?AV?$CStringT@_WV?$StrTraitMFC_DLL@_WV?$ChTraitsCRT@_W@ATL@@@@@ATL@@_J@Z$0 1001f5f0 f   string.obj
 0001:0001e5f9       __unwindfunclet$??$MakeNumberString@_J@bapi@@YA?AV?$CStringT@_WV?$StrTraitMFC_DLL@_WV?$ChTraitsCRT@_W@ATL@@@@@ATL@@_J@Z$1 1001f5f9 f   string.obj
 0001:0001e602       __unwindfunclet$??$MakeNumberString@_J@bapi@@YA?AV?$CStringT@_WV?$StrTraitMFC_DLL@_WV?$ChTraitsCRT@_W@ATL@@@@@ATL@@_J@Z$2 1001f602 f   string.obj
 0001:0001e60b       __unwindfunclet$??$MakeNumberString@_J@bapi@@YA?AV?$CStringT@_WV?$StrTraitMFC_DLL@_WV?$ChTraitsCRT@_W@ATL@@@@@ATL@@_J@Z$3 1001f60b f   string.obj
 0001:0001e614       __unwindfunclet$??$MakeNumberString@_J@bapi@@YA?AV?$CStringT@_WV?$StrTraitMFC_DLL@_WV?$ChTraitsCRT@_W@ATL@@@@@ATL@@_J@Z$4 1001f614 f   string.obj
 0001:0001e62e       __unwindfunclet$??$MakeNumberString@_J@bapi@@YA?AV?$CStringT@_WV?$StrTraitMFC_DLL@_WV?$ChTraitsCRT@_W@ATL@@@@@ATL@@_J@Z$5 1001f62e f   string.obj
 0001:0001e648       __ehhandler$??$MakeNumberString@_J@bapi@@YA?AV?$CStringT@_WV?$StrTraitMFC_DLL@_WV?$ChTraitsCRT@_W@ATL@@@@@ATL@@_J@Z 1001f648 f   string.obj
 0001:0001e670       __unwindfunclet$?GetUserNameW@bapi@@YA?AV?$CStringT@_WV?$StrTraitMFC_DLL@_WV?$ChTraitsCRT@_W@ATL@@@@@ATL@@_N@Z$1 1001f670 f   system.obj
 0001:0001e67c       __ehhandler$?GetUserNameW@bapi@@YA?AV?$CStringT@_WV?$StrTraitMFC_DLL@_WV?$ChTraitsCRT@_W@ATL@@@@@ATL@@_N@Z 1001f67c f   system.obj
 0001:0001e6b0       __unwindfunclet$?GetLanAdapterList@bapi@@YA_NAAV?$vector@V?$CStringT@_WV?$StrTraitMFC_DLL@_WV?$ChTraitsCRT@_W@ATL@@@@@ATL@@V?$allocator@V?$CStringT@_WV?$StrTraitMFC_DLL@_WV?$ChTraitsCRT@_W@ATL@@@@@ATL@@@std@@@std@@00@Z$0 1001f6b0 f   system.obj
 0001:0001e6bc       __unwindfunclet$?GetLanAdapterList@bapi@@YA_NAAV?$vector@V?$CStringT@_WV?$StrTraitMFC_DLL@_WV?$ChTraitsCRT@_W@ATL@@@@@ATL@@V?$allocator@V?$CStringT@_WV?$StrTraitMFC_DLL@_WV?$ChTraitsCRT@_W@ATL@@@@@ATL@@@std@@@std@@00@Z$1 1001f6bc f   system.obj
 0001:0001e6c8       __unwindfunclet$?GetLanAdapterList@bapi@@YA_NAAV?$vector@V?$CStringT@_WV?$StrTraitMFC_DLL@_WV?$ChTraitsCRT@_W@ATL@@@@@ATL@@V?$allocator@V?$CStringT@_WV?$StrTraitMFC_DLL@_WV?$ChTraitsCRT@_W@ATL@@@@@ATL@@@std@@@std@@00@Z$2 1001f6c8 f   system.obj
 0001:0001e6d4       __unwindfunclet$?GetLanAdapterList@bapi@@YA_NAAV?$vector@V?$CStringT@_WV?$StrTraitMFC_DLL@_WV?$ChTraitsCRT@_W@ATL@@@@@ATL@@V?$allocator@V?$CStringT@_WV?$StrTraitMFC_DLL@_WV?$ChTraitsCRT@_W@ATL@@@@@ATL@@@std@@@std@@00@Z$3 1001f6d4 f   system.obj
 0001:0001e6d9       __unwindfunclet$?GetLanAdapterList@bapi@@YA_NAAV?$vector@V?$CStringT@_WV?$StrTraitMFC_DLL@_WV?$ChTraitsCRT@_W@ATL@@@@@ATL@@V?$allocator@V?$CStringT@_WV?$StrTraitMFC_DLL@_WV?$ChTraitsCRT@_W@ATL@@@@@ATL@@@std@@@std@@00@Z$4 1001f6d9 f   system.obj
 0001:0001e6de       __unwindfunclet$?GetLanAdapterList@bapi@@YA_NAAV?$vector@V?$CStringT@_WV?$StrTraitMFC_DLL@_WV?$ChTraitsCRT@_W@ATL@@@@@ATL@@V?$allocator@V?$CStringT@_WV?$StrTraitMFC_DLL@_WV?$ChTraitsCRT@_W@ATL@@@@@ATL@@@std@@@std@@00@Z$5 1001f6de f   system.obj
 0001:0001e6e3       __unwindfunclet$?GetLanAdapterList@bapi@@YA_NAAV?$vector@V?$CStringT@_WV?$StrTraitMFC_DLL@_WV?$ChTraitsCRT@_W@ATL@@@@@ATL@@V?$allocator@V?$CStringT@_WV?$StrTraitMFC_DLL@_WV?$ChTraitsCRT@_W@ATL@@@@@ATL@@@std@@@std@@00@Z$6 1001f6e3 f   system.obj
 0001:0001e6e8       __unwindfunclet$?GetLanAdapterList@bapi@@YA_NAAV?$vector@V?$CStringT@_WV?$StrTraitMFC_DLL@_WV?$ChTraitsCRT@_W@ATL@@@@@ATL@@V?$allocator@V?$CStringT@_WV?$StrTraitMFC_DLL@_WV?$ChTraitsCRT@_W@ATL@@@@@ATL@@@std@@@std@@00@Z$7 1001f6e8 f   system.obj
 0001:0001e6ed       __unwindfunclet$?GetLanAdapterList@bapi@@YA_NAAV?$vector@V?$CStringT@_WV?$StrTraitMFC_DLL@_WV?$ChTraitsCRT@_W@ATL@@@@@ATL@@V?$allocator@V?$CStringT@_WV?$StrTraitMFC_DLL@_WV?$ChTraitsCRT@_W@ATL@@@@@ATL@@@std@@@std@@00@Z$8 1001f6ed f   system.obj
 0001:0001e6f2       __ehhandler$?GetLanAdapterList@bapi@@YA_NAAV?$vector@V?$CStringT@_WV?$StrTraitMFC_DLL@_WV?$ChTraitsCRT@_W@ATL@@@@@ATL@@V?$allocator@V?$CStringT@_WV?$StrTraitMFC_DLL@_WV?$ChTraitsCRT@_W@ATL@@@@@ATL@@@std@@@std@@00@Z 1001f6f2 f   system.obj
 0001:0001e720       __unwindfunclet$?IsSupportAutoMouseTracking@bapi@@YA_NXZ$0 1001f720 f   system.obj
 0001:0001e72e       __ehhandler$?IsSupportAutoMouseTracking@bapi@@YA_NXZ 1001f72e f   system.obj
 0001:0001e750       __unwindfunclet$?GetInstance@?$TSingleton@$$CBVSystemInfo@baro@@@baro@@SAABVSystemInfo@2@XZ$0 1001f750 f   system.obj
 0001:0001e75e       __ehhandler$?GetInstance@?$TSingleton@$$CBVSystemInfo@baro@@@baro@@SAABVSystemInfo@2@XZ 1001f75e f   system.obj
 0001:0001e780       __unwindfunclet$??0A256B64@baro@@QAE@V?$CStringT@DV?$StrTraitMFC_DLL@DV?$ChTraitsCRT@D@ATL@@@@@ATL@@KK@Z$0 1001f780 f   A256B64.obj
 0001:0001e789       __ehhandler$??0A256B64@baro@@QAE@V?$CStringT@DV?$StrTraitMFC_DLL@DV?$ChTraitsCRT@D@ATL@@@@@ATL@@KK@Z 1001f789 f   A256B64.obj
 0001:0001e7b0       __unwindfunclet$?Initialize@A256B64@baro@@QAE_NV?$CStringT@DV?$StrTraitMFC_DLL@DV?$ChTraitsCRT@D@ATL@@@@@ATL@@KK@Z$0 1001f7b0 f   A256B64.obj
 0001:0001e7b9       __unwindfunclet$?Initialize@A256B64@baro@@QAE_NV?$CStringT@DV?$StrTraitMFC_DLL@DV?$ChTraitsCRT@D@ATL@@@@@ATL@@KK@Z$1 1001f7b9 f   A256B64.obj
 0001:0001e7c1       __ehhandler$?Initialize@A256B64@baro@@QAE_NV?$CStringT@DV?$StrTraitMFC_DLL@DV?$ChTraitsCRT@D@ATL@@@@@ATL@@KK@Z 1001f7c1 f   A256B64.obj
 0001:0001e7e0       __unwindfunclet$?EncryptA@A256B64@baro@@QBEIPBDAAV?$CStringT@DV?$StrTraitMFC_DLL@DV?$ChTraitsCRT@D@ATL@@@@@ATL@@@Z$0 1001f7e0 f   A256B64.obj
 0001:0001e7e0       __unwindfunclet$?EncryptWidhBase64A@CryptFactory@baro@@YAIPBVCryptHandle@2@PBDAAV?$CStringT@DV?$StrTraitMFC_DLL@DV?$ChTraitsCRT@D@ATL@@@@@ATL@@@Z$0 1001f7e0 f   CryptFactory.obj
 0001:0001e7e0       __unwindfunclet$?DecryptA@A256B64@baro@@QBEIPBDAAV?$CStringT@DV?$StrTraitMFC_DLL@DV?$ChTraitsCRT@D@ATL@@@@@ATL@@@Z$0 1001f7e0 f   A256B64.obj
 0001:0001e7e0       __unwindfunclet$?DecryptWithBase64A@CryptFactory@baro@@YAIPBVCryptHandle@2@PBDAAV?$CStringT@DV?$StrTraitMFC_DLL@DV?$ChTraitsCRT@D@ATL@@@@@ATL@@@Z$0 1001f7e0 f   CryptFactory.obj
 0001:0001e7e8       __ehhandler$?DecryptWithBase64A@CryptFactory@baro@@YAIPBVCryptHandle@2@PBDAAV?$CStringT@DV?$StrTraitMFC_DLL@DV?$ChTraitsCRT@D@ATL@@@@@ATL@@@Z 1001f7e8 f   CryptFactory.obj
 0001:0001e7e8       __ehhandler$?EncryptA@A256B64@baro@@QBEIPBDAAV?$CStringT@DV?$StrTraitMFC_DLL@DV?$ChTraitsCRT@D@ATL@@@@@ATL@@@Z 1001f7e8 f   A256B64.obj
 0001:0001e7e8       __ehhandler$?EncryptWidhBase64A@CryptFactory@baro@@YAIPBVCryptHandle@2@PBDAAV?$CStringT@DV?$StrTraitMFC_DLL@DV?$ChTraitsCRT@D@ATL@@@@@ATL@@@Z 1001f7e8 f   CryptFactory.obj
 0001:0001e7e8       __ehhandler$?DecryptA@A256B64@baro@@QBEIPBDAAV?$CStringT@DV?$StrTraitMFC_DLL@DV?$ChTraitsCRT@D@ATL@@@@@ATL@@@Z 1001f7e8 f   A256B64.obj
 0001:0001e810       __unwindfunclet$??0GradientRect@baro@@QAE@ABV01@@Z$0 1001f810 f   stdafx.obj
 0001:0001e810       __unwindfunclet$??0CryptBuffer@baro@@QAE@PB_W@Z$0 1001f810 f   CryptBuffer.obj
 0001:0001e810       __unwindfunclet$??0GradientRect@baro@@QAE@XZ$0 1001f810 f   GradientRect.obj
 0001:0001e810       __unwindfunclet$??0CryptBuffer@baro@@QAE@I@Z$0 1001f810 f   CryptBuffer.obj
 0001:0001e818       __ehhandler$??0GradientRect@baro@@QAE@XZ 1001f818 f   GradientRect.obj
 0001:0001e818       __ehhandler$??0GradientRect@baro@@QAE@ABV01@@Z 1001f818 f   stdafx.obj
 0001:0001e818       __ehhandler$??0CryptBuffer@baro@@QAE@PB_W@Z 1001f818 f   CryptBuffer.obj
 0001:0001e818       __ehhandler$??0CryptBuffer@baro@@QAE@I@Z 1001f818 f   CryptBuffer.obj
 0001:0001e840       __unwindfunclet$??0CryptBuffer@baro@@QAE@PBD@Z$0 1001f840 f   CryptBuffer.obj
 0001:0001e840       __unwindfunclet$??0CryptBuffer@baro@@QAE@AAV01@@Z$0 1001f840 f   CryptBuffer.obj
 0001:0001e848       __ehhandler$??0CryptBuffer@baro@@QAE@AAV01@@Z 1001f848 f   CryptBuffer.obj
 0001:0001e848       __ehhandler$??0CryptBuffer@baro@@QAE@PBD@Z 1001f848 f   CryptBuffer.obj
 0001:0001e870       __unwindfunclet$??0GradientRect@baro@@QAE@VRect@Gdiplus@@VColor@3@@Z$0 1001f870 f   GradientRect.obj
 0001:0001e870       __unwindfunclet$??0CryptBuffer@baro@@QAE@PBXI@Z$0 1001f870 f   CryptBuffer.obj
 0001:0001e878       __ehhandler$??0GradientRect@baro@@QAE@VRect@Gdiplus@@VColor@3@@Z 1001f878 f   GradientRect.obj
 0001:0001e878       __ehhandler$??0CryptBuffer@baro@@QAE@PBXI@Z 1001f878 f   CryptBuffer.obj
 0001:0001e8a0       __unwindfunclet$?UpdateW@CryptBuffer@baro@@QAE_NIPB_W@Z$0 1001f8a0 f   CryptBuffer.obj
 0001:0001e8a9       __ehhandler$?UpdateW@CryptBuffer@baro@@QAE_NIPB_W@Z 1001f8a9 f   CryptBuffer.obj
 0001:0001e8d0       __unwindfunclet$?ANSItoUTF8@CryptBuffer@baro@@QAE_NXZ$1 1001f8d0 f   CryptBuffer.obj
 0001:0001e8d0       __unwindfunclet$?UTF8toANSI@CryptBuffer@baro@@QAE_NXZ$1 1001f8d0 f   CryptBuffer.obj
 0001:0001e8d8       __unwindfunclet$?ANSItoUTF8@CryptBuffer@baro@@QAE_NXZ$0 1001f8d8 f   CryptBuffer.obj
 0001:0001e8d8       __unwindfunclet$?UTF8toANSI@CryptBuffer@baro@@QAE_NXZ$0 1001f8d8 f   CryptBuffer.obj
 0001:0001e8e0       __ehhandler$?ANSItoUTF8@CryptBuffer@baro@@QAE_NXZ 1001f8e0 f   CryptBuffer.obj
 0001:0001e8e0       __ehhandler$?UTF8toANSI@CryptBuffer@baro@@QAE_NXZ 1001f8e0 f   CryptBuffer.obj
 0001:0001e910       __unwindfunclet$?EncryptBase64A@CryptBuffer@baro@@QAE_NXZ$1 1001f910 f   CryptBuffer.obj
 0001:0001e910       __unwindfunclet$?DecryptBase64A@CryptBuffer@baro@@QAE_NXZ$1 1001f910 f   CryptBuffer.obj
 0001:0001e918       __unwindfunclet$?EncryptBase64A@CryptBuffer@baro@@QAE_NXZ$0 1001f918 f   CryptBuffer.obj
 0001:0001e918       __unwindfunclet$?DecryptBase64A@CryptBuffer@baro@@QAE_NXZ$0 1001f918 f   CryptBuffer.obj
 0001:0001e920       __ehhandler$?EncryptBase64A@CryptBuffer@baro@@QAE_NXZ 1001f920 f   CryptBuffer.obj
 0001:0001e920       __ehhandler$?DecryptBase64A@CryptBuffer@baro@@QAE_NXZ 1001f920 f   CryptBuffer.obj
 0001:0001e950       __unwindfunclet$?CryptEncrypt@CryptBuffer@baro@@QAE_NVCryptHandle@2@PAK@Z$0 1001f950 f   CryptBuffer.obj
 0001:0001e950       __unwindfunclet$?CryptDecrypt@CryptBuffer@baro@@QAE_NVCryptHandle@2@PAK@Z$0 1001f950 f   CryptBuffer.obj
 0001:0001e958       __ehhandler$?CryptDecrypt@CryptBuffer@baro@@QAE_NVCryptHandle@2@PAK@Z 1001f958 f   CryptBuffer.obj
 0001:0001e958       __ehhandler$?CryptEncrypt@CryptBuffer@baro@@QAE_NVCryptHandle@2@PAK@Z 1001f958 f   CryptBuffer.obj
 0001:0001e980       __unwindfunclet$?CryptDecrypt@CryptBuffer@baro@@QAE_NKKPAK@Z$1 1001f980 f   CryptBuffer.obj
 0001:0001e980       __unwindfunclet$?CryptEncrypt@CryptBuffer@baro@@QAE_NKKPAK@Z$1 1001f980 f   CryptBuffer.obj
 0001:0001e988       __unwindfunclet$?CryptDecrypt@CryptBuffer@baro@@QAE_NKKPAK@Z$0 1001f988 f   CryptBuffer.obj
 0001:0001e988       __unwindfunclet$?CryptEncrypt@CryptBuffer@baro@@QAE_NKKPAK@Z$0 1001f988 f   CryptBuffer.obj
 0001:0001e990       __ehhandler$?CryptDecrypt@CryptBuffer@baro@@QAE_NKKPAK@Z 1001f990 f   CryptBuffer.obj
 0001:0001e990       __ehhandler$?CryptEncrypt@CryptBuffer@baro@@QAE_NKKPAK@Z 1001f990 f   CryptBuffer.obj
 0001:0001e9c0       __unwindfunclet$?Print@CryptBuffer@baro@@QAEXXZ$0 1001f9c0 f   CryptBuffer.obj
 0001:0001e9c9       __unwindfunclet$?Print@CryptBuffer@baro@@QAEXXZ$1 1001f9c9 f   CryptBuffer.obj
 0001:0001e9d2       __ehhandler$?Print@CryptBuffer@baro@@QAEXXZ 1001f9d2 f   CryptBuffer.obj
 0001:0001ea00       __unwindfunclet$?CreateAES256@CryptFactory@baro@@YA?AV?$shared_ptr@VCryptHandle@baro@@@std@@V?$CStringT@DV?$StrTraitMFC_DLL@DV?$ChTraitsCRT@D@ATL@@@@@ATL@@_NKK@Z$0 1001fa00 f   CryptFactory.obj
 0001:0001ea09       __unwindfunclet$?CreateAES256@CryptFactory@baro@@YA?AV?$shared_ptr@VCryptHandle@baro@@@std@@V?$CStringT@DV?$StrTraitMFC_DLL@DV?$ChTraitsCRT@D@ATL@@@@@ATL@@_NKK@Z$1 1001fa09 f   CryptFactory.obj
 0001:0001ea11       __unwindfunclet$?CreateAES256@CryptFactory@baro@@YA?AV?$shared_ptr@VCryptHandle@baro@@@std@@V?$CStringT@DV?$StrTraitMFC_DLL@DV?$ChTraitsCRT@D@ATL@@@@@ATL@@_NKK@Z$2 1001fa11 f   CryptFactory.obj
 0001:0001ea2a       __ehhandler$?CreateAES256@CryptFactory@baro@@YA?AV?$shared_ptr@VCryptHandle@baro@@@std@@V?$CStringT@DV?$StrTraitMFC_DLL@DV?$ChTraitsCRT@D@ATL@@@@@ATL@@_NKK@Z 1001fa2a f   CryptFactory.obj
 0001:0001ea50       __unwindfunclet$?CreateAES256@CryptFactory@baro@@YA?AV?$shared_ptr@VCryptHandle@baro@@@std@@V?$CStringT@_WV?$StrTraitMFC_DLL@_WV?$ChTraitsCRT@_W@ATL@@@@@ATL@@_NKK@Z$0 1001fa50 f   CryptFactory.obj
 0001:0001ea50       __unwindfunclet$?GetMethodName@logger@baro@@YA?AV?$CStringT@_WV?$StrTraitMFC_DLL@_WV?$ChTraitsCRT@_W@ATL@@@@@ATL@@V34@@Z$0 1001fa50 f   Logger.obj
 0001:0001ea59       __ehhandler$?GetMethodName@logger@baro@@YA?AV?$CStringT@_WV?$StrTraitMFC_DLL@_WV?$ChTraitsCRT@_W@ATL@@@@@ATL@@V34@@Z 1001fa59 f   Logger.obj
 0001:0001ea59       __ehhandler$?CreateAES256@CryptFactory@baro@@YA?AV?$shared_ptr@VCryptHandle@baro@@@std@@V?$CStringT@_WV?$StrTraitMFC_DLL@_WV?$ChTraitsCRT@_W@ATL@@@@@ATL@@_NKK@Z 1001fa59 f   CryptFactory.obj
 0001:0001ea80       __unwindfunclet$?CreateHash@CryptFactory@baro@@YA?AV?$TBuffer@E@2@IPBEI@Z$0 1001fa80 f   CryptFactory.obj
 0001:0001ea88       __unwindfunclet$?CreateHash@CryptFactory@baro@@YA?AV?$TBuffer@E@2@IPBEI@Z$1 1001fa88 f   CryptFactory.obj
 0001:0001eaa1       __unwindfunclet$?CreateHash@CryptFactory@baro@@YA?AV?$TBuffer@E@2@IPBEI@Z$2 1001faa1 f   CryptFactory.obj
 0001:0001eaa9       __ehhandler$?CreateHash@CryptFactory@baro@@YA?AV?$TBuffer@E@2@IPBEI@Z 1001faa9 f   CryptFactory.obj
 0001:0001ead0       __unwindfunclet$??$make_shared@VCryptHandle@baro@@_N@std@@YA?AV?$shared_ptr@VCryptHandle@baro@@@0@$$QA_N@Z$1 1001fad0 f   CryptFactory.obj
 0001:0001eae9       __ehhandler$??$make_shared@VCryptHandle@baro@@_N@std@@YA?AV?$shared_ptr@VCryptHandle@baro@@@0@$$QA_N@Z 1001fae9 f   CryptFactory.obj
 0001:0001eb10       __unwindfunclet$?MakeString@Sqlite@baro@@QAE?AV?$CStringT@_WV?$StrTraitMFC_DLL@_WV?$ChTraitsCRT@_W@ATL@@@@@ATL@@AAV?$vector@V?$CStringT@_WV?$StrTraitMFC_DLL@_WV?$ChTraitsCRT@_W@ATL@@@@@ATL@@V?$allocator@V?$CStringT@_WV?$StrTraitMFC_DLL@_WV?$ChTraitsCRT@_W@ATL@@@@@ATL@@@std@@@std@@V34@@Z$0 1001fb10 f   Sqlite.obj
 0001:0001eb19       __unwindfunclet$?MakeString@Sqlite@baro@@QAE?AV?$CStringT@_WV?$StrTraitMFC_DLL@_WV?$ChTraitsCRT@_W@ATL@@@@@ATL@@AAV?$vector@V?$CStringT@_WV?$StrTraitMFC_DLL@_WV?$ChTraitsCRT@_W@ATL@@@@@ATL@@V?$allocator@V?$CStringT@_WV?$StrTraitMFC_DLL@_WV?$ChTraitsCRT@_W@ATL@@@@@ATL@@@std@@@std@@V34@@Z$1 1001fb19 f   Sqlite.obj
 0001:0001eb33       __unwindfunclet$?MakeString@Sqlite@baro@@QAE?AV?$CStringT@_WV?$StrTraitMFC_DLL@_WV?$ChTraitsCRT@_W@ATL@@@@@ATL@@AAV?$vector@V?$CStringT@_WV?$StrTraitMFC_DLL@_WV?$ChTraitsCRT@_W@ATL@@@@@ATL@@V?$allocator@V?$CStringT@_WV?$StrTraitMFC_DLL@_WV?$ChTraitsCRT@_W@ATL@@@@@ATL@@@std@@@std@@V34@@Z$2 1001fb33 f   Sqlite.obj
 0001:0001eb3c       __ehhandler$?MakeString@Sqlite@baro@@QAE?AV?$CStringT@_WV?$StrTraitMFC_DLL@_WV?$ChTraitsCRT@_W@ATL@@@@@ATL@@AAV?$vector@V?$CStringT@_WV?$StrTraitMFC_DLL@_WV?$ChTraitsCRT@_W@ATL@@@@@ATL@@V?$allocator@V?$CStringT@_WV?$StrTraitMFC_DLL@_WV?$ChTraitsCRT@_W@ATL@@@@@ATL@@@std@@@std@@V34@@Z 1001fb3c f   Sqlite.obj
 0001:0001eb60       __unwindfunclet$?Open@Sqlite@baro@@QAE_NV?$CStringT@_WV?$StrTraitMFC_DLL@_WV?$ChTraitsCRT@_W@ATL@@@@@ATL@@@Z$3 1001fb60 f   Sqlite.obj
 0001:0001eb69       __ehhandler$?Open@Sqlite@baro@@QAE_NV?$CStringT@_WV?$StrTraitMFC_DLL@_WV?$ChTraitsCRT@_W@ATL@@@@@ATL@@@Z 1001fb69 f   Sqlite.obj
 0001:0001eb90       __ehhandler$?Close@Sqlite@baro@@QAE_NXZ 1001fb90 f   Sqlite.obj
 0001:0001ebb0       __ehhandler$?DML@Sqlite@baro@@AAE_NPB_WAAH@Z 1001fbb0 f   Sqlite.obj
 0001:0001ebd0       __unwindfunclet$?GetTableInfo@Sqlite@baro@@QAE_NV?$CStringT@_WV?$StrTraitMFC_DLL@_WV?$ChTraitsCRT@_W@ATL@@@@@ATL@@AAV?$vector@V?$CStringT@_WV?$StrTraitMFC_DLL@_WV?$ChTraitsCRT@_W@ATL@@@@@ATL@@V?$allocator@V?$CStringT@_WV?$StrTraitMFC_DLL@_WV?$ChTraitsCRT@_W@ATL@@@@@ATL@@@std@@@std@@AAH@Z$2 1001fbd0 f   Sqlite.obj
 0001:0001ebd9       __unwindfunclet$?GetTableInfo@Sqlite@baro@@QAE_NV?$CStringT@_WV?$StrTraitMFC_DLL@_WV?$ChTraitsCRT@_W@ATL@@@@@ATL@@AAV?$vector@V?$CStringT@_WV?$StrTraitMFC_DLL@_WV?$ChTraitsCRT@_W@ATL@@@@@ATL@@V?$allocator@V?$CStringT@_WV?$StrTraitMFC_DLL@_WV?$ChTraitsCRT@_W@ATL@@@@@ATL@@@std@@@std@@AAH@Z$3 1001fbd9 f   Sqlite.obj
 0001:0001ebe2       __unwindfunclet$?GetTableInfo@Sqlite@baro@@QAE_NV?$CStringT@_WV?$StrTraitMFC_DLL@_WV?$ChTraitsCRT@_W@ATL@@@@@ATL@@AAV?$vector@V?$CStringT@_WV?$StrTraitMFC_DLL@_WV?$ChTraitsCRT@_W@ATL@@@@@ATL@@V?$allocator@V?$CStringT@_WV?$StrTraitMFC_DLL@_WV?$ChTraitsCRT@_W@ATL@@@@@ATL@@@std@@@std@@AAH@Z$4 1001fbe2 f   Sqlite.obj
 0001:0001ebea       __unwindfunclet$?GetTableInfo@Sqlite@baro@@QAE_NV?$CStringT@_WV?$StrTraitMFC_DLL@_WV?$ChTraitsCRT@_W@ATL@@@@@ATL@@AAV?$vector@V?$CStringT@_WV?$StrTraitMFC_DLL@_WV?$ChTraitsCRT@_W@ATL@@@@@ATL@@V?$allocator@V?$CStringT@_WV?$StrTraitMFC_DLL@_WV?$ChTraitsCRT@_W@ATL@@@@@ATL@@@std@@@std@@AAH@Z$5 1001fbea f   Sqlite.obj
 0001:0001ebf3       __unwindfunclet$?GetTableInfo@Sqlite@baro@@QAE_NV?$CStringT@_WV?$StrTraitMFC_DLL@_WV?$ChTraitsCRT@_W@ATL@@@@@ATL@@AAV?$vector@V?$CStringT@_WV?$StrTraitMFC_DLL@_WV?$ChTraitsCRT@_W@ATL@@@@@ATL@@V?$allocator@V?$CStringT@_WV?$StrTraitMFC_DLL@_WV?$ChTraitsCRT@_W@ATL@@@@@ATL@@@std@@@std@@AAH@Z$7 1001fbf3 f   Sqlite.obj
 0001:0001ebf8       __unwindfunclet$?GetTableInfo@Sqlite@baro@@QAE_NV?$CStringT@_WV?$StrTraitMFC_DLL@_WV?$ChTraitsCRT@_W@ATL@@@@@ATL@@AAV?$vector@V?$CStringT@_WV?$StrTraitMFC_DLL@_WV?$ChTraitsCRT@_W@ATL@@@@@ATL@@V?$allocator@V?$CStringT@_WV?$StrTraitMFC_DLL@_WV?$ChTraitsCRT@_W@ATL@@@@@ATL@@@std@@@std@@AAH@Z$8 1001fbf8 f   Sqlite.obj
 0001:0001ebfd       __ehhandler$?GetTableInfo@Sqlite@baro@@QAE_NV?$CStringT@_WV?$StrTraitMFC_DLL@_WV?$ChTraitsCRT@_W@ATL@@@@@ATL@@AAV?$vector@V?$CStringT@_WV?$StrTraitMFC_DLL@_WV?$ChTraitsCRT@_W@ATL@@@@@ATL@@V?$allocator@V?$CStringT@_WV?$StrTraitMFC_DLL@_WV?$ChTraitsCRT@_W@ATL@@@@@ATL@@@std@@@std@@AAH@Z 1001fbfd f   Sqlite.obj
 0001:0001ec30       __unwindfunclet$?CreateTable@Sqlite@baro@@QAE_NV?$CStringT@_WV?$StrTraitMFC_DLL@_WV?$ChTraitsCRT@_W@ATL@@@@@ATL@@AAV?$vector@V?$CStringT@_WV?$StrTraitMFC_DLL@_WV?$ChTraitsCRT@_W@ATL@@@@@ATL@@V?$allocator@V?$CStringT@_WV?$StrTraitMFC_DLL@_WV?$ChTraitsCRT@_W@ATL@@@@@ATL@@@std@@@std@@@Z$0 1001fc30 f   Sqlite.obj
 0001:0001ec39       __unwindfunclet$?CreateTable@Sqlite@baro@@QAE_NV?$CStringT@_WV?$StrTraitMFC_DLL@_WV?$ChTraitsCRT@_W@ATL@@@@@ATL@@AAV?$vector@V?$CStringT@_WV?$StrTraitMFC_DLL@_WV?$ChTraitsCRT@_W@ATL@@@@@ATL@@V?$allocator@V?$CStringT@_WV?$StrTraitMFC_DLL@_WV?$ChTraitsCRT@_W@ATL@@@@@ATL@@@std@@@std@@@Z$1 1001fc39 f   Sqlite.obj
 0001:0001ec42       __unwindfunclet$?CreateTable@Sqlite@baro@@QAE_NV?$CStringT@_WV?$StrTraitMFC_DLL@_WV?$ChTraitsCRT@_W@ATL@@@@@ATL@@AAV?$vector@V?$CStringT@_WV?$StrTraitMFC_DLL@_WV?$ChTraitsCRT@_W@ATL@@@@@ATL@@V?$allocator@V?$CStringT@_WV?$StrTraitMFC_DLL@_WV?$ChTraitsCRT@_W@ATL@@@@@ATL@@@std@@@std@@@Z$2 1001fc42 f   Sqlite.obj
 0001:0001ec4b       __unwindfunclet$?CreateTable@Sqlite@baro@@QAE_NV?$CStringT@_WV?$StrTraitMFC_DLL@_WV?$ChTraitsCRT@_W@ATL@@@@@ATL@@AAV?$vector@V?$CStringT@_WV?$StrTraitMFC_DLL@_WV?$ChTraitsCRT@_W@ATL@@@@@ATL@@V?$allocator@V?$CStringT@_WV?$StrTraitMFC_DLL@_WV?$ChTraitsCRT@_W@ATL@@@@@ATL@@@std@@@std@@@Z$3 1001fc4b f   Sqlite.obj
 0001:0001ec54       __unwindfunclet$?CreateTable@Sqlite@baro@@QAE_NV?$CStringT@_WV?$StrTraitMFC_DLL@_WV?$ChTraitsCRT@_W@ATL@@@@@ATL@@AAV?$vector@V?$CStringT@_WV?$StrTraitMFC_DLL@_WV?$ChTraitsCRT@_W@ATL@@@@@ATL@@V?$allocator@V?$CStringT@_WV?$StrTraitMFC_DLL@_WV?$ChTraitsCRT@_W@ATL@@@@@ATL@@@std@@@std@@@Z$4 1001fc54 f   Sqlite.obj
 0001:0001ec5c       __ehhandler$?CreateTable@Sqlite@baro@@QAE_NV?$CStringT@_WV?$StrTraitMFC_DLL@_WV?$ChTraitsCRT@_W@ATL@@@@@ATL@@AAV?$vector@V?$CStringT@_WV?$StrTraitMFC_DLL@_WV?$ChTraitsCRT@_W@ATL@@@@@ATL@@V?$allocator@V?$CStringT@_WV?$StrTraitMFC_DLL@_WV?$ChTraitsCRT@_W@ATL@@@@@ATL@@@std@@@std@@@Z 1001fc5c f   Sqlite.obj
 0001:0001ec90       __unwindfunclet$?DeleteTable@Sqlite@baro@@QAE_NV?$CStringT@_WV?$StrTraitMFC_DLL@_WV?$ChTraitsCRT@_W@ATL@@@@@ATL@@@Z$0 1001fc90 f   Sqlite.obj
 0001:0001ec99       __unwindfunclet$?DeleteTable@Sqlite@baro@@QAE_NV?$CStringT@_WV?$StrTraitMFC_DLL@_WV?$ChTraitsCRT@_W@ATL@@@@@ATL@@@Z$1 1001fc99 f   Sqlite.obj
 0001:0001eca2       __unwindfunclet$?DeleteTable@Sqlite@baro@@QAE_NV?$CStringT@_WV?$StrTraitMFC_DLL@_WV?$ChTraitsCRT@_W@ATL@@@@@ATL@@@Z$2 1001fca2 f   Sqlite.obj
 0001:0001ecaa       __ehhandler$?DeleteTable@Sqlite@baro@@QAE_NV?$CStringT@_WV?$StrTraitMFC_DLL@_WV?$ChTraitsCRT@_W@ATL@@@@@ATL@@@Z 1001fcaa f   Sqlite.obj
 0001:0001ecd0       __unwindfunclet$?CommitTransaction@Sqlite@baro@@QAE_NXZ$0 1001fcd0 f   Sqlite.obj
 0001:0001ecd0       __unwindfunclet$?RollbackTransaction@Sqlite@baro@@QAE_NXZ$0 1001fcd0 f   Sqlite.obj
 0001:0001ecd0       __unwindfunclet$?BeginTransaction@Sqlite@baro@@QAE_NXZ$0 1001fcd0 f   Sqlite.obj
 0001:0001ecd9       __unwindfunclet$?CommitTransaction@Sqlite@baro@@QAE_NXZ$1 1001fcd9 f   Sqlite.obj
 0001:0001ecd9       __unwindfunclet$?BeginTransaction@Sqlite@baro@@QAE_NXZ$1 1001fcd9 f   Sqlite.obj
 0001:0001ecd9       __unwindfunclet$?RollbackTransaction@Sqlite@baro@@QAE_NXZ$1 1001fcd9 f   Sqlite.obj
 0001:0001ece1       __ehhandler$?RollbackTransaction@Sqlite@baro@@QAE_NXZ 1001fce1 f   Sqlite.obj
 0001:0001ece1       __ehhandler$?BeginTransaction@Sqlite@baro@@QAE_NXZ 1001fce1 f   Sqlite.obj
 0001:0001ece1       __ehhandler$?CommitTransaction@Sqlite@baro@@QAE_NXZ 1001fce1 f   Sqlite.obj
 0001:0001ed10       __unwindfunclet$?DeleteRow@Sqlite@baro@@QAE_NV?$CStringT@_WV?$StrTraitMFC_DLL@_WV?$ChTraitsCRT@_W@ATL@@@@@ATL@@0@Z$0 1001fd10 f   Sqlite.obj
 0001:0001ed10       __unwindfunclet$?DeleteField@Sqlite@baro@@QAE_NV?$CStringT@_WV?$StrTraitMFC_DLL@_WV?$ChTraitsCRT@_W@ATL@@@@@ATL@@0@Z$0 1001fd10 f   Sqlite.obj
 0001:0001ed10       __unwindfunclet$?InsertField@Sqlite@baro@@QAE_NV?$CStringT@_WV?$StrTraitMFC_DLL@_WV?$ChTraitsCRT@_W@ATL@@@@@ATL@@0@Z$0 1001fd10 f   Sqlite.obj
 0001:0001ed19       __unwindfunclet$?InsertField@Sqlite@baro@@QAE_NV?$CStringT@_WV?$StrTraitMFC_DLL@_WV?$ChTraitsCRT@_W@ATL@@@@@ATL@@0@Z$1 1001fd19 f   Sqlite.obj
 0001:0001ed19       __unwindfunclet$?DeleteRow@Sqlite@baro@@QAE_NV?$CStringT@_WV?$StrTraitMFC_DLL@_WV?$ChTraitsCRT@_W@ATL@@@@@ATL@@0@Z$1 1001fd19 f   Sqlite.obj
 0001:0001ed19       __unwindfunclet$?DeleteField@Sqlite@baro@@QAE_NV?$CStringT@_WV?$StrTraitMFC_DLL@_WV?$ChTraitsCRT@_W@ATL@@@@@ATL@@0@Z$1 1001fd19 f   Sqlite.obj
 0001:0001ed22       __unwindfunclet$?InsertField@Sqlite@baro@@QAE_NV?$CStringT@_WV?$StrTraitMFC_DLL@_WV?$ChTraitsCRT@_W@ATL@@@@@ATL@@0@Z$2 1001fd22 f   Sqlite.obj
 0001:0001ed22       __unwindfunclet$?DeleteRow@Sqlite@baro@@QAE_NV?$CStringT@_WV?$StrTraitMFC_DLL@_WV?$ChTraitsCRT@_W@ATL@@@@@ATL@@0@Z$2 1001fd22 f   Sqlite.obj
 0001:0001ed22       __unwindfunclet$?DeleteField@Sqlite@baro@@QAE_NV?$CStringT@_WV?$StrTraitMFC_DLL@_WV?$ChTraitsCRT@_W@ATL@@@@@ATL@@0@Z$2 1001fd22 f   Sqlite.obj
 0001:0001ed2b       __unwindfunclet$?InsertField@Sqlite@baro@@QAE_NV?$CStringT@_WV?$StrTraitMFC_DLL@_WV?$ChTraitsCRT@_W@ATL@@@@@ATL@@0@Z$3 1001fd2b f   Sqlite.obj
 0001:0001ed2b       __unwindfunclet$?DeleteRow@Sqlite@baro@@QAE_NV?$CStringT@_WV?$StrTraitMFC_DLL@_WV?$ChTraitsCRT@_W@ATL@@@@@ATL@@0@Z$3 1001fd2b f   Sqlite.obj
 0001:0001ed2b       __unwindfunclet$?DeleteField@Sqlite@baro@@QAE_NV?$CStringT@_WV?$StrTraitMFC_DLL@_WV?$ChTraitsCRT@_W@ATL@@@@@ATL@@0@Z$3 1001fd2b f   Sqlite.obj
 0001:0001ed33       __ehhandler$?DeleteRow@Sqlite@baro@@QAE_NV?$CStringT@_WV?$StrTraitMFC_DLL@_WV?$ChTraitsCRT@_W@ATL@@@@@ATL@@0@Z 1001fd33 f   Sqlite.obj
 0001:0001ed33       __ehhandler$?DeleteField@Sqlite@baro@@QAE_NV?$CStringT@_WV?$StrTraitMFC_DLL@_WV?$ChTraitsCRT@_W@ATL@@@@@ATL@@0@Z 1001fd33 f   Sqlite.obj
 0001:0001ed33       __ehhandler$?InsertField@Sqlite@baro@@QAE_NV?$CStringT@_WV?$StrTraitMFC_DLL@_WV?$ChTraitsCRT@_W@ATL@@@@@ATL@@0@Z 1001fd33 f   Sqlite.obj
 0001:0001ed60       __unwindfunclet$?InsertRow@Sqlite@baro@@QAE_NV?$CStringT@_WV?$StrTraitMFC_DLL@_WV?$ChTraitsCRT@_W@ATL@@@@@ATL@@AAV?$vector@V?$CStringT@_WV?$StrTraitMFC_DLL@_WV?$ChTraitsCRT@_W@ATL@@@@@ATL@@V?$allocator@V?$CStringT@_WV?$StrTraitMFC_DLL@_WV?$ChTraitsCRT@_W@ATL@@@@@ATL@@@std@@@std@@1_N@Z$0 1001fd60 f   Sqlite.obj
 0001:0001ed69       __unwindfunclet$?InsertRow@Sqlite@baro@@QAE_NV?$CStringT@_WV?$StrTraitMFC_DLL@_WV?$ChTraitsCRT@_W@ATL@@@@@ATL@@AAV?$vector@V?$CStringT@_WV?$StrTraitMFC_DLL@_WV?$ChTraitsCRT@_W@ATL@@@@@ATL@@V?$allocator@V?$CStringT@_WV?$StrTraitMFC_DLL@_WV?$ChTraitsCRT@_W@ATL@@@@@ATL@@@std@@@std@@1_N@Z$1 1001fd69 f   Sqlite.obj
 0001:0001ed72       __unwindfunclet$?InsertRow@Sqlite@baro@@QAE_NV?$CStringT@_WV?$StrTraitMFC_DLL@_WV?$ChTraitsCRT@_W@ATL@@@@@ATL@@AAV?$vector@V?$CStringT@_WV?$StrTraitMFC_DLL@_WV?$ChTraitsCRT@_W@ATL@@@@@ATL@@V?$allocator@V?$CStringT@_WV?$StrTraitMFC_DLL@_WV?$ChTraitsCRT@_W@ATL@@@@@ATL@@@std@@@std@@1_N@Z$2 1001fd72 f   Sqlite.obj
 0001:0001ed7b       __unwindfunclet$?InsertRow@Sqlite@baro@@QAE_NV?$CStringT@_WV?$StrTraitMFC_DLL@_WV?$ChTraitsCRT@_W@ATL@@@@@ATL@@AAV?$vector@V?$CStringT@_WV?$StrTraitMFC_DLL@_WV?$ChTraitsCRT@_W@ATL@@@@@ATL@@V?$allocator@V?$CStringT@_WV?$StrTraitMFC_DLL@_WV?$ChTraitsCRT@_W@ATL@@@@@ATL@@@std@@@std@@1_N@Z$3 1001fd7b f   Sqlite.obj
 0001:0001ed84       __unwindfunclet$?InsertRow@Sqlite@baro@@QAE_NV?$CStringT@_WV?$StrTraitMFC_DLL@_WV?$ChTraitsCRT@_W@ATL@@@@@ATL@@AAV?$vector@V?$CStringT@_WV?$StrTraitMFC_DLL@_WV?$ChTraitsCRT@_W@ATL@@@@@ATL@@V?$allocator@V?$CStringT@_WV?$StrTraitMFC_DLL@_WV?$ChTraitsCRT@_W@ATL@@@@@ATL@@@std@@@std@@1_N@Z$4 1001fd84 f   Sqlite.obj
 0001:0001ed8d       __unwindfunclet$?InsertRow@Sqlite@baro@@QAE_NV?$CStringT@_WV?$StrTraitMFC_DLL@_WV?$ChTraitsCRT@_W@ATL@@@@@ATL@@AAV?$vector@V?$CStringT@_WV?$StrTraitMFC_DLL@_WV?$ChTraitsCRT@_W@ATL@@@@@ATL@@V?$allocator@V?$CStringT@_WV?$StrTraitMFC_DLL@_WV?$ChTraitsCRT@_W@ATL@@@@@ATL@@@std@@@std@@1_N@Z$5 1001fd8d f   Sqlite.obj
 0001:0001ed96       __unwindfunclet$?InsertRow@Sqlite@baro@@QAE_NV?$CStringT@_WV?$StrTraitMFC_DLL@_WV?$ChTraitsCRT@_W@ATL@@@@@ATL@@AAV?$vector@V?$CStringT@_WV?$StrTraitMFC_DLL@_WV?$ChTraitsCRT@_W@ATL@@@@@ATL@@V?$allocator@V?$CStringT@_WV?$StrTraitMFC_DLL@_WV?$ChTraitsCRT@_W@ATL@@@@@ATL@@@std@@@std@@1_N@Z$6 1001fd96 f   Sqlite.obj
 0001:0001ed9e       __ehhandler$?InsertRow@Sqlite@baro@@QAE_NV?$CStringT@_WV?$StrTraitMFC_DLL@_WV?$ChTraitsCRT@_W@ATL@@@@@ATL@@AAV?$vector@V?$CStringT@_WV?$StrTraitMFC_DLL@_WV?$ChTraitsCRT@_W@ATL@@@@@ATL@@V?$allocator@V?$CStringT@_WV?$StrTraitMFC_DLL@_WV?$ChTraitsCRT@_W@ATL@@@@@ATL@@@std@@@std@@1_N@Z 1001fd9e f   Sqlite.obj
 0001:0001edd0       __unwindfunclet$?Select@Sqlite@baro@@QAE_NV?$CStringT@_WV?$StrTraitMFC_DLL@_WV?$ChTraitsCRT@_W@ATL@@@@@ATL@@AAV?$map@V?$CStringT@_WV?$StrTraitMFC_DLL@_WV?$ChTraitsCRT@_W@ATL@@@@@ATL@@V?$vector@V?$CStringT@_WV?$StrTraitMFC_DLL@_WV?$ChTraitsCRT@_W@ATL@@@@@ATL@@V?$allocator@V?$CStringT@_WV?$StrTraitMFC_DLL@_WV?$ChTraitsCRT@_W@ATL@@@@@ATL@@@std@@@std@@U?$less@V?$CStringT@_WV?$StrTraitMFC_DLL@_WV?$ChTraitsCRT@_W@ATL@@@@@ATL@@@4@V?$allocator@U?$pair@$$CBV?$CStringT@_WV?$StrTraitMFC_DLL@_WV?$ChTraitsCRT@_W@ATL@@@@@ATL@@V?$vector@V?$CStringT@_WV?$StrTraitMFC_DLL@_WV?$ChTraitsCRT@_W@ATL@@@@@ATL@@V?$allocator@V?$CStringT@_WV?$StrTraitMFC_DLL@_WV?$ChTraitsCRT@_W@ATL@@@@@ATL@@@std@@@std@@@std@@@4@@std@@00@Z$2 1001fdd0 f   Sqlite.obj
 0001:0001edd9       __unwindfunclet$?Select@Sqlite@baro@@QAE_NV?$CStringT@_WV?$StrTraitMFC_DLL@_WV?$ChTraitsCRT@_W@ATL@@@@@ATL@@AAV?$map@V?$CStringT@_WV?$StrTraitMFC_DLL@_WV?$ChTraitsCRT@_W@ATL@@@@@ATL@@V?$vector@V?$CStringT@_WV?$StrTraitMFC_DLL@_WV?$ChTraitsCRT@_W@ATL@@@@@ATL@@V?$allocator@V?$CStringT@_WV?$StrTraitMFC_DLL@_WV?$ChTraitsCRT@_W@ATL@@@@@ATL@@@std@@@std@@U?$less@V?$CStringT@_WV?$StrTraitMFC_DLL@_WV?$ChTraitsCRT@_W@ATL@@@@@ATL@@@4@V?$allocator@U?$pair@$$CBV?$CStringT@_WV?$StrTraitMFC_DLL@_WV?$ChTraitsCRT@_W@ATL@@@@@ATL@@V?$vector@V?$CStringT@_WV?$StrTraitMFC_DLL@_WV?$ChTraitsCRT@_W@ATL@@@@@ATL@@V?$allocator@V?$CStringT@_WV?$StrTraitMFC_DLL@_WV?$ChTraitsCRT@_W@ATL@@@@@ATL@@@std@@@std@@@std@@@4@@std@@00@Z$3 1001fdd9 f   Sqlite.obj
 0001:0001ede2       __unwindfunclet$?Select@Sqlite@baro@@QAE_NV?$CStringT@_WV?$StrTraitMFC_DLL@_WV?$ChTraitsCRT@_W@ATL@@@@@ATL@@AAV?$map@V?$CStringT@_WV?$StrTraitMFC_DLL@_WV?$ChTraitsCRT@_W@ATL@@@@@ATL@@V?$vector@V?$CStringT@_WV?$StrTraitMFC_DLL@_WV?$ChTraitsCRT@_W@ATL@@@@@ATL@@V?$allocator@V?$CStringT@_WV?$StrTraitMFC_DLL@_WV?$ChTraitsCRT@_W@ATL@@@@@ATL@@@std@@@std@@U?$less@V?$CStringT@_WV?$StrTraitMFC_DLL@_WV?$ChTraitsCRT@_W@ATL@@@@@ATL@@@4@V?$allocator@U?$pair@$$CBV?$CStringT@_WV?$StrTraitMFC_DLL@_WV?$ChTraitsCRT@_W@ATL@@@@@ATL@@V?$vector@V?$CStringT@_WV?$StrTraitMFC_DLL@_WV?$ChTraitsCRT@_W@ATL@@@@@ATL@@V?$allocator@V?$CStringT@_WV?$StrTraitMFC_DLL@_WV?$ChTraitsCRT@_W@ATL@@@@@ATL@@@std@@@std@@@std@@@4@@std@@00@Z$4 1001fde2 f   Sqlite.obj
 0001:0001edeb       __unwindfunclet$?Select@Sqlite@baro@@QAE_NV?$CStringT@_WV?$StrTraitMFC_DLL@_WV?$ChTraitsCRT@_W@ATL@@@@@ATL@@AAV?$map@V?$CStringT@_WV?$StrTraitMFC_DLL@_WV?$ChTraitsCRT@_W@ATL@@@@@ATL@@V?$vector@V?$CStringT@_WV?$StrTraitMFC_DLL@_WV?$ChTraitsCRT@_W@ATL@@@@@ATL@@V?$allocator@V?$CStringT@_WV?$StrTraitMFC_DLL@_WV?$ChTraitsCRT@_W@ATL@@@@@ATL@@@std@@@std@@U?$less@V?$CStringT@_WV?$StrTraitMFC_DLL@_WV?$ChTraitsCRT@_W@ATL@@@@@ATL@@@4@V?$allocator@U?$pair@$$CBV?$CStringT@_WV?$StrTraitMFC_DLL@_WV?$ChTraitsCRT@_W@ATL@@@@@ATL@@V?$vector@V?$CStringT@_WV?$StrTraitMFC_DLL@_WV?$ChTraitsCRT@_W@ATL@@@@@ATL@@V?$allocator@V?$CStringT@_WV?$StrTraitMFC_DLL@_WV?$ChTraitsCRT@_W@ATL@@@@@ATL@@@std@@@std@@@std@@@4@@std@@00@Z$5 1001fdeb f   Sqlite.obj
 0001:0001edf4       __unwindfunclet$?Select@Sqlite@baro@@QAE_NV?$CStringT@_WV?$StrTraitMFC_DLL@_WV?$ChTraitsCRT@_W@ATL@@@@@ATL@@AAV?$map@V?$CStringT@_WV?$StrTraitMFC_DLL@_WV?$ChTraitsCRT@_W@ATL@@@@@ATL@@V?$vector@V?$CStringT@_WV?$StrTraitMFC_DLL@_WV?$ChTraitsCRT@_W@ATL@@@@@ATL@@V?$allocator@V?$CStringT@_WV?$StrTraitMFC_DLL@_WV?$ChTraitsCRT@_W@ATL@@@@@ATL@@@std@@@std@@U?$less@V?$CStringT@_WV?$StrTraitMFC_DLL@_WV?$ChTraitsCRT@_W@ATL@@@@@ATL@@@4@V?$allocator@U?$pair@$$CBV?$CStringT@_WV?$StrTraitMFC_DLL@_WV?$ChTraitsCRT@_W@ATL@@@@@ATL@@V?$vector@V?$CStringT@_WV?$StrTraitMFC_DLL@_WV?$ChTraitsCRT@_W@ATL@@@@@ATL@@V?$allocator@V?$CStringT@_WV?$StrTraitMFC_DLL@_WV?$ChTraitsCRT@_W@ATL@@@@@ATL@@@std@@@std@@@std@@@4@@std@@00@Z$6 1001fdf4 f   Sqlite.obj
 0001:0001edfc       __unwindfunclet$?Select@Sqlite@baro@@QAE_NV?$CStringT@_WV?$StrTraitMFC_DLL@_WV?$ChTraitsCRT@_W@ATL@@@@@ATL@@AAV?$map@V?$CStringT@_WV?$StrTraitMFC_DLL@_WV?$ChTraitsCRT@_W@ATL@@@@@ATL@@V?$vector@V?$CStringT@_WV?$StrTraitMFC_DLL@_WV?$ChTraitsCRT@_W@ATL@@@@@ATL@@V?$allocator@V?$CStringT@_WV?$StrTraitMFC_DLL@_WV?$ChTraitsCRT@_W@ATL@@@@@ATL@@@std@@@std@@U?$less@V?$CStringT@_WV?$StrTraitMFC_DLL@_WV?$ChTraitsCRT@_W@ATL@@@@@ATL@@@4@V?$allocator@U?$pair@$$CBV?$CStringT@_WV?$StrTraitMFC_DLL@_WV?$ChTraitsCRT@_W@ATL@@@@@ATL@@V?$vector@V?$CStringT@_WV?$StrTraitMFC_DLL@_WV?$ChTraitsCRT@_W@ATL@@@@@ATL@@V?$allocator@V?$CStringT@_WV?$StrTraitMFC_DLL@_WV?$ChTraitsCRT@_W@ATL@@@@@ATL@@@std@@@std@@@std@@@4@@std@@00@Z$7 1001fdfc f   Sqlite.obj
 0001:0001ee04       __unwindfunclet$?Select@Sqlite@baro@@QAE_NV?$CStringT@_WV?$StrTraitMFC_DLL@_WV?$ChTraitsCRT@_W@ATL@@@@@ATL@@AAV?$map@V?$CStringT@_WV?$StrTraitMFC_DLL@_WV?$ChTraitsCRT@_W@ATL@@@@@ATL@@V?$vector@V?$CStringT@_WV?$StrTraitMFC_DLL@_WV?$ChTraitsCRT@_W@ATL@@@@@ATL@@V?$allocator@V?$CStringT@_WV?$StrTraitMFC_DLL@_WV?$ChTraitsCRT@_W@ATL@@@@@ATL@@@std@@@std@@U?$less@V?$CStringT@_WV?$StrTraitMFC_DLL@_WV?$ChTraitsCRT@_W@ATL@@@@@ATL@@@4@V?$allocator@U?$pair@$$CBV?$CStringT@_WV?$StrTraitMFC_DLL@_WV?$ChTraitsCRT@_W@ATL@@@@@ATL@@V?$vector@V?$CStringT@_WV?$StrTraitMFC_DLL@_WV?$ChTraitsCRT@_W@ATL@@@@@ATL@@V?$allocator@V?$CStringT@_WV?$StrTraitMFC_DLL@_WV?$ChTraitsCRT@_W@ATL@@@@@ATL@@@std@@@std@@@std@@@4@@std@@00@Z$8 1001fe04 f   Sqlite.obj
 0001:0001ee0d       __unwindfunclet$?Select@Sqlite@baro@@QAE_NV?$CStringT@_WV?$StrTraitMFC_DLL@_WV?$ChTraitsCRT@_W@ATL@@@@@ATL@@AAV?$map@V?$CStringT@_WV?$StrTraitMFC_DLL@_WV?$ChTraitsCRT@_W@ATL@@@@@ATL@@V?$vector@V?$CStringT@_WV?$StrTraitMFC_DLL@_WV?$ChTraitsCRT@_W@ATL@@@@@ATL@@V?$allocator@V?$CStringT@_WV?$StrTraitMFC_DLL@_WV?$ChTraitsCRT@_W@ATL@@@@@ATL@@@std@@@std@@U?$less@V?$CStringT@_WV?$StrTraitMFC_DLL@_WV?$ChTraitsCRT@_W@ATL@@@@@ATL@@@4@V?$allocator@U?$pair@$$CBV?$CStringT@_WV?$StrTraitMFC_DLL@_WV?$ChTraitsCRT@_W@ATL@@@@@ATL@@V?$vector@V?$CStringT@_WV?$StrTraitMFC_DLL@_WV?$ChTraitsCRT@_W@ATL@@@@@ATL@@V?$allocator@V?$CStringT@_WV?$StrTraitMFC_DLL@_WV?$ChTraitsCRT@_W@ATL@@@@@ATL@@@std@@@std@@@std@@@4@@std@@00@Z$11 1001fe0d f   Sqlite.obj
 0001:0001ee12       __unwindfunclet$?Select@Sqlite@baro@@QAE_NV?$CStringT@_WV?$StrTraitMFC_DLL@_WV?$ChTraitsCRT@_W@ATL@@@@@ATL@@AAV?$map@V?$CStringT@_WV?$StrTraitMFC_DLL@_WV?$ChTraitsCRT@_W@ATL@@@@@ATL@@V?$vector@V?$CStringT@_WV?$StrTraitMFC_DLL@_WV?$ChTraitsCRT@_W@ATL@@@@@ATL@@V?$allocator@V?$CStringT@_WV?$StrTraitMFC_DLL@_WV?$ChTraitsCRT@_W@ATL@@@@@ATL@@@std@@@std@@U?$less@V?$CStringT@_WV?$StrTraitMFC_DLL@_WV?$ChTraitsCRT@_W@ATL@@@@@ATL@@@4@V?$allocator@U?$pair@$$CBV?$CStringT@_WV?$StrTraitMFC_DLL@_WV?$ChTraitsCRT@_W@ATL@@@@@ATL@@V?$vector@V?$CStringT@_WV?$StrTraitMFC_DLL@_WV?$ChTraitsCRT@_W@ATL@@@@@ATL@@V?$allocator@V?$CStringT@_WV?$StrTraitMFC_DLL@_WV?$ChTraitsCRT@_W@ATL@@@@@ATL@@@std@@@std@@@std@@@4@@std@@00@Z$12 1001fe12 f   Sqlite.obj
 0001:0001ee17       __unwindfunclet$?Select@Sqlite@baro@@QAE_NV?$CStringT@_WV?$StrTraitMFC_DLL@_WV?$ChTraitsCRT@_W@ATL@@@@@ATL@@AAV?$map@V?$CStringT@_WV?$StrTraitMFC_DLL@_WV?$ChTraitsCRT@_W@ATL@@@@@ATL@@V?$vector@V?$CStringT@_WV?$StrTraitMFC_DLL@_WV?$ChTraitsCRT@_W@ATL@@@@@ATL@@V?$allocator@V?$CStringT@_WV?$StrTraitMFC_DLL@_WV?$ChTraitsCRT@_W@ATL@@@@@ATL@@@std@@@std@@U?$less@V?$CStringT@_WV?$StrTraitMFC_DLL@_WV?$ChTraitsCRT@_W@ATL@@@@@ATL@@@4@V?$allocator@U?$pair@$$CBV?$CStringT@_WV?$StrTraitMFC_DLL@_WV?$ChTraitsCRT@_W@ATL@@@@@ATL@@V?$vector@V?$CStringT@_WV?$StrTraitMFC_DLL@_WV?$ChTraitsCRT@_W@ATL@@@@@ATL@@V?$allocator@V?$CStringT@_WV?$StrTraitMFC_DLL@_WV?$ChTraitsCRT@_W@ATL@@@@@ATL@@@std@@@std@@@std@@@4@@std@@00@Z$9 1001fe17 f   Sqlite.obj
 0001:0001ee1f       __ehhandler$?Select@Sqlite@baro@@QAE_NV?$CStringT@_WV?$StrTraitMFC_DLL@_WV?$ChTraitsCRT@_W@ATL@@@@@ATL@@AAV?$map@V?$CStringT@_WV?$StrTraitMFC_DLL@_WV?$ChTraitsCRT@_W@ATL@@@@@ATL@@V?$vector@V?$CStringT@_WV?$StrTraitMFC_DLL@_WV?$ChTraitsCRT@_W@ATL@@@@@ATL@@V?$allocator@V?$CStringT@_WV?$StrTraitMFC_DLL@_WV?$ChTraitsCRT@_W@ATL@@@@@ATL@@@std@@@std@@U?$less@V?$CStringT@_WV?$StrTraitMFC_DLL@_WV?$ChTraitsCRT@_W@ATL@@@@@ATL@@@4@V?$allocator@U?$pair@$$CBV?$CStringT@_WV?$StrTraitMFC_DLL@_WV?$ChTraitsCRT@_W@ATL@@@@@ATL@@V?$vector@V?$CStringT@_WV?$StrTraitMFC_DLL@_WV?$ChTraitsCRT@_W@ATL@@@@@ATL@@V?$allocator@V?$CStringT@_WV?$StrTraitMFC_DLL@_WV?$ChTraitsCRT@_W@ATL@@@@@ATL@@@std@@@std@@@std@@@4@@std@@00@Z 1001fe1f f   Sqlite.obj
 0001:0001ee50       __unwindfunclet$?Update@Sqlite@baro@@QAE_NV?$CStringT@_WV?$StrTraitMFC_DLL@_WV?$ChTraitsCRT@_W@ATL@@@@@ATL@@00@Z$0 1001fe50 f   Sqlite.obj
 0001:0001ee59       __unwindfunclet$?Update@Sqlite@baro@@QAE_NV?$CStringT@_WV?$StrTraitMFC_DLL@_WV?$ChTraitsCRT@_W@ATL@@@@@ATL@@00@Z$1 1001fe59 f   Sqlite.obj
 0001:0001ee62       __unwindfunclet$?Update@Sqlite@baro@@QAE_NV?$CStringT@_WV?$StrTraitMFC_DLL@_WV?$ChTraitsCRT@_W@ATL@@@@@ATL@@00@Z$2 1001fe62 f   Sqlite.obj
 0001:0001ee6b       __unwindfunclet$?Update@Sqlite@baro@@QAE_NV?$CStringT@_WV?$StrTraitMFC_DLL@_WV?$ChTraitsCRT@_W@ATL@@@@@ATL@@00@Z$3 1001fe6b f   Sqlite.obj
 0001:0001ee74       __unwindfunclet$?Update@Sqlite@baro@@QAE_NV?$CStringT@_WV?$StrTraitMFC_DLL@_WV?$ChTraitsCRT@_W@ATL@@@@@ATL@@00@Z$4 1001fe74 f   Sqlite.obj
 0001:0001ee7c       __ehhandler$?Update@Sqlite@baro@@QAE_NV?$CStringT@_WV?$StrTraitMFC_DLL@_WV?$ChTraitsCRT@_W@ATL@@@@@ATL@@00@Z 1001fe7c f   Sqlite.obj
 0001:0001eeb0       __unwindfunclet$?QueryDirect@Sqlite@baro@@QAE_NPB_WV?$function@$$A6A_NAAVSqliteQueryResult@baro@@@Z@std@@@Z$0 1001feb0 f   Sqlite.obj
 0001:0001eeb8       __unwindfunclet$?QueryDirect@Sqlite@baro@@QAE_NPB_WV?$function@$$A6A_NAAVSqliteQueryResult@baro@@@Z@std@@@Z$1 1001feb8 f   Sqlite.obj
 0001:0001eec0       __ehhandler$?QueryDirect@Sqlite@baro@@QAE_NPB_WV?$function@$$A6A_NAAVSqliteQueryResult@baro@@@Z@std@@@Z 1001fec0 f   Sqlite.obj
 0001:0001eef0       __unwindfunclet$??$Query@VCppSqlite3Query@@@Sqlite@baro@@AAE_NPB_WAAVCppSqlite3Query@@@Z$2 1001fef0 f   Sqlite.obj
 0001:0001eef8       __ehhandler$??$Query@VCppSqlite3Query@@@Sqlite@baro@@AAE_NPB_WAAVCppSqlite3Query@@@Z 1001fef8 f   Sqlite.obj
 0001:0001ef20       __unwindfunclet$??$make_pair@AAV?$CStringT@_WV?$StrTraitMFC_DLL@_WV?$ChTraitsCRT@_W@ATL@@@@@ATL@@AAV?$vector@V?$CStringT@_WV?$StrTraitMFC_DLL@_WV?$ChTraitsCRT@_W@ATL@@@@@ATL@@V?$allocator@V?$CStringT@_WV?$StrTraitMFC_DLL@_WV?$ChTraitsCRT@_W@ATL@@@@@ATL@@@std@@@std@@@std@@YA?AU?$pair@V?$CStringT@_WV?$StrTraitMFC_DLL@_WV?$ChTraitsCRT@_W@ATL@@@@@ATL@@V?$vector@V?$CStringT@_WV?$StrTraitMFC_DLL@_WV?$ChTraitsCRT@_W@ATL@@@@@ATL@@V?$allocator@V?$CStringT@_WV?$StrTraitMFC_DLL@_WV?$ChTraitsCRT@_W@ATL@@@@@ATL@@@std@@@std@@@0@AAV?$CStringT@_WV?$StrTraitMFC_DLL@_WV?$ChTraitsCRT@_W@ATL@@@@@ATL@@AAV?$vector@V?$CStringT@_WV?$StrTraitMFC_DLL@_WV?$ChTraitsCRT@_W@ATL@@@@@ATL@@V?$allocator@V?$CStringT@_WV?$StrTraitMFC_DLL@_WV?$ChTraitsCRT@_W@ATL@@@@@ATL@@@std@@@0@@Z$1 1001ff20 f   Sqlite.obj
 0001:0001ef20       __unwindfunclet$??$make_pair@AAV?$CStringT@_WV?$StrTraitMFC_DLL@_WV?$ChTraitsCRT@_W@ATL@@@@@ATL@@AAV12@@std@@YA?AU?$pair@V?$CStringT@_WV?$StrTraitMFC_DLL@_WV?$ChTraitsCRT@_W@ATL@@@@@ATL@@V12@@0@AAV?$CStringT@_WV?$StrTraitMFC_DLL@_WV?$ChTraitsCRT@_W@ATL@@@@@ATL@@0@Z$1 1001ff20 f   stdafx.obj
 0001:0001ef29       __ehhandler$??$make_pair@AAV?$CStringT@_WV?$StrTraitMFC_DLL@_WV?$ChTraitsCRT@_W@ATL@@@@@ATL@@AAV?$vector@V?$CStringT@_WV?$StrTraitMFC_DLL@_WV?$ChTraitsCRT@_W@ATL@@@@@ATL@@V?$allocator@V?$CStringT@_WV?$StrTraitMFC_DLL@_WV?$ChTraitsCRT@_W@ATL@@@@@ATL@@@std@@@std@@@std@@YA?AU?$pair@V?$CStringT@_WV?$StrTraitMFC_DLL@_WV?$ChTraitsCRT@_W@ATL@@@@@ATL@@V?$vector@V?$CStringT@_WV?$StrTraitMFC_DLL@_WV?$ChTraitsCRT@_W@ATL@@@@@ATL@@V?$allocator@V?$CStringT@_WV?$StrTraitMFC_DLL@_WV?$ChTraitsCRT@_W@ATL@@@@@ATL@@@std@@@std@@@0@AAV?$CStringT@_WV?$StrTraitMFC_DLL@_WV?$ChTraitsCRT@_W@ATL@@@@@ATL@@AAV?$vector@V?$CStringT@_WV?$StrTraitMFC_DLL@_WV?$ChTraitsCRT@_W@ATL@@@@@ATL@@V?$allocator@V?$CStringT@_WV?$StrTraitMFC_DLL@_WV?$ChTraitsCRT@_W@ATL@@@@@ATL@@@std@@@0@@Z 1001ff29 f   Sqlite.obj
 0001:0001ef29       __ehhandler$??$make_pair@AAV?$CStringT@_WV?$StrTraitMFC_DLL@_WV?$ChTraitsCRT@_W@ATL@@@@@ATL@@AAV12@@std@@YA?AU?$pair@V?$CStringT@_WV?$StrTraitMFC_DLL@_WV?$ChTraitsCRT@_W@ATL@@@@@ATL@@V12@@0@AAV?$CStringT@_WV?$StrTraitMFC_DLL@_WV?$ChTraitsCRT@_W@ATL@@@@@ATL@@0@Z 1001ff29 f   stdafx.obj
 0001:0001ef50       __unwindfunclet$??$_Buynode@U?$pair@V?$CStringT@_WV?$StrTraitMFC_DLL@_WV?$ChTraitsCRT@_W@ATL@@@@@ATL@@V?$vector@V?$CStringT@_WV?$StrTraitMFC_DLL@_WV?$ChTraitsCRT@_W@ATL@@@@@ATL@@V?$allocator@V?$CStringT@_WV?$StrTraitMFC_DLL@_WV?$ChTraitsCRT@_W@ATL@@@@@ATL@@@std@@@std@@@std@@@?$_Tree_buy@U?$pair@$$CBV?$CStringT@_WV?$StrTraitMFC_DLL@_WV?$ChTraitsCRT@_W@ATL@@@@@ATL@@V?$vector@V?$CStringT@_WV?$StrTraitMFC_DLL@_WV?$ChTraitsCRT@_W@ATL@@@@@ATL@@V?$allocator@V?$CStringT@_WV?$StrTraitMFC_DLL@_WV?$ChTraitsCRT@_W@ATL@@@@@ATL@@@std@@@std@@@std@@V?$allocator@U?$pair@$$CBV?$CStringT@_WV?$StrTraitMFC_DLL@_WV?$ChTraitsCRT@_W@ATL@@@@@ATL@@V?$vector@V?$CStringT@_WV?$StrTraitMFC_DLL@_WV?$ChTraitsCRT@_W@ATL@@@@@ATL@@V?$allocator@V?$CStringT@_WV?$StrTraitMFC_DLL@_WV?$ChTraitsCRT@_W@ATL@@@@@ATL@@@std@@@std@@@std@@@2@@std@@QAEPAU?$_Tree_node@U?$pair@$$CBV?$CStringT@_WV?$StrTraitMFC_DLL@_WV?$ChTraitsCRT@_W@ATL@@@@@ATL@@V?$vector@V?$CStringT@_WV?$StrTraitMFC_DLL@_WV?$ChTraitsCRT@_W@ATL@@@@@ATL@@V?$allocator@V?$CStringT@_WV?$StrTraitMFC_DLL@_WV?$ChTraitsCRT@_W@ATL@@@@@ATL@@@std@@@std@@@std@@PAX@1@$$QAU?$pair@V?$CStringT@_WV?$StrTraitMFC_DLL@_WV?$ChTraitsCRT@_W@ATL@@@@@ATL@@V?$vector@V?$CStringT@_WV?$StrTraitMFC_DLL@_WV?$ChTraitsCRT@_W@ATL@@@@@ATL@@V?$allocator@V?$CStringT@_WV?$StrTraitMFC_DLL@_WV?$ChTraitsCRT@_W@ATL@@@@@ATL@@@std@@@std@@@1@@Z$2 1001ff50 f   Sqlite.obj
 0001:0001ef55       __ehhandler$??$_Buynode@U?$pair@V?$CStringT@_WV?$StrTraitMFC_DLL@_WV?$ChTraitsCRT@_W@ATL@@@@@ATL@@V?$vector@V?$CStringT@_WV?$StrTraitMFC_DLL@_WV?$ChTraitsCRT@_W@ATL@@@@@ATL@@V?$allocator@V?$CStringT@_WV?$StrTraitMFC_DLL@_WV?$ChTraitsCRT@_W@ATL@@@@@ATL@@@std@@@std@@@std@@@?$_Tree_buy@U?$pair@$$CBV?$CStringT@_WV?$StrTraitMFC_DLL@_WV?$ChTraitsCRT@_W@ATL@@@@@ATL@@V?$vector@V?$CStringT@_WV?$StrTraitMFC_DLL@_WV?$ChTraitsCRT@_W@ATL@@@@@ATL@@V?$allocator@V?$CStringT@_WV?$StrTraitMFC_DLL@_WV?$ChTraitsCRT@_W@ATL@@@@@ATL@@@std@@@std@@@std@@V?$allocator@U?$pair@$$CBV?$CStringT@_WV?$StrTraitMFC_DLL@_WV?$ChTraitsCRT@_W@ATL@@@@@ATL@@V?$vector@V?$CStringT@_WV?$StrTraitMFC_DLL@_WV?$ChTraitsCRT@_W@ATL@@@@@ATL@@V?$allocator@V?$CStringT@_WV?$StrTraitMFC_DLL@_WV?$ChTraitsCRT@_W@ATL@@@@@ATL@@@std@@@std@@@std@@@2@@std@@QAEPAU?$_Tree_node@U?$pair@$$CBV?$CStringT@_WV?$StrTraitMFC_DLL@_WV?$ChTraitsCRT@_W@ATL@@@@@ATL@@V?$vector@V?$CStringT@_WV?$StrTraitMFC_DLL@_WV?$ChTraitsCRT@_W@ATL@@@@@ATL@@V?$allocator@V?$CStringT@_WV?$StrTraitMFC_DLL@_WV?$ChTraitsCRT@_W@ATL@@@@@ATL@@@std@@@std@@@std@@PAX@1@$$QAU?$pair@V?$CStringT@_WV?$StrTraitMFC_DLL@_WV?$ChTraitsCRT@_W@ATL@@@@@ATL@@V?$vector@V?$CStringT@_WV?$StrTraitMFC_DLL@_WV?$ChTraitsCRT@_W@ATL@@@@@ATL@@V?$allocator@V?$CStringT@_WV?$StrTraitMFC_DLL@_WV?$ChTraitsCRT@_W@ATL@@@@@ATL@@@std@@@std@@@1@@Z 1001ff55 f   Sqlite.obj
 0001:0001ef70       __ehhandler$??$_Insert_nohint@AAU?$pair@$$CBV?$CStringT@_WV?$StrTraitMFC_DLL@_WV?$ChTraitsCRT@_W@ATL@@@@@ATL@@V?$vector@V?$CStringT@_WV?$StrTraitMFC_DLL@_WV?$ChTraitsCRT@_W@ATL@@@@@ATL@@V?$allocator@V?$CStringT@_WV?$StrTraitMFC_DLL@_WV?$ChTraitsCRT@_W@ATL@@@@@ATL@@@std@@@std@@@std@@PAU?$_Tree_node@U?$pair@$$CBV?$CStringT@_WV?$StrTraitMFC_DLL@_WV?$ChTraitsCRT@_W@ATL@@@@@ATL@@V?$vector@V?$CStringT@_WV?$StrTraitMFC_DLL@_WV?$ChTraitsCRT@_W@ATL@@@@@ATL@@V?$allocator@V?$CStringT@_WV?$StrTraitMFC_DLL@_WV?$ChTraitsCRT@_W@ATL@@@@@ATL@@@std@@@std@@@std@@PAX@2@@?$_Tree@V?$_Tmap_traits@V?$CStringT@_WV?$StrTraitMFC_DLL@_WV?$ChTraitsCRT@_W@ATL@@@@@ATL@@V?$vector@V?$CStringT@_WV?$StrTraitMFC_DLL@_WV?$ChTraitsCRT@_W@ATL@@@@@ATL@@V?$allocator@V?$CStringT@_WV?$StrTraitMFC_DLL@_WV?$ChTraitsCRT@_W@ATL@@@@@ATL@@@std@@@std@@U?$less@V?$CStringT@_WV?$StrTraitMFC_DLL@_WV?$ChTraitsCRT@_W@ATL@@@@@ATL@@@4@V?$allocator@U?$pair@$$CBV?$CStringT@_WV?$StrTraitMFC_DLL@_WV?$ChTraitsCRT@_W@ATL@@@@@ATL@@V?$vector@V?$CStringT@_WV?$StrTraitMFC_DLL@_WV?$ChTraitsCRT@_W@ATL@@@@@ATL@@V?$allocator@V?$CStringT@_WV?$StrTraitMFC_DLL@_WV?$ChTraitsCRT@_W@ATL@@@@@ATL@@@std@@@std@@@std@@@4@$0A@@std@@@std@@IAE?AU?$pair@V?$_Tree_iterator@V?$_Tree_val@U?$_Tree_simple_types@U?$pair@$$CBV?$CStringT@_WV?$StrTraitMFC_DLL@_WV?$ChTraitsCRT@_W@ATL@@@@@ATL@@V?$vector@V?$CStringT@_WV?$StrTraitMFC_DLL@_WV?$ChTraitsCRT@_W@ATL@@@@@ATL@@V?$allocator@V?$CStringT@_WV?$StrTraitMFC_DLL@_WV?$ChTraitsCRT@_W@ATL@@@@@ATL@@@std@@@std@@@std@@@std@@@std@@@std@@_N@1@_NAAU?$pair@$$CBV?$CStringT@_WV?$StrTraitMFC_DLL@_WV?$ChTraitsCRT@_W@ATL@@@@@ATL@@V?$vector@V?$CStringT@_WV?$StrTraitMFC_DLL@_WV?$ChTraitsCRT@_W@ATL@@@@@ATL@@V?$allocator@V?$CStringT@_WV?$StrTraitMFC_DLL@_WV?$ChTraitsCRT@_W@ATL@@@@@ATL@@@std@@@std@@@1@PAU?$_Tree_node@U?$pair@$$CBV?$CStringT@_WV?$StrTraitMFC_DLL@_WV?$ChTraitsCRT@_W@ATL@@@@@ATL@@V?$vector@V?$CStringT@_WV?$StrTraitMFC_DLL@_WV?$ChTraitsCRT@_W@ATL@@@@@ATL@@V?$allocator@V?$CStringT@_WV?$StrTraitMFC_DLL@_WV?$ChTraitsCRT@_W@ATL@@@@@ATL@@@std@@@std@@@std@@PAX@1@@Z 1001ff70 f   Sqlite.obj
 0001:0001efa0       __ehhandler$??0?$vector@V?$CStringT@_WV?$StrTraitMFC_DLL@_WV?$ChTraitsCRT@_W@ATL@@@@@ATL@@V?$allocator@V?$CStringT@_WV?$StrTraitMFC_DLL@_WV?$ChTraitsCRT@_W@ATL@@@@@ATL@@@std@@@std@@QAE@ABV01@@Z 1001ffa0 f   Sqlite.obj
 0001:0001efc0       __unwindfunclet$?CreateObject@MsgThread@baro@@SGPAVCObject@@XZ$0 1001ffc0 f   MsgThread.obj
 0001:0001efca       __unwindfunclet$?CreateObject@MsgThread@baro@@SGPAVCObject@@XZ$1 1001ffca f   MsgThread.obj
 0001:0001efd3       __ehhandler$?CreateObject@MsgThread@baro@@SGPAVCObject@@XZ 1001ffd3 f   MsgThread.obj
 0001:0001eff0       __unwindfunclet$??_GMsgThread@baro@@UAEPAXI@Z$0 1001fff0 f   MsgThread.obj
 0001:0001eff9       __unwindfunclet$??_GMsgThread@baro@@UAEPAXI@Z$1 1001fff9 f   MsgThread.obj
 0001:0001f005       __ehhandler$??_GMsgThread@baro@@UAEPAXI@Z 10020005 f   MsgThread.obj
 0001:0001f020       __unwindfunclet$?WndProc@MsgProcedure@helper@baro@@CGJPAUHWND__@@IIJ@Z$2 10020020 f   MsgThread.obj
 0001:0001f029       __unwindfunclet$?WndProc@MsgProcedure@helper@baro@@CGJPAUHWND__@@IIJ@Z$1 10020029 f   MsgThread.obj
 0001:0001f031       __ehhandler$?WndProc@MsgProcedure@helper@baro@@CGJPAUHWND__@@IIJ@Z 10020031 f   MsgThread.obj
 0001:0001f060       __unwindfunclet$?CreateInstance@MsgProcedure@helper@baro@@QAE_NH@Z$2 10020060 f   MsgThread.obj
 0001:0001f069       __unwindfunclet$?CreateInstance@MsgProcedure@helper@baro@@QAE_NH@Z$1 10020069 f   MsgThread.obj
 0001:0001f071       __ehhandler$?CreateInstance@MsgProcedure@helper@baro@@QAE_NH@Z 10020071 f   MsgThread.obj
 0001:0001f0a0       __unwindfunclet$?ReleaseInstance@MsgProcedure@helper@baro@@QAEXXZ$2 100200a0 f   MsgThread.obj
 0001:0001f0a9       __unwindfunclet$?ReleaseInstance@MsgProcedure@helper@baro@@QAEXXZ$1 100200a9 f   MsgThread.obj
 0001:0001f0b1       __ehhandler$?ReleaseInstance@MsgProcedure@helper@baro@@QAEXXZ 100200b1 f   MsgThread.obj
 0001:0001f0e0       __unwindfunclet$??0Stream@baro@@QAE@XZ$0 100200e0 f   Stream.obj
 0001:0001f0e8       __ehhandler$??0Stream@baro@@QAE@XZ 100200e8 f   Stream.obj
 0001:0001f110       __unwindfunclet$??0Stream@baro@@QAE@AAVStreamHeader@1@@Z$0 10020110 f   Stream.obj
 0001:0001f118       __unwindfunclet$??0Stream@baro@@QAE@AAVStreamHeader@1@@Z$1 10020118 f   Stream.obj
 0001:0001f123       __ehhandler$??0Stream@baro@@QAE@AAVStreamHeader@1@@Z 10020123 f   Stream.obj
 0001:0001f140       __unwindfunclet$??0Stream@baro@@QAE@U_GUID@@MK@Z$0 10020140 f   Stream.obj
 0001:0001f148       __unwindfunclet$??0Stream@baro@@QAE@U_GUID@@MK@Z$1 10020148 f   Stream.obj
 0001:0001f153       __ehhandler$??0Stream@baro@@QAE@U_GUID@@MK@Z 10020153 f   Stream.obj
 0001:0001f170       __unwindfunclet$??1Stream@baro@@UAE@XZ$0 10020170 f   Stream.obj
 0001:0001f178       __ehhandler$??1Stream@baro@@UAE@XZ 10020178 f   Stream.obj
 0001:0001f1a0       __unwindfunclet$?ReadHeader@Stream@baro@@SA?AW4StreamResult@2@ABV?$CStringT@_WV?$StrTraitMFC_DLL@_WV?$ChTraitsCRT@_W@ATL@@@@@ATL@@AAVStreamHeader@2@I@Z$2 100201a0 f   Stream.obj
 0001:0001f1a8       __unwindfunclet$?ReadHeader@Stream@baro@@SA?AW4StreamResult@2@ABV?$CStringT@_WV?$StrTraitMFC_DLL@_WV?$ChTraitsCRT@_W@ATL@@@@@ATL@@AAVStreamHeader@2@I@Z$0 100201a8 f   Stream.obj
 0001:0001f1b0       __ehhandler$?ReadHeader@Stream@baro@@SA?AW4StreamResult@2@ABV?$CStringT@_WV?$StrTraitMFC_DLL@_WV?$ChTraitsCRT@_W@ATL@@@@@ATL@@AAVStreamHeader@2@I@Z 100201b0 f   Stream.obj
 0001:0001f1e0       __unwindfunclet$?ReadBody@Stream@baro@@SA?AW4StreamResult@2@ABV?$CStringT@_WV?$StrTraitMFC_DLL@_WV?$ChTraitsCRT@_W@ATL@@@@@ATL@@_NAAV?$TBuffer@E@2@I@Z$2 100201e0 f   Stream.obj
 0001:0001f1e8       __unwindfunclet$?ReadBody@Stream@baro@@SA?AW4StreamResult@2@ABV?$CStringT@_WV?$StrTraitMFC_DLL@_WV?$ChTraitsCRT@_W@ATL@@@@@ATL@@_NAAV?$TBuffer@E@2@I@Z$0 100201e8 f   Stream.obj
 0001:0001f1f0       __ehhandler$?ReadBody@Stream@baro@@SA?AW4StreamResult@2@ABV?$CStringT@_WV?$StrTraitMFC_DLL@_WV?$ChTraitsCRT@_W@ATL@@@@@ATL@@_NAAV?$TBuffer@E@2@I@Z 100201f0 f   Stream.obj
 0001:0001f220       __unwindfunclet$?Export@Stream@baro@@QAE_NAAV?$CStringT@_WV?$StrTraitMFC_DLL@_WV?$ChTraitsCRT@_W@ATL@@@@@ATL@@_N@Z$2 10020220 f   Stream.obj
 0001:0001f228       __unwindfunclet$?Export@Stream@baro@@QAE_NAAV?$CStringT@_WV?$StrTraitMFC_DLL@_WV?$ChTraitsCRT@_W@ATL@@@@@ATL@@_N@Z$0 10020228 f   Stream.obj
 0001:0001f230       __ehhandler$?Export@Stream@baro@@QAE_NAAV?$CStringT@_WV?$StrTraitMFC_DLL@_WV?$ChTraitsCRT@_W@ATL@@@@@ATL@@_N@Z 10020230 f   Stream.obj
 0001:0001f260       __unwindfunclet$?Decrypt@Stream@baro@@QAE_NABVCryptHandle@2@@Z$1 10020260 f   Stream.obj
 0001:0001f260       __unwindfunclet$?Encrypt@Stream@baro@@QAE_NABVCryptHandle@2@@Z$1 10020260 f   Stream.obj
 0001:0001f26b       __unwindfunclet$?Encrypt@Stream@baro@@QAE_NABVCryptHandle@2@@Z$0 1002026b f   Stream.obj
 0001:0001f26b       __unwindfunclet$?Decrypt@Stream@baro@@QAE_NABVCryptHandle@2@@Z$0 1002026b f   Stream.obj
 0001:0001f276       __ehhandler$?Decrypt@Stream@baro@@QAE_NABVCryptHandle@2@@Z 10020276 f   Stream.obj
 0001:0001f276       __ehhandler$?Encrypt@Stream@baro@@QAE_NABVCryptHandle@2@@Z 10020276 f   Stream.obj
 0001:0001f2b0       __unwindfunclet$?Encrypt@Stream@baro@@QAE_NV?$shared_ptr@VCryptHandle@baro@@@std@@@Z$0 100202b0 f   Stream.obj
 0001:0001f2b0       __unwindfunclet$?Decrypt@Stream@baro@@QAE_NV?$shared_ptr@VCryptHandle@baro@@@std@@@Z$0 100202b0 f   Stream.obj
 0001:0001f2b8       __ehhandler$?Decrypt@Stream@baro@@QAE_NV?$shared_ptr@VCryptHandle@baro@@@std@@@Z 100202b8 f   Stream.obj
 0001:0001f2b8       __ehhandler$?Encrypt@Stream@baro@@QAE_NV?$shared_ptr@VCryptHandle@baro@@@std@@@Z 100202b8 f   Stream.obj
 0001:0001f2e0       __unwindfunclet$?Get@Stream@baro@@ABE?AW4StreamResult@2@IAAV?$CStringT@_WV?$StrTraitMFC_DLL@_WV?$ChTraitsCRT@_W@ATL@@@@@ATL@@PAI@Z$0 100202e0 f   Stream.obj
 0001:0001f2e8       __ehhandler$?Get@Stream@baro@@ABE?AW4StreamResult@2@IAAV?$CStringT@_WV?$StrTraitMFC_DLL@_WV?$ChTraitsCRT@_W@ATL@@@@@ATL@@PAI@Z 100202e8 f   Stream.obj
 0001:0001f310       __unwindfunclet$?MakeBuffer@Stream@baro@@SA?AV?$TBuffer@E@2@V?$CStringT@_WV?$StrTraitMFC_DLL@_WV?$ChTraitsCRT@_W@ATL@@@@@ATL@@@Z$0 10020310 f   Stream.obj
 0001:0001f319       __unwindfunclet$?MakeBuffer@Stream@baro@@SA?AV?$TBuffer@E@2@V?$CStringT@_WV?$StrTraitMFC_DLL@_WV?$ChTraitsCRT@_W@ATL@@@@@ATL@@@Z$1 10020319 f   Stream.obj
 0001:0001f332       __ehhandler$?MakeBuffer@Stream@baro@@SA?AV?$TBuffer@E@2@V?$CStringT@_WV?$StrTraitMFC_DLL@_WV?$ChTraitsCRT@_W@ATL@@@@@ATL@@@Z 10020332 f   Stream.obj
 0001:0001f350       __unwindfunclet$??0AutoLock@baro@@QAE@AAVCriticalSection@1@V?$CStringT@_WV?$StrTraitMFC_DLL@_WV?$ChTraitsCRT@_W@ATL@@@@@ATL@@@Z$0 10020350 f   AutoLock.obj
 0001:0001f350       __unwindfunclet$??0AutoLock@baro@@QAE@AAU_RTL_CRITICAL_SECTION@@V?$CStringT@_WV?$StrTraitMFC_DLL@_WV?$ChTraitsCRT@_W@ATL@@@@@ATL@@@Z$0 10020350 f   AutoLock.obj
 0001:0001f350       __unwindfunclet$?GetClassNameW@logger@baro@@YA?AV?$CStringT@_WV?$StrTraitMFC_DLL@_WV?$ChTraitsCRT@_W@ATL@@@@@ATL@@V34@@Z$0 10020350 f   Logger.obj
 0001:0001f359       __ehhandler$??0AutoLock@baro@@QAE@AAVCriticalSection@1@V?$CStringT@_WV?$StrTraitMFC_DLL@_WV?$ChTraitsCRT@_W@ATL@@@@@ATL@@@Z 10020359 f   AutoLock.obj
 0001:0001f359       __ehhandler$??0AutoLock@baro@@QAE@AAU_RTL_CRITICAL_SECTION@@V?$CStringT@_WV?$StrTraitMFC_DLL@_WV?$ChTraitsCRT@_W@ATL@@@@@ATL@@@Z 10020359 f   AutoLock.obj
 0001:0001f359       __ehhandler$?GetClassNameW@logger@baro@@YA?AV?$CStringT@_WV?$StrTraitMFC_DLL@_WV?$ChTraitsCRT@_W@ATL@@@@@ATL@@V34@@Z 10020359 f   Logger.obj
 0001:0001f380       __unwindfunclet$?Initialize@AutoLock@baro@@AAEXV?$CStringT@_WV?$StrTraitMFC_DLL@_WV?$ChTraitsCRT@_W@ATL@@@@@ATL@@@Z$0 10020380 f   AutoLock.obj
 0001:0001f389       __ehhandler$?Initialize@AutoLock@baro@@AAEXV?$CStringT@_WV?$StrTraitMFC_DLL@_WV?$ChTraitsCRT@_W@ATL@@@@@ATL@@@Z 10020389 f   AutoLock.obj
 0001:0001f3b0       __unwindfunclet$?Trace@logger@baro@@YAXW4TextColor@2@PB_WJ11ZZ$0 100203b0 f   Logger.obj
 0001:0001f3b9       __unwindfunclet$?Trace@logger@baro@@YAXW4TextColor@2@PB_WJ11ZZ$1 100203b9 f   Logger.obj
 0001:0001f3c2       __unwindfunclet$?Trace@logger@baro@@YAXW4TextColor@2@PB_WJ11ZZ$2 100203c2 f   Logger.obj
 0001:0001f3cb       __unwindfunclet$?Trace@logger@baro@@YAXW4TextColor@2@PB_WJ11ZZ$3 100203cb f   Logger.obj
 0001:0001f3d4       __unwindfunclet$?Trace@logger@baro@@YAXW4TextColor@2@PB_WJ11ZZ$4 100203d4 f   Logger.obj
 0001:0001f3dd       __ehhandler$?Trace@logger@baro@@YAXW4TextColor@2@PB_WJ11ZZ 100203dd f   Logger.obj
 0001:0001f410       __unwindfunclet$?GetConstructIter@@YA?AV?$_Tree_iterator@V?$_Tree_val@U?$_Tree_simple_types@U?$pair@$$CBV?$CStringT@_WV?$StrTraitMFC_DLL@_WV?$ChTraitsCRT@_W@ATL@@@@@ATL@@U?$pair@II@std@@@std@@@std@@@std@@@std@@V?$CStringT@_WV?$StrTraitMFC_DLL@_WV?$ChTraitsCRT@_W@ATL@@@@@ATL@@@Z$0 10020410 f   Logger.obj
 0001:0001f419       __unwindfunclet$?GetConstructIter@@YA?AV?$_Tree_iterator@V?$_Tree_val@U?$_Tree_simple_types@U?$pair@$$CBV?$CStringT@_WV?$StrTraitMFC_DLL@_WV?$ChTraitsCRT@_W@ATL@@@@@ATL@@U?$pair@II@std@@@std@@@std@@@std@@@std@@V?$CStringT@_WV?$StrTraitMFC_DLL@_WV?$ChTraitsCRT@_W@ATL@@@@@ATL@@@Z$1 10020419 f   Logger.obj
 0001:0001f422       __unwindfunclet$?GetConstructIter@@YA?AV?$_Tree_iterator@V?$_Tree_val@U?$_Tree_simple_types@U?$pair@$$CBV?$CStringT@_WV?$StrTraitMFC_DLL@_WV?$ChTraitsCRT@_W@ATL@@@@@ATL@@U?$pair@II@std@@@std@@@std@@@std@@@std@@V?$CStringT@_WV?$StrTraitMFC_DLL@_WV?$ChTraitsCRT@_W@ATL@@@@@ATL@@@Z$2 10020422 f   Logger.obj
 0001:0001f42a       __ehhandler$?GetConstructIter@@YA?AV?$_Tree_iterator@V?$_Tree_val@U?$_Tree_simple_types@U?$pair@$$CBV?$CStringT@_WV?$StrTraitMFC_DLL@_WV?$ChTraitsCRT@_W@ATL@@@@@ATL@@U?$pair@II@std@@@std@@@std@@@std@@@std@@V?$CStringT@_WV?$StrTraitMFC_DLL@_WV?$ChTraitsCRT@_W@ATL@@@@@ATL@@@Z 1002042a f   Logger.obj
 0001:0001f450       __unwindfunclet$?TraceBuffer@logger@baro@@YAXW4TextColor@2@PBEI@Z$0 10020450 f   Logger.obj
 0001:0001f450       __unwindfunclet$?PrintHexByte@?$TBuffer@E@baro@@QBEXW4TextColor@2@I@Z$0 10020450 f   stdafx.obj
 0001:0001f459       __unwindfunclet$?PrintHexByte@?$TBuffer@E@baro@@QBEXW4TextColor@2@I@Z$1 10020459 f   stdafx.obj
 0001:0001f459       __unwindfunclet$?TraceBuffer@logger@baro@@YAXW4TextColor@2@PBEI@Z$1 10020459 f   Logger.obj
 0001:0001f462       __unwindfunclet$?PrintHexByte@?$TBuffer@E@baro@@QBEXW4TextColor@2@I@Z$2 10020462 f   stdafx.obj
 0001:0001f462       __unwindfunclet$?TraceBuffer@logger@baro@@YAXW4TextColor@2@PBEI@Z$2 10020462 f   Logger.obj
 0001:0001f46b       __ehhandler$?PrintHexByte@?$TBuffer@E@baro@@QBEXW4TextColor@2@I@Z 1002046b f   stdafx.obj
 0001:0001f46b       __ehhandler$?TraceBuffer@logger@baro@@YAXW4TextColor@2@PBEI@Z 1002046b f   Logger.obj
 0001:0001f490       __unwindfunclet$?Begin@logger@baro@@YAX_N00@Z$0 10020490 f   Logger.obj
 0001:0001f49c       __unwindfunclet$?Begin@logger@baro@@YAX_N00@Z$1 1002049c f   Logger.obj
 0001:0001f4a8       __unwindfunclet$?Begin@logger@baro@@YAX_N00@Z$2 100204a8 f   Logger.obj
 0001:0001f4b4       __unwindfunclet$?Begin@logger@baro@@YAX_N00@Z$3 100204b4 f   Logger.obj
 0001:0001f4c0       __unwindfunclet$?Begin@logger@baro@@YAX_N00@Z$4 100204c0 f   Logger.obj
 0001:0001f4c8       __ehhandler$?Begin@logger@baro@@YAX_N00@Z 100204c8 f   Logger.obj
 0001:0001f500       __unwindfunclet$?End@logger@baro@@YAXXZ$0 10020500 f   Logger.obj
 0001:0001f509       __unwindfunclet$?End@logger@baro@@YAXXZ$1 10020509 f   Logger.obj
 0001:0001f512       __ehhandler$?End@logger@baro@@YAXXZ 10020512 f   Logger.obj
 0001:0001f540       __unwindfunclet$??$_Buynode@U?$pair@V?$CStringT@_WV?$StrTraitMFC_DLL@_WV?$ChTraitsCRT@_W@ATL@@@@@ATL@@U?$pair@HH@std@@@std@@@?$_Tree_buy@U?$pair@$$CBV?$CStringT@_WV?$StrTraitMFC_DLL@_WV?$ChTraitsCRT@_W@ATL@@@@@ATL@@U?$pair@II@std@@@std@@V?$allocator@U?$pair@$$CBV?$CStringT@_WV?$StrTraitMFC_DLL@_WV?$ChTraitsCRT@_W@ATL@@@@@ATL@@U?$pair@II@std@@@std@@@2@@std@@QAEPAU?$_Tree_node@U?$pair@$$CBV?$CStringT@_WV?$StrTraitMFC_DLL@_WV?$ChTraitsCRT@_W@ATL@@@@@ATL@@U?$pair@II@std@@@std@@PAX@1@$$QAU?$pair@V?$CStringT@_WV?$StrTraitMFC_DLL@_WV?$ChTraitsCRT@_W@ATL@@@@@ATL@@U?$pair@HH@std@@@1@@Z$2 10020540 f   Logger.obj
 0001:0001f545       __ehhandler$??$_Buynode@U?$pair@V?$CStringT@_WV?$StrTraitMFC_DLL@_WV?$ChTraitsCRT@_W@ATL@@@@@ATL@@U?$pair@HH@std@@@std@@@?$_Tree_buy@U?$pair@$$CBV?$CStringT@_WV?$StrTraitMFC_DLL@_WV?$ChTraitsCRT@_W@ATL@@@@@ATL@@U?$pair@II@std@@@std@@V?$allocator@U?$pair@$$CBV?$CStringT@_WV?$StrTraitMFC_DLL@_WV?$ChTraitsCRT@_W@ATL@@@@@ATL@@U?$pair@II@std@@@std@@@2@@std@@QAEPAU?$_Tree_node@U?$pair@$$CBV?$CStringT@_WV?$StrTraitMFC_DLL@_WV?$ChTraitsCRT@_W@ATL@@@@@ATL@@U?$pair@II@std@@@std@@PAX@1@$$QAU?$pair@V?$CStringT@_WV?$StrTraitMFC_DLL@_WV?$ChTraitsCRT@_W@ATL@@@@@ATL@@U?$pair@HH@std@@@1@@Z 10020545 f   Logger.obj
 0001:0001f560       __ehhandler$??$_Insert_nohint@AAU?$pair@$$CBV?$CStringT@_WV?$StrTraitMFC_DLL@_WV?$ChTraitsCRT@_W@ATL@@@@@ATL@@U?$pair@II@std@@@std@@PAU?$_Tree_node@U?$pair@$$CBV?$CStringT@_WV?$StrTraitMFC_DLL@_WV?$ChTraitsCRT@_W@ATL@@@@@ATL@@U?$pair@II@std@@@std@@PAX@2@@?$_Tree@V?$_Tmap_traits@V?$CStringT@_WV?$StrTraitMFC_DLL@_WV?$ChTraitsCRT@_W@ATL@@@@@ATL@@U?$pair@II@std@@U?$less@V?$CStringT@_WV?$StrTraitMFC_DLL@_WV?$ChTraitsCRT@_W@ATL@@@@@ATL@@@4@V?$allocator@U?$pair@$$CBV?$CStringT@_WV?$StrTraitMFC_DLL@_WV?$ChTraitsCRT@_W@ATL@@@@@ATL@@U?$pair@II@std@@@std@@@4@$0A@@std@@@std@@IAE?AU?$pair@V?$_Tree_iterator@V?$_Tree_val@U?$_Tree_simple_types@U?$pair@$$CBV?$CStringT@_WV?$StrTraitMFC_DLL@_WV?$ChTraitsCRT@_W@ATL@@@@@ATL@@U?$pair@II@std@@@std@@@std@@@std@@@std@@_N@1@_NAAU?$pair@$$CBV?$CStringT@_WV?$StrTraitMFC_DLL@_WV?$ChTraitsCRT@_W@ATL@@@@@ATL@@U?$pair@II@std@@@1@PAU?$_Tree_node@U?$pair@$$CBV?$CStringT@_WV?$StrTraitMFC_DLL@_WV?$ChTraitsCRT@_W@ATL@@@@@ATL@@U?$pair@II@std@@@std@@PAX@1@@Z 10020560 f   Logger.obj
 0001:0001f590       __unwindfunclet$??0BitmapDC@baro@@QAE@PAVCDC@@PAUHBITMAP__@@@Z$0 10020590 f   BitmapDC.obj
 0001:0001f590       __unwindfunclet$??0BitmapDC@baro@@QAE@PAVCDC@@II@Z$0 10020590 f   BitmapDC.obj
 0001:0001f598       __unwindfunclet$??0BitmapDC@baro@@QAE@PAVCDC@@II@Z$1 10020598 f   BitmapDC.obj
 0001:0001f598       __unwindfunclet$??0BitmapDC@baro@@QAE@PAVCDC@@PAUHBITMAP__@@@Z$1 10020598 f   BitmapDC.obj
 0001:0001f5a4       __unwindfunclet$??0BitmapDC@baro@@QAE@PAVCDC@@II@Z$2 100205a4 f   BitmapDC.obj
 0001:0001f5a4       __unwindfunclet$??0BitmapDC@baro@@QAE@PAVCDC@@PAUHBITMAP__@@@Z$2 100205a4 f   BitmapDC.obj
 0001:0001f5b0       __unwindfunclet$??0BitmapDC@baro@@QAE@PAVCDC@@PAUHBITMAP__@@@Z$3 100205b0 f   BitmapDC.obj
 0001:0001f5b0       __unwindfunclet$??0BitmapDC@baro@@QAE@PAVCDC@@II@Z$3 100205b0 f   BitmapDC.obj
 0001:0001f5bb       __ehhandler$??0BitmapDC@baro@@QAE@PAVCDC@@PAUHBITMAP__@@@Z 100205bb f   BitmapDC.obj
 0001:0001f5bb       __ehhandler$??0BitmapDC@baro@@QAE@PAVCDC@@II@Z 100205bb f   BitmapDC.obj
 0001:0001f5e0       __unwindfunclet$??0BitmapDC@baro@@QAE@PAVCWnd@@PAUHBITMAP__@@@Z$0 100205e0 f   BitmapDC.obj
 0001:0001f5e8       __unwindfunclet$??0BitmapDC@baro@@QAE@PAVCWnd@@PAUHBITMAP__@@@Z$1 100205e8 f   BitmapDC.obj
 0001:0001f5f4       __unwindfunclet$??0BitmapDC@baro@@QAE@PAVCWnd@@PAUHBITMAP__@@@Z$2 100205f4 f   BitmapDC.obj
 0001:0001f600       __unwindfunclet$??0BitmapDC@baro@@QAE@PAVCWnd@@PAUHBITMAP__@@@Z$3 10020600 f   BitmapDC.obj
 0001:0001f60b       __unwindfunclet$??0BitmapDC@baro@@QAE@PAVCWnd@@PAUHBITMAP__@@@Z$4 1002060b f   BitmapDC.obj
 0001:0001f614       __ehhandler$??0BitmapDC@baro@@QAE@PAVCWnd@@PAUHBITMAP__@@@Z 10020614 f   BitmapDC.obj
 0001:0001f640       __unwindfunclet$??0BitmapDC@baro@@QAE@PAVCWnd@@II@Z$0 10020640 f   BitmapDC.obj
 0001:0001f648       __unwindfunclet$??0BitmapDC@baro@@QAE@PAVCWnd@@II@Z$1 10020648 f   BitmapDC.obj
 0001:0001f654       __unwindfunclet$??0BitmapDC@baro@@QAE@PAVCWnd@@II@Z$2 10020654 f   BitmapDC.obj
 0001:0001f660       __unwindfunclet$??0BitmapDC@baro@@QAE@PAVCWnd@@II@Z$3 10020660 f   BitmapDC.obj
 0001:0001f66b       __unwindfunclet$??0BitmapDC@baro@@QAE@PAVCWnd@@II@Z$4 1002066b f   BitmapDC.obj
 0001:0001f674       __ehhandler$??0BitmapDC@baro@@QAE@PAVCWnd@@II@Z 10020674 f   BitmapDC.obj
 0001:0001f6a0       __unwindfunclet$??1BitmapDC@baro@@UAE@XZ$0 100206a0 f   BitmapDC.obj
 0001:0001f6a8       __unwindfunclet$??1BitmapDC@baro@@UAE@XZ$1 100206a8 f   BitmapDC.obj
 0001:0001f6b4       __unwindfunclet$??1BitmapDC@baro@@UAE@XZ$2 100206b4 f   BitmapDC.obj
 0001:0001f6c0       __unwindfunclet$??1BitmapDC@baro@@UAE@XZ$3 100206c0 f   BitmapDC.obj
 0001:0001f6cb       __ehhandler$??1BitmapDC@baro@@UAE@XZ 100206cb f   BitmapDC.obj
 0001:0001f6f0       __unwindfunclet$?Draw@BitmapDC@baro@@QAEHV12@K@Z$1 100206f0 f   BitmapDC.obj
 0001:0001f6f8       __unwindfunclet$?Draw@BitmapDC@baro@@QAEHV12@K@Z$2 100206f8 f   BitmapDC.obj
 0001:0001f701       __unwindfunclet$?Draw@BitmapDC@baro@@QAEHV12@K@Z$3 10020701 f   BitmapDC.obj
 0001:0001f70a       __unwindfunclet$?Draw@BitmapDC@baro@@QAEHV12@K@Z$4 1002070a f   BitmapDC.obj
 0001:0001f712       __ehhandler$?Draw@BitmapDC@baro@@QAEHV12@K@Z 10020712 f   BitmapDC.obj
 0001:0001f730       __unwindfunclet$??0CustomGraph@baro@@QAE@I@Z$0 10020730 f   CustomGraph.obj
 0001:0001f738       __unwindfunclet$??0CustomGraph@baro@@QAE@I@Z$1 10020738 f   CustomGraph.obj
 0001:0001f743       __unwindfunclet$??0CustomGraph@baro@@QAE@I@Z$2 10020743 f   CustomGraph.obj
 0001:0001f74f       __unwindfunclet$??0CustomGraph@baro@@QAE@I@Z$3 1002074f f   CustomGraph.obj
 0001:0001f75a       __unwindfunclet$??0CustomGraph@baro@@QAE@I@Z$4 1002075a f   CustomGraph.obj
 0001:0001f762       __ehhandler$??0CustomGraph@baro@@QAE@I@Z 10020762 f   CustomGraph.obj
 0001:0001f780       __unwindfunclet$??1CustomGraph@baro@@UAE@XZ$0 10020780 f   CustomGraph.obj
 0001:0001f788       __unwindfunclet$??1CustomGraph@baro@@UAE@XZ$1 10020788 f   CustomGraph.obj
 0001:0001f793       __unwindfunclet$??1CustomGraph@baro@@UAE@XZ$2 10020793 f   CustomGraph.obj
 0001:0001f79f       __unwindfunclet$??1CustomGraph@baro@@UAE@XZ$3 1002079f f   CustomGraph.obj
 0001:0001f7aa       __ehhandler$??1CustomGraph@baro@@UAE@XZ 100207aa f   CustomGraph.obj
 0001:0001f7d0       __unwindfunclet$?Initialize@CustomGraph@baro@@IAEXHHVCRect@@VCPoint@@1VCSize@@2W4CustomGraphLabel@12@3PAVCFont@@4_N5@Z$0 100207d0 f   CustomGraph.obj
 0001:0001f7d9       __unwindfunclet$?Initialize@CustomGraph@baro@@IAEXHHVCRect@@VCPoint@@1VCSize@@2W4CustomGraphLabel@12@3PAVCFont@@4_N5@Z$1 100207d9 f   CustomGraph.obj
 0001:0001f7e1       __unwindfunclet$?Initialize@CustomGraph@baro@@IAEXHHVCRect@@VCPoint@@1VCSize@@2W4CustomGraphLabel@12@3PAVCFont@@4_N5@Z$2 100207e1 f   CustomGraph.obj
 0001:0001f7f4       __unwindfunclet$?Initialize@CustomGraph@baro@@IAEXHHVCRect@@VCPoint@@1VCSize@@2W4CustomGraphLabel@12@3PAVCFont@@4_N5@Z$3 100207f4 f   CustomGraph.obj
 0001:0001f7fc       __ehhandler$?Initialize@CustomGraph@baro@@IAEXHHVCRect@@VCPoint@@1VCSize@@2W4CustomGraphLabel@12@3PAVCFont@@4_N5@Z 100207fc f   CustomGraph.obj
 0001:0001f830       __unwindfunclet$?OnDrawLabelX@CustomGraph@baro@@MAEXIAAVCDC@@MMM@Z$0 10020830 f   CustomGraph.obj
 0001:0001f830       __unwindfunclet$?OnDrawLabelY@CustomGraph@baro@@MAEXIAAVCDC@@MMM@Z$0 10020830 f   CustomGraph.obj
 0001:0001f839       __unwindfunclet$?OnDrawLabelY@CustomGraph@baro@@MAEXIAAVCDC@@MMM@Z$1 10020839 f   CustomGraph.obj
 0001:0001f839       __unwindfunclet$?OnDrawLabelX@CustomGraph@baro@@MAEXIAAVCDC@@MMM@Z$1 10020839 f   CustomGraph.obj
 0001:0001f842       __ehhandler$?OnDrawLabelX@CustomGraph@baro@@MAEXIAAVCDC@@MMM@Z 10020842 f   CustomGraph.obj
 0001:0001f842       __ehhandler$?OnDrawLabelY@CustomGraph@baro@@MAEXIAAVCDC@@MMM@Z 10020842 f   CustomGraph.obj
 0001:0001f860       __unwindfunclet$?DrawImage@CustomGraph@baro@@AAEXPAVBitmap@Gdiplus@@IKV?$function@$$A6AXAAVGraphics@Gdiplus@@AAVCDC@@IK@Z@std@@@Z$0 10020860 f   CustomGraph.obj
 0001:0001f868       __unwindfunclet$?DrawImage@CustomGraph@baro@@AAEXPAVBitmap@Gdiplus@@IKV?$function@$$A6AXAAVGraphics@Gdiplus@@AAVCDC@@IK@Z@std@@@Z$1 10020868 f   CustomGraph.obj
 0001:0001f870       __unwindfunclet$?DrawImage@CustomGraph@baro@@AAEXPAVBitmap@Gdiplus@@IKV?$function@$$A6AXAAVGraphics@Gdiplus@@AAVCDC@@IK@Z@std@@@Z$2 10020870 f   CustomGraph.obj
 0001:0001f878       __ehhandler$?DrawImage@CustomGraph@baro@@AAEXPAVBitmap@Gdiplus@@IKV?$function@$$A6AXAAVGraphics@Gdiplus@@AAVCDC@@IK@Z@std@@@Z 10020878 f   CustomGraph.obj
 0001:0001f8a0       __unwindfunclet$?DrawCache@CustomGraph@baro@@QAEXPAVCDC@@0HHW4CustomGraphResource@12@HK@Z$0 100208a0 f   CustomGraph.obj
 0001:0001f8a8       __ehhandler$?DrawCache@CustomGraph@baro@@QAEXPAVCDC@@0HHW4CustomGraphResource@12@HK@Z 100208a8 f   CustomGraph.obj
 0001:0001f8d0       __unwindfunclet$?SaveCache@CustomGraph@baro@@QAENV?$CStringT@_WV?$StrTraitMFC_DLL@_WV?$ChTraitsCRT@_W@ATL@@@@@ATL@@W4CustomGraphResource@12@PB_W@Z$0 100208d0 f   CustomGraph.obj
 0001:0001f8d9       __unwindfunclet$?SaveCache@CustomGraph@baro@@QAENV?$CStringT@_WV?$StrTraitMFC_DLL@_WV?$ChTraitsCRT@_W@ATL@@@@@ATL@@W4CustomGraphResource@12@PB_W@Z$3 100208d9 f   CustomGraph.obj
 0001:0001f8e1       __ehhandler$?SaveCache@CustomGraph@baro@@QAENV?$CStringT@_WV?$StrTraitMFC_DLL@_WV?$ChTraitsCRT@_W@ATL@@@@@ATL@@W4CustomGraphResource@12@PB_W@Z 100208e1 f   CustomGraph.obj
 0001:0001f910       __unwindfunclet$?PixelToGraphIndexX@CustomGraph@baro@@QBEHIH@Z$2 10020910 f   CustomGraph.obj
 0001:0001f918       __ehhandler$?PixelToGraphIndexX@CustomGraph@baro@@QBEHIH@Z 10020918 f   CustomGraph.obj
 0001:0001f940       __unwindfunclet$?PixelToGraphIndexY@CustomGraph@baro@@QBEHIH@Z$5 10020940 f   CustomGraph.obj
 0001:0001f948       __ehhandler$?PixelToGraphIndexY@CustomGraph@baro@@QBEHIH@Z 10020948 f   CustomGraph.obj
 0001:0001f970       __unwindfunclet$??$make_shared@VPointCoord@baro@@$$$V@std@@YA?AV?$shared_ptr@VPointCoord@baro@@@0@XZ$0 10020970 f   CustomGraph.obj
 0001:0001f97c       __unwindfunclet$??$make_shared@VPointCoord@baro@@$$$V@std@@YA?AV?$shared_ptr@VPointCoord@baro@@@0@XZ$2 1002097c f   CustomGraph.obj
 0001:0001f984       __unwindfunclet$??$make_shared@VPointCoord@baro@@$$$V@std@@YA?AV?$shared_ptr@VPointCoord@baro@@@0@XZ$3 10020984 f   CustomGraph.obj
 0001:0001f989       __unwindfunclet$??$make_shared@VPointCoord@baro@@$$$V@std@@YA?AV?$shared_ptr@VPointCoord@baro@@@0@XZ$1 10020989 f   CustomGraph.obj
 0001:0001f9a2       __ehhandler$??$make_shared@VPointCoord@baro@@$$$V@std@@YA?AV?$shared_ptr@VPointCoord@baro@@@0@XZ 100209a2 f   CustomGraph.obj
 0001:0001f9c0       __unwindfunclet$??$?0V?$_Bind@$00XU?$_Pmf_wrap@P8CustomGraph@baro@@AEXAAVGraphics@Gdiplus@@AAVCDC@@IK@ZXV12@AAV34@AAV5@IK@std@@QAVCustomGraph@baro@@AAV?$_Ph@$00@2@AAV?$_Ph@$01@2@AAV?$_Ph@$02@2@AAV?$_Ph@$03@2@@std@@@?$function@$$A6AXAAVGraphics@Gdiplus@@AAVCDC@@IK@Z@std@@QAE@$$QAV?$_Bind@$00XU?$_Pmf_wrap@P8CustomGraph@baro@@AEXAAVGraphics@Gdiplus@@AAVCDC@@IK@ZXV12@AAV34@AAV5@IK@std@@QAVCustomGraph@baro@@AAV?$_Ph@$00@2@AAV?$_Ph@$01@2@AAV?$_Ph@$02@2@AAV?$_Ph@$03@2@@1@@Z$0 100209c0 f   CustomGraph.obj
 0001:0001f9c8       __ehhandler$??$?0V?$_Bind@$00XU?$_Pmf_wrap@P8CustomGraph@baro@@AEXAAVGraphics@Gdiplus@@AAVCDC@@IK@ZXV12@AAV34@AAV5@IK@std@@QAVCustomGraph@baro@@AAV?$_Ph@$00@2@AAV?$_Ph@$01@2@AAV?$_Ph@$02@2@AAV?$_Ph@$03@2@@std@@@?$function@$$A6AXAAVGraphics@Gdiplus@@AAVCDC@@IK@Z@std@@QAE@$$QAV?$_Bind@$00XU?$_Pmf_wrap@P8CustomGraph@baro@@AEXAAVGraphics@Gdiplus@@AAVCDC@@IK@ZXV12@AAV34@AAV5@IK@std@@QAVCustomGraph@baro@@AAV?$_Ph@$00@2@AAV?$_Ph@$01@2@AAV?$_Ph@$02@2@AAV?$_Ph@$03@2@@1@@Z 100209c8 f   CustomGraph.obj
 0001:0001f9f0       __ehhandler$??$_Insert_nohint@AAU?$pair@$$CBHVColor@Gdiplus@@@std@@PAU?$_Tree_node@U?$pair@$$CBHVColor@Gdiplus@@@std@@PAX@2@@?$_Tree@V?$_Tmap_traits@HVColor@Gdiplus@@U?$less@H@std@@V?$allocator@U?$pair@$$CBHVColor@Gdiplus@@@std@@@4@$0A@@std@@@std@@IAE?AU?$pair@V?$_Tree_iterator@V?$_Tree_val@U?$_Tree_simple_types@U?$pair@$$CBHVColor@Gdiplus@@@std@@@std@@@std@@@std@@_N@1@_NAAU?$pair@$$CBHVColor@Gdiplus@@@1@PAU?$_Tree_node@U?$pair@$$CBHVColor@Gdiplus@@@std@@PAX@1@@Z 100209f0 f   GradientRect.obj
 0001:0001fa20       __unwindfunclet$??0PointCoord@baro@@QAE@XZ$0 10020a20 f   PointCoord.obj
 0001:0001fa28       __unwindfunclet$??0PointCoord@baro@@QAE@XZ$1 10020a28 f   PointCoord.obj
 0001:0001fa33       __unwindfunclet$??0PointCoord@baro@@QAE@XZ$2 10020a33 f   PointCoord.obj
 0001:0001fa3e       __unwindfunclet$??0PointCoord@baro@@QAE@XZ$3 10020a3e f   PointCoord.obj
 0001:0001fa49       __ehhandler$??0PointCoord@baro@@QAE@XZ 10020a49 f   PointCoord.obj
 0001:0001fa70       __unwindfunclet$?Initialize@PointCoord@baro@@QAEXHHMMMM@Z$0 10020a70 f   PointCoord.obj
 0001:0001fa78       __ehhandler$?Initialize@PointCoord@baro@@QAEXHHMMMM@Z 10020a78 f   PointCoord.obj
 0001:0001faa0       __unwindfunclet$?GetNearIndexFromRatio@PointCoord@baro@@QBEH_NM@Z$2 10020aa0 f   PointCoord.obj
 0001:0001faa8       __unwindfunclet$?GetNearIndexFromRatio@PointCoord@baro@@QBEH_NM@Z$5 10020aa8 f   PointCoord.obj
 0001:0001fab0       __ehhandler$?GetNearIndexFromRatio@PointCoord@baro@@QBEH_NM@Z 10020ab0 f   PointCoord.obj
 0001:0001fae0       __unwindfunclet$??R<lambda_d2a4eee18dbdfef9f6a39e7e07b061ab>@@QBEHIMV?$function@$$A6AMI@Z@std@@@Z$0 10020ae0 f   PointCoord.obj
 0001:0001fae8       __ehhandler$??R<lambda_d2a4eee18dbdfef9f6a39e7e07b061ab>@@QBEHIMV?$function@$$A6AMI@Z@std@@@Z 10020ae8 f   PointCoord.obj
 0001:0001fb10       __unwindfunclet$??0MonitorInfo@baro@@QAE@ABV01@@Z$0 10020b10 f   MonitorInfo.obj
 0001:0001fb18       __unwindfunclet$??0MonitorInfo@baro@@QAE@ABV01@@Z$1 10020b18 f   MonitorInfo.obj
 0001:0001fb23       __ehhandler$??0MonitorInfo@baro@@QAE@ABV01@@Z 10020b23 f   MonitorInfo.obj
 0001:0001fb40       __unwindfunclet$?Reset@MonitorInfo@baro@@QAEXPAUtagRECT@@@Z$0 10020b40 f   MonitorInfo.obj
 0001:0001fb48       __ehhandler$?Reset@MonitorInfo@baro@@QAEXPAUtagRECT@@@Z 10020b48 f   MonitorInfo.obj
 0001:0001fb70       __unwindfunclet$??0SystemInfo@baro@@QAE@U_token@?$TSingleton@$$CBVSystemInfo@baro@@@1@@Z$0 10020b70 f   SystemInfo.obj
 0001:0001fb7b       __unwindfunclet$??0SystemInfo@baro@@QAE@U_token@?$TSingleton@$$CBVSystemInfo@baro@@@1@@Z$1 10020b7b f   SystemInfo.obj
 0001:0001fb8a       __unwindfunclet$??0SystemInfo@baro@@QAE@U_token@?$TSingleton@$$CBVSystemInfo@baro@@@1@@Z$2 10020b8a f   SystemInfo.obj
 0001:0001fb99       __unwindfunclet$??0SystemInfo@baro@@QAE@U_token@?$TSingleton@$$CBVSystemInfo@baro@@@1@@Z$3 10020b99 f   SystemInfo.obj
 0001:0001fba8       __unwindfunclet$??0SystemInfo@baro@@QAE@U_token@?$TSingleton@$$CBVSystemInfo@baro@@@1@@Z$4 10020ba8 f   SystemInfo.obj
 0001:0001fbb7       __unwindfunclet$??0SystemInfo@baro@@QAE@U_token@?$TSingleton@$$CBVSystemInfo@baro@@@1@@Z$5 10020bb7 f   SystemInfo.obj
 0001:0001fbc6       __unwindfunclet$??0SystemInfo@baro@@QAE@U_token@?$TSingleton@$$CBVSystemInfo@baro@@@1@@Z$6 10020bc6 f   SystemInfo.obj
 0001:0001fbd5       __unwindfunclet$??0SystemInfo@baro@@QAE@U_token@?$TSingleton@$$CBVSystemInfo@baro@@@1@@Z$7 10020bd5 f   SystemInfo.obj
 0001:0001fbe7       __unwindfunclet$??0SystemInfo@baro@@QAE@U_token@?$TSingleton@$$CBVSystemInfo@baro@@@1@@Z$8 10020be7 f   SystemInfo.obj
 0001:0001fbf9       __unwindfunclet$??0SystemInfo@baro@@QAE@U_token@?$TSingleton@$$CBVSystemInfo@baro@@@1@@Z$9 10020bf9 f   SystemInfo.obj
 0001:0001fc0b       __unwindfunclet$??0SystemInfo@baro@@QAE@U_token@?$TSingleton@$$CBVSystemInfo@baro@@@1@@Z$10 10020c0b f   SystemInfo.obj
 0001:0001fc1d       __unwindfunclet$??0SystemInfo@baro@@QAE@U_token@?$TSingleton@$$CBVSystemInfo@baro@@@1@@Z$11 10020c1d f   SystemInfo.obj
 0001:0001fc2f       __unwindfunclet$??0SystemInfo@baro@@QAE@U_token@?$TSingleton@$$CBVSystemInfo@baro@@@1@@Z$12 10020c2f f   SystemInfo.obj
 0001:0001fc41       __unwindfunclet$??0SystemInfo@baro@@QAE@U_token@?$TSingleton@$$CBVSystemInfo@baro@@@1@@Z$13 10020c41 f   SystemInfo.obj
 0001:0001fc53       __unwindfunclet$??0SystemInfo@baro@@QAE@U_token@?$TSingleton@$$CBVSystemInfo@baro@@@1@@Z$15 10020c53 f   SystemInfo.obj
 0001:0001fc5f       __unwindfunclet$??0SystemInfo@baro@@QAE@U_token@?$TSingleton@$$CBVSystemInfo@baro@@@1@@Z$16 10020c5f f   SystemInfo.obj
 0001:0001fc6b       __unwindfunclet$??0SystemInfo@baro@@QAE@U_token@?$TSingleton@$$CBVSystemInfo@baro@@@1@@Z$18 10020c6b f   SystemInfo.obj
 0001:0001fc77       __unwindfunclet$??0SystemInfo@baro@@QAE@U_token@?$TSingleton@$$CBVSystemInfo@baro@@@1@@Z$20 10020c77 f   SystemInfo.obj
 0001:0001fc80       __unwindfunclet$??0SystemInfo@baro@@QAE@U_token@?$TSingleton@$$CBVSystemInfo@baro@@@1@@Z$21 10020c80 f   SystemInfo.obj
 0001:0001fc8c       __unwindfunclet$??0SystemInfo@baro@@QAE@U_token@?$TSingleton@$$CBVSystemInfo@baro@@@1@@Z$22 10020c8c f   SystemInfo.obj
 0001:0001fc94       __unwindfunclet$??0SystemInfo@baro@@QAE@U_token@?$TSingleton@$$CBVSystemInfo@baro@@@1@@Z$23 10020c94 f   SystemInfo.obj
 0001:0001fc9c       __unwindfunclet$??0SystemInfo@baro@@QAE@U_token@?$TSingleton@$$CBVSystemInfo@baro@@@1@@Z$24 10020c9c f   SystemInfo.obj
 0001:0001fca4       __unwindfunclet$??0SystemInfo@baro@@QAE@U_token@?$TSingleton@$$CBVSystemInfo@baro@@@1@@Z$26 10020ca4 f   SystemInfo.obj
 0001:0001fcad       __unwindfunclet$??0SystemInfo@baro@@QAE@U_token@?$TSingleton@$$CBVSystemInfo@baro@@@1@@Z$27 10020cad f   SystemInfo.obj
 0001:0001fcb6       __unwindfunclet$??0SystemInfo@baro@@QAE@U_token@?$TSingleton@$$CBVSystemInfo@baro@@@1@@Z$28 10020cb6 f   SystemInfo.obj
 0001:0001fcbf       __unwindfunclet$??0SystemInfo@baro@@QAE@U_token@?$TSingleton@$$CBVSystemInfo@baro@@@1@@Z$29 10020cbf f   SystemInfo.obj
 0001:0001fcc8       __unwindfunclet$??0SystemInfo@baro@@QAE@U_token@?$TSingleton@$$CBVSystemInfo@baro@@@1@@Z$30 10020cc8 f   SystemInfo.obj
 0001:0001fcd1       __ehhandler$??0SystemInfo@baro@@QAE@U_token@?$TSingleton@$$CBVSystemInfo@baro@@@1@@Z 10020cd1 f   SystemInfo.obj
 0001:0001fd00       __unwindfunclet$??0PointCoord@baro@@QAE@ABV01@@Z$0 10020d00 f   stdafx.obj
 0001:0001fd08       __unwindfunclet$??0PointCoord@baro@@QAE@ABV01@@Z$1 10020d08 f   stdafx.obj
 0001:0001fd13       __unwindfunclet$??0PointCoord@baro@@QAE@ABV01@@Z$2 10020d13 f   stdafx.obj
 0001:0001fd1e       __unwindfunclet$??0PointCoord@baro@@QAE@ABV01@@Z$3 10020d1e f   stdafx.obj
 0001:0001fd29       __ehhandler$??0PointCoord@baro@@QAE@ABV01@@Z 10020d29 f   stdafx.obj
 0001:0001fd50       __unwindfunclet$??_FCryptBuffer@baro@@QAEXXZ$0 10020d50 f   stdafx.obj
 0001:0001fd58       __ehhandler$??_FCryptBuffer@baro@@QAEXXZ 10020d58 f   stdafx.obj
 0001:0001fd80       __unwindfunclet$?NextWrite@Stream@baro@@QAE?AW4StreamResult@2@ABV?$vector@V?$CStringT@_WV?$StrTraitMFC_DLL@_WV?$ChTraitsCRT@_W@ATL@@@@@ATL@@V?$allocator@V?$CStringT@_WV?$StrTraitMFC_DLL@_WV?$ChTraitsCRT@_W@ATL@@@@@ATL@@@std@@@std@@@Z$1 10020d80 f   stdafx.obj
 0001:0001fd80       __unwindfunclet$?NextRead@Stream@baro@@QAE?AW4StreamResult@2@AAV?$vector@V?$CStringT@_WV?$StrTraitMFC_DLL@_WV?$ChTraitsCRT@_W@ATL@@@@@ATL@@V?$allocator@V?$CStringT@_WV?$StrTraitMFC_DLL@_WV?$ChTraitsCRT@_W@ATL@@@@@ATL@@@std@@@std@@@Z$1 10020d80 f   stdafx.obj
 0001:0001fd88       __ehhandler$?NextWrite@Stream@baro@@QAE?AW4StreamResult@2@ABV?$vector@V?$CStringT@_WV?$StrTraitMFC_DLL@_WV?$ChTraitsCRT@_W@ATL@@@@@ATL@@V?$allocator@V?$CStringT@_WV?$StrTraitMFC_DLL@_WV?$ChTraitsCRT@_W@ATL@@@@@ATL@@@std@@@std@@@Z 10020d88 f   stdafx.obj
 0001:0001fd88       __ehhandler$?NextRead@Stream@baro@@QAE?AW4StreamResult@2@AAV?$vector@V?$CStringT@_WV?$StrTraitMFC_DLL@_WV?$ChTraitsCRT@_W@ATL@@@@@ATL@@V?$allocator@V?$CStringT@_WV?$StrTraitMFC_DLL@_WV?$ChTraitsCRT@_W@ATL@@@@@ATL@@@std@@@std@@@Z 10020d88 f   stdafx.obj
 0001:0001fdb0       __unwindfunclet$?NextWrite@Stream@baro@@QAE?AW4StreamResult@2@ABV?$map@V?$CStringT@_WV?$StrTraitMFC_DLL@_WV?$ChTraitsCRT@_W@ATL@@@@@ATL@@V12@U?$less@V?$CStringT@_WV?$StrTraitMFC_DLL@_WV?$ChTraitsCRT@_W@ATL@@@@@ATL@@@std@@V?$allocator@U?$pair@$$CBV?$CStringT@_WV?$StrTraitMFC_DLL@_WV?$ChTraitsCRT@_W@ATL@@@@@ATL@@V12@@std@@@4@@std@@@Z$2 10020db0 f   stdafx.obj
 0001:0001fdb0       __unwindfunclet$?NextRead@Stream@baro@@QAE?AW4StreamResult@2@AAV?$map@V?$CStringT@_WV?$StrTraitMFC_DLL@_WV?$ChTraitsCRT@_W@ATL@@@@@ATL@@V12@U?$less@V?$CStringT@_WV?$StrTraitMFC_DLL@_WV?$ChTraitsCRT@_W@ATL@@@@@ATL@@@std@@V?$allocator@U?$pair@$$CBV?$CStringT@_WV?$StrTraitMFC_DLL@_WV?$ChTraitsCRT@_W@ATL@@@@@ATL@@V12@@std@@@4@@std@@@Z$2 10020db0 f   stdafx.obj
 0001:0001fdb8       __unwindfunclet$?NextWrite@Stream@baro@@QAE?AW4StreamResult@2@ABV?$map@V?$CStringT@_WV?$StrTraitMFC_DLL@_WV?$ChTraitsCRT@_W@ATL@@@@@ATL@@V12@U?$less@V?$CStringT@_WV?$StrTraitMFC_DLL@_WV?$ChTraitsCRT@_W@ATL@@@@@ATL@@@std@@V?$allocator@U?$pair@$$CBV?$CStringT@_WV?$StrTraitMFC_DLL@_WV?$ChTraitsCRT@_W@ATL@@@@@ATL@@V12@@std@@@4@@std@@@Z$0 10020db8 f   stdafx.obj
 0001:0001fdb8       __unwindfunclet$?NextRead@Stream@baro@@QAE?AW4StreamResult@2@AAV?$map@V?$CStringT@_WV?$StrTraitMFC_DLL@_WV?$ChTraitsCRT@_W@ATL@@@@@ATL@@V12@U?$less@V?$CStringT@_WV?$StrTraitMFC_DLL@_WV?$ChTraitsCRT@_W@ATL@@@@@ATL@@@std@@V?$allocator@U?$pair@$$CBV?$CStringT@_WV?$StrTraitMFC_DLL@_WV?$ChTraitsCRT@_W@ATL@@@@@ATL@@V12@@std@@@4@@std@@@Z$0 10020db8 f   stdafx.obj
 0001:0001fdc0       __unwindfunclet$?NextWrite@Stream@baro@@QAE?AW4StreamResult@2@ABV?$map@V?$CStringT@_WV?$StrTraitMFC_DLL@_WV?$ChTraitsCRT@_W@ATL@@@@@ATL@@V12@U?$less@V?$CStringT@_WV?$StrTraitMFC_DLL@_WV?$ChTraitsCRT@_W@ATL@@@@@ATL@@@std@@V?$allocator@U?$pair@$$CBV?$CStringT@_WV?$StrTraitMFC_DLL@_WV?$ChTraitsCRT@_W@ATL@@@@@ATL@@V12@@std@@@4@@std@@@Z$5 10020dc0 f   stdafx.obj
 0001:0001fdc0       __unwindfunclet$?NextRead@Stream@baro@@QAE?AW4StreamResult@2@AAV?$map@V?$CStringT@_WV?$StrTraitMFC_DLL@_WV?$ChTraitsCRT@_W@ATL@@@@@ATL@@V12@U?$less@V?$CStringT@_WV?$StrTraitMFC_DLL@_WV?$ChTraitsCRT@_W@ATL@@@@@ATL@@@std@@V?$allocator@U?$pair@$$CBV?$CStringT@_WV?$StrTraitMFC_DLL@_WV?$ChTraitsCRT@_W@ATL@@@@@ATL@@V12@@std@@@4@@std@@@Z$5 10020dc0 f   stdafx.obj
 0001:0001fdc8       __ehhandler$?NextRead@Stream@baro@@QAE?AW4StreamResult@2@AAV?$map@V?$CStringT@_WV?$StrTraitMFC_DLL@_WV?$ChTraitsCRT@_W@ATL@@@@@ATL@@V12@U?$less@V?$CStringT@_WV?$StrTraitMFC_DLL@_WV?$ChTraitsCRT@_W@ATL@@@@@ATL@@@std@@V?$allocator@U?$pair@$$CBV?$CStringT@_WV?$StrTraitMFC_DLL@_WV?$ChTraitsCRT@_W@ATL@@@@@ATL@@V12@@std@@@4@@std@@@Z 10020dc8 f   stdafx.obj
 0001:0001fdc8       __ehhandler$?NextWrite@Stream@baro@@QAE?AW4StreamResult@2@ABV?$map@V?$CStringT@_WV?$StrTraitMFC_DLL@_WV?$ChTraitsCRT@_W@ATL@@@@@ATL@@V12@U?$less@V?$CStringT@_WV?$StrTraitMFC_DLL@_WV?$ChTraitsCRT@_W@ATL@@@@@ATL@@@std@@V?$allocator@U?$pair@$$CBV?$CStringT@_WV?$StrTraitMFC_DLL@_WV?$ChTraitsCRT@_W@ATL@@@@@ATL@@V12@@std@@@4@@std@@@Z 10020dc8 f   stdafx.obj
 0001:0001fdf0       __unwindfunclet$??0Stream@baro@@QAE@ABV01@@Z$0 10020df0 f   stdafx.obj
 0001:0001fdf8       __ehhandler$??0Stream@baro@@QAE@ABV01@@Z 10020df8 f   stdafx.obj
 0001:0001fe20       __unwindfunclet$?Trim@?$TBuffer@E@baro@@QAE_NII@Z$0 10020e20 f   stdafx.obj
 0001:0001fe28       __ehhandler$?Trim@?$TBuffer@E@baro@@QAE_NII@Z 10020e28 f   stdafx.obj
 0001:0001fe50       __unwindfunclet$??0?$_Tree@V?$_Tmap_traits@HVColor@Gdiplus@@U?$less@H@std@@V?$allocator@U?$pair@$$CBHVColor@Gdiplus@@@std@@@4@$0A@@std@@@std@@QAE@ABV01@ABV?$allocator@U?$pair@$$CBHVColor@Gdiplus@@@std@@@1@@Z$2 10020e50 f   stdafx.obj
 0001:0001fe58       __ehhandler$??0?$_Tree@V?$_Tmap_traits@HVColor@Gdiplus@@U?$less@H@std@@V?$allocator@U?$pair@$$CBHVColor@Gdiplus@@@std@@@4@$0A@@std@@@std@@QAE@ABV01@ABV?$allocator@U?$pair@$$CBHVColor@Gdiplus@@@std@@@1@@Z 10020e58 f   stdafx.obj
 0001:0001fe80       __unwindfunclet$??$NextWriteVector@V?$CStringT@_WV?$StrTraitMFC_DLL@_WV?$ChTraitsCRT@_W@ATL@@@@@ATL@@@Stream@baro@@AAE?AW4StreamResult@1@ABV?$vector@V?$CStringT@_WV?$StrTraitMFC_DLL@_WV?$ChTraitsCRT@_W@ATL@@@@@ATL@@V?$allocator@V?$CStringT@_WV?$StrTraitMFC_DLL@_WV?$ChTraitsCRT@_W@ATL@@@@@ATL@@@std@@@std@@V?$function@$$A6A?AW4StreamResult@baro@@ABV?$CStringT@_WV?$StrTraitMFC_DLL@_WV?$ChTraitsCRT@_W@ATL@@@@@ATL@@@Z@4@@Z$0 10020e80 f   stdafx.obj
 0001:0001fe88       __ehhandler$??$NextWriteVector@V?$CStringT@_WV?$StrTraitMFC_DLL@_WV?$ChTraitsCRT@_W@ATL@@@@@ATL@@@Stream@baro@@AAE?AW4StreamResult@1@ABV?$vector@V?$CStringT@_WV?$StrTraitMFC_DLL@_WV?$ChTraitsCRT@_W@ATL@@@@@ATL@@V?$allocator@V?$CStringT@_WV?$StrTraitMFC_DLL@_WV?$ChTraitsCRT@_W@ATL@@@@@ATL@@@std@@@std@@V?$function@$$A6A?AW4StreamResult@baro@@ABV?$CStringT@_WV?$StrTraitMFC_DLL@_WV?$ChTraitsCRT@_W@ATL@@@@@ATL@@@Z@4@@Z 10020e88 f   stdafx.obj
 0001:0001feb0       __unwindfunclet$??$NextWriteMap@V?$CStringT@_WV?$StrTraitMFC_DLL@_WV?$ChTraitsCRT@_W@ATL@@@@@ATL@@V12@@Stream@baro@@AAE?AW4StreamResult@1@ABV?$map@V?$CStringT@_WV?$StrTraitMFC_DLL@_WV?$ChTraitsCRT@_W@ATL@@@@@ATL@@V12@U?$less@V?$CStringT@_WV?$StrTraitMFC_DLL@_WV?$ChTraitsCRT@_W@ATL@@@@@ATL@@@std@@V?$allocator@U?$pair@$$CBV?$CStringT@_WV?$StrTraitMFC_DLL@_WV?$ChTraitsCRT@_W@ATL@@@@@ATL@@V12@@std@@@4@@std@@V?$function@$$A6A?AW4StreamResult@baro@@ABV?$CStringT@_WV?$StrTraitMFC_DLL@_WV?$ChTraitsCRT@_W@ATL@@@@@ATL@@@Z@4@1@Z$0 10020eb0 f   stdafx.obj
 0001:0001feb8       __unwindfunclet$??$NextWriteMap@V?$CStringT@_WV?$StrTraitMFC_DLL@_WV?$ChTraitsCRT@_W@ATL@@@@@ATL@@V12@@Stream@baro@@AAE?AW4StreamResult@1@ABV?$map@V?$CStringT@_WV?$StrTraitMFC_DLL@_WV?$ChTraitsCRT@_W@ATL@@@@@ATL@@V12@U?$less@V?$CStringT@_WV?$StrTraitMFC_DLL@_WV?$ChTraitsCRT@_W@ATL@@@@@ATL@@@std@@V?$allocator@U?$pair@$$CBV?$CStringT@_WV?$StrTraitMFC_DLL@_WV?$ChTraitsCRT@_W@ATL@@@@@ATL@@V12@@std@@@4@@std@@V?$function@$$A6A?AW4StreamResult@baro@@ABV?$CStringT@_WV?$StrTraitMFC_DLL@_WV?$ChTraitsCRT@_W@ATL@@@@@ATL@@@Z@4@1@Z$1 10020eb8 f   stdafx.obj
 0001:0001fec0       __ehhandler$??$NextWriteMap@V?$CStringT@_WV?$StrTraitMFC_DLL@_WV?$ChTraitsCRT@_W@ATL@@@@@ATL@@V12@@Stream@baro@@AAE?AW4StreamResult@1@ABV?$map@V?$CStringT@_WV?$StrTraitMFC_DLL@_WV?$ChTraitsCRT@_W@ATL@@@@@ATL@@V12@U?$less@V?$CStringT@_WV?$StrTraitMFC_DLL@_WV?$ChTraitsCRT@_W@ATL@@@@@ATL@@@std@@V?$allocator@U?$pair@$$CBV?$CStringT@_WV?$StrTraitMFC_DLL@_WV?$ChTraitsCRT@_W@ATL@@@@@ATL@@V12@@std@@@4@@std@@V?$function@$$A6A?AW4StreamResult@baro@@ABV?$CStringT@_WV?$StrTraitMFC_DLL@_WV?$ChTraitsCRT@_W@ATL@@@@@ATL@@@Z@4@1@Z 10020ec0 f   stdafx.obj
 0001:0001fef0       __unwindfunclet$??$NextReadVector@V?$CStringT@_WV?$StrTraitMFC_DLL@_WV?$ChTraitsCRT@_W@ATL@@@@@ATL@@@Stream@baro@@AAE?AW4StreamResult@1@AAV?$vector@V?$CStringT@_WV?$StrTraitMFC_DLL@_WV?$ChTraitsCRT@_W@ATL@@@@@ATL@@V?$allocator@V?$CStringT@_WV?$StrTraitMFC_DLL@_WV?$ChTraitsCRT@_W@ATL@@@@@ATL@@@std@@@std@@V?$function@$$A6A?AW4StreamResult@baro@@AAV?$CStringT@_WV?$StrTraitMFC_DLL@_WV?$ChTraitsCRT@_W@ATL@@@@@ATL@@@Z@4@@Z$0 10020ef0 f   stdafx.obj
 0001:0001fef8       __unwindfunclet$??$NextReadVector@V?$CStringT@_WV?$StrTraitMFC_DLL@_WV?$ChTraitsCRT@_W@ATL@@@@@ATL@@@Stream@baro@@AAE?AW4StreamResult@1@AAV?$vector@V?$CStringT@_WV?$StrTraitMFC_DLL@_WV?$ChTraitsCRT@_W@ATL@@@@@ATL@@V?$allocator@V?$CStringT@_WV?$StrTraitMFC_DLL@_WV?$ChTraitsCRT@_W@ATL@@@@@ATL@@@std@@@std@@V?$function@$$A6A?AW4StreamResult@baro@@AAV?$CStringT@_WV?$StrTraitMFC_DLL@_WV?$ChTraitsCRT@_W@ATL@@@@@ATL@@@Z@4@@Z$1 10020ef8 f   stdafx.obj
 0001:0001ff01       __ehhandler$??$NextReadVector@V?$CStringT@_WV?$StrTraitMFC_DLL@_WV?$ChTraitsCRT@_W@ATL@@@@@ATL@@@Stream@baro@@AAE?AW4StreamResult@1@AAV?$vector@V?$CStringT@_WV?$StrTraitMFC_DLL@_WV?$ChTraitsCRT@_W@ATL@@@@@ATL@@V?$allocator@V?$CStringT@_WV?$StrTraitMFC_DLL@_WV?$ChTraitsCRT@_W@ATL@@@@@ATL@@@std@@@std@@V?$function@$$A6A?AW4StreamResult@baro@@AAV?$CStringT@_WV?$StrTraitMFC_DLL@_WV?$ChTraitsCRT@_W@ATL@@@@@ATL@@@Z@4@@Z 10020f01 f   stdafx.obj
 0001:0001ff30       __unwindfunclet$??$NextReadMap@V?$CStringT@_WV?$StrTraitMFC_DLL@_WV?$ChTraitsCRT@_W@ATL@@@@@ATL@@V12@@Stream@baro@@AAE?AW4StreamResult@1@AAV?$map@V?$CStringT@_WV?$StrTraitMFC_DLL@_WV?$ChTraitsCRT@_W@ATL@@@@@ATL@@V12@U?$less@V?$CStringT@_WV?$StrTraitMFC_DLL@_WV?$ChTraitsCRT@_W@ATL@@@@@ATL@@@std@@V?$allocator@U?$pair@$$CBV?$CStringT@_WV?$StrTraitMFC_DLL@_WV?$ChTraitsCRT@_W@ATL@@@@@ATL@@V12@@std@@@4@@std@@V?$function@$$A6A?AW4StreamResult@baro@@AAV?$CStringT@_WV?$StrTraitMFC_DLL@_WV?$ChTraitsCRT@_W@ATL@@@@@ATL@@@Z@4@1@Z$0 10020f30 f   stdafx.obj
 0001:0001ff38       __unwindfunclet$??$NextReadMap@V?$CStringT@_WV?$StrTraitMFC_DLL@_WV?$ChTraitsCRT@_W@ATL@@@@@ATL@@V12@@Stream@baro@@AAE?AW4StreamResult@1@AAV?$map@V?$CStringT@_WV?$StrTraitMFC_DLL@_WV?$ChTraitsCRT@_W@ATL@@@@@ATL@@V12@U?$less@V?$CStringT@_WV?$StrTraitMFC_DLL@_WV?$ChTraitsCRT@_W@ATL@@@@@ATL@@@std@@V?$allocator@U?$pair@$$CBV?$CStringT@_WV?$StrTraitMFC_DLL@_WV?$ChTraitsCRT@_W@ATL@@@@@ATL@@V12@@std@@@4@@std@@V?$function@$$A6A?AW4StreamResult@baro@@AAV?$CStringT@_WV?$StrTraitMFC_DLL@_WV?$ChTraitsCRT@_W@ATL@@@@@ATL@@@Z@4@1@Z$1 10020f38 f   stdafx.obj
 0001:0001ff40       __unwindfunclet$??$NextReadMap@V?$CStringT@_WV?$StrTraitMFC_DLL@_WV?$ChTraitsCRT@_W@ATL@@@@@ATL@@V12@@Stream@baro@@AAE?AW4StreamResult@1@AAV?$map@V?$CStringT@_WV?$StrTraitMFC_DLL@_WV?$ChTraitsCRT@_W@ATL@@@@@ATL@@V12@U?$less@V?$CStringT@_WV?$StrTraitMFC_DLL@_WV?$ChTraitsCRT@_W@ATL@@@@@ATL@@@std@@V?$allocator@U?$pair@$$CBV?$CStringT@_WV?$StrTraitMFC_DLL@_WV?$ChTraitsCRT@_W@ATL@@@@@ATL@@V12@@std@@@4@@std@@V?$function@$$A6A?AW4StreamResult@baro@@AAV?$CStringT@_WV?$StrTraitMFC_DLL@_WV?$ChTraitsCRT@_W@ATL@@@@@ATL@@@Z@4@1@Z$2 10020f40 f   stdafx.obj
 0001:0001ff49       __unwindfunclet$??$NextReadMap@V?$CStringT@_WV?$StrTraitMFC_DLL@_WV?$ChTraitsCRT@_W@ATL@@@@@ATL@@V12@@Stream@baro@@AAE?AW4StreamResult@1@AAV?$map@V?$CStringT@_WV?$StrTraitMFC_DLL@_WV?$ChTraitsCRT@_W@ATL@@@@@ATL@@V12@U?$less@V?$CStringT@_WV?$StrTraitMFC_DLL@_WV?$ChTraitsCRT@_W@ATL@@@@@ATL@@@std@@V?$allocator@U?$pair@$$CBV?$CStringT@_WV?$StrTraitMFC_DLL@_WV?$ChTraitsCRT@_W@ATL@@@@@ATL@@V12@@std@@@4@@std@@V?$function@$$A6A?AW4StreamResult@baro@@AAV?$CStringT@_WV?$StrTraitMFC_DLL@_WV?$ChTraitsCRT@_W@ATL@@@@@ATL@@@Z@4@1@Z$3 10020f49 f   stdafx.obj
 0001:0001ff52       __unwindfunclet$??$NextReadMap@V?$CStringT@_WV?$StrTraitMFC_DLL@_WV?$ChTraitsCRT@_W@ATL@@@@@ATL@@V12@@Stream@baro@@AAE?AW4StreamResult@1@AAV?$map@V?$CStringT@_WV?$StrTraitMFC_DLL@_WV?$ChTraitsCRT@_W@ATL@@@@@ATL@@V12@U?$less@V?$CStringT@_WV?$StrTraitMFC_DLL@_WV?$ChTraitsCRT@_W@ATL@@@@@ATL@@@std@@V?$allocator@U?$pair@$$CBV?$CStringT@_WV?$StrTraitMFC_DLL@_WV?$ChTraitsCRT@_W@ATL@@@@@ATL@@V12@@std@@@4@@std@@V?$function@$$A6A?AW4StreamResult@baro@@AAV?$CStringT@_WV?$StrTraitMFC_DLL@_WV?$ChTraitsCRT@_W@ATL@@@@@ATL@@@Z@4@1@Z$4 10020f52 f   stdafx.obj
 0001:0001ff5a       __ehhandler$??$NextReadMap@V?$CStringT@_WV?$StrTraitMFC_DLL@_WV?$ChTraitsCRT@_W@ATL@@@@@ATL@@V12@@Stream@baro@@AAE?AW4StreamResult@1@AAV?$map@V?$CStringT@_WV?$StrTraitMFC_DLL@_WV?$ChTraitsCRT@_W@ATL@@@@@ATL@@V12@U?$less@V?$CStringT@_WV?$StrTraitMFC_DLL@_WV?$ChTraitsCRT@_W@ATL@@@@@ATL@@@std@@V?$allocator@U?$pair@$$CBV?$CStringT@_WV?$StrTraitMFC_DLL@_WV?$ChTraitsCRT@_W@ATL@@@@@ATL@@V12@@std@@@4@@std@@V?$function@$$A6A?AW4StreamResult@baro@@AAV?$CStringT@_WV?$StrTraitMFC_DLL@_WV?$ChTraitsCRT@_W@ATL@@@@@ATL@@@Z@4@1@Z 10020f5a f   stdafx.obj
 0001:0001ff80       __ehhandler$??$_Copy_nodes@U?$integral_constant@_N$0A@@std@@@?$_Tree@V?$_Tmap_traits@HVColor@Gdiplus@@U?$less@H@std@@V?$allocator@U?$pair@$$CBHVColor@Gdiplus@@@std@@@4@$0A@@std@@@std@@IAEPAU?$_Tree_node@U?$pair@$$CBHVColor@Gdiplus@@@std@@PAX@1@PAU21@0U?$integral_constant@_N$0A@@1@@Z 10020f80 f   stdafx.obj
 0001:0001ffa0       __unwindfunclet$??$_Buynode@U?$pair@V?$CStringT@_WV?$StrTraitMFC_DLL@_WV?$ChTraitsCRT@_W@ATL@@@@@ATL@@V12@@std@@@?$_Tree_buy@U?$pair@$$CBV?$CStringT@_WV?$StrTraitMFC_DLL@_WV?$ChTraitsCRT@_W@ATL@@@@@ATL@@V12@@std@@V?$allocator@U?$pair@$$CBV?$CStringT@_WV?$StrTraitMFC_DLL@_WV?$ChTraitsCRT@_W@ATL@@@@@ATL@@V12@@std@@@2@@std@@QAEPAU?$_Tree_node@U?$pair@$$CBV?$CStringT@_WV?$StrTraitMFC_DLL@_WV?$ChTraitsCRT@_W@ATL@@@@@ATL@@V12@@std@@PAX@1@$$QAU?$pair@V?$CStringT@_WV?$StrTraitMFC_DLL@_WV?$ChTraitsCRT@_W@ATL@@@@@ATL@@V12@@1@@Z$2 10020fa0 f   stdafx.obj
 0001:0001ffa5       __unwindfunclet$??$_Buynode@U?$pair@V?$CStringT@_WV?$StrTraitMFC_DLL@_WV?$ChTraitsCRT@_W@ATL@@@@@ATL@@V12@@std@@@?$_Tree_buy@U?$pair@$$CBV?$CStringT@_WV?$StrTraitMFC_DLL@_WV?$ChTraitsCRT@_W@ATL@@@@@ATL@@V12@@std@@V?$allocator@U?$pair@$$CBV?$CStringT@_WV?$StrTraitMFC_DLL@_WV?$ChTraitsCRT@_W@ATL@@@@@ATL@@V12@@std@@@2@@std@@QAEPAU?$_Tree_node@U?$pair@$$CBV?$CStringT@_WV?$StrTraitMFC_DLL@_WV?$ChTraitsCRT@_W@ATL@@@@@ATL@@V12@@std@@PAX@1@$$QAU?$pair@V?$CStringT@_WV?$StrTraitMFC_DLL@_WV?$ChTraitsCRT@_W@ATL@@@@@ATL@@V12@@1@@Z$3 10020fa5 f   stdafx.obj
 0001:0001ffae       __ehhandler$??$_Buynode@U?$pair@V?$CStringT@_WV?$StrTraitMFC_DLL@_WV?$ChTraitsCRT@_W@ATL@@@@@ATL@@V12@@std@@@?$_Tree_buy@U?$pair@$$CBV?$CStringT@_WV?$StrTraitMFC_DLL@_WV?$ChTraitsCRT@_W@ATL@@@@@ATL@@V12@@std@@V?$allocator@U?$pair@$$CBV?$CStringT@_WV?$StrTraitMFC_DLL@_WV?$ChTraitsCRT@_W@ATL@@@@@ATL@@V12@@std@@@2@@std@@QAEPAU?$_Tree_node@U?$pair@$$CBV?$CStringT@_WV?$StrTraitMFC_DLL@_WV?$ChTraitsCRT@_W@ATL@@@@@ATL@@V12@@std@@PAX@1@$$QAU?$pair@V?$CStringT@_WV?$StrTraitMFC_DLL@_WV?$ChTraitsCRT@_W@ATL@@@@@ATL@@V12@@1@@Z 10020fae f   stdafx.obj
 0001:0001ffd0       __ehhandler$??$_Insert_nohint@AAU?$pair@$$CBV?$CStringT@_WV?$StrTraitMFC_DLL@_WV?$ChTraitsCRT@_W@ATL@@@@@ATL@@V12@@std@@PAU?$_Tree_node@U?$pair@$$CBV?$CStringT@_WV?$StrTraitMFC_DLL@_WV?$ChTraitsCRT@_W@ATL@@@@@ATL@@V12@@std@@PAX@2@@?$_Tree@V?$_Tmap_traits@V?$CStringT@_WV?$StrTraitMFC_DLL@_WV?$ChTraitsCRT@_W@ATL@@@@@ATL@@V12@U?$less@V?$CStringT@_WV?$StrTraitMFC_DLL@_WV?$ChTraitsCRT@_W@ATL@@@@@ATL@@@std@@V?$allocator@U?$pair@$$CBV?$CStringT@_WV?$StrTraitMFC_DLL@_WV?$ChTraitsCRT@_W@ATL@@@@@ATL@@V12@@std@@@4@$0A@@std@@@std@@IAE?AU?$pair@V?$_Tree_iterator@V?$_Tree_val@U?$_Tree_simple_types@U?$pair@$$CBV?$CStringT@_WV?$StrTraitMFC_DLL@_WV?$ChTraitsCRT@_W@ATL@@@@@ATL@@V12@@std@@@std@@@std@@@std@@_N@1@_NAAU?$pair@$$CBV?$CStringT@_WV?$StrTraitMFC_DLL@_WV?$ChTraitsCRT@_W@ATL@@@@@ATL@@V12@@1@PAU?$_Tree_node@U?$pair@$$CBV?$CStringT@_WV?$StrTraitMFC_DLL@_WV?$ChTraitsCRT@_W@ATL@@@@@ATL@@V12@@std@@PAX@1@@Z 10020fd0 f   stdafx.obj
 0001:0001fff5       __unwindfunclet$?AfxWndProcDllStatic@@YGJPAUHWND__@@IIJ@Z$0 10020ff5 f   mfcs120u:dllmodul.obj
 0001:0001fffd       __ehhandler$?AfxWndProcDllStatic@@YGJPAUHWND__@@IIJ@Z 10020ffd f   mfcs120u:dllmodul.obj
 0001:00020018       __unwindfunclet$_InternalDllMain@12$5 10021018 f   mfcs120u:dllmodul.obj
 0001:00020021       __unwindfunclet$_InternalDllMain@12$6 10021021 f   mfcs120u:dllmodul.obj
 0001:00020029       __ehhandler$_InternalDllMain@12 10021029 f   mfcs120u:dllmodul.obj
 0001:00020050       ??__FtheApp@@YAXXZ         10021050 f   Baronow23.obj
 0001:00020070       ??__Fg_csPrint@@YAXXZ      10021070 f   Logger.obj
 0001:000200b0       ??__Fg_csConstruct@@YAXXZ  100210b0 f   Logger.obj
 0001:000200f0       ??__Fg_mConstruct@@YAXXZ   100210f0 f   Logger.obj
 0001:00020150       ??__F?_System_object@?$_Error_objects@H@std@@2V_System_error_category@2@A@@YAXXZ 10021150 f   stdafx.obj
 0001:00020160       ??__F?_Iostream_object@?$_Error_objects@H@std@@2V_Iostream_error_category@2@A@@YAXXZ 10021160 f   stdafx.obj
 0001:00020170       ??__F?_Generic_object@?$_Error_objects@H@std@@2V_Generic_error_category@2@A@@YAXXZ 10021170 f   stdafx.obj
 0001:0002017b       ??__FafxModuleState@@YAXXZ 1002117b f   mfcs120u:dllmodul.obj
 0001:00020185       ??__F_AtlBaseModule@ATL@@YAXXZ 10021185 f   atls:atlbase.obj
 0002:000006b4       _afxModuleState$initializer$ 100226b4     mfcs120u:dllmodul.obj
 0002:000006b8       __AtlBaseModule$initializer$ 100226b8     atls:atlbase.obj
 0002:000006bc       _theApp$initializer$       100226bc     Baronow23.obj
 0002:000006c0       _g_csPrint$initializer$    100226c0     Logger.obj
 0002:000006c4       _g_csConstruct$initializer$ 100226c4     Logger.obj
 0002:000006c8       _g_mConstruct$initializer$ 100226c8     Logger.obj
 0002:000006cc       ?_Generic_object$initializer$@?$_Error_objects@H@std@@2P6AXXZA 100226cc     stdafx.obj
 0002:000006d0       ?_Iostream_object$initializer$@?$_Error_objects@H@std@@2P6AXXZA 100226d0     stdafx.obj
 0002:000006d4       ?_System_object$initializer$@?$_Error_objects@H@std@@2P6AXXZA 100226d4     stdafx.obj
 0002:000006e0       _pcinit                    100226e0     msvcrt:crtdll.obj
 0002:000006e4       _pinit                     100226e4     msvcrt:atonexit.obj
 0002:0000073c       _GS_ExceptionPointers      1002273c     msvcrt:gs_report.obj
 0002:0000093c       ?messageMap@?1??GetThisMessageMap@CBaronow23App@@KGPBUAFX_MSGMAP@@XZ@4U3@B 1002293c     Baronow23.obj
 0002:00000944       ?_messageEntries@?1??GetThisMessageMap@CBaronow23App@@KGPBUAFX_MSGMAP@@XZ@4QBUAFX_MSGMAP_ENTRY@@B 10022944     Baronow23.obj
 0002:00000944       ?_messageEntries@?1??GetThisMessageMap@MsgThread@baro@@KGPBUAFX_MSGMAP@@XZ@4QBUAFX_MSGMAP_ENTRY@@B 10022944     MsgThread.obj
 0002:00001c88       ?messageMap@?1??GetThisMessageMap@MsgThread@baro@@KGPBUAFX_MSGMAP@@XZ@4U4@B 10023c88     MsgThread.obj
 0002:00002ae0       _Int32ToUInt32             10024ae0     msvcrt:ftol3.obj
 0002:00002af0       _MantissaMask              10024af0     msvcrt:ftol3.obj
 0002:00002af8       _IntegerBit                10024af8     msvcrt:ftol3.obj
 0002:00002b00       _SignBit64                 10024b00     msvcrt:ftol3.obj
 0002:00002b08       _MinFP64                   10024b08     msvcrt:ftol3.obj
 0002:00002b10       _MinInt64                  10024b10     msvcrt:ftol3.obj
 0002:00002b18       _MaxInt64                  10024b18     msvcrt:ftol3.obj
 0002:00002b20       _MaxUInt64                 10024b20     msvcrt:ftol3.obj
 0002:00002b28       _MaxFP32                   10024b28     msvcrt:ftol3.obj
 0002:00002b30       _MinFP32                   10024b30     msvcrt:ftol3.obj
 0002:00002b38       _MinSubInexact             10024b38     msvcrt:ftol3.obj
 0002:00002b40       _FpExcptTable              10024b40     msvcrt:ftol3.obj
 0002:00002b50       _i1075                     10024b50     msvcrt:ftol3.obj
 0002:00002b54       _i1087                     10024b54     msvcrt:ftol3.obj
 0002:00002b58       _x0800                     10024b58     msvcrt:ftol3.obj
 0002:00002b5c       _x17FF                     10024b5c     msvcrt:ftol3.obj
 0002:00002b60       _CWMask                    10024b60     msvcrt:ftol3.obj
 0002:00004020       __ehfuncinfo$??1CppSqlite3Query@@UAE@XZ 10026020     CppSQLite3U.obj
 0002:00004044       __unwindtable$??1CppSqlite3Query@@UAE@XZ 10026044     CppSQLite3U.obj
 0002:00004054       __tryblocktable$??1CppSqlite3Query@@UAE@XZ 10026054     CppSQLite3U.obj
 0002:00004068       __catchsym$??1CppSqlite3Query@@UAE@XZ$2 10026068     CppSQLite3U.obj
 0002:00004078       __ehfuncinfo$??4CppSqlite3Query@@QAEAAV0@ABV0@@Z 10026078     CppSQLite3U.obj
 0002:0000409c       __unwindtable$??4CppSqlite3Query@@QAEAAV0@ABV0@@Z 1002609c     CppSQLite3U.obj
 0002:000040ac       __tryblocktable$??4CppSqlite3Query@@QAEAAV0@ABV0@@Z 100260ac     CppSQLite3U.obj
 0002:000040c0       __catchsym$??4CppSqlite3Query@@QAEAAV0@ABV0@@Z$2 100260c0     CppSQLite3U.obj
 0002:000040d0       __ehfuncinfo$?EncodeBase64@bapi@@YA_NV?$CStringT@_WV?$StrTraitMFC_DLL@_WV?$ChTraitsCRT@_W@ATL@@@@@ATL@@AAV23@@Z 100260d0     crypt.obj
 0002:000040d0       __ehfuncinfo$?DecodeBase64@bapi@@YA_NV?$CStringT@_WV?$StrTraitMFC_DLL@_WV?$ChTraitsCRT@_W@ATL@@@@@ATL@@AAV23@@Z 100260d0     crypt.obj
 0002:000040f4       __unwindtable$?EncodeBase64@bapi@@YA_NV?$CStringT@_WV?$StrTraitMFC_DLL@_WV?$ChTraitsCRT@_W@ATL@@@@@ATL@@AAV23@@Z 100260f4     crypt.obj
 0002:000040f4       __unwindtable$?DecodeBase64@bapi@@YA_NV?$CStringT@_WV?$StrTraitMFC_DLL@_WV?$ChTraitsCRT@_W@ATL@@@@@ATL@@AAV23@@Z 100260f4     crypt.obj
 0002:0000410c       __ehfuncinfo$?DecryptString@bapi@@YA_NV?$CStringT@_WV?$StrTraitMFC_DLL@_WV?$ChTraitsCRT@_W@ATL@@@@@ATL@@KAAV23@@Z 1002610c     crypt.obj
 0002:0000410c       __ehfuncinfo$??0A256B64@baro@@QAE@V?$CStringT@_WV?$StrTraitMFC_DLL@_WV?$ChTraitsCRT@_W@ATL@@@@@ATL@@KK@Z 1002610c     A256B64.obj
 0002:0000410c       __ehfuncinfo$?EncryptString@bapi@@YA_NV?$CStringT@_WV?$StrTraitMFC_DLL@_WV?$ChTraitsCRT@_W@ATL@@@@@ATL@@KAAV23@@Z 1002610c     crypt.obj
 0002:00004130       __unwindtable$?EncryptString@bapi@@YA_NV?$CStringT@_WV?$StrTraitMFC_DLL@_WV?$ChTraitsCRT@_W@ATL@@@@@ATL@@KAAV23@@Z 10026130     crypt.obj
 0002:00004130       __unwindtable$?DecryptString@bapi@@YA_NV?$CStringT@_WV?$StrTraitMFC_DLL@_WV?$ChTraitsCRT@_W@ATL@@@@@ATL@@KAAV23@@Z 10026130     crypt.obj
 0002:00004130       __unwindtable$??0A256B64@baro@@QAE@V?$CStringT@_WV?$StrTraitMFC_DLL@_WV?$ChTraitsCRT@_W@ATL@@@@@ATL@@KK@Z 10026130     A256B64.obj
 0002:00004138       __ehfuncinfo$?EncryptStringA@bapi@@YA_NV?$CStringT@DV?$StrTraitMFC_DLL@DV?$ChTraitsCRT@D@ATL@@@@@ATL@@KAAV23@@Z 10026138     crypt.obj
 0002:0000415c       __unwindtable$?EncryptStringA@bapi@@YA_NV?$CStringT@DV?$StrTraitMFC_DLL@DV?$ChTraitsCRT@D@ATL@@@@@ATL@@KAAV23@@Z 1002615c     crypt.obj
 0002:0000416c       __ehfuncinfo$?DecryptStringA@bapi@@YA_NV?$CStringT@DV?$StrTraitMFC_DLL@DV?$ChTraitsCRT@D@ATL@@@@@ATL@@KAAV23@@Z 1002616c     crypt.obj
 0002:00004190       __unwindtable$?DecryptStringA@bapi@@YA_NV?$CStringT@DV?$StrTraitMFC_DLL@DV?$ChTraitsCRT@D@ATL@@@@@ATL@@KAAV23@@Z 10026190     crypt.obj
 0002:000041a0       __ehfuncinfo$?EncryptStringW@bapi@@YA_NV?$CStringT@_WV?$StrTraitMFC_DLL@_WV?$ChTraitsCRT@_W@ATL@@@@@ATL@@KAAV23@@Z 100261a0     crypt.obj
 0002:000041c4       __unwindtable$?EncryptStringW@bapi@@YA_NV?$CStringT@_WV?$StrTraitMFC_DLL@_WV?$ChTraitsCRT@_W@ATL@@@@@ATL@@KAAV23@@Z 100261c4     crypt.obj
 0002:000041d4       __ehfuncinfo$?DecryptStringW@bapi@@YA_NV?$CStringT@_WV?$StrTraitMFC_DLL@_WV?$ChTraitsCRT@_W@ATL@@@@@ATL@@KAAV23@@Z 100261d4     crypt.obj
 0002:000041f8       __unwindtable$?DecryptStringW@bapi@@YA_NV?$CStringT@_WV?$StrTraitMFC_DLL@_WV?$ChTraitsCRT@_W@ATL@@@@@ATL@@KAAV23@@Z 100261f8     crypt.obj
 0002:00004208       __ehfuncinfo$?BinaryToStringA@bapi@@YA_NPBEKAAV?$CStringT@DV?$StrTraitMFC_DLL@DV?$ChTraitsCRT@D@ATL@@@@@ATL@@@Z 10026208     crypt.obj
 0002:0000422c       __unwindtable$?BinaryToStringA@bapi@@YA_NPBEKAAV?$CStringT@DV?$StrTraitMFC_DLL@DV?$ChTraitsCRT@D@ATL@@@@@ATL@@@Z 1002622c     crypt.obj
 0002:00004234       __ehfuncinfo$?BinaryToStringW@bapi@@YA_NPBEKAAV?$CStringT@_WV?$StrTraitMFC_DLL@_WV?$ChTraitsCRT@_W@ATL@@@@@ATL@@@Z 10026234     crypt.obj
 0002:00004258       __unwindtable$?BinaryToStringW@bapi@@YA_NPBEKAAV?$CStringT@_WV?$StrTraitMFC_DLL@_WV?$ChTraitsCRT@_W@ATL@@@@@ATL@@@Z 10026258     crypt.obj
 0002:00004260       __ehfuncinfo$?GetInstancePath@bapi@@YA?AV?$CStringT@_WV?$StrTraitMFC_DLL@_WV?$ChTraitsCRT@_W@ATL@@@@@ATL@@_N@Z 10026260     file.obj
 0002:00004284       __unwindtable$?GetInstancePath@bapi@@YA?AV?$CStringT@_WV?$StrTraitMFC_DLL@_WV?$ChTraitsCRT@_W@ATL@@@@@ATL@@_N@Z 10026284     file.obj
 0002:00004294       __ehfuncinfo$?CreateFolder@bapi@@YAHV?$CStringT@_WV?$StrTraitMFC_DLL@_WV?$ChTraitsCRT@_W@ATL@@@@@ATL@@@Z 10026294     file.obj
 0002:000042b8       __unwindtable$?CreateFolder@bapi@@YAHV?$CStringT@_WV?$StrTraitMFC_DLL@_WV?$ChTraitsCRT@_W@ATL@@@@@ATL@@@Z 100262b8     file.obj
 0002:000042e0       __ehfuncinfo$?DeleteFolder@bapi@@YAHV?$CStringT@_WV?$StrTraitMFC_DLL@_WV?$ChTraitsCRT@_W@ATL@@@@@ATL@@H@Z 100262e0     file.obj
 0002:00004304       __unwindtable$?DeleteFolder@bapi@@YAHV?$CStringT@_WV?$StrTraitMFC_DLL@_WV?$ChTraitsCRT@_W@ATL@@@@@ATL@@H@Z 10026304     file.obj
