 Baronow25

 Timestamp is 5def5c1f (Tue Dec 10 17:49:35 2019)

 Preferred load address is 10000000

 Start         Length     Name                   Class
 0001:00000000 000c172bH .textbss                DATA
 0002:00000000 0001694bH .text$di                CODE
 0002:00016950 0016e55bH .text$mn                CODE
 0002:00184eb0 00015e31H .text$x                 CODE
 0002:0019acf0 00001a24H .text$yd                CODE
 0003:00000000 00000104H .CRT$XCA                DATA
 0003:00000104 00000104H .CRT$XCL                DATA
 0003:00000208 0000024eH .CRT$XCU                DATA
 0003:00000458 00000104H .CRT$XCZ                DATA
 0003:0000055c 00000104H .CRT$XIA                DATA
 0003:00000660 00000104H .CRT$XIAA               DATA
 0003:00000764 00000104H .CRT$XIC                DATA
 0003:00000868 00000104H .CRT$XIZ                DATA
 0003:00000970 00020d3aH .rdata                  DATA
 0003:000216ac 00000178H .rdata$debug            DATA
 0003:00021824 00002579H .rdata$r                DATA
 0003:00023da0 00000104H .rtc$IAA                DATA
 0003:00023ea4 00000280H .rtc$IMZ                DATA
 0003:00024124 00000104H .rtc$IZZ                DATA
 0003:00024228 00000104H .rtc$TAA                DATA
 0003:0002432c 00000280H .rtc$TMZ                DATA
 0003:000245ac 00000104H .rtc$TZZ                DATA
 0003:000246b0 00011e08H .xdata$x                DATA
 0003:000364b8 00000104H ATL$__a                 DATA
 0003:000365bc 00000104H ATL$__z                 DATA
 0003:000366c0 00029023H .edata                  DATA
 0004:00000000 00000e71H .data                   DATA
 0004:00000e78 00001148H .data$r                 DATA
 0004:00001fc0 00304f24H .bss                    DATA
 0005:00000000 000012d8H .idata$5                DATA
 0005:000012d8 00000140H .idata$2                DATA
 0005:00001418 00000014H .idata$3                DATA
 0005:0000142c 000012d8H .idata$4                DATA
 0005:00002704 000025abH .idata$6                DATA
 0006:00000000 000001c0H .rsrc$01                DATA
 0006:000001c0 00000679H .rsrc$02                DATA

  Address         Publics by Value              Rva+Base       Lib:Object

 0000:00000000       ___guard_fids_count        00000000     <absolute>
 0000:00000000       ___guard_flags             00000000     <absolute>
 0000:00000000       ___safe_se_handler_table   00000000     <absolute>
 0000:00000000       __except_list              00000000     <absolute>
 0000:00000000       ___safe_se_handler_count   00000000     <absolute>
 0000:00000000       ___guard_fids_table        00000000     <absolute>
 0000:00009876       __fltused                  00009876     <absolute>
 0000:00009876       __ldused                   00009876     <absolute>
 0000:00000000       ___ImageBase               10000000     <linker-defined>
 0001:00000000       __enc$textbss$begin        10001000     <linker-defined>
 0001:000c172b       __enc$textbss$end          100c272b     <linker-defined>
 0002:00016950       _ExtRawDllMain@12          100d9950 f   dllmain.obj
 0002:000169f0       ?_AfxInitManaged@@YAHXZ    100d99f0 f i dllmain.obj
 0002:00016a20       ??$?0U?$_Tree_node@U?$pair@$$CBV?$CStringT@_WV?$StrTraitMFC_DLL@_WV?$ChTraitsCRT@_W@ATL@@@@@ATL@@PAVBNC_ReferenceItem@@@std@@PAX@std@@@?$allocator@U?$pair@$$CBV?$CStringT@_WV?$StrTraitMFC_DLL@_WV?$ChTraitsCRT@_W@ATL@@@@@ATL@@PAVBNC_ReferenceItem@@@std@@@std@@QAE@ABV?$allocator@U?$_Tree_node@U?$pair@$$CBV?$CStringT@_WV?$StrTraitMFC_DLL@_WV?$ChTraitsCRT@_W@ATL@@@@@ATL@@PAVBNC_ReferenceItem@@@std@@PAX@std@@@1@@Z 100d9a20 f i dllmain.obj
 0002:00016a60       ??$?0U?$_Tree_node@U?$pair@$$CBV?$CStringT@_WV?$StrTraitMFC_DLL@_WV?$ChTraitsCRT@_W@ATL@@@@@ATL@@PAVBNC_ReferenceItem@@@std@@PAX@std@@@?$allocator@U_Container_proxy@std@@@std@@QAE@ABV?$allocator@U?$_Tree_node@U?$pair@$$CBV?$CStringT@_WV?$StrTraitMFC_DLL@_WV?$ChTraitsCRT@_W@ATL@@@@@ATL@@PAVBNC_ReferenceItem@@@std@@PAX@std@@@1@@Z 100d9a60 f i dllmain.obj
 0002:00016aa0       ??$?0U?$_Wrap_alloc@V?$allocator@U?$_Tree_node@U?$pair@$$CBV?$CStringT@_WV?$StrTraitMFC_DLL@_WV?$ChTraitsCRT@_W@ATL@@@@@ATL@@PAVBNC_ReferenceItem@@@std@@PAX@std@@@std@@@std@@@?$_Wrap_alloc@V?$allocator@U_Container_proxy@std@@@std@@@std@@QAE@ABU?$_Wrap_alloc@V?$allocator@U?$_Tree_node@U?$pair@$$CBV?$CStringT@_WV?$StrTraitMFC_DLL@_WV?$ChTraitsCRT@_W@ATL@@@@@ATL@@PAVBNC_ReferenceItem@@@std@@PAX@std@@@std@@@1@@Z 100d9aa0 f i dllmain.obj
 0002:00016b00       ??$?8HH@std@@YA_NABV?$allocator@H@0@0@Z 100d9b00 f i dllmain.obj
 0002:00016b30       ??$?8PAVBNC_Button@@PAV0@@std@@YA_NABV?$allocator@PAVBNC_Button@@@0@0@Z 100d9b30 f i dllmain.obj
 0002:00016b60       ??$?8PAVBNC_ReferenceItem@@PAV0@@std@@YA_NABV?$allocator@PAVBNC_ReferenceItem@@@0@0@Z 100d9b60 f i dllmain.obj
 0002:00016b90       ??$?8U?$_Tree_node@U?$pair@$$CBV?$CStringT@_WV?$StrTraitMFC_DLL@_WV?$ChTraitsCRT@_W@ATL@@@@@ATL@@PAVBNC_ReferenceItem@@@std@@PAX@std@@U01@@std@@YA_NABV?$allocator@U?$_Tree_node@U?$pair@$$CBV?$CStringT@_WV?$StrTraitMFC_DLL@_WV?$ChTraitsCRT@_W@ATL@@@@@ATL@@PAVBNC_ReferenceItem@@@std@@PAX@std@@@0@0@Z 100d9b90 f i dllmain.obj
 0002:00016bc0       ??$?8V?$CStringT@_WV?$StrTraitMFC_DLL@_WV?$ChTraitsCRT@_W@ATL@@@@@ATL@@V01@@std@@YA_NABV?$allocator@V?$CStringT@_WV?$StrTraitMFC_DLL@_WV?$ChTraitsCRT@_W@ATL@@@@@ATL@@@0@0@Z 100d9bc0 f i dllmain.obj
 0002:00016bf0       ??$?8V?$allocator@H@std@@V01@@std@@YA_NABU?$_Wrap_alloc@V?$allocator@H@std@@@0@0@Z 100d9bf0 f i dllmain.obj
 0002:00016c60       ??$?8V?$allocator@PAVBNC_Button@@@std@@V01@@std@@YA_NABU?$_Wrap_alloc@V?$allocator@PAVBNC_Button@@@std@@@0@0@Z 100d9c60 f i dllmain.obj
 0002:00016cd0       ??$?8V?$allocator@PAVBNC_ReferenceItem@@@std@@V01@@std@@YA_NABU?$_Wrap_alloc@V?$allocator@PAVBNC_ReferenceItem@@@std@@@0@0@Z 100d9cd0 f i dllmain.obj
 0002:00016d40       ??$?8V?$allocator@U?$_Tree_node@U?$pair@$$CBV?$CStringT@_WV?$StrTraitMFC_DLL@_WV?$ChTraitsCRT@_W@ATL@@@@@ATL@@PAVBNC_ReferenceItem@@@std@@PAX@std@@@std@@V01@@std@@YA_NABU?$_Wrap_alloc@V?$allocator@U?$_Tree_node@U?$pair@$$CBV?$CStringT@_WV?$StrTraitMFC_DLL@_WV?$ChTraitsCRT@_W@ATL@@@@@ATL@@PAVBNC_ReferenceItem@@@std@@PAX@std@@@std@@@0@0@Z 100d9d40 f i dllmain.obj
 0002:00016db0       ??$?8V?$allocator@V?$CStringT@_WV?$StrTraitMFC_DLL@_WV?$ChTraitsCRT@_W@ATL@@@@@ATL@@@std@@V01@@std@@YA_NABU?$_Wrap_alloc@V?$allocator@V?$CStringT@_WV?$StrTraitMFC_DLL@_WV?$ChTraitsCRT@_W@ATL@@@@@ATL@@@std@@@0@0@Z 100d9db0 f i dllmain.obj
 0002:00016e20       ??$?8V?$allocator@V?$shared_ptr@VBNC_FakeRect@@@std@@@std@@V01@@std@@YA_NABU?$_Wrap_alloc@V?$allocator@V?$shared_ptr@VBNC_FakeRect@@@std@@@std@@@0@0@Z 100d9e20 f i dllmain.obj
 0002:00016e90       ??$?8V?$shared_ptr@VBNC_FakeRect@@@std@@V01@@std@@YA_NABV?$allocator@V?$shared_ptr@VBNC_FakeRect@@@std@@@0@0@Z 100d9e90 f i dllmain.obj
 0002:00016ec0       ??$?9V?$allocator@H@std@@V01@@std@@YA_NABU?$_Wrap_alloc@V?$allocator@H@std@@@0@0@Z 100d9ec0 f i dllmain.obj
 0002:00016f40       ??$?9V?$allocator@PAVBNC_Button@@@std@@V01@@std@@YA_NABU?$_Wrap_alloc@V?$allocator@PAVBNC_Button@@@std@@@0@0@Z 100d9f40 f i dllmain.obj
 0002:00016fc0       ??$?9V?$allocator@PAVBNC_ReferenceItem@@@std@@V01@@std@@YA_NABU?$_Wrap_alloc@V?$allocator@PAVBNC_ReferenceItem@@@std@@@0@0@Z 100d9fc0 f i dllmain.obj
 0002:00017040       ??$?9V?$allocator@U?$_Tree_node@U?$pair@$$CBV?$CStringT@_WV?$StrTraitMFC_DLL@_WV?$ChTraitsCRT@_W@ATL@@@@@ATL@@PAVBNC_ReferenceItem@@@std@@PAX@std@@@std@@V01@@std@@YA_NABU?$_Wrap_alloc@V?$allocator@U?$_Tree_node@U?$pair@$$CBV?$CStringT@_WV?$StrTraitMFC_DLL@_WV?$ChTraitsCRT@_W@ATL@@@@@ATL@@PAVBNC_ReferenceItem@@@std@@PAX@std@@@std@@@0@0@Z 100da040 f i dllmain.obj
 0002:000170c0       ??$?9V?$allocator@V?$CStringT@_WV?$StrTraitMFC_DLL@_WV?$ChTraitsCRT@_W@ATL@@@@@ATL@@@std@@V01@@std@@YA_NABU?$_Wrap_alloc@V?$allocator@V?$CStringT@_WV?$StrTraitMFC_DLL@_WV?$ChTraitsCRT@_W@ATL@@@@@ATL@@@std@@@0@0@Z 100da0c0 f i dllmain.obj
 0002:00017140       ??$?9V?$allocator@V?$shared_ptr@VBNC_FakeRect@@@std@@@std@@V01@@std@@YA_NABU?$_Wrap_alloc@V?$allocator@V?$shared_ptr@VBNC_FakeRect@@@std@@@std@@@0@0@Z 100da140 f i dllmain.obj
 0002:000171c0       ??$AtlAdd@H@ATL@@YAJPAHHH@Z 100da1c0 f i dllmain.obj
 0002:00017240       ??$AtlAdd@I@ATL@@YAJPAIII@Z 100da240 f i dllmain.obj
 0002:000172b0       ??$AtlAdd@K@ATL@@YAJPAKKK@Z 100da2b0 f i dllmain.obj
 0002:00017320       ??$AtlAlignUp@H@ATL@@YGHHK@Z 100da320 f i dllmain.obj
 0002:00017370       ??$AtlMultiply@I@ATL@@YAJPAIII@Z 100da370 f i dllmain.obj
 0002:000173f0       ??$AtlMultiply@K@ATL@@YAJPAKKK@Z 100da3f0 f i dllmain.obj
 0002:00017470       ??$_Allocate@D@std@@YAPADIPAD@Z 100da470 f i dllmain.obj
 0002:00017500       ??$_Allocate@H@std@@YAPAHIPAH@Z 100da500 f i dllmain.obj
 0002:000175a0       ??$_Allocate@PAVBNC_Button@@@std@@YAPAPAVBNC_Button@@IPAPAV1@@Z 100da5a0 f i dllmain.obj
 0002:00017640       ??$_Allocate@PAVBNC_ReferenceItem@@@std@@YAPAPAVBNC_ReferenceItem@@IPAPAV1@@Z 100da640 f i dllmain.obj
 0002:000176e0       ??$_Allocate@U?$_Tree_node@U?$pair@$$CBV?$CStringT@_WV?$StrTraitMFC_DLL@_WV?$ChTraitsCRT@_W@ATL@@@@@ATL@@PAVBNC_ReferenceItem@@@std@@PAX@std@@@std@@YAPAU?$_Tree_node@U?$pair@$$CBV?$CStringT@_WV?$StrTraitMFC_DLL@_WV?$ChTraitsCRT@_W@ATL@@@@@ATL@@PAVBNC_ReferenceItem@@@std@@PAX@0@IPAU10@@Z 100da6e0 f i dllmain.obj
 0002:00017770       ??$_Allocate@U_Container_proxy@std@@@std@@YAPAU_Container_proxy@0@IPAU10@@Z 100da770 f i dllmain.obj
 0002:00017810       ??$_Allocate@V?$CStringT@_WV?$StrTraitMFC_DLL@_WV?$ChTraitsCRT@_W@ATL@@@@@ATL@@@std@@YAPAV?$CStringT@_WV?$StrTraitMFC_DLL@_WV?$ChTraitsCRT@_W@ATL@@@@@ATL@@IPAV12@@Z 100da810 f i dllmain.obj
 0002:000178b0       ??$_Allocate@V?$shared_ptr@VBNC_FakeRect@@@std@@@std@@YAPAV?$shared_ptr@VBNC_FakeRect@@@0@IPAV10@@Z 100da8b0 f i dllmain.obj
 0002:00017950       ??$_Buynode@AAU?$pair@$$CBV?$CStringT@_WV?$StrTraitMFC_DLL@_WV?$ChTraitsCRT@_W@ATL@@@@@ATL@@PAVBNC_ReferenceItem@@@std@@@?$_Tree_buy@U?$pair@$$CBV?$CStringT@_WV?$StrTraitMFC_DLL@_WV?$ChTraitsCRT@_W@ATL@@@@@ATL@@PAVBNC_ReferenceItem@@@std@@V?$allocator@U?$pair@$$CBV?$CStringT@_WV?$StrTraitMFC_DLL@_WV?$ChTraitsCRT@_W@ATL@@@@@ATL@@PAVBNC_ReferenceItem@@@std@@@2@@std@@QAEPAU?$_Tree_node@U?$pair@$$CBV?$CStringT@_WV?$StrTraitMFC_DLL@_WV?$ChTraitsCRT@_W@ATL@@@@@ATL@@PAVBNC_ReferenceItem@@@std@@PAX@1@AAU?$pair@$$CBV?$CStringT@_WV?$StrTraitMFC_DLL@_WV?$ChTraitsCRT@_W@ATL@@@@@ATL@@PAVBNC_ReferenceItem@@@1@@Z 100da950 f i dllmain.obj
 0002:00017ac0       ??$_Copy@U?$integral_constant@_N$0A@@std@@@?$_Tree@V?$_Tmap_traits@V?$CStringT@_WV?$StrTraitMFC_DLL@_WV?$ChTraitsCRT@_W@ATL@@@@@ATL@@PAVBNC_ReferenceItem@@U?$less@V?$CStringT@_WV?$StrTraitMFC_DLL@_WV?$ChTraitsCRT@_W@ATL@@@@@ATL@@@std@@V?$allocator@U?$pair@$$CBV?$CStringT@_WV?$StrTraitMFC_DLL@_WV?$ChTraitsCRT@_W@ATL@@@@@ATL@@PAVBNC_ReferenceItem@@@std@@@5@$0A@@std@@@std@@IAEXABV01@U?$integral_constant@_N$0A@@1@@Z 100daac0 f i dllmain.obj
 0002:00017bf0       ??$_Copy_impl@PAHPAH@std@@YAPAHPAH00@Z 100dabf0 f i dllmain.obj
 0002:00017c70       ??$_Copy_impl@PAHPAH@std@@YAPAHPAH00U_Scalar_ptr_iterator_tag@0@@Z 100dac70 f i dllmain.obj
 0002:00017d00       ??$_Copy_impl@PAPAVBNC_Button@@PAPAV1@@std@@YAPAPAVBNC_Button@@PAPAV1@00@Z 100dad00 f i dllmain.obj
 0002:00017d80       ??$_Copy_impl@PAPAVBNC_Button@@PAPAV1@@std@@YAPAPAVBNC_Button@@PAPAV1@00U_Scalar_ptr_iterator_tag@0@@Z 100dad80 f i dllmain.obj
 0002:00017e10       ??$_Copy_impl@PAPAVBNC_ReferenceItem@@PAPAV1@@std@@YAPAPAVBNC_ReferenceItem@@PAPAV1@00@Z 100dae10 f i dllmain.obj
 0002:00017e90       ??$_Copy_impl@PAPAVBNC_ReferenceItem@@PAPAV1@@std@@YAPAPAVBNC_ReferenceItem@@PAPAV1@00U_Scalar_ptr_iterator_tag@0@@Z 100dae90 f i dllmain.obj
 0002:00017f20       ??$_Copy_impl@PAV?$CStringT@_WV?$StrTraitMFC_DLL@_WV?$ChTraitsCRT@_W@ATL@@@@@ATL@@PAV12@@std@@YAPAV?$CStringT@_WV?$StrTraitMFC_DLL@_WV?$ChTraitsCRT@_W@ATL@@@@@ATL@@PAV12@00@Z 100daf20 f i dllmain.obj
 0002:00017fa0       ??$_Copy_impl@PAV?$CStringT@_WV?$StrTraitMFC_DLL@_WV?$ChTraitsCRT@_W@ATL@@@@@ATL@@PAV12@@std@@YAPAV?$CStringT@_WV?$StrTraitMFC_DLL@_WV?$ChTraitsCRT@_W@ATL@@@@@ATL@@PAV12@00U_Nonscalar_ptr_iterator_tag@0@@Z 100dafa0 f i dllmain.obj
 0002:00018030       ??$_Copy_impl@PAV?$shared_ptr@VBNC_FakeRect@@@std@@PAV12@@std@@YAPAV?$shared_ptr@VBNC_FakeRect@@@0@PAV10@00@Z 100db030 f i dllmain.obj
 0002:000180b0       ??$_Copy_impl@PAV?$shared_ptr@VBNC_FakeRect@@@std@@PAV12@@std@@YAPAV?$shared_ptr@VBNC_FakeRect@@@0@PAV10@00U_Nonscalar_ptr_iterator_tag@0@@Z 100db0b0 f i dllmain.obj
 0002:00018130       ??$_Copy_nodes@U?$integral_constant@_N$0A@@std@@@?$_Tree@V?$_Tmap_traits@V?$CStringT@_WV?$StrTraitMFC_DLL@_WV?$ChTraitsCRT@_W@ATL@@@@@ATL@@PAVBNC_ReferenceItem@@U?$less@V?$CStringT@_WV?$StrTraitMFC_DLL@_WV?$ChTraitsCRT@_W@ATL@@@@@ATL@@@std@@V?$allocator@U?$pair@$$CBV?$CStringT@_WV?$StrTraitMFC_DLL@_WV?$ChTraitsCRT@_W@ATL@@@@@ATL@@PAVBNC_ReferenceItem@@@std@@@5@$0A@@std@@@std@@IAEPAU?$_Tree_node@U?$pair@$$CBV?$CStringT@_WV?$StrTraitMFC_DLL@_WV?$ChTraitsCRT@_W@ATL@@@@@ATL@@PAVBNC_ReferenceItem@@@std@@PAX@1@PAU21@0U?$integral_constant@_N$0A@@1@@Z 100db130 f i dllmain.obj
 0002:00018380       ??$_Copy_or_move@U?$integral_constant@_N$0A@@std@@U?$integral_constant@_N$00@2@U12@H@?$_Tree@V?$_Tmap_traits@V?$CStringT@_WV?$StrTraitMFC_DLL@_WV?$ChTraitsCRT@_W@ATL@@@@@ATL@@PAVBNC_ReferenceItem@@U?$less@V?$CStringT@_WV?$StrTraitMFC_DLL@_WV?$ChTraitsCRT@_W@ATL@@@@@ATL@@@std@@V?$allocator@U?$pair@$$CBV?$CStringT@_WV?$StrTraitMFC_DLL@_WV?$ChTraitsCRT@_W@ATL@@@@@ATL@@PAVBNC_ReferenceItem@@@std@@@5@$0A@@std@@@std@@IAEPAU?$_Tree_node@U?$pair@$$CBV?$CStringT@_WV?$StrTraitMFC_DLL@_WV?$ChTraitsCRT@_W@ATL@@@@@ATL@@PAVBNC_ReferenceItem@@@std@@PAX@1@PAU21@U?$integral_constant@_N$0A@@1@U?$integral_constant@_N$00@1@1H@Z 100db380 f i dllmain.obj
 0002:000183f0       ??$_Debug_pointer@D@std@@YAXPBDPB_WI@Z 100db3f0 f i dllmain.obj
 0002:00018460       ??$_Debug_pointer@H@std@@YAXPAHPB_WI@Z 100db460 f i dllmain.obj
 0002:000184d0       ??$_Debug_pointer@H@std@@YAXPBHPB_WI@Z 100db4d0 f i dllmain.obj
 0002:00018540       ??$_Debug_pointer@PAVBNC_Button@@@std@@YAXPAPAVBNC_Button@@PB_WI@Z 100db540 f i dllmain.obj
 0002:000185b0       ??$_Debug_pointer@PAVBNC_Button@@@std@@YAXPBQAVBNC_Button@@PB_WI@Z 100db5b0 f i dllmain.obj
 0002:00018620       ??$_Debug_pointer@PAVBNC_ReferenceItem@@@std@@YAXPAPAVBNC_ReferenceItem@@PB_WI@Z 100db620 f i dllmain.obj
 0002:00018690       ??$_Debug_pointer@PAVBNC_ReferenceItem@@@std@@YAXPBQAVBNC_ReferenceItem@@PB_WI@Z 100db690 f i dllmain.obj
 0002:00018700       ??$_Debug_pointer@V?$CStringT@_WV?$StrTraitMFC_DLL@_WV?$ChTraitsCRT@_W@ATL@@@@@ATL@@@std@@YAXPAV?$CStringT@_WV?$StrTraitMFC_DLL@_WV?$ChTraitsCRT@_W@ATL@@@@@ATL@@PB_WI@Z 100db700 f i dllmain.obj
 0002:00018770       ??$_Debug_pointer@V?$CStringT@_WV?$StrTraitMFC_DLL@_WV?$ChTraitsCRT@_W@ATL@@@@@ATL@@@std@@YAXPBV?$CStringT@_WV?$StrTraitMFC_DLL@_WV?$ChTraitsCRT@_W@ATL@@@@@ATL@@PB_WI@Z 100db770 f i dllmain.obj
 0002:000187e0       ??$_Debug_pointer@V?$shared_ptr@VBNC_FakeRect@@@std@@@std@@YAXPAV?$shared_ptr@VBNC_FakeRect@@@0@PB_WI@Z 100db7e0 f i dllmain.obj
 0002:00018850       ??$_Debug_pointer@V?$shared_ptr@VBNC_FakeRect@@@std@@@std@@YAXPBV?$shared_ptr@VBNC_FakeRect@@@0@PB_WI@Z 100db850 f i dllmain.obj
 0002:000188c0       ??$_Debug_range2@PAH@std@@YAXPAH0PB_WIUrandom_access_iterator_tag@0@@Z 100db8c0 f i dllmain.obj
 0002:00018970       ??$_Debug_range2@PAPAVBNC_Button@@@std@@YAXPAPAVBNC_Button@@0PB_WIUrandom_access_iterator_tag@0@@Z 100db970 f i dllmain.obj
 0002:00018a20       ??$_Debug_range2@PAPAVBNC_ReferenceItem@@@std@@YAXPAPAVBNC_ReferenceItem@@0PB_WIUrandom_access_iterator_tag@0@@Z 100dba20 f i dllmain.obj
 0002:00018ad0       ??$_Debug_range2@PAV?$CStringT@_WV?$StrTraitMFC_DLL@_WV?$ChTraitsCRT@_W@ATL@@@@@ATL@@@std@@YAXPAV?$CStringT@_WV?$StrTraitMFC_DLL@_WV?$ChTraitsCRT@_W@ATL@@@@@ATL@@0PB_WIUrandom_access_iterator_tag@0@@Z 100dbad0 f i dllmain.obj
 0002:00018b80       ??$_Debug_range2@PAV?$shared_ptr@VBNC_FakeRect@@@std@@@std@@YAXPAV?$shared_ptr@VBNC_FakeRect@@@0@0PB_WIUrandom_access_iterator_tag@0@@Z 100dbb80 f i dllmain.obj
 0002:00018c30       ??$_Debug_range2@PBH@std@@YAXPBH0PB_WIUrandom_access_iterator_tag@0@@Z 100dbc30 f i dllmain.obj
 0002:00018ce0       ??$_Debug_range2@PBQAVBNC_Button@@@std@@YAXPBQAVBNC_Button@@0PB_WIUrandom_access_iterator_tag@0@@Z 100dbce0 f i dllmain.obj
 0002:00018d90       ??$_Debug_range2@PBQAVBNC_ReferenceItem@@@std@@YAXPBQAVBNC_ReferenceItem@@0PB_WIUrandom_access_iterator_tag@0@@Z 100dbd90 f i dllmain.obj
 0002:00018e40       ??$_Debug_range2@PBV?$CStringT@_WV?$StrTraitMFC_DLL@_WV?$ChTraitsCRT@_W@ATL@@@@@ATL@@@std@@YAXPBV?$CStringT@_WV?$StrTraitMFC_DLL@_WV?$ChTraitsCRT@_W@ATL@@@@@ATL@@0PB_WIUrandom_access_iterator_tag@0@@Z 100dbe40 f i dllmain.obj
 0002:00018ef0       ??$_Debug_range2@PBV?$shared_ptr@VBNC_FakeRect@@@std@@@std@@YAXPBV?$shared_ptr@VBNC_FakeRect@@@0@0PB_WIUrandom_access_iterator_tag@0@@Z 100dbef0 f i dllmain.obj
 0002:00018fa0       ??$_Debug_range@PAH@std@@YAXPAH0PB_WI@Z 100dbfa0 f i dllmain.obj
 0002:00019020       ??$_Debug_range@PAPAVBNC_Button@@@std@@YAXPAPAVBNC_Button@@0PB_WI@Z 100dc020 f i dllmain.obj
 0002:000190a0       ??$_Debug_range@PAPAVBNC_ReferenceItem@@@std@@YAXPAPAVBNC_ReferenceItem@@0PB_WI@Z 100dc0a0 f i dllmain.obj
 0002:00019120       ??$_Debug_range@PAV?$CStringT@_WV?$StrTraitMFC_DLL@_WV?$ChTraitsCRT@_W@ATL@@@@@ATL@@@std@@YAXPAV?$CStringT@_WV?$StrTraitMFC_DLL@_WV?$ChTraitsCRT@_W@ATL@@@@@ATL@@0PB_WI@Z 100dc120 f i dllmain.obj
 0002:000191a0       ??$_Debug_range@PAV?$shared_ptr@VBNC_FakeRect@@@std@@@std@@YAXPAV?$shared_ptr@VBNC_FakeRect@@@0@0PB_WI@Z 100dc1a0 f i dllmain.obj
 0002:00019220       ??$_Debug_range@PBH@std@@YAXPBH0PB_WI@Z 100dc220 f i dllmain.obj
 0002:000192a0       ??$_Debug_range@PBQAVBNC_Button@@@std@@YAXPBQAVBNC_Button@@0PB_WI@Z 100dc2a0 f i dllmain.obj
 0002:00019320       ??$_Debug_range@PBQAVBNC_ReferenceItem@@@std@@YAXPBQAVBNC_ReferenceItem@@0PB_WI@Z 100dc320 f i dllmain.obj
 0002:000193a0       ??$_Debug_range@PBV?$CStringT@_WV?$StrTraitMFC_DLL@_WV?$ChTraitsCRT@_W@ATL@@@@@ATL@@@std@@YAXPBV?$CStringT@_WV?$StrTraitMFC_DLL@_WV?$ChTraitsCRT@_W@ATL@@@@@ATL@@0PB_WI@Z 100dc3a0 f i dllmain.obj
 0002:00019420       ??$_Debug_range@PBV?$shared_ptr@VBNC_FakeRect@@@std@@@std@@YAXPBV?$shared_ptr@VBNC_FakeRect@@@0@0PB_WI@Z 100dc420 f i dllmain.obj
 0002:000194a0       ??$_Destroy_range@U?$_Wrap_alloc@V?$allocator@H@std@@@std@@@std@@YAXPAH0AAU?$_Wrap_alloc@V?$allocator@H@std@@@0@@Z 100dc4a0 f i dllmain.obj
 0002:00019520       ??$_Destroy_range@U?$_Wrap_alloc@V?$allocator@H@std@@@std@@@std@@YAXPAH0AAU?$_Wrap_alloc@V?$allocator@H@std@@@0@U_Scalar_ptr_iterator_tag@0@@Z 100dc520 f i dllmain.obj
 0002:00019550       ??$_Destroy_range@U?$_Wrap_alloc@V?$allocator@PAVBNC_Button@@@std@@@std@@@std@@YAXPAPAVBNC_Button@@0AAU?$_Wrap_alloc@V?$allocator@PAVBNC_Button@@@std@@@0@@Z 100dc550 f i dllmain.obj
 0002:000195d0       ??$_Destroy_range@U?$_Wrap_alloc@V?$allocator@PAVBNC_Button@@@std@@@std@@@std@@YAXPAPAVBNC_Button@@0AAU?$_Wrap_alloc@V?$allocator@PAVBNC_Button@@@std@@@0@U_Scalar_ptr_iterator_tag@0@@Z 100dc5d0 f i dllmain.obj
 0002:00019600       ??$_Destroy_range@U?$_Wrap_alloc@V?$allocator@PAVBNC_ReferenceItem@@@std@@@std@@@std@@YAXPAPAVBNC_ReferenceItem@@0AAU?$_Wrap_alloc@V?$allocator@PAVBNC_ReferenceItem@@@std@@@0@@Z 100dc600 f i dllmain.obj
 0002:00019680       ??$_Destroy_range@U?$_Wrap_alloc@V?$allocator@PAVBNC_ReferenceItem@@@std@@@std@@@std@@YAXPAPAVBNC_ReferenceItem@@0AAU?$_Wrap_alloc@V?$allocator@PAVBNC_ReferenceItem@@@std@@@0@U_Scalar_ptr_iterator_tag@0@@Z 100dc680 f i dllmain.obj
 0002:000196b0       ??$_Destroy_range@U?$_Wrap_alloc@V?$allocator@V?$CStringT@_WV?$StrTraitMFC_DLL@_WV?$ChTraitsCRT@_W@ATL@@@@@ATL@@@std@@@std@@@std@@YAXPAV?$CStringT@_WV?$StrTraitMFC_DLL@_WV?$ChTraitsCRT@_W@ATL@@@@@ATL@@0AAU?$_Wrap_alloc@V?$allocator@V?$CStringT@_WV?$StrTraitMFC_DLL@_WV?$ChTraitsCRT@_W@ATL@@@@@ATL@@@std@@@0@@Z 100dc6b0 f i dllmain.obj
 0002:00019730       ??$_Destroy_range@U?$_Wrap_alloc@V?$allocator@V?$CStringT@_WV?$StrTraitMFC_DLL@_WV?$ChTraitsCRT@_W@ATL@@@@@ATL@@@std@@@std@@@std@@YAXPAV?$CStringT@_WV?$StrTraitMFC_DLL@_WV?$ChTraitsCRT@_W@ATL@@@@@ATL@@0AAU?$_Wrap_alloc@V?$allocator@V?$CStringT@_WV?$StrTraitMFC_DLL@_WV?$ChTraitsCRT@_W@ATL@@@@@ATL@@@std@@@0@U_Nonscalar_ptr_iterator_tag@0@@Z 100dc730 f i dllmain.obj
 0002:000197a0       ??$_Destroy_range@U?$_Wrap_alloc@V?$allocator@V?$shared_ptr@VBNC_FakeRect@@@std@@@std@@@std@@@std@@YAXPAV?$shared_ptr@VBNC_FakeRect@@@0@0AAU?$_Wrap_alloc@V?$allocator@V?$shared_ptr@VBNC_FakeRect@@@std@@@std@@@0@@Z 100dc7a0 f i dllmain.obj
 0002:00019820       ??$_Destroy_range@U?$_Wrap_alloc@V?$allocator@V?$shared_ptr@VBNC_FakeRect@@@std@@@std@@@std@@@std@@YAXPAV?$shared_ptr@VBNC_FakeRect@@@0@0AAU?$_Wrap_alloc@V?$allocator@V?$shared_ptr@VBNC_FakeRect@@@std@@@std@@@0@U_Nonscalar_ptr_iterator_tag@0@@Z 100dc820 f i dllmain.obj
 0002:00019890       ??$_Iter_cat@PAH@std@@YA?AUrandom_access_iterator_tag@0@ABQAH@Z 100dc890 f i dllmain.obj
 0002:00019910       ??$_Iter_cat@PAPAVBNC_Button@@@std@@YA?AUrandom_access_iterator_tag@0@ABQAPAVBNC_Button@@@Z 100dc910 f i dllmain.obj
 0002:00019990       ??$_Iter_cat@PAPAVBNC_ReferenceItem@@@std@@YA?AUrandom_access_iterator_tag@0@ABQAPAVBNC_ReferenceItem@@@Z 100dc990 f i dllmain.obj
 0002:00019a10       ??$_Iter_cat@PAV?$CStringT@_WV?$StrTraitMFC_DLL@_WV?$ChTraitsCRT@_W@ATL@@@@@ATL@@@std@@YA?AUrandom_access_iterator_tag@0@ABQAV?$CStringT@_WV?$StrTraitMFC_DLL@_WV?$ChTraitsCRT@_W@ATL@@@@@ATL@@@Z 100dca10 f i dllmain.obj
 0002:00019a90       ??$_Iter_cat@PAV?$shared_ptr@VBNC_FakeRect@@@std@@@std@@YA?AUrandom_access_iterator_tag@0@ABQAV?$shared_ptr@VBNC_FakeRect@@@0@@Z 100dca90 f i dllmain.obj
 0002:00019b10       ??$_Iter_cat@PBH@std@@YA?AUrandom_access_iterator_tag@0@ABQBH@Z 100dcb10 f i dllmain.obj
 0002:00019b90       ??$_Iter_cat@PBQAVBNC_Button@@@std@@YA?AUrandom_access_iterator_tag@0@ABQBQAVBNC_Button@@@Z 100dcb90 f i dllmain.obj
 0002:00019c10       ??$_Iter_cat@PBQAVBNC_ReferenceItem@@@std@@YA?AUrandom_access_iterator_tag@0@ABQBQAVBNC_ReferenceItem@@@Z 100dcc10 f i dllmain.obj
 0002:00019c90       ??$_Iter_cat@PBV?$CStringT@_WV?$StrTraitMFC_DLL@_WV?$ChTraitsCRT@_W@ATL@@@@@ATL@@@std@@YA?AUrandom_access_iterator_tag@0@ABQBV?$CStringT@_WV?$StrTraitMFC_DLL@_WV?$ChTraitsCRT@_W@ATL@@@@@ATL@@@Z 100dcc90 f i dllmain.obj
 0002:00019d10       ??$_Iter_cat@PBV?$shared_ptr@VBNC_FakeRect@@@std@@@std@@YA?AUrandom_access_iterator_tag@0@ABQBV?$shared_ptr@VBNC_FakeRect@@@0@@Z 100dcd10 f i dllmain.obj
 0002:00019d90       ??$_Move@AAD@std@@YA$$QADAAD@Z 100dcd90 f i dllmain.obj
 0002:00019dd0       ??$_Move@AAPAVBNC_FakeRect@@@std@@YA$$QAPAVBNC_FakeRect@@AAPAV1@@Z 100dcdd0 f i dllmain.obj
 0002:00019e10       ??$_Move@AAPAV_Ref_count_base@std@@@std@@YA$$QAPAV_Ref_count_base@0@AAPAV10@@Z 100dce10 f i dllmain.obj
 0002:00019e50       ??$_Ptr_cat@HH@std@@YA?AU_Scalar_ptr_iterator_tag@0@PAH0@Z 100dce50 f i dllmain.obj
 0002:00019ec0       ??$_Ptr_cat@HH@std@@YA?AU_Scalar_ptr_iterator_tag@0@PBHPAH@Z 100dcec0 f i dllmain.obj
 0002:00019f30       ??$_Ptr_cat@PAVBNC_Button@@PAV1@@std@@YA?AU_Scalar_ptr_iterator_tag@0@PAPAVBNC_Button@@0@Z 100dcf30 f i dllmain.obj
 0002:00019fa0       ??$_Ptr_cat@PAVBNC_Button@@PAV1@@std@@YA?AU_Scalar_ptr_iterator_tag@0@PBQAVBNC_Button@@PAPAV2@@Z 100dcfa0 f i dllmain.obj
 0002:0001a010       ??$_Ptr_cat@PAVBNC_ReferenceItem@@PAV1@@std@@YA?AU_Scalar_ptr_iterator_tag@0@PAPAVBNC_ReferenceItem@@0@Z 100dd010 f i dllmain.obj
 0002:0001a080       ??$_Ptr_cat@PAVBNC_ReferenceItem@@PAV1@@std@@YA?AU_Scalar_ptr_iterator_tag@0@PBQAVBNC_ReferenceItem@@PAPAV2@@Z 100dd080 f i dllmain.obj
 0002:0001a0f0       ??$_Ptr_cat@V?$CStringT@_WV?$StrTraitMFC_DLL@_WV?$ChTraitsCRT@_W@ATL@@@@@ATL@@V12@@std@@YA?AU_Nonscalar_ptr_iterator_tag@0@PAV?$CStringT@_WV?$StrTraitMFC_DLL@_WV?$ChTraitsCRT@_W@ATL@@@@@ATL@@0@Z 100dd0f0 f i dllmain.obj
 0002:0001a160       ??$_Ptr_cat@V?$CStringT@_WV?$StrTraitMFC_DLL@_WV?$ChTraitsCRT@_W@ATL@@@@@ATL@@V12@@std@@YA?AU_Nonscalar_ptr_iterator_tag@0@PBV?$CStringT@_WV?$StrTraitMFC_DLL@_WV?$ChTraitsCRT@_W@ATL@@@@@ATL@@PAV23@@Z 100dd160 f i dllmain.obj
 0002:0001a1d0       ??$_Ptr_cat@V?$shared_ptr@VBNC_FakeRect@@@std@@V12@@std@@YA?AU_Nonscalar_ptr_iterator_tag@0@PAV?$shared_ptr@VBNC_FakeRect@@@0@0@Z 100dd1d0 f i dllmain.obj
 0002:0001a240       ??$_Ptr_cat@V?$shared_ptr@VBNC_FakeRect@@@std@@V12@@std@@YA?AU_Nonscalar_ptr_iterator_tag@0@PBV?$shared_ptr@VBNC_FakeRect@@@0@PAV20@@Z 100dd240 f i dllmain.obj
 0002:0001a2b0       ??$_Rechecked@PAHPAH@std@@YAAAPAHAAPAHPAH@Z 100dd2b0 f i dllmain.obj
 0002:0001a2f0       ??$_Rechecked@PAPAVBNC_Button@@PAPAV1@@std@@YAAAPAPAVBNC_Button@@AAPAPAV1@PAPAV1@@Z 100dd2f0 f i dllmain.obj
 0002:0001a330       ??$_Rechecked@PAPAVBNC_ReferenceItem@@PAPAV1@@std@@YAAAPAPAVBNC_ReferenceItem@@AAPAPAV1@PAPAV1@@Z 100dd330 f i dllmain.obj
 0002:0001a370       ??$_Rechecked@PAV?$CStringT@_WV?$StrTraitMFC_DLL@_WV?$ChTraitsCRT@_W@ATL@@@@@ATL@@PAV12@@std@@YAAAPAV?$CStringT@_WV?$StrTraitMFC_DLL@_WV?$ChTraitsCRT@_W@ATL@@@@@ATL@@AAPAV12@PAV12@@Z 100dd370 f i dllmain.obj
 0002:0001a3b0       ??$_Rechecked@PAV?$shared_ptr@VBNC_FakeRect@@@std@@PAV12@@std@@YAAAPAV?$shared_ptr@VBNC_FakeRect@@@0@AAPAV10@PAV10@@Z 100dd3b0 f i dllmain.obj
 0002:0001a3f0       ??$_Reset@VBNC_FakeRect@@@?$_Ptr_base@VBNC_FakeRect@@@std@@QAEXABV01@@Z 100dd3f0 f i dllmain.obj
 0002:0001a460       ??$_Ucopy@PAH@?$vector@HV?$allocator@H@std@@@std@@IAEPAHPAH00@Z 100dd460 f i dllmain.obj
 0002:0001a530       ??$_Ucopy@PAPAVBNC_Button@@@?$vector@PAVBNC_Button@@V?$allocator@PAVBNC_Button@@@std@@@std@@IAEPAPAVBNC_Button@@PAPAV2@00@Z 100dd530 f i dllmain.obj
 0002:0001a600       ??$_Ucopy@PAPAVBNC_ReferenceItem@@@?$vector@PAVBNC_ReferenceItem@@V?$allocator@PAVBNC_ReferenceItem@@@std@@@std@@IAEPAPAVBNC_ReferenceItem@@PAPAV2@00@Z 100dd600 f i dllmain.obj
 0002:0001a6d0       ??$_Ucopy@PAV?$CStringT@_WV?$StrTraitMFC_DLL@_WV?$ChTraitsCRT@_W@ATL@@@@@ATL@@@?$vector@V?$CStringT@_WV?$StrTraitMFC_DLL@_WV?$ChTraitsCRT@_W@ATL@@@@@ATL@@V?$allocator@V?$CStringT@_WV?$StrTraitMFC_DLL@_WV?$ChTraitsCRT@_W@ATL@@@@@ATL@@@std@@@std@@IAEPAV?$CStringT@_WV?$StrTraitMFC_DLL@_WV?$ChTraitsCRT@_W@ATL@@@@@ATL@@PAV23@00@Z 100dd6d0 f i dllmain.obj
 0002:0001a7a0       ??$_Ucopy@PAV?$shared_ptr@VBNC_FakeRect@@@std@@@?$vector@V?$shared_ptr@VBNC_FakeRect@@@std@@V?$allocator@V?$shared_ptr@VBNC_FakeRect@@@std@@@2@@std@@IAEPAV?$shared_ptr@VBNC_FakeRect@@@1@PAV21@00@Z 100dd7a0 f i dllmain.obj
 0002:0001a870       ??$_Ucopy@V?$_Vector_const_iterator@V?$_Vector_val@U?$_Simple_types@H@std@@@std@@@std@@@?$vector@HV?$allocator@H@std@@@std@@IAEPAHV?$_Vector_const_iterator@V?$_Vector_val@U?$_Simple_types@H@std@@@std@@@1@0PAH@Z 100dd870 f i dllmain.obj
 0002:0001aa00       ??$_Ucopy@V?$_Vector_const_iterator@V?$_Vector_val@U?$_Simple_types@PAVBNC_Button@@@std@@@std@@@std@@@?$vector@PAVBNC_Button@@V?$allocator@PAVBNC_Button@@@std@@@std@@IAEPAPAVBNC_Button@@V?$_Vector_const_iterator@V?$_Vector_val@U?$_Simple_types@PAVBNC_Button@@@std@@@std@@@1@0PAPAV2@@Z 100dda00 f i dllmain.obj
 0002:0001ab90       ??$_Ucopy@V?$_Vector_const_iterator@V?$_Vector_val@U?$_Simple_types@PAVBNC_ReferenceItem@@@std@@@std@@@std@@@?$vector@PAVBNC_ReferenceItem@@V?$allocator@PAVBNC_ReferenceItem@@@std@@@std@@IAEPAPAVBNC_ReferenceItem@@V?$_Vector_const_iterator@V?$_Vector_val@U?$_Simple_types@PAVBNC_ReferenceItem@@@std@@@std@@@1@0PAPAV2@@Z 100ddb90 f i dllmain.obj
 0002:0001ad20       ??$_Ucopy@V?$_Vector_const_iterator@V?$_Vector_val@U?$_Simple_types@V?$CStringT@_WV?$StrTraitMFC_DLL@_WV?$ChTraitsCRT@_W@ATL@@@@@ATL@@@std@@@std@@@std@@@?$vector@V?$CStringT@_WV?$StrTraitMFC_DLL@_WV?$ChTraitsCRT@_W@ATL@@@@@ATL@@V?$allocator@V?$CStringT@_WV?$StrTraitMFC_DLL@_WV?$ChTraitsCRT@_W@ATL@@@@@ATL@@@std@@@std@@IAEPAV?$CStringT@_WV?$StrTraitMFC_DLL@_WV?$ChTraitsCRT@_W@ATL@@@@@ATL@@V?$_Vector_const_iterator@V?$_Vector_val@U?$_Simple_types@V?$CStringT@_WV?$StrTraitMFC_DLL@_WV?$ChTraitsCRT@_W@ATL@@@@@ATL@@@std@@@std@@@1@0PAV23@@Z 100ddd20 f i dllmain.obj
 0002:0001aeb0       ??$_Ucopy@V?$_Vector_const_iterator@V?$_Vector_val@U?$_Simple_types@V?$shared_ptr@VBNC_FakeRect@@@std@@@std@@@std@@@std@@@?$vector@V?$shared_ptr@VBNC_FakeRect@@@std@@V?$allocator@V?$shared_ptr@VBNC_FakeRect@@@std@@@2@@std@@IAEPAV?$shared_ptr@VBNC_FakeRect@@@1@V?$_Vector_const_iterator@V?$_Vector_val@U?$_Simple_types@V?$shared_ptr@VBNC_FakeRect@@@std@@@std@@@std@@@1@0PAV21@@Z 100ddeb0 f i dllmain.obj
 0002:0001b040       ??$_Unchecked@PAH@std@@YAPAHPAH@Z 100de040 f i dllmain.obj
 0002:0001b080       ??$_Unchecked@PAPAVBNC_Button@@@std@@YAPAPAVBNC_Button@@PAPAV1@@Z 100de080 f i dllmain.obj
 0002:0001b0c0       ??$_Unchecked@PAPAVBNC_ReferenceItem@@@std@@YAPAPAVBNC_ReferenceItem@@PAPAV1@@Z 100de0c0 f i dllmain.obj
 0002:0001b100       ??$_Unchecked@PAV?$CStringT@_WV?$StrTraitMFC_DLL@_WV?$ChTraitsCRT@_W@ATL@@@@@ATL@@@std@@YAPAV?$CStringT@_WV?$StrTraitMFC_DLL@_WV?$ChTraitsCRT@_W@ATL@@@@@ATL@@PAV12@@Z 100de100 f i dllmain.obj
 0002:0001b140       ??$_Unchecked@PAV?$shared_ptr@VBNC_FakeRect@@@std@@@std@@YAPAV?$shared_ptr@VBNC_FakeRect@@@0@PAV10@@Z 100de140 f i dllmain.obj
 0002:0001b180       ??$_Unchecked@V?$_Vector_val@U?$_Simple_types@H@std@@@std@@@std@@YAPBHV?$_Vector_const_iterator@V?$_Vector_val@U?$_Simple_types@H@std@@@std@@@0@@Z 100de180 f i dllmain.obj
 0002:0001b230       ??$_Unchecked@V?$_Vector_val@U?$_Simple_types@PAVBNC_Button@@@std@@@std@@@std@@YAPBQAVBNC_Button@@V?$_Vector_const_iterator@V?$_Vector_val@U?$_Simple_types@PAVBNC_Button@@@std@@@std@@@0@@Z 100de230 f i dllmain.obj
 0002:0001b2e0       ??$_Unchecked@V?$_Vector_val@U?$_Simple_types@PAVBNC_ReferenceItem@@@std@@@std@@@std@@YAPBQAVBNC_ReferenceItem@@V?$_Vector_const_iterator@V?$_Vector_val@U?$_Simple_types@PAVBNC_ReferenceItem@@@std@@@std@@@0@@Z 100de2e0 f i dllmain.obj
 0002:0001b390       ??$_Unchecked@V?$_Vector_val@U?$_Simple_types@V?$CStringT@_WV?$StrTraitMFC_DLL@_WV?$ChTraitsCRT@_W@ATL@@@@@ATL@@@std@@@std@@@std@@YAPBV?$CStringT@_WV?$StrTraitMFC_DLL@_WV?$ChTraitsCRT@_W@ATL@@@@@ATL@@V?$_Vector_const_iterator@V?$_Vector_val@U?$_Simple_types@V?$CStringT@_WV?$StrTraitMFC_DLL@_WV?$ChTraitsCRT@_W@ATL@@@@@ATL@@@std@@@std@@@0@@Z 100de390 f i dllmain.obj
 0002:0001b440       ??$_Unchecked@V?$_Vector_val@U?$_Simple_types@V?$shared_ptr@VBNC_FakeRect@@@std@@@std@@@std@@@std@@YAPBV?$shared_ptr@VBNC_FakeRect@@@0@V?$_Vector_const_iterator@V?$_Vector_val@U?$_Simple_types@V?$shared_ptr@VBNC_FakeRect@@@std@@@std@@@std@@@0@@Z 100de440 f i dllmain.obj
 0002:0001b4f0       ??$_Uninit_copy@$$CBHH@std@@YAPAHPBH0PAHAAU?$_Wrap_alloc@V?$allocator@H@std@@@0@U_Scalar_ptr_iterator_tag@0@@Z 100de4f0 f i dllmain.obj
 0002:0001b5b0       ??$_Uninit_copy@HH@std@@YAPAHPAH00AAU?$_Wrap_alloc@V?$allocator@H@std@@@0@U_Scalar_ptr_iterator_tag@0@@Z 100de5b0 f i dllmain.obj
 0002:0001b670       ??$_Uninit_copy@PAHPAHU?$_Wrap_alloc@V?$allocator@H@std@@@std@@@std@@YAPAHPAH00AAU?$_Wrap_alloc@V?$allocator@H@std@@@0@@Z 100de670 f i dllmain.obj
 0002:0001b700       ??$_Uninit_copy@PAPAVBNC_Button@@PAPAV1@U?$_Wrap_alloc@V?$allocator@PAVBNC_Button@@@std@@@std@@@std@@YAPAPAVBNC_Button@@PAPAV1@00AAU?$_Wrap_alloc@V?$allocator@PAVBNC_Button@@@std@@@0@@Z 100de700 f i dllmain.obj
 0002:0001b790       ??$_Uninit_copy@PAPAVBNC_ReferenceItem@@PAPAV1@U?$_Wrap_alloc@V?$allocator@PAVBNC_ReferenceItem@@@std@@@std@@@std@@YAPAPAVBNC_ReferenceItem@@PAPAV1@00AAU?$_Wrap_alloc@V?$allocator@PAVBNC_ReferenceItem@@@std@@@0@@Z 100de790 f i dllmain.obj
 0002:0001b820       ??$_Uninit_copy@PAV?$CStringT@_WV?$StrTraitMFC_DLL@_WV?$ChTraitsCRT@_W@ATL@@@@@ATL@@PAV12@U?$_Wrap_alloc@V?$allocator@V?$CStringT@_WV?$StrTraitMFC_DLL@_WV?$ChTraitsCRT@_W@ATL@@@@@ATL@@@std@@@std@@@std@@YAPAV?$CStringT@_WV?$StrTraitMFC_DLL@_WV?$ChTraitsCRT@_W@ATL@@@@@ATL@@PAV12@00AAU?$_Wrap_alloc@V?$allocator@V?$CStringT@_WV?$StrTraitMFC_DLL@_WV?$ChTraitsCRT@_W@ATL@@@@@ATL@@@std@@@0@@Z 100de820 f i dllmain.obj
 0002:0001b8b0       ??$_Uninit_copy@PAV?$CStringT@_WV?$StrTraitMFC_DLL@_WV?$ChTraitsCRT@_W@ATL@@@@@ATL@@PAV12@V?$allocator@V?$CStringT@_WV?$StrTraitMFC_DLL@_WV?$ChTraitsCRT@_W@ATL@@@@@ATL@@@std@@@std@@YAPAV?$CStringT@_WV?$StrTraitMFC_DLL@_WV?$ChTraitsCRT@_W@ATL@@@@@ATL@@PAV12@00AAU?$_Wrap_alloc@V?$allocator@V?$CStringT@_WV?$StrTraitMFC_DLL@_WV?$ChTraitsCRT@_W@ATL@@@@@ATL@@@std@@@0@U_Nonscalar_ptr_iterator_tag@0@@Z 100de8b0 f i dllmain.obj
 0002:0001ba10       ??$_Uninit_copy@PAV?$shared_ptr@VBNC_FakeRect@@@std@@PAV12@U?$_Wrap_alloc@V?$allocator@V?$shared_ptr@VBNC_FakeRect@@@std@@@std@@@2@@std@@YAPAV?$shared_ptr@VBNC_FakeRect@@@0@PAV10@00AAU?$_Wrap_alloc@V?$allocator@V?$shared_ptr@VBNC_FakeRect@@@std@@@std@@@0@@Z 100dea10 f i dllmain.obj
 0002:0001baa0       ??$_Uninit_copy@PAV?$shared_ptr@VBNC_FakeRect@@@std@@PAV12@V?$allocator@V?$shared_ptr@VBNC_FakeRect@@@std@@@2@@std@@YAPAV?$shared_ptr@VBNC_FakeRect@@@0@PAV10@00AAU?$_Wrap_alloc@V?$allocator@V?$shared_ptr@VBNC_FakeRect@@@std@@@std@@@0@U_Nonscalar_ptr_iterator_tag@0@@Z 100deaa0 f i dllmain.obj
 0002:0001bc00       ??$_Uninit_copy@PAVBNC_Button@@PAV1@@std@@YAPAPAVBNC_Button@@PAPAV1@00AAU?$_Wrap_alloc@V?$allocator@PAVBNC_Button@@@std@@@0@U_Scalar_ptr_iterator_tag@0@@Z 100dec00 f i dllmain.obj
 0002:0001bcc0       ??$_Uninit_copy@PAVBNC_ReferenceItem@@PAV1@@std@@YAPAPAVBNC_ReferenceItem@@PAPAV1@00AAU?$_Wrap_alloc@V?$allocator@PAVBNC_ReferenceItem@@@std@@@0@U_Scalar_ptr_iterator_tag@0@@Z 100decc0 f i dllmain.obj
 0002:0001bd80       ??$_Uninit_copy@PBHPAHU?$_Wrap_alloc@V?$allocator@H@std@@@std@@@std@@YAPAHPBH0PAHAAU?$_Wrap_alloc@V?$allocator@H@std@@@0@@Z 100ded80 f i dllmain.obj
 0002:0001be10       ??$_Uninit_copy@PBQAVBNC_Button@@PAPAV1@U?$_Wrap_alloc@V?$allocator@PAVBNC_Button@@@std@@@std@@@std@@YAPAPAVBNC_Button@@PBQAV1@0PAPAV1@AAU?$_Wrap_alloc@V?$allocator@PAVBNC_Button@@@std@@@0@@Z 100dee10 f i dllmain.obj
 0002:0001bea0       ??$_Uninit_copy@PBQAVBNC_ReferenceItem@@PAPAV1@U?$_Wrap_alloc@V?$allocator@PAVBNC_ReferenceItem@@@std@@@std@@@std@@YAPAPAVBNC_ReferenceItem@@PBQAV1@0PAPAV1@AAU?$_Wrap_alloc@V?$allocator@PAVBNC_ReferenceItem@@@std@@@0@@Z 100deea0 f i dllmain.obj
 0002:0001bf30       ??$_Uninit_copy@PBV?$CStringT@_WV?$StrTraitMFC_DLL@_WV?$ChTraitsCRT@_W@ATL@@@@@ATL@@PAV12@U?$_Wrap_alloc@V?$allocator@V?$CStringT@_WV?$StrTraitMFC_DLL@_WV?$ChTraitsCRT@_W@ATL@@@@@ATL@@@std@@@std@@@std@@YAPAV?$CStringT@_WV?$StrTraitMFC_DLL@_WV?$ChTraitsCRT@_W@ATL@@@@@ATL@@PBV12@0PAV12@AAU?$_Wrap_alloc@V?$allocator@V?$CStringT@_WV?$StrTraitMFC_DLL@_WV?$ChTraitsCRT@_W@ATL@@@@@ATL@@@std@@@0@@Z 100def30 f i dllmain.obj
 0002:0001bfc0       ??$_Uninit_copy@PBV?$CStringT@_WV?$StrTraitMFC_DLL@_WV?$ChTraitsCRT@_W@ATL@@@@@ATL@@PAV12@V?$allocator@V?$CStringT@_WV?$StrTraitMFC_DLL@_WV?$ChTraitsCRT@_W@ATL@@@@@ATL@@@std@@@std@@YAPAV?$CStringT@_WV?$StrTraitMFC_DLL@_WV?$ChTraitsCRT@_W@ATL@@@@@ATL@@PBV12@0PAV12@AAU?$_Wrap_alloc@V?$allocator@V?$CStringT@_WV?$StrTraitMFC_DLL@_WV?$ChTraitsCRT@_W@ATL@@@@@ATL@@@std@@@0@U_Nonscalar_ptr_iterator_tag@0@@Z 100defc0 f i dllmain.obj
 0002:0001c120       ??$_Uninit_copy@PBV?$shared_ptr@VBNC_FakeRect@@@std@@PAV12@U?$_Wrap_alloc@V?$allocator@V?$shared_ptr@VBNC_FakeRect@@@std@@@std@@@2@@std@@YAPAV?$shared_ptr@VBNC_FakeRect@@@0@PBV10@0PAV10@AAU?$_Wrap_alloc@V?$allocator@V?$shared_ptr@VBNC_FakeRect@@@std@@@std@@@0@@Z 100df120 f i dllmain.obj
 0002:0001c1b0       ??$_Uninit_copy@PBV?$shared_ptr@VBNC_FakeRect@@@std@@PAV12@V?$allocator@V?$shared_ptr@VBNC_FakeRect@@@std@@@2@@std@@YAPAV?$shared_ptr@VBNC_FakeRect@@@0@PBV10@0PAV10@AAU?$_Wrap_alloc@V?$allocator@V?$shared_ptr@VBNC_FakeRect@@@std@@@std@@@0@U_Nonscalar_ptr_iterator_tag@0@@Z 100df1b0 f i dllmain.obj
 0002:0001c310       ??$_Uninit_copy@QAVBNC_Button@@PAV1@@std@@YAPAPAVBNC_Button@@PBQAV1@0PAPAV1@AAU?$_Wrap_alloc@V?$allocator@PAVBNC_Button@@@std@@@0@U_Scalar_ptr_iterator_tag@0@@Z 100df310 f i dllmain.obj
 0002:0001c3d0       ??$_Uninit_copy@QAVBNC_ReferenceItem@@PAV1@@std@@YAPAPAVBNC_ReferenceItem@@PBQAV1@0PAPAV1@AAU?$_Wrap_alloc@V?$allocator@PAVBNC_ReferenceItem@@@std@@@0@U_Scalar_ptr_iterator_tag@0@@Z 100df3d0 f i dllmain.obj
 0002:0001c490       ??$_Uninitialized_copy@PAHPAHU?$_Wrap_alloc@V?$allocator@H@std@@@std@@@std@@YAPAHPAH00AAU?$_Wrap_alloc@V?$allocator@H@std@@@0@@Z 100df490 f i dllmain.obj
 0002:0001c530       ??$_Uninitialized_copy@PAPAVBNC_Button@@PAPAV1@U?$_Wrap_alloc@V?$allocator@PAVBNC_Button@@@std@@@std@@@std@@YAPAPAVBNC_Button@@PAPAV1@00AAU?$_Wrap_alloc@V?$allocator@PAVBNC_Button@@@std@@@0@@Z 100df530 f i dllmain.obj
 0002:0001c5d0       ??$_Uninitialized_copy@PAPAVBNC_ReferenceItem@@PAPAV1@U?$_Wrap_alloc@V?$allocator@PAVBNC_ReferenceItem@@@std@@@std@@@std@@YAPAPAVBNC_ReferenceItem@@PAPAV1@00AAU?$_Wrap_alloc@V?$allocator@PAVBNC_ReferenceItem@@@std@@@0@@Z 100df5d0 f i dllmain.obj
 0002:0001c670       ??$_Uninitialized_copy@PAV?$CStringT@_WV?$StrTraitMFC_DLL@_WV?$ChTraitsCRT@_W@ATL@@@@@ATL@@PAV12@U?$_Wrap_alloc@V?$allocator@V?$CStringT@_WV?$StrTraitMFC_DLL@_WV?$ChTraitsCRT@_W@ATL@@@@@ATL@@@std@@@std@@@std@@YAPAV?$CStringT@_WV?$StrTraitMFC_DLL@_WV?$ChTraitsCRT@_W@ATL@@@@@ATL@@PAV12@00AAU?$_Wrap_alloc@V?$allocator@V?$CStringT@_WV?$StrTraitMFC_DLL@_WV?$ChTraitsCRT@_W@ATL@@@@@ATL@@@std@@@0@@Z 100df670 f i dllmain.obj
 0002:0001c710       ??$_Uninitialized_copy@PAV?$shared_ptr@VBNC_FakeRect@@@std@@PAV12@U?$_Wrap_alloc@V?$allocator@V?$shared_ptr@VBNC_FakeRect@@@std@@@std@@@2@@std@@YAPAV?$shared_ptr@VBNC_FakeRect@@@0@PAV10@00AAU?$_Wrap_alloc@V?$allocator@V?$shared_ptr@VBNC_FakeRect@@@std@@@std@@@0@@Z 100df710 f i dllmain.obj
 0002:0001c7b0       ??$_Uninitialized_copy@V?$_Vector_const_iterator@V?$_Vector_val@U?$_Simple_types@H@std@@@std@@@std@@PAHU?$_Wrap_alloc@V?$allocator@H@std@@@2@@std@@YAPAHV?$_Vector_const_iterator@V?$_Vector_val@U?$_Simple_types@H@std@@@std@@@0@0PAHAAU?$_Wrap_alloc@V?$allocator@H@std@@@0@@Z 100df7b0 f i dllmain.obj
 0002:0001c920       ??$_Uninitialized_copy@V?$_Vector_const_iterator@V?$_Vector_val@U?$_Simple_types@PAVBNC_Button@@@std@@@std@@@std@@PAPAVBNC_Button@@U?$_Wrap_alloc@V?$allocator@PAVBNC_Button@@@std@@@2@@std@@YAPAPAVBNC_Button@@V?$_Vector_const_iterator@V?$_Vector_val@U?$_Simple_types@PAVBNC_Button@@@std@@@std@@@0@0PAPAV1@AAU?$_Wrap_alloc@V?$allocator@PAVBNC_Button@@@std@@@0@@Z 100df920 f i dllmain.obj
 0002:0001ca90       ??$_Uninitialized_copy@V?$_Vector_const_iterator@V?$_Vector_val@U?$_Simple_types@PAVBNC_ReferenceItem@@@std@@@std@@@std@@PAPAVBNC_ReferenceItem@@U?$_Wrap_alloc@V?$allocator@PAVBNC_ReferenceItem@@@std@@@2@@std@@YAPAPAVBNC_ReferenceItem@@V?$_Vector_const_iterator@V?$_Vector_val@U?$_Simple_types@PAVBNC_ReferenceItem@@@std@@@std@@@0@0PAPAV1@AAU?$_Wrap_alloc@V?$allocator@PAVBNC_ReferenceItem@@@std@@@0@@Z 100dfa90 f i dllmain.obj
 0002:0001cc00       ??$_Uninitialized_copy@V?$_Vector_const_iterator@V?$_Vector_val@U?$_Simple_types@V?$CStringT@_WV?$StrTraitMFC_DLL@_WV?$ChTraitsCRT@_W@ATL@@@@@ATL@@@std@@@std@@@std@@PAV?$CStringT@_WV?$StrTraitMFC_DLL@_WV?$ChTraitsCRT@_W@ATL@@@@@ATL@@U?$_Wrap_alloc@V?$allocator@V?$CStringT@_WV?$StrTraitMFC_DLL@_WV?$ChTraitsCRT@_W@ATL@@@@@ATL@@@std@@@2@@std@@YAPAV?$CStringT@_WV?$StrTraitMFC_DLL@_WV?$ChTraitsCRT@_W@ATL@@@@@ATL@@V?$_Vector_const_iterator@V?$_Vector_val@U?$_Simple_types@V?$CStringT@_WV?$StrTraitMFC_DLL@_WV?$ChTraitsCRT@_W@ATL@@@@@ATL@@@std@@@std@@@0@0PAV12@AAU?$_Wrap_alloc@V?$allocator@V?$CStringT@_WV?$StrTraitMFC_DLL@_WV?$ChTraitsCRT@_W@ATL@@@@@ATL@@@std@@@0@@Z 100dfc00 f i dllmain.obj
 0002:0001cd70       ??$_Uninitialized_copy@V?$_Vector_const_iterator@V?$_Vector_val@U?$_Simple_types@V?$shared_ptr@VBNC_FakeRect@@@std@@@std@@@std@@@std@@PAV?$shared_ptr@VBNC_FakeRect@@@2@U?$_Wrap_alloc@V?$allocator@V?$shared_ptr@VBNC_FakeRect@@@std@@@std@@@2@@std@@YAPAV?$shared_ptr@VBNC_FakeRect@@@0@V?$_Vector_const_iterator@V?$_Vector_val@U?$_Simple_types@V?$shared_ptr@VBNC_FakeRect@@@std@@@std@@@std@@@0@0PAV10@AAU?$_Wrap_alloc@V?$allocator@V?$shared_ptr@VBNC_FakeRect@@@std@@@std@@@0@@Z 100dfd70 f i dllmain.obj
 0002:0001cee0       ??$addressof@D@std@@YAPADAAD@Z 100dfee0 f i dllmain.obj
 0002:0001cf20       ??$addressof@PAU?$_Tree_node@U?$pair@$$CBV?$CStringT@_WV?$StrTraitMFC_DLL@_WV?$ChTraitsCRT@_W@ATL@@@@@ATL@@PAVBNC_ReferenceItem@@@std@@PAX@std@@@std@@YAPAPAU?$_Tree_node@U?$pair@$$CBV?$CStringT@_WV?$StrTraitMFC_DLL@_WV?$ChTraitsCRT@_W@ATL@@@@@ATL@@PAVBNC_ReferenceItem@@@std@@PAX@0@AAPAU10@@Z 100dff20 f i dllmain.obj
 0002:0001cf60       ??$addressof@U?$pair@$$CBV?$CStringT@_WV?$StrTraitMFC_DLL@_WV?$ChTraitsCRT@_W@ATL@@@@@ATL@@PAVBNC_ReferenceItem@@@std@@@std@@YAPAU?$pair@$$CBV?$CStringT@_WV?$StrTraitMFC_DLL@_WV?$ChTraitsCRT@_W@ATL@@@@@ATL@@PAVBNC_ReferenceItem@@@0@AAU10@@Z 100dff60 f i dllmain.obj
 0002:0001cfa0       ??$construct@PADAAPAD@?$_Wrap_alloc@V?$allocator@D@std@@@std@@QAEXPAPADAAPAD@Z 100dffa0 f i dllmain.obj
 0002:0001d010       ??$construct@PADAAPAD@?$allocator@D@std@@QAEXPAPADAAPAD@Z 100e0010 f i dllmain.obj
 0002:0001d110       ??$construct@PADAAPAD@?$allocator_traits@V?$allocator@D@std@@@std@@SAXAAV?$allocator@D@1@PAPADAAPAD@Z 100e0110 f i dllmain.obj
 0002:0001d170       ??$construct@PAU?$_Tree_node@U?$pair@$$CBV?$CStringT@_WV?$StrTraitMFC_DLL@_WV?$ChTraitsCRT@_W@ATL@@@@@ATL@@PAVBNC_ReferenceItem@@@std@@PAX@std@@AAPAU12@@?$_Wrap_alloc@V?$allocator@U?$_Tree_node@U?$pair@$$CBV?$CStringT@_WV?$StrTraitMFC_DLL@_WV?$ChTraitsCRT@_W@ATL@@@@@ATL@@PAVBNC_ReferenceItem@@@std@@PAX@std@@@std@@@std@@QAEXPAPAU?$_Tree_node@U?$pair@$$CBV?$CStringT@_WV?$StrTraitMFC_DLL@_WV?$ChTraitsCRT@_W@ATL@@@@@ATL@@PAVBNC_ReferenceItem@@@std@@PAX@1@AAPAU21@@Z 100e0170 f i dllmain.obj
 0002:0001d1e0       ??$construct@PAU?$_Tree_node@U?$pair@$$CBV?$CStringT@_WV?$StrTraitMFC_DLL@_WV?$ChTraitsCRT@_W@ATL@@@@@ATL@@PAVBNC_ReferenceItem@@@std@@PAX@std@@AAPAU12@@?$allocator@U?$_Tree_node@U?$pair@$$CBV?$CStringT@_WV?$StrTraitMFC_DLL@_WV?$ChTraitsCRT@_W@ATL@@@@@ATL@@PAVBNC_ReferenceItem@@@std@@PAX@std@@@std@@QAEXPAPAU?$_Tree_node@U?$pair@$$CBV?$CStringT@_WV?$StrTraitMFC_DLL@_WV?$ChTraitsCRT@_W@ATL@@@@@ATL@@PAVBNC_ReferenceItem@@@std@@PAX@1@AAPAU21@@Z 100e01e0 f i dllmain.obj
 0002:0001d2e0       ??$construct@PAU?$_Tree_node@U?$pair@$$CBV?$CStringT@_WV?$StrTraitMFC_DLL@_WV?$ChTraitsCRT@_W@ATL@@@@@ATL@@PAVBNC_ReferenceItem@@@std@@PAX@std@@AAPAU12@@?$allocator_traits@V?$allocator@U?$_Tree_node@U?$pair@$$CBV?$CStringT@_WV?$StrTraitMFC_DLL@_WV?$ChTraitsCRT@_W@ATL@@@@@ATL@@PAVBNC_ReferenceItem@@@std@@PAX@std@@@std@@@std@@SAXAAV?$allocator@U?$_Tree_node@U?$pair@$$CBV?$CStringT@_WV?$StrTraitMFC_DLL@_WV?$ChTraitsCRT@_W@ATL@@@@@ATL@@PAVBNC_ReferenceItem@@@std@@PAX@std@@@1@PAPAU?$_Tree_node@U?$pair@$$CBV?$CStringT@_WV?$StrTraitMFC_DLL@_WV?$ChTraitsCRT@_W@ATL@@@@@ATL@@PAVBNC_ReferenceItem@@@std@@PAX@1@AAPAU31@@Z 100e02e0 f i dllmain.obj
 0002:0001d340       ??$construct@U?$pair@$$CBV?$CStringT@_WV?$StrTraitMFC_DLL@_WV?$ChTraitsCRT@_W@ATL@@@@@ATL@@PAVBNC_ReferenceItem@@@std@@AAU12@@?$_Wrap_alloc@V?$allocator@U?$_Tree_node@U?$pair@$$CBV?$CStringT@_WV?$StrTraitMFC_DLL@_WV?$ChTraitsCRT@_W@ATL@@@@@ATL@@PAVBNC_ReferenceItem@@@std@@PAX@std@@@std@@@std@@QAEXPAU?$pair@$$CBV?$CStringT@_WV?$StrTraitMFC_DLL@_WV?$ChTraitsCRT@_W@ATL@@@@@ATL@@PAVBNC_ReferenceItem@@@1@AAU21@@Z 100e0340 f i dllmain.obj
 0002:0001d3b0       ??$construct@U?$pair@$$CBV?$CStringT@_WV?$StrTraitMFC_DLL@_WV?$ChTraitsCRT@_W@ATL@@@@@ATL@@PAVBNC_ReferenceItem@@@std@@AAU12@@?$allocator@U?$_Tree_node@U?$pair@$$CBV?$CStringT@_WV?$StrTraitMFC_DLL@_WV?$ChTraitsCRT@_W@ATL@@@@@ATL@@PAVBNC_ReferenceItem@@@std@@PAX@std@@@std@@QAEXPAU?$pair@$$CBV?$CStringT@_WV?$StrTraitMFC_DLL@_WV?$ChTraitsCRT@_W@ATL@@@@@ATL@@PAVBNC_ReferenceItem@@@1@AAU21@@Z 100e03b0 f i dllmain.obj
 0002:0001d4b0       ??$construct@U?$pair@$$CBV?$CStringT@_WV?$StrTraitMFC_DLL@_WV?$ChTraitsCRT@_W@ATL@@@@@ATL@@PAVBNC_ReferenceItem@@@std@@AAU12@@?$allocator_traits@V?$allocator@U?$_Tree_node@U?$pair@$$CBV?$CStringT@_WV?$StrTraitMFC_DLL@_WV?$ChTraitsCRT@_W@ATL@@@@@ATL@@PAVBNC_ReferenceItem@@@std@@PAX@std@@@std@@@std@@SAXAAV?$allocator@U?$_Tree_node@U?$pair@$$CBV?$CStringT@_WV?$StrTraitMFC_DLL@_WV?$ChTraitsCRT@_W@ATL@@@@@ATL@@PAVBNC_ReferenceItem@@@std@@PAX@std@@@1@PAU?$pair@$$CBV?$CStringT@_WV?$StrTraitMFC_DLL@_WV?$ChTraitsCRT@_W@ATL@@@@@ATL@@PAVBNC_ReferenceItem@@@1@AAU31@@Z 100e04b0 f i dllmain.obj
 0002:0001d510       ??$construct@U_Container_proxy@std@@U12@@?$_Wrap_alloc@V?$allocator@U_Container_proxy@std@@@std@@@std@@QAEXPAU_Container_proxy@1@$$QAU21@@Z 100e0510 f i dllmain.obj
 0002:0001d580       ??$construct@U_Container_proxy@std@@U12@@?$allocator@U_Container_proxy@std@@@std@@QAEXPAU_Container_proxy@1@$$QAU21@@Z 100e0580 f i dllmain.obj
 0002:0001d690       ??$construct@U_Container_proxy@std@@U12@@?$allocator_traits@V?$allocator@U_Container_proxy@std@@@std@@@std@@SAXAAV?$allocator@U_Container_proxy@std@@@1@PAU_Container_proxy@1@$$QAU31@@Z 100e0690 f i dllmain.obj
 0002:0001d6f0       ??$construct@V?$CStringT@_WV?$StrTraitMFC_DLL@_WV?$ChTraitsCRT@_W@ATL@@@@@ATL@@AAV12@@?$_Wrap_alloc@V?$allocator@V?$CStringT@_WV?$StrTraitMFC_DLL@_WV?$ChTraitsCRT@_W@ATL@@@@@ATL@@@std@@@std@@QAEXPAV?$CStringT@_WV?$StrTraitMFC_DLL@_WV?$ChTraitsCRT@_W@ATL@@@@@ATL@@AAV23@@Z 100e06f0 f i dllmain.obj
 0002:0001d760       ??$construct@V?$CStringT@_WV?$StrTraitMFC_DLL@_WV?$ChTraitsCRT@_W@ATL@@@@@ATL@@AAV12@@?$allocator@V?$CStringT@_WV?$StrTraitMFC_DLL@_WV?$ChTraitsCRT@_W@ATL@@@@@ATL@@@std@@QAEXPAV?$CStringT@_WV?$StrTraitMFC_DLL@_WV?$ChTraitsCRT@_W@ATL@@@@@ATL@@AAV23@@Z 100e0760 f i dllmain.obj
 0002:0001d870       ??$construct@V?$CStringT@_WV?$StrTraitMFC_DLL@_WV?$ChTraitsCRT@_W@ATL@@@@@ATL@@AAV12@@?$allocator_traits@V?$allocator@V?$CStringT@_WV?$StrTraitMFC_DLL@_WV?$ChTraitsCRT@_W@ATL@@@@@ATL@@@std@@@std@@SAXAAV?$allocator@V?$CStringT@_WV?$StrTraitMFC_DLL@_WV?$ChTraitsCRT@_W@ATL@@@@@ATL@@@1@PAV?$CStringT@_WV?$StrTraitMFC_DLL@_WV?$ChTraitsCRT@_W@ATL@@@@@ATL@@AAV34@@Z 100e0870 f i dllmain.obj
 0002:0001d8d0       ??$construct@V?$CStringT@_WV?$StrTraitMFC_DLL@_WV?$ChTraitsCRT@_W@ATL@@@@@ATL@@ABV12@@?$_Wrap_alloc@V?$allocator@V?$CStringT@_WV?$StrTraitMFC_DLL@_WV?$ChTraitsCRT@_W@ATL@@@@@ATL@@@std@@@std@@QAEXPAV?$CStringT@_WV?$StrTraitMFC_DLL@_WV?$ChTraitsCRT@_W@ATL@@@@@ATL@@ABV23@@Z 100e08d0 f i dllmain.obj
 0002:0001d940       ??$construct@V?$CStringT@_WV?$StrTraitMFC_DLL@_WV?$ChTraitsCRT@_W@ATL@@@@@ATL@@ABV12@@?$allocator_traits@V?$allocator@V?$CStringT@_WV?$StrTraitMFC_DLL@_WV?$ChTraitsCRT@_W@ATL@@@@@ATL@@@std@@@std@@SAXAAV?$allocator@V?$CStringT@_WV?$StrTraitMFC_DLL@_WV?$ChTraitsCRT@_W@ATL@@@@@ATL@@@1@PAV?$CStringT@_WV?$StrTraitMFC_DLL@_WV?$ChTraitsCRT@_W@ATL@@@@@ATL@@ABV34@@Z 100e0940 f i dllmain.obj
 0002:0001d9a0       ??$construct@V?$shared_ptr@VBNC_FakeRect@@@std@@AAV12@@?$_Wrap_alloc@V?$allocator@V?$shared_ptr@VBNC_FakeRect@@@std@@@std@@@std@@QAEXPAV?$shared_ptr@VBNC_FakeRect@@@1@AAV21@@Z 100e09a0 f i dllmain.obj
 0002:0001da10       ??$construct@V?$shared_ptr@VBNC_FakeRect@@@std@@AAV12@@?$allocator@V?$shared_ptr@VBNC_FakeRect@@@std@@@std@@QAEXPAV?$shared_ptr@VBNC_FakeRect@@@1@AAV21@@Z 100e0a10 f i dllmain.obj
 0002:0001db10       ??$construct@V?$shared_ptr@VBNC_FakeRect@@@std@@AAV12@@?$allocator_traits@V?$allocator@V?$shared_ptr@VBNC_FakeRect@@@std@@@std@@@std@@SAXAAV?$allocator@V?$shared_ptr@VBNC_FakeRect@@@std@@@1@PAV?$shared_ptr@VBNC_FakeRect@@@1@AAV31@@Z 100e0b10 f i dllmain.obj
 0002:0001db70       ??$construct@V?$shared_ptr@VBNC_FakeRect@@@std@@ABV12@@?$_Wrap_alloc@V?$allocator@V?$shared_ptr@VBNC_FakeRect@@@std@@@std@@@std@@QAEXPAV?$shared_ptr@VBNC_FakeRect@@@1@ABV21@@Z 100e0b70 f i dllmain.obj
 0002:0001dbe0       ??$construct@V?$shared_ptr@VBNC_FakeRect@@@std@@ABV12@@?$allocator_traits@V?$allocator@V?$shared_ptr@VBNC_FakeRect@@@std@@@std@@@std@@SAXAAV?$allocator@V?$shared_ptr@VBNC_FakeRect@@@std@@@1@PAV?$shared_ptr@VBNC_FakeRect@@@1@ABV31@@Z 100e0be0 f i dllmain.obj
 0002:0001dc40       ??$destroy@PAD@?$_Wrap_alloc@V?$allocator@D@std@@@std@@QAEXPAPAD@Z 100e0c40 f i dllmain.obj
 0002:0001dca0       ??$destroy@PAD@?$allocator@D@std@@QAEXPAPAD@Z 100e0ca0 f i dllmain.obj
 0002:0001dce0       ??$destroy@PAD@?$allocator_traits@V?$allocator@D@std@@@std@@SAXAAV?$allocator@D@1@PAPAD@Z 100e0ce0 f i dllmain.obj
 0002:0001dd30       ??$destroy@PAU?$_Tree_node@U?$pair@$$CBV?$CStringT@_WV?$StrTraitMFC_DLL@_WV?$ChTraitsCRT@_W@ATL@@@@@ATL@@PAVBNC_ReferenceItem@@@std@@PAX@std@@@?$_Wrap_alloc@V?$allocator@U?$_Tree_node@U?$pair@$$CBV?$CStringT@_WV?$StrTraitMFC_DLL@_WV?$ChTraitsCRT@_W@ATL@@@@@ATL@@PAVBNC_ReferenceItem@@@std@@PAX@std@@@std@@@std@@QAEXPAPAU?$_Tree_node@U?$pair@$$CBV?$CStringT@_WV?$StrTraitMFC_DLL@_WV?$ChTraitsCRT@_W@ATL@@@@@ATL@@PAVBNC_ReferenceItem@@@std@@PAX@1@@Z 100e0d30 f i dllmain.obj
 0002:0001dd90       ??$destroy@PAU?$_Tree_node@U?$pair@$$CBV?$CStringT@_WV?$StrTraitMFC_DLL@_WV?$ChTraitsCRT@_W@ATL@@@@@ATL@@PAVBNC_ReferenceItem@@@std@@PAX@std@@@?$allocator@U?$_Tree_node@U?$pair@$$CBV?$CStringT@_WV?$StrTraitMFC_DLL@_WV?$ChTraitsCRT@_W@ATL@@@@@ATL@@PAVBNC_ReferenceItem@@@std@@PAX@std@@@std@@QAEXPAPAU?$_Tree_node@U?$pair@$$CBV?$CStringT@_WV?$StrTraitMFC_DLL@_WV?$ChTraitsCRT@_W@ATL@@@@@ATL@@PAVBNC_ReferenceItem@@@std@@PAX@1@@Z 100e0d90 f i dllmain.obj
 0002:0001ddd0       ??$destroy@PAU?$_Tree_node@U?$pair@$$CBV?$CStringT@_WV?$StrTraitMFC_DLL@_WV?$ChTraitsCRT@_W@ATL@@@@@ATL@@PAVBNC_ReferenceItem@@@std@@PAX@std@@@?$allocator_traits@V?$allocator@U?$_Tree_node@U?$pair@$$CBV?$CStringT@_WV?$StrTraitMFC_DLL@_WV?$ChTraitsCRT@_W@ATL@@@@@ATL@@PAVBNC_ReferenceItem@@@std@@PAX@std@@@std@@@std@@SAXAAV?$allocator@U?$_Tree_node@U?$pair@$$CBV?$CStringT@_WV?$StrTraitMFC_DLL@_WV?$ChTraitsCRT@_W@ATL@@@@@ATL@@PAVBNC_ReferenceItem@@@std@@PAX@std@@@1@PAPAU?$_Tree_node@U?$pair@$$CBV?$CStringT@_WV?$StrTraitMFC_DLL@_WV?$ChTraitsCRT@_W@ATL@@@@@ATL@@PAVBNC_ReferenceItem@@@std@@PAX@1@@Z 100e0dd0 f i dllmain.obj
 0002:0001de20       ??$destroy@U?$pair@$$CBV?$CStringT@_WV?$StrTraitMFC_DLL@_WV?$ChTraitsCRT@_W@ATL@@@@@ATL@@PAVBNC_ReferenceItem@@@std@@@?$_Wrap_alloc@V?$allocator@U?$_Tree_node@U?$pair@$$CBV?$CStringT@_WV?$StrTraitMFC_DLL@_WV?$ChTraitsCRT@_W@ATL@@@@@ATL@@PAVBNC_ReferenceItem@@@std@@PAX@std@@@std@@@std@@QAEXPAU?$pair@$$CBV?$CStringT@_WV?$StrTraitMFC_DLL@_WV?$ChTraitsCRT@_W@ATL@@@@@ATL@@PAVBNC_ReferenceItem@@@1@@Z 100e0e20 f i dllmain.obj
 0002:0001de80       ??$destroy@U?$pair@$$CBV?$CStringT@_WV?$StrTraitMFC_DLL@_WV?$ChTraitsCRT@_W@ATL@@@@@ATL@@PAVBNC_ReferenceItem@@@std@@@?$allocator@U?$_Tree_node@U?$pair@$$CBV?$CStringT@_WV?$StrTraitMFC_DLL@_WV?$ChTraitsCRT@_W@ATL@@@@@ATL@@PAVBNC_ReferenceItem@@@std@@PAX@std@@@std@@QAEXPAU?$pair@$$CBV?$CStringT@_WV?$StrTraitMFC_DLL@_WV?$ChTraitsCRT@_W@ATL@@@@@ATL@@PAVBNC_ReferenceItem@@@1@@Z 100e0e80 f i dllmain.obj
 0002:0001dee0       ??$destroy@U?$pair@$$CBV?$CStringT@_WV?$StrTraitMFC_DLL@_WV?$ChTraitsCRT@_W@ATL@@@@@ATL@@PAVBNC_ReferenceItem@@@std@@@?$allocator_traits@V?$allocator@U?$_Tree_node@U?$pair@$$CBV?$CStringT@_WV?$StrTraitMFC_DLL@_WV?$ChTraitsCRT@_W@ATL@@@@@ATL@@PAVBNC_ReferenceItem@@@std@@PAX@std@@@std@@@std@@SAXAAV?$allocator@U?$_Tree_node@U?$pair@$$CBV?$CStringT@_WV?$StrTraitMFC_DLL@_WV?$ChTraitsCRT@_W@ATL@@@@@ATL@@PAVBNC_ReferenceItem@@@std@@PAX@std@@@1@PAU?$pair@$$CBV?$CStringT@_WV?$StrTraitMFC_DLL@_WV?$ChTraitsCRT@_W@ATL@@@@@ATL@@PAVBNC_ReferenceItem@@@1@@Z 100e0ee0 f i dllmain.obj
 0002:0001df30       ??$destroy@U_Container_proxy@std@@@?$_Wrap_alloc@V?$allocator@U_Container_proxy@std@@@std@@@std@@QAEXPAU_Container_proxy@1@@Z 100e0f30 f i dllmain.obj
 0002:0001df90       ??$destroy@U_Container_proxy@std@@@?$allocator@U_Container_proxy@std@@@std@@QAEXPAU_Container_proxy@1@@Z 100e0f90 f i dllmain.obj
 0002:0001dfd0       ??$destroy@U_Container_proxy@std@@@?$allocator_traits@V?$allocator@U_Container_proxy@std@@@std@@@std@@SAXAAV?$allocator@U_Container_proxy@std@@@1@PAU_Container_proxy@1@@Z 100e0fd0 f i dllmain.obj
 0002:0001e020       ??$destroy@V?$CStringT@_WV?$StrTraitMFC_DLL@_WV?$ChTraitsCRT@_W@ATL@@@@@ATL@@@?$_Wrap_alloc@V?$allocator@V?$CStringT@_WV?$StrTraitMFC_DLL@_WV?$ChTraitsCRT@_W@ATL@@@@@ATL@@@std@@@std@@QAEXPAV?$CStringT@_WV?$StrTraitMFC_DLL@_WV?$ChTraitsCRT@_W@ATL@@@@@ATL@@@Z 100e1020 f i dllmain.obj
 0002:0001e080       ??$destroy@V?$CStringT@_WV?$StrTraitMFC_DLL@_WV?$ChTraitsCRT@_W@ATL@@@@@ATL@@@?$allocator@V?$CStringT@_WV?$StrTraitMFC_DLL@_WV?$ChTraitsCRT@_W@ATL@@@@@ATL@@@std@@QAEXPAV?$CStringT@_WV?$StrTraitMFC_DLL@_WV?$ChTraitsCRT@_W@ATL@@@@@ATL@@@Z 100e1080 f i dllmain.obj
 0002:0001e0e0       ??$destroy@V?$CStringT@_WV?$StrTraitMFC_DLL@_WV?$ChTraitsCRT@_W@ATL@@@@@ATL@@@?$allocator_traits@V?$allocator@V?$CStringT@_WV?$StrTraitMFC_DLL@_WV?$ChTraitsCRT@_W@ATL@@@@@ATL@@@std@@@std@@SAXAAV?$allocator@V?$CStringT@_WV?$StrTraitMFC_DLL@_WV?$ChTraitsCRT@_W@ATL@@@@@ATL@@@1@PAV?$CStringT@_WV?$StrTraitMFC_DLL@_WV?$ChTraitsCRT@_W@ATL@@@@@ATL@@@Z 100e10e0 f i dllmain.obj
 0002:0001e130       ??$destroy@V?$shared_ptr@VBNC_FakeRect@@@std@@@?$_Wrap_alloc@V?$allocator@V?$shared_ptr@VBNC_FakeRect@@@std@@@std@@@std@@QAEXPAV?$shared_ptr@VBNC_FakeRect@@@1@@Z 100e1130 f i dllmain.obj
 0002:0001e190       ??$destroy@V?$shared_ptr@VBNC_FakeRect@@@std@@@?$allocator@V?$shared_ptr@VBNC_FakeRect@@@std@@@std@@QAEXPAV?$shared_ptr@VBNC_FakeRect@@@1@@Z 100e1190 f i dllmain.obj
 0002:0001e1f0       ??$destroy@V?$shared_ptr@VBNC_FakeRect@@@std@@@?$allocator_traits@V?$allocator@V?$shared_ptr@VBNC_FakeRect@@@std@@@std@@@std@@SAXAAV?$allocator@V?$shared_ptr@VBNC_FakeRect@@@std@@@1@PAV?$shared_ptr@VBNC_FakeRect@@@1@@Z 100e11f0 f i dllmain.obj
 0002:0001e240       ??$forward@AAPAD@std@@YAAAPADAAPAD@Z 100e1240 f i dllmain.obj
 0002:0001e280       ??$forward@AAPAU?$_Tree_node@U?$pair@$$CBV?$CStringT@_WV?$StrTraitMFC_DLL@_WV?$ChTraitsCRT@_W@ATL@@@@@ATL@@PAVBNC_ReferenceItem@@@std@@PAX@std@@@std@@YAAAPAU?$_Tree_node@U?$pair@$$CBV?$CStringT@_WV?$StrTraitMFC_DLL@_WV?$ChTraitsCRT@_W@ATL@@@@@ATL@@PAVBNC_ReferenceItem@@@std@@PAX@0@AAPAU10@@Z 100e1280 f i dllmain.obj
 0002:0001e2c0       ??$forward@AAU?$pair@$$CBV?$CStringT@_WV?$StrTraitMFC_DLL@_WV?$ChTraitsCRT@_W@ATL@@@@@ATL@@PAVBNC_ReferenceItem@@@std@@@std@@YAAAU?$pair@$$CBV?$CStringT@_WV?$StrTraitMFC_DLL@_WV?$ChTraitsCRT@_W@ATL@@@@@ATL@@PAVBNC_ReferenceItem@@@0@AAU10@@Z 100e12c0 f i dllmain.obj
 0002:0001e300       ??$forward@AAV?$CStringT@_WV?$StrTraitMFC_DLL@_WV?$ChTraitsCRT@_W@ATL@@@@@ATL@@@std@@YAAAV?$CStringT@_WV?$StrTraitMFC_DLL@_WV?$ChTraitsCRT@_W@ATL@@@@@ATL@@AAV12@@Z 100e1300 f i dllmain.obj
 0002:0001e340       ??$forward@AAV?$shared_ptr@VBNC_FakeRect@@@std@@@std@@YAAAV?$shared_ptr@VBNC_FakeRect@@@0@AAV10@@Z 100e1340 f i dllmain.obj
 0002:0001e380       ??$forward@ABV?$CStringT@_WV?$StrTraitMFC_DLL@_WV?$ChTraitsCRT@_W@ATL@@@@@ATL@@@std@@YAABV?$CStringT@_WV?$StrTraitMFC_DLL@_WV?$ChTraitsCRT@_W@ATL@@@@@ATL@@ABV12@@Z 100e1380 f i dllmain.obj
 0002:0001e3c0       ??$forward@ABV?$shared_ptr@VBNC_FakeRect@@@std@@@std@@YAABV?$shared_ptr@VBNC_FakeRect@@@0@ABV10@@Z 100e13c0 f i dllmain.obj
 0002:0001e400       ??$forward@U_Container_proxy@std@@@std@@YA$$QAU_Container_proxy@0@AAU10@@Z 100e1400 f i dllmain.obj
 0002:0001e440       ??$swap@D@std@@YAXAAD0@Z   100e1440 f i dllmain.obj
 0002:0001e520       ??$swap@PAVBNC_FakeRect@@@std@@YAXAAPAVBNC_FakeRect@@0@Z 100e1520 f i dllmain.obj
 0002:0001e600       ??$swap@PAV_Ref_count_base@std@@@std@@YAXAAPAV_Ref_count_base@0@0@Z 100e1600 f i dllmain.obj
 0002:0001e6e0       ??0?$CHeapPtr@_WVCCRTAllocator@ATL@@@ATL@@QAE@XZ 100e16e0 f i dllmain.obj
 0002:0001e740       ??0?$CHeapPtrBase@_WVCCRTAllocator@ATL@@@ATL@@IAE@XZ 100e1740 f i dllmain.obj
 0002:0001e790       ??0?$CSimpleArray@GV?$CSimpleArrayEqualHelper@G@ATL@@@ATL@@QAE@XZ 100e1790 f i dllmain.obj
 0002:0001e7f0       ??0?$CTraceCategoryEx@$00$0A@@ATL@@QAE@PB_W@Z 100e17f0 f i dllmain.obj
 0002:0001e850       ??0?$CTraceCategoryEx@$01$0A@@ATL@@QAE@PB_W@Z 100e1850 f i dllmain.obj
 0002:0001e8b0       ??0?$CTraceCategoryEx@$03$0A@@ATL@@QAE@PB_W@Z 100e18b0 f i dllmain.obj
 0002:0001e910       ??0?$CTraceCategoryEx@$07$0A@@ATL@@QAE@PB_W@Z 100e1910 f i dllmain.obj
 0002:0001e970       ??0?$CTraceCategoryEx@$0BA@$0A@@ATL@@QAE@PB_W@Z 100e1970 f i dllmain.obj
 0002:0001e9d0       ??0?$CTraceCategoryEx@$0BAA@$0A@@ATL@@QAE@PB_W@Z 100e19d0 f i dllmain.obj
 0002:0001ea30       ??0?$CTraceCategoryEx@$0BAAA@$0A@@ATL@@QAE@PB_W@Z 100e1a30 f i dllmain.obj
 0002:0001ea90       ??0?$CTraceCategoryEx@$0BAAAA@$0A@@ATL@@QAE@PB_W@Z 100e1a90 f i dllmain.obj
 0002:0001eaf0       ??0?$CTraceCategoryEx@$0BAAAAA@$0A@@ATL@@QAE@PB_W@Z 100e1af0 f i dllmain.obj
 0002:0001eb50       ??0?$CTraceCategoryEx@$0CA@$0A@@ATL@@QAE@PB_W@Z 100e1b50 f i dllmain.obj
 0002:0001ebb0       ??0?$CTraceCategoryEx@$0CAA@$0A@@ATL@@QAE@PB_W@Z 100e1bb0 f i dllmain.obj
 0002:0001ec10       ??0?$CTraceCategoryEx@$0CAAA@$0A@@ATL@@QAE@PB_W@Z 100e1c10 f i dllmain.obj
 0002:0001ec70       ??0?$CTraceCategoryEx@$0CAAAA@$0A@@ATL@@QAE@PB_W@Z 100e1c70 f i dllmain.obj
 0002:0001ecd0       ??0?$CTraceCategoryEx@$0CAAAAA@$0A@@ATL@@QAE@PB_W@Z 100e1cd0 f i dllmain.obj
 0002:0001ed30       ??0?$CTraceCategoryEx@$0EA@$0A@@ATL@@QAE@PB_W@Z 100e1d30 f i dllmain.obj
 0002:0001ed90       ??0?$CTraceCategoryEx@$0EAA@$0A@@ATL@@QAE@PB_W@Z 100e1d90 f i dllmain.obj
 0002:0001edf0       ??0?$CTraceCategoryEx@$0EAAA@$0A@@ATL@@QAE@PB_W@Z 100e1df0 f i dllmain.obj
 0002:0001ee50       ??0?$CTraceCategoryEx@$0EAAAA@$0A@@ATL@@QAE@PB_W@Z 100e1e50 f i dllmain.obj
 0002:0001eeb0       ??0?$CTraceCategoryEx@$0EAAAAA@$0A@@ATL@@QAE@PB_W@Z 100e1eb0 f i dllmain.obj
 0002:0001ef10       ??0?$CTraceCategoryEx@$0IA@$0A@@ATL@@QAE@PB_W@Z 100e1f10 f i dllmain.obj
 0002:0001ef70       ??0?$CTraceCategoryEx@$0IAA@$0A@@ATL@@QAE@PB_W@Z 100e1f70 f i dllmain.obj
 0002:0001efd0       ??0?$CTraceCategoryEx@$0IAAA@$0A@@ATL@@QAE@PB_W@Z 100e1fd0 f i dllmain.obj
 0002:0001f030       ??0?$CTraceCategoryEx@$0IAAAA@$0A@@ATL@@QAE@PB_W@Z 100e2030 f i dllmain.obj
 0002:0001f090       ??0?$TSingleton@VBNC_BaseDialogTracer@@@baro@@IAE@XZ 100e2090 f i dllmain.obj
 0002:0001f160       ??0?$_Iterator012@Ubidirectional_iterator_tag@std@@U?$pair@$$CBV?$CStringT@_WV?$StrTraitMFC_DLL@_WV?$ChTraitsCRT@_W@ATL@@@@@ATL@@PAVBNC_ReferenceItem@@@2@HPBU32@ABU32@U_Iterator_base12@2@@std@@QAE@ABU01@@Z 100e2160 f i dllmain.obj
 0002:0001f1c0       ??0?$_Iterator012@Ubidirectional_iterator_tag@std@@U?$pair@$$CBV?$CStringT@_WV?$StrTraitMFC_DLL@_WV?$ChTraitsCRT@_W@ATL@@@@@ATL@@PAVBNC_ReferenceItem@@@2@HPBU32@ABU32@U_Iterator_base12@2@@std@@QAE@XZ 100e21c0 f i dllmain.obj
 0002:0001f220       ??0?$_Iterator012@Urandom_access_iterator_tag@std@@HHPBHABHU_Iterator_base12@2@@std@@QAE@ABU01@@Z 100e2220 f i dllmain.obj
 0002:0001f280       ??0?$_Iterator012@Urandom_access_iterator_tag@std@@HHPBHABHU_Iterator_base12@2@@std@@QAE@XZ 100e2280 f i dllmain.obj
 0002:0001f2e0       ??0?$_Iterator012@Urandom_access_iterator_tag@std@@PAVBNC_Button@@HPBQAV3@ABQAV3@U_Iterator_base12@2@@std@@QAE@ABU01@@Z 100e22e0 f i dllmain.obj
 0002:0001f340       ??0?$_Iterator012@Urandom_access_iterator_tag@std@@PAVBNC_Button@@HPBQAV3@ABQAV3@U_Iterator_base12@2@@std@@QAE@XZ 100e2340 f i dllmain.obj
 0002:0001f3a0       ??0?$_Iterator012@Urandom_access_iterator_tag@std@@PAVBNC_ReferenceItem@@HPBQAV3@ABQAV3@U_Iterator_base12@2@@std@@QAE@ABU01@@Z 100e23a0 f i dllmain.obj
 0002:0001f400       ??0?$_Iterator012@Urandom_access_iterator_tag@std@@PAVBNC_ReferenceItem@@HPBQAV3@ABQAV3@U_Iterator_base12@2@@std@@QAE@XZ 100e2400 f i dllmain.obj
 0002:0001f460       ??0?$_Iterator012@Urandom_access_iterator_tag@std@@V?$CStringT@_WV?$StrTraitMFC_DLL@_WV?$ChTraitsCRT@_W@ATL@@@@@ATL@@HPBV34@ABV34@U_Iterator_base12@2@@std@@QAE@ABU01@@Z 100e2460 f i dllmain.obj
 0002:0001f4c0       ??0?$_Iterator012@Urandom_access_iterator_tag@std@@V?$CStringT@_WV?$StrTraitMFC_DLL@_WV?$ChTraitsCRT@_W@ATL@@@@@ATL@@HPBV34@ABV34@U_Iterator_base12@2@@std@@QAE@XZ 100e24c0 f i dllmain.obj
 0002:0001f520       ??0?$_Iterator012@Urandom_access_iterator_tag@std@@V?$shared_ptr@VBNC_FakeRect@@@2@HPBV32@ABV32@U_Iterator_base12@2@@std@@QAE@ABU01@@Z 100e2520 f i dllmain.obj
 0002:0001f580       ??0?$_Iterator012@Urandom_access_iterator_tag@std@@V?$shared_ptr@VBNC_FakeRect@@@2@HPBV32@ABV32@U_Iterator_base12@2@@std@@QAE@XZ 100e2580 f i dllmain.obj
 0002:0001f5e0       ??0?$_Ptr_base@VBNC_FakeRect@@@std@@QAE@XZ 100e25e0 f i dllmain.obj
 0002:0001f630       ??0?$_String_alloc@$0A@U?$_String_base_types@DV?$allocator@D@std@@@std@@@std@@QAE@ABV?$allocator@D@1@@Z 100e2630 f i dllmain.obj
 0002:0001f6e0       ??0?$_String_val@U?$_Simple_types@D@std@@@std@@QAE@XZ 100e26e0 f i dllmain.obj
 0002:0001f760       ??0?$_Tree@V?$_Tmap_traits@V?$CStringT@_WV?$StrTraitMFC_DLL@_WV?$ChTraitsCRT@_W@ATL@@@@@ATL@@PAVBNC_ReferenceItem@@U?$less@V?$CStringT@_WV?$StrTraitMFC_DLL@_WV?$ChTraitsCRT@_W@ATL@@@@@ATL@@@std@@V?$allocator@U?$pair@$$CBV?$CStringT@_WV?$StrTraitMFC_DLL@_WV?$ChTraitsCRT@_W@ATL@@@@@ATL@@PAVBNC_ReferenceItem@@@std@@@5@$0A@@std@@@std@@QAE@ABV01@ABV?$allocator@U?$pair@$$CBV?$CStringT@_WV?$StrTraitMFC_DLL@_WV?$ChTraitsCRT@_W@ATL@@@@@ATL@@PAVBNC_ReferenceItem@@@std@@@1@@Z 100e2760 f i dllmain.obj
 0002:0001f880       ??0?$_Tree_alloc@$0A@U?$_Tree_base_types@U?$pair@$$CBV?$CStringT@_WV?$StrTraitMFC_DLL@_WV?$ChTraitsCRT@_W@ATL@@@@@ATL@@PAVBNC_ReferenceItem@@@std@@V?$allocator@U?$pair@$$CBV?$CStringT@_WV?$StrTraitMFC_DLL@_WV?$ChTraitsCRT@_W@ATL@@@@@ATL@@PAVBNC_ReferenceItem@@@std@@@2@@std@@@std@@QAE@ABV?$allocator@U?$pair@$$CBV?$CStringT@_WV?$StrTraitMFC_DLL@_WV?$ChTraitsCRT@_W@ATL@@@@@ATL@@PAVBNC_ReferenceItem@@@std@@@1@@Z 100e2880 f i dllmain.obj
 0002:0001f980       ??0?$_Tree_buy@U?$pair@$$CBV?$CStringT@_WV?$StrTraitMFC_DLL@_WV?$ChTraitsCRT@_W@ATL@@@@@ATL@@PAVBNC_ReferenceItem@@@std@@V?$allocator@U?$pair@$$CBV?$CStringT@_WV?$StrTraitMFC_DLL@_WV?$ChTraitsCRT@_W@ATL@@@@@ATL@@PAVBNC_ReferenceItem@@@std@@@2@@std@@QAE@ABV?$allocator@U?$pair@$$CBV?$CStringT@_WV?$StrTraitMFC_DLL@_WV?$ChTraitsCRT@_W@ATL@@@@@ATL@@PAVBNC_ReferenceItem@@@std@@@1@@Z 100e2980 f i dllmain.obj
 0002:0001f9e0       ??0?$_Tree_comp@$0A@V?$_Tmap_traits@V?$CStringT@_WV?$StrTraitMFC_DLL@_WV?$ChTraitsCRT@_W@ATL@@@@@ATL@@PAVBNC_ReferenceItem@@U?$less@V?$CStringT@_WV?$StrTraitMFC_DLL@_WV?$ChTraitsCRT@_W@ATL@@@@@ATL@@@std@@V?$allocator@U?$pair@$$CBV?$CStringT@_WV?$StrTraitMFC_DLL@_WV?$ChTraitsCRT@_W@ATL@@@@@ATL@@PAVBNC_ReferenceItem@@@std@@@5@$0A@@std@@@std@@QAE@ABU?$less@V?$CStringT@_WV?$StrTraitMFC_DLL@_WV?$ChTraitsCRT@_W@ATL@@@@@ATL@@@1@ABV?$allocator@U?$pair@$$CBV?$CStringT@_WV?$StrTraitMFC_DLL@_WV?$ChTraitsCRT@_W@ATL@@@@@ATL@@PAVBNC_ReferenceItem@@@std@@@1@@Z 100e29e0 f i dllmain.obj
 0002:0001fa40       ??0?$_Tree_const_iterator@V?$_Tree_val@U?$_Tree_simple_types@U?$pair@$$CBV?$CStringT@_WV?$StrTraitMFC_DLL@_WV?$ChTraitsCRT@_W@ATL@@@@@ATL@@PAVBNC_ReferenceItem@@@std@@@std@@@std@@@std@@QAE@ABV01@@Z 100e2a40 f i dllmain.obj
 0002:0001faa0       ??0?$_Tree_const_iterator@V?$_Tree_val@U?$_Tree_simple_types@U?$pair@$$CBV?$CStringT@_WV?$StrTraitMFC_DLL@_WV?$ChTraitsCRT@_W@ATL@@@@@ATL@@PAVBNC_ReferenceItem@@@std@@@std@@@std@@@std@@QAE@PAU?$_Tree_node@U?$pair@$$CBV?$CStringT@_WV?$StrTraitMFC_DLL@_WV?$ChTraitsCRT@_W@ATL@@@@@ATL@@PAVBNC_ReferenceItem@@@std@@PAX@1@PBV?$_Tree_val@U?$_Tree_simple_types@U?$pair@$$CBV?$CStringT@_WV?$StrTraitMFC_DLL@_WV?$ChTraitsCRT@_W@ATL@@@@@ATL@@PAVBNC_ReferenceItem@@@std@@@std@@@1@@Z 100e2aa0 f i dllmain.obj
 0002:0001fb00       ??0?$_Tree_iterator@V?$_Tree_val@U?$_Tree_simple_types@U?$pair@$$CBV?$CStringT@_WV?$StrTraitMFC_DLL@_WV?$ChTraitsCRT@_W@ATL@@@@@ATL@@PAVBNC_ReferenceItem@@@std@@@std@@@std@@@std@@QAE@PAU?$_Tree_node@U?$pair@$$CBV?$CStringT@_WV?$StrTraitMFC_DLL@_WV?$ChTraitsCRT@_W@ATL@@@@@ATL@@PAVBNC_ReferenceItem@@@std@@PAX@1@PBV?$_Tree_val@U?$_Tree_simple_types@U?$pair@$$CBV?$CStringT@_WV?$StrTraitMFC_DLL@_WV?$ChTraitsCRT@_W@ATL@@@@@ATL@@PAVBNC_ReferenceItem@@@std@@@std@@@1@@Z 100e2b00 f i dllmain.obj
 0002:0001fb60       ??0?$_Tree_unchecked_const_iterator@V?$_Tree_val@U?$_Tree_simple_types@U?$pair@$$CBV?$CStringT@_WV?$StrTraitMFC_DLL@_WV?$ChTraitsCRT@_W@ATL@@@@@ATL@@PAVBNC_ReferenceItem@@@std@@@std@@@std@@U_Iterator_base12@2@@std@@QAE@ABV01@@Z 100e2b60 f i dllmain.obj
 0002:0001fbd0       ??0?$_Tree_unchecked_const_iterator@V?$_Tree_val@U?$_Tree_simple_types@U?$pair@$$CBV?$CStringT@_WV?$StrTraitMFC_DLL@_WV?$ChTraitsCRT@_W@ATL@@@@@ATL@@PAVBNC_ReferenceItem@@@std@@@std@@@std@@U_Iterator_base12@2@@std@@QAE@PAU?$_Tree_node@U?$pair@$$CBV?$CStringT@_WV?$StrTraitMFC_DLL@_WV?$ChTraitsCRT@_W@ATL@@@@@ATL@@PAVBNC_ReferenceItem@@@std@@PAX@1@PBV?$_Tree_val@U?$_Tree_simple_types@U?$pair@$$CBV?$CStringT@_WV?$StrTraitMFC_DLL@_WV?$ChTraitsCRT@_W@ATL@@@@@ATL@@PAVBNC_ReferenceItem@@@std@@@std@@@1@@Z 100e2bd0 f i dllmain.obj
 0002:0001fc90       ??0?$_Tree_val@U?$_Tree_simple_types@U?$pair@$$CBV?$CStringT@_WV?$StrTraitMFC_DLL@_WV?$ChTraitsCRT@_W@ATL@@@@@ATL@@PAVBNC_ReferenceItem@@@std@@@std@@@std@@QAE@XZ 100e2c90 f i dllmain.obj
 0002:0001fd10       ??0?$_Vector_alloc@$0A@U?$_Vec_base_types@HV?$allocator@H@std@@@std@@@std@@QAE@ABV?$allocator@H@1@@Z 100e2d10 f i dllmain.obj
 0002:0001fdc0       ??0?$_Vector_alloc@$0A@U?$_Vec_base_types@PAVBNC_Button@@V?$allocator@PAVBNC_Button@@@std@@@std@@@std@@QAE@ABV?$allocator@PAVBNC_Button@@@1@@Z 100e2dc0 f i dllmain.obj
 0002:0001fe70       ??0?$_Vector_alloc@$0A@U?$_Vec_base_types@PAVBNC_ReferenceItem@@V?$allocator@PAVBNC_ReferenceItem@@@std@@@std@@@std@@QAE@ABV?$allocator@PAVBNC_ReferenceItem@@@1@@Z 100e2e70 f i dllmain.obj
 0002:0001ff20       ??0?$_Vector_alloc@$0A@U?$_Vec_base_types@V?$CStringT@_WV?$StrTraitMFC_DLL@_WV?$ChTraitsCRT@_W@ATL@@@@@ATL@@V?$allocator@V?$CStringT@_WV?$StrTraitMFC_DLL@_WV?$ChTraitsCRT@_W@ATL@@@@@ATL@@@std@@@std@@@std@@QAE@ABV?$allocator@V?$CStringT@_WV?$StrTraitMFC_DLL@_WV?$ChTraitsCRT@_W@ATL@@@@@ATL@@@1@@Z 100e2f20 f i dllmain.obj
 0002:0001ffd0       ??0?$_Vector_alloc@$0A@U?$_Vec_base_types@V?$shared_ptr@VBNC_FakeRect@@@std@@V?$allocator@V?$shared_ptr@VBNC_FakeRect@@@std@@@2@@std@@@std@@QAE@ABV?$allocator@V?$shared_ptr@VBNC_FakeRect@@@std@@@1@@Z 100e2fd0 f i dllmain.obj
 0002:00020080       ??0?$_Vector_const_iterator@V?$_Vector_val@U?$_Simple_types@H@std@@@std@@@std@@QAE@ABV01@@Z 100e3080 f i dllmain.obj
 0002:000200f0       ??0?$_Vector_const_iterator@V?$_Vector_val@U?$_Simple_types@H@std@@@std@@@std@@QAE@PAHPBU_Container_base12@1@@Z 100e30f0 f i dllmain.obj
 0002:000201b0       ??0?$_Vector_const_iterator@V?$_Vector_val@U?$_Simple_types@PAVBNC_Button@@@std@@@std@@@std@@QAE@ABV01@@Z 100e31b0 f i dllmain.obj
 0002:00020220       ??0?$_Vector_const_iterator@V?$_Vector_val@U?$_Simple_types@PAVBNC_Button@@@std@@@std@@@std@@QAE@PAPAVBNC_Button@@PBU_Container_base12@1@@Z 100e3220 f i dllmain.obj
 0002:000202e0       ??0?$_Vector_const_iterator@V?$_Vector_val@U?$_Simple_types@PAVBNC_ReferenceItem@@@std@@@std@@@std@@QAE@ABV01@@Z 100e32e0 f i dllmain.obj
 0002:00020350       ??0?$_Vector_const_iterator@V?$_Vector_val@U?$_Simple_types@PAVBNC_ReferenceItem@@@std@@@std@@@std@@QAE@PAPAVBNC_ReferenceItem@@PBU_Container_base12@1@@Z 100e3350 f i dllmain.obj
 0002:00020410       ??0?$_Vector_const_iterator@V?$_Vector_val@U?$_Simple_types@V?$CStringT@_WV?$StrTraitMFC_DLL@_WV?$ChTraitsCRT@_W@ATL@@@@@ATL@@@std@@@std@@@std@@QAE@ABV01@@Z 100e3410 f i dllmain.obj
 0002:00020480       ??0?$_Vector_const_iterator@V?$_Vector_val@U?$_Simple_types@V?$CStringT@_WV?$StrTraitMFC_DLL@_WV?$ChTraitsCRT@_W@ATL@@@@@ATL@@@std@@@std@@@std@@QAE@PAV?$CStringT@_WV?$StrTraitMFC_DLL@_WV?$ChTraitsCRT@_W@ATL@@@@@ATL@@PBU_Container_base12@1@@Z 100e3480 f i dllmain.obj
 0002:00020540       ??0?$_Vector_const_iterator@V?$_Vector_val@U?$_Simple_types@V?$shared_ptr@VBNC_FakeRect@@@std@@@std@@@std@@@std@@QAE@ABV01@@Z 100e3540 f i dllmain.obj
 0002:000205b0       ??0?$_Vector_const_iterator@V?$_Vector_val@U?$_Simple_types@V?$shared_ptr@VBNC_FakeRect@@@std@@@std@@@std@@@std@@QAE@PAV?$shared_ptr@VBNC_FakeRect@@@1@PBU_Container_base12@1@@Z 100e35b0 f i dllmain.obj
 0002:00020670       ??0?$_Vector_val@U?$_Simple_types@H@std@@@std@@QAE@XZ 100e3670 f i dllmain.obj
 0002:00020700       ??0?$_Vector_val@U?$_Simple_types@PAVBNC_Button@@@std@@@std@@QAE@XZ 100e3700 f i dllmain.obj
 0002:00020790       ??0?$_Vector_val@U?$_Simple_types@PAVBNC_ReferenceItem@@@std@@@std@@QAE@XZ 100e3790 f i dllmain.obj
 0002:00020820       ??0?$_Vector_val@U?$_Simple_types@V?$CStringT@_WV?$StrTraitMFC_DLL@_WV?$ChTraitsCRT@_W@ATL@@@@@ATL@@@std@@@std@@QAE@XZ 100e3820 f i dllmain.obj
 0002:000208b0       ??0?$_Vector_val@U?$_Simple_types@V?$shared_ptr@VBNC_FakeRect@@@std@@@std@@@std@@QAE@XZ 100e38b0 f i dllmain.obj
 0002:00020940       ??0?$_Wrap_alloc@V?$allocator@D@std@@@std@@QAE@XZ 100e3940 f i dllmain.obj
 0002:000209a0       ??0?$_Wrap_alloc@V?$allocator@H@std@@@std@@QAE@ABV?$allocator@H@1@@Z 100e39a0 f i dllmain.obj
 0002:00020a00       ??0?$_Wrap_alloc@V?$allocator@H@std@@@std@@QAE@XZ 100e3a00 f i dllmain.obj
 0002:00020a60       ??0?$_Wrap_alloc@V?$allocator@PAVBNC_Button@@@std@@@std@@QAE@ABV?$allocator@PAVBNC_Button@@@1@@Z 100e3a60 f i dllmain.obj
 0002:00020ac0       ??0?$_Wrap_alloc@V?$allocator@PAVBNC_Button@@@std@@@std@@QAE@XZ 100e3ac0 f i dllmain.obj
 0002:00020b20       ??0?$_Wrap_alloc@V?$allocator@PAVBNC_ReferenceItem@@@std@@@std@@QAE@ABV?$allocator@PAVBNC_ReferenceItem@@@1@@Z 100e3b20 f i dllmain.obj
 0002:00020b80       ??0?$_Wrap_alloc@V?$allocator@PAVBNC_ReferenceItem@@@std@@@std@@QAE@XZ 100e3b80 f i dllmain.obj
 0002:00020be0       ??0?$_Wrap_alloc@V?$allocator@U?$_Tree_node@U?$pair@$$CBV?$CStringT@_WV?$StrTraitMFC_DLL@_WV?$ChTraitsCRT@_W@ATL@@@@@ATL@@PAVBNC_ReferenceItem@@@std@@PAX@std@@@std@@@std@@QAE@ABV?$allocator@U?$_Tree_node@U?$pair@$$CBV?$CStringT@_WV?$StrTraitMFC_DLL@_WV?$ChTraitsCRT@_W@ATL@@@@@ATL@@PAVBNC_ReferenceItem@@@std@@PAX@std@@@1@@Z 100e3be0 f i dllmain.obj
 0002:00020c40       ??0?$_Wrap_alloc@V?$allocator@U?$_Tree_node@U?$pair@$$CBV?$CStringT@_WV?$StrTraitMFC_DLL@_WV?$ChTraitsCRT@_W@ATL@@@@@ATL@@PAVBNC_ReferenceItem@@@std@@PAX@std@@@std@@@std@@QAE@XZ 100e3c40 f i dllmain.obj
 0002:00020ca0       ??0?$_Wrap_alloc@V?$allocator@U_Container_proxy@std@@@std@@@std@@QAE@XZ 100e3ca0 f i dllmain.obj
 0002:00020d00       ??0?$_Wrap_alloc@V?$allocator@V?$CStringT@_WV?$StrTraitMFC_DLL@_WV?$ChTraitsCRT@_W@ATL@@@@@ATL@@@std@@@std@@QAE@ABV?$allocator@V?$CStringT@_WV?$StrTraitMFC_DLL@_WV?$ChTraitsCRT@_W@ATL@@@@@ATL@@@1@@Z 100e3d00 f i dllmain.obj
 0002:00020d60       ??0?$_Wrap_alloc@V?$allocator@V?$CStringT@_WV?$StrTraitMFC_DLL@_WV?$ChTraitsCRT@_W@ATL@@@@@ATL@@@std@@@std@@QAE@XZ 100e3d60 f i dllmain.obj
 0002:00020dc0       ??0?$_Wrap_alloc@V?$allocator@V?$shared_ptr@VBNC_FakeRect@@@std@@@std@@@std@@QAE@ABV?$allocator@V?$shared_ptr@VBNC_FakeRect@@@std@@@1@@Z 100e3dc0 f i dllmain.obj
 0002:00020e20       ??0?$_Wrap_alloc@V?$allocator@V?$shared_ptr@VBNC_FakeRect@@@std@@@std@@@std@@QAE@XZ 100e3e20 f i dllmain.obj
 0002:00020e80       ??0?$allocator@D@std@@QAE@XZ 100e3e80 f i dllmain.obj
 0002:00020ec0       ??0?$allocator@H@std@@QAE@ABV01@@Z 100e3ec0 f i dllmain.obj
 0002:00020f00       ??0?$allocator@H@std@@QAE@XZ 100e3f00 f i dllmain.obj
 0002:00020f40       ??0?$allocator@PAVBNC_Button@@@std@@QAE@ABV01@@Z 100e3f40 f i dllmain.obj
 0002:00020f80       ??0?$allocator@PAVBNC_Button@@@std@@QAE@XZ 100e3f80 f i dllmain.obj
 0002:00020fc0       ??0?$allocator@PAVBNC_ReferenceItem@@@std@@QAE@ABV01@@Z 100e3fc0 f i dllmain.obj
 0002:00021000       ??0?$allocator@PAVBNC_ReferenceItem@@@std@@QAE@XZ 100e4000 f i dllmain.obj
 0002:00021040       ??0?$allocator@U?$_Tree_node@U?$pair@$$CBV?$CStringT@_WV?$StrTraitMFC_DLL@_WV?$ChTraitsCRT@_W@ATL@@@@@ATL@@PAVBNC_ReferenceItem@@@std@@PAX@std@@@std@@QAE@ABV01@@Z 100e4040 f i dllmain.obj
 0002:00021080       ??0?$allocator@U?$_Tree_node@U?$pair@$$CBV?$CStringT@_WV?$StrTraitMFC_DLL@_WV?$ChTraitsCRT@_W@ATL@@@@@ATL@@PAVBNC_ReferenceItem@@@std@@PAX@std@@@std@@QAE@XZ 100e4080 f i dllmain.obj
 0002:000210c0       ??0?$allocator@U_Container_proxy@std@@@std@@QAE@XZ 100e40c0 f i dllmain.obj
 0002:00021100       ??0?$allocator@V?$CStringT@_WV?$StrTraitMFC_DLL@_WV?$ChTraitsCRT@_W@ATL@@@@@ATL@@@std@@QAE@ABV01@@Z 100e4100 f i dllmain.obj
 0002:00021140       ??0?$allocator@V?$CStringT@_WV?$StrTraitMFC_DLL@_WV?$ChTraitsCRT@_W@ATL@@@@@ATL@@@std@@QAE@XZ 100e4140 f i dllmain.obj
 0002:00021180       ??0?$allocator@V?$shared_ptr@VBNC_FakeRect@@@std@@@std@@QAE@ABV01@@Z 100e4180 f i dllmain.obj
 0002:000211c0       ??0?$allocator@V?$shared_ptr@VBNC_FakeRect@@@std@@@std@@QAE@XZ 100e41c0 f i dllmain.obj
 0002:00021200       ??0?$basic_string@DU?$char_traits@D@std@@V?$allocator@D@2@@std@@QAE@PBD@Z 100e4200 f i dllmain.obj
 0002:000212d0       ??0?$map@V?$CStringT@_WV?$StrTraitMFC_DLL@_WV?$ChTraitsCRT@_W@ATL@@@@@ATL@@PAVBNC_ReferenceItem@@U?$less@V?$CStringT@_WV?$StrTraitMFC_DLL@_WV?$ChTraitsCRT@_W@ATL@@@@@ATL@@@std@@V?$allocator@U?$pair@$$CBV?$CStringT@_WV?$StrTraitMFC_DLL@_WV?$ChTraitsCRT@_W@ATL@@@@@ATL@@PAVBNC_ReferenceItem@@@std@@@5@@std@@QAE@ABV01@@Z 100e42d0 f i dllmain.obj
 0002:00021370       ??0?$pair@$$CBV?$CStringT@_WV?$StrTraitMFC_DLL@_WV?$ChTraitsCRT@_W@ATL@@@@@ATL@@PAVBNC_ReferenceItem@@@std@@QAE@ABU01@@Z 100e4370 f i dllmain.obj
 0002:000213f0       ??0?$shared_ptr@VBNC_FakeRect@@@std@@QAE@ABV01@@Z 100e43f0 f i dllmain.obj
 0002:00021460       ??0?$vector@HV?$allocator@H@std@@@std@@QAE@ABV01@@Z 100e4460 f i dllmain.obj
 0002:000215f0       ??0?$vector@PAVBNC_Button@@V?$allocator@PAVBNC_Button@@@std@@@std@@QAE@ABV01@@Z 100e45f0 f i dllmain.obj
 0002:00021780       ??0?$vector@PAVBNC_ReferenceItem@@V?$allocator@PAVBNC_ReferenceItem@@@std@@@std@@QAE@ABV01@@Z 100e4780 f i dllmain.obj
 0002:00021910       ??0?$vector@V?$CStringT@_WV?$StrTraitMFC_DLL@_WV?$ChTraitsCRT@_W@ATL@@@@@ATL@@V?$allocator@V?$CStringT@_WV?$StrTraitMFC_DLL@_WV?$ChTraitsCRT@_W@ATL@@@@@ATL@@@std@@@std@@QAE@ABV01@@Z 100e4910 f i dllmain.obj
 0002:00021aa0       ??0?$vector@V?$shared_ptr@VBNC_FakeRect@@@std@@V?$allocator@V?$shared_ptr@VBNC_FakeRect@@@std@@@2@@std@@QAE@ABV01@@Z 100e4aa0 f i dllmain.obj
 0002:00021c30       ??0BNC_DrawString@@QAE@ABV0@@Z 100e4c30 f i dllmain.obj
 0002:00021cf0       ??0BNC_EditState@@QAE@ABV0@@Z 100e4cf0 f i dllmain.obj
 0002:00021db0       ??0BNC_EditState@@QAE@XZ   100e4db0 f i dllmain.obj
 0002:00021e90       ??0BNC_FakeBtnSet@@QAE@ABV0@@Z 100e4e90 f i dllmain.obj
 0002:00021f00       ??0BNC_HtmlMetaInfo@@QAE@ABV0@@Z 100e4f00 f i dllmain.obj
 0002:000220c0       ??0BNC_HyperLink@@QAE@ABV0@@Z 100e50c0 f i dllmain.obj
 0002:00022120       ??0BNC_RefTreeItemOption@@QAE@ABV0@@Z 100e5120 f i dllmain.obj
 0002:00022280       ??0BNC_TempClient@@QAE@XZ  100e5280 f i dllmain.obj
 0002:000222e0       ??0BNC_Titlebar@@QAE@ABV0@@Z 100e52e0 f i dllmain.obj
 0002:000224f0       ??0CAtlComModule@ATL@@QAE@XZ 100e54f0 f i dllmain.obj
 0002:00022620       ??0CAtlStringMgr@ATL@@QAE@PAUIAtlMemMgr@1@@Z 100e5620 f i dllmain.obj
 0002:000226b0       ??0CAtlWinModule@ATL@@QAE@XZ 100e56b0 f i dllmain.obj
 0002:00022780       ??0CComCriticalSection@ATL@@QAE@XZ 100e5780 f i dllmain.obj
 0002:000227e0       ??0CDCCache@CImage@ATL@@QAE@XZ 100e57e0 f i dllmain.obj
 0002:00022850       ??0CInitGDIPlus@CImage@ATL@@QAE@XZ 100e5850 f i dllmain.obj
 0002:00022900       ??0CNilStringData@ATL@@QAE@XZ 100e5900 f i dllmain.obj
 0002:000229a0       ??0CTraceFileAndLineInfo@ATL@@QAE@PBDH@Z 100e59a0 f i dllmain.obj
 0002:000229f0       ??0CWin32Heap@ATL@@QAE@PAX@Z 100e59f0 f i dllmain.obj
 0002:00022aa0       ??0_ATL_COM_MODULE70@ATL@@QAE@XZ 100e5aa0 f i dllmain.obj
 0002:00022b00       ??0_ATL_WIN_MODULE70@ATL@@QAE@XZ 100e5b00 f i dllmain.obj
 0002:00022bb0       ??0_Container_proxy@std@@QAE@XZ 100e5bb0 f i dllmain.obj
 0002:00022c00       ??0_Generic_error_category@std@@QAE@XZ 100e5c00 f i dllmain.obj
 0002:00022c60       ??0_Ignore@std@@QAE@XZ     100e5c60 f i dllmain.obj
 0002:00022ca0       ??0_Iostream_error_category@std@@QAE@XZ 100e5ca0 f i dllmain.obj
 0002:00022d00       ??0_Iterator_base12@std@@QAE@ABU01@@Z 100e5d00 f i dllmain.obj
 0002:00022d80       ??0_Iterator_base12@std@@QAE@XZ 100e5d80 f i dllmain.obj
 0002:00022dd0       ??0_System_error_category@std@@QAE@XZ 100e5dd0 f i dllmain.obj
 0002:00022e30       ??0error_category@std@@QAE@XZ 100e5e30 f i dllmain.obj
 0002:00022e80       ??0error_condition@std@@QAE@HABVerror_category@1@@Z 100e5e80 f i dllmain.obj
 0002:00022ed0       ??1?$CHeapPtr@_WVCCRTAllocator@ATL@@@ATL@@QAE@XZ 100e5ed0 f i dllmain.obj
 0002:00022f20       ??1?$CHeapPtrBase@_WVCCRTAllocator@ATL@@@ATL@@QAE@XZ 100e5f20 f i dllmain.obj
 0002:00022f70       ??1?$CSimpleArray@GV?$CSimpleArrayEqualHelper@G@ATL@@@ATL@@QAE@XZ 100e5f70 f i dllmain.obj
 0002:00022fc0       ??1?$TSingleton@VBNC_BaseDialogTracer@@@baro@@MAE@XZ 100e5fc0 f i dllmain.obj
 0002:00023090       ??1?$_Iterator012@Ubidirectional_iterator_tag@std@@U?$pair@$$CBV?$CStringT@_WV?$StrTraitMFC_DLL@_WV?$ChTraitsCRT@_W@ATL@@@@@ATL@@PAVBNC_ReferenceItem@@@2@HPBU32@ABU32@U_Iterator_base12@2@@std@@QAE@XZ 100e6090 f i dllmain.obj
 0002:000230e0       ??1?$_Iterator012@Urandom_access_iterator_tag@std@@HHPBHABHU_Iterator_base12@2@@std@@QAE@XZ 100e60e0 f i dllmain.obj
 0002:00023130       ??1?$_Iterator012@Urandom_access_iterator_tag@std@@PAVBNC_Button@@HPBQAV3@ABQAV3@U_Iterator_base12@2@@std@@QAE@XZ 100e6130 f i dllmain.obj
 0002:00023180       ??1?$_Iterator012@Urandom_access_iterator_tag@std@@PAVBNC_ReferenceItem@@HPBQAV3@ABQAV3@U_Iterator_base12@2@@std@@QAE@XZ 100e6180 f i dllmain.obj
 0002:000231d0       ??1?$_Iterator012@Urandom_access_iterator_tag@std@@V?$CStringT@_WV?$StrTraitMFC_DLL@_WV?$ChTraitsCRT@_W@ATL@@@@@ATL@@HPBV34@ABV34@U_Iterator_base12@2@@std@@QAE@XZ 100e61d0 f i dllmain.obj
 0002:00023220       ??1?$_Iterator012@Urandom_access_iterator_tag@std@@V?$shared_ptr@VBNC_FakeRect@@@2@HPBV32@ABV32@U_Iterator_base12@2@@std@@QAE@XZ 100e6220 f i dllmain.obj
 0002:00023270       ??1?$_String_alloc@$0A@U?$_String_base_types@DV?$allocator@D@std@@@std@@@std@@QAE@XZ 100e6270 f i dllmain.obj
 0002:000232d0       ??1?$_String_val@U?$_Simple_types@D@std@@@std@@QAE@XZ 100e62d0 f i dllmain.obj
 0002:00023330       ??1?$_Tree@V?$_Tmap_traits@V?$CStringT@_WV?$StrTraitMFC_DLL@_WV?$ChTraitsCRT@_W@ATL@@@@@ATL@@PAVBNC_ReferenceItem@@U?$less@V?$CStringT@_WV?$StrTraitMFC_DLL@_WV?$ChTraitsCRT@_W@ATL@@@@@ATL@@@std@@V?$allocator@U?$pair@$$CBV?$CStringT@_WV?$StrTraitMFC_DLL@_WV?$ChTraitsCRT@_W@ATL@@@@@ATL@@PAVBNC_ReferenceItem@@@std@@@5@$0A@@std@@@std@@QAE@XZ 100e6330 f i dllmain.obj
 0002:00023390       ??1?$_Tree_alloc@$0A@U?$_Tree_base_types@U?$pair@$$CBV?$CStringT@_WV?$StrTraitMFC_DLL@_WV?$ChTraitsCRT@_W@ATL@@@@@ATL@@PAVBNC_ReferenceItem@@@std@@V?$allocator@U?$pair@$$CBV?$CStringT@_WV?$StrTraitMFC_DLL@_WV?$ChTraitsCRT@_W@ATL@@@@@ATL@@PAVBNC_ReferenceItem@@@std@@@2@@std@@@std@@QAE@XZ 100e6390 f i dllmain.obj
 0002:00023400       ??1?$_Tree_buy@U?$pair@$$CBV?$CStringT@_WV?$StrTraitMFC_DLL@_WV?$ChTraitsCRT@_W@ATL@@@@@ATL@@PAVBNC_ReferenceItem@@@std@@V?$allocator@U?$pair@$$CBV?$CStringT@_WV?$StrTraitMFC_DLL@_WV?$ChTraitsCRT@_W@ATL@@@@@ATL@@PAVBNC_ReferenceItem@@@std@@@2@@std@@QAE@XZ 100e6400 f i dllmain.obj
 0002:00023450       ??1?$_Tree_comp@$0A@V?$_Tmap_traits@V?$CStringT@_WV?$StrTraitMFC_DLL@_WV?$ChTraitsCRT@_W@ATL@@@@@ATL@@PAVBNC_ReferenceItem@@U?$less@V?$CStringT@_WV?$StrTraitMFC_DLL@_WV?$ChTraitsCRT@_W@ATL@@@@@ATL@@@std@@V?$allocator@U?$pair@$$CBV?$CStringT@_WV?$StrTraitMFC_DLL@_WV?$ChTraitsCRT@_W@ATL@@@@@ATL@@PAVBNC_ReferenceItem@@@std@@@5@$0A@@std@@@std@@QAE@XZ 100e6450 f i dllmain.obj
 0002:000234a0       ??1?$_Tree_const_iterator@V?$_Tree_val@U?$_Tree_simple_types@U?$pair@$$CBV?$CStringT@_WV?$StrTraitMFC_DLL@_WV?$ChTraitsCRT@_W@ATL@@@@@ATL@@PAVBNC_ReferenceItem@@@std@@@std@@@std@@@std@@QAE@XZ 100e64a0 f i dllmain.obj
 0002:000234f0       ??1?$_Tree_iterator@V?$_Tree_val@U?$_Tree_simple_types@U?$pair@$$CBV?$CStringT@_WV?$StrTraitMFC_DLL@_WV?$ChTraitsCRT@_W@ATL@@@@@ATL@@PAVBNC_ReferenceItem@@@std@@@std@@@std@@@std@@QAE@XZ 100e64f0 f i dllmain.obj
 0002:00023540       ??1?$_Tree_unchecked_const_iterator@V?$_Tree_val@U?$_Tree_simple_types@U?$pair@$$CBV?$CStringT@_WV?$StrTraitMFC_DLL@_WV?$ChTraitsCRT@_W@ATL@@@@@ATL@@PAVBNC_ReferenceItem@@@std@@@std@@@std@@U_Iterator_base12@2@@std@@QAE@XZ 100e6540 f i dllmain.obj
 0002:00023590       ??1?$_Tree_val@U?$_Tree_simple_types@U?$pair@$$CBV?$CStringT@_WV?$StrTraitMFC_DLL@_WV?$ChTraitsCRT@_W@ATL@@@@@ATL@@PAVBNC_ReferenceItem@@@std@@@std@@@std@@QAE@XZ 100e6590 f i dllmain.obj
 0002:000235f0       ??1?$_Vector_alloc@$0A@U?$_Vec_base_types@HV?$allocator@H@std@@@std@@@std@@QAE@XZ 100e65f0 f i dllmain.obj
 0002:00023650       ??1?$_Vector_alloc@$0A@U?$_Vec_base_types@PAVBNC_Button@@V?$allocator@PAVBNC_Button@@@std@@@std@@@std@@QAE@XZ 100e6650 f i dllmain.obj
 0002:000236b0       ??1?$_Vector_alloc@$0A@U?$_Vec_base_types@PAVBNC_ReferenceItem@@V?$allocator@PAVBNC_ReferenceItem@@@std@@@std@@@std@@QAE@XZ 100e66b0 f i dllmain.obj
 0002:00023710       ??1?$_Vector_alloc@$0A@U?$_Vec_base_types@V?$CStringT@_WV?$StrTraitMFC_DLL@_WV?$ChTraitsCRT@_W@ATL@@@@@ATL@@V?$allocator@V?$CStringT@_WV?$StrTraitMFC_DLL@_WV?$ChTraitsCRT@_W@ATL@@@@@ATL@@@std@@@std@@@std@@QAE@XZ 100e6710 f i dllmain.obj
 0002:00023770       ??1?$_Vector_alloc@$0A@U?$_Vec_base_types@V?$shared_ptr@VBNC_FakeRect@@@std@@V?$allocator@V?$shared_ptr@VBNC_FakeRect@@@std@@@2@@std@@@std@@QAE@XZ 100e6770 f i dllmain.obj
 0002:000237d0       ??1?$_Vector_const_iterator@V?$_Vector_val@U?$_Simple_types@H@std@@@std@@@std@@QAE@XZ 100e67d0 f i dllmain.obj
 0002:00023820       ??1?$_Vector_const_iterator@V?$_Vector_val@U?$_Simple_types@PAVBNC_Button@@@std@@@std@@@std@@QAE@XZ 100e6820 f i dllmain.obj
 0002:00023870       ??1?$_Vector_const_iterator@V?$_Vector_val@U?$_Simple_types@PAVBNC_ReferenceItem@@@std@@@std@@@std@@QAE@XZ 100e6870 f i dllmain.obj
 0002:000238c0       ??1?$_Vector_const_iterator@V?$_Vector_val@U?$_Simple_types@V?$CStringT@_WV?$StrTraitMFC_DLL@_WV?$ChTraitsCRT@_W@ATL@@@@@ATL@@@std@@@std@@@std@@QAE@XZ 100e68c0 f i dllmain.obj
 0002:00023910       ??1?$_Vector_const_iterator@V?$_Vector_val@U?$_Simple_types@V?$shared_ptr@VBNC_FakeRect@@@std@@@std@@@std@@@std@@QAE@XZ 100e6910 f i dllmain.obj
 0002:00023960       ??1?$_Vector_val@U?$_Simple_types@H@std@@@std@@QAE@XZ 100e6960 f i dllmain.obj
 0002:000239c0       ??1?$_Vector_val@U?$_Simple_types@PAVBNC_Button@@@std@@@std@@QAE@XZ 100e69c0 f i dllmain.obj
 0002:00023a20       ??1?$_Vector_val@U?$_Simple_types@PAVBNC_ReferenceItem@@@std@@@std@@QAE@XZ 100e6a20 f i dllmain.obj
 0002:00023a80       ??1?$_Vector_val@U?$_Simple_types@V?$CStringT@_WV?$StrTraitMFC_DLL@_WV?$ChTraitsCRT@_W@ATL@@@@@ATL@@@std@@@std@@QAE@XZ 100e6a80 f i dllmain.obj
 0002:00023ae0       ??1?$_Vector_val@U?$_Simple_types@V?$shared_ptr@VBNC_FakeRect@@@std@@@std@@@std@@QAE@XZ 100e6ae0 f i dllmain.obj
 0002:00023b40       ??1?$map@V?$CStringT@_WV?$StrTraitMFC_DLL@_WV?$ChTraitsCRT@_W@ATL@@@@@ATL@@PAVBNC_ReferenceItem@@U?$less@V?$CStringT@_WV?$StrTraitMFC_DLL@_WV?$ChTraitsCRT@_W@ATL@@@@@ATL@@@std@@V?$allocator@U?$pair@$$CBV?$CStringT@_WV?$StrTraitMFC_DLL@_WV?$ChTraitsCRT@_W@ATL@@@@@ATL@@PAVBNC_ReferenceItem@@@std@@@5@@std@@QAE@XZ 100e6b40 f i dllmain.obj
 0002:00023b90       ??1?$pair@$$CBV?$CStringT@_WV?$StrTraitMFC_DLL@_WV?$ChTraitsCRT@_W@ATL@@@@@ATL@@PAVBNC_ReferenceItem@@@std@@QAE@XZ 100e6b90 f i dllmain.obj
 0002:00023bf0       ??1?$shared_ptr@VBNC_FakeRect@@@std@@QAE@XZ 100e6bf0 f i dllmain.obj
 0002:00023c40       ??1?$vector@PAVBNC_Button@@V?$allocator@PAVBNC_Button@@@std@@@std@@QAE@XZ 100e6c40 f i dllmain.obj
 0002:00023ca0       ??1?$vector@PAVBNC_ReferenceItem@@V?$allocator@PAVBNC_ReferenceItem@@@std@@@std@@QAE@XZ 100e6ca0 f i dllmain.obj
 0002:00023d00       ??1BNC_EditState@@QAE@XZ   100e6d00 f i dllmain.obj
 0002:00023dc0       ??1BNC_TempClient@@UAE@XZ  100e6dc0 f i dllmain.obj
 0002:00023e20       ??1CAtlComModule@ATL@@QAE@XZ 100e6e20 f i dllmain.obj
 0002:00023ec0       ??1CAtlStringMgr@ATL@@UAE@XZ 100e6ec0 f i dllmain.obj
 0002:00023f10       ??1CAtlWinModule@ATL@@QAE@XZ 100e6f10 f i dllmain.obj
 0002:00023fb0       ??1CComCriticalSection@ATL@@QAE@XZ 100e6fb0 f i dllmain.obj
 0002:00023ff0       ??1CDCCache@CImage@ATL@@QAE@XZ 100e6ff0 f i dllmain.obj
 0002:00024090       ??1CInitGDIPlus@CImage@ATL@@QAE@XZ 100e7090 f i dllmain.obj
 0002:00024100       ??1CWin32Heap@ATL@@UAE@XZ  100e7100 f i dllmain.obj
 0002:000241d0       ??1_ATL_COM_MODULE70@ATL@@QAE@XZ 100e71d0 f i dllmain.obj
 0002:00024230       ??1_ATL_WIN_MODULE70@ATL@@QAE@XZ 100e7230 f i dllmain.obj
 0002:000242e0       ??1_Generic_error_category@std@@UAE@XZ 100e72e0 f i dllmain.obj
 0002:00024330       ??1_Iostream_error_category@std@@UAE@XZ 100e7330 f i dllmain.obj
 0002:00024380       ??1_Iterator_base12@std@@QAE@XZ 100e7380 f i dllmain.obj
 0002:00024450       ??1_System_error_category@std@@UAE@XZ 100e7450 f i dllmain.obj
 0002:000244a0       ??1error_category@std@@UAE@XZ 100e74a0 f i dllmain.obj
 0002:000244e0       ??2@YAPAXIPAX@Z            100e74e0 f i dllmain.obj
 0002:00024520       ??3@YAXPAX0@Z              100e7520 f i dllmain.obj
 0002:00024550       ??4?$BNC_Instance@VBNC_FakeRect@@@@QAEAAV0@ABV0@@Z 100e7550 f i dllmain.obj
 0002:000245a0       ??4?$_Tree@V?$_Tmap_traits@V?$CStringT@_WV?$StrTraitMFC_DLL@_WV?$ChTraitsCRT@_W@ATL@@@@@ATL@@PAVBNC_ReferenceItem@@U?$less@V?$CStringT@_WV?$StrTraitMFC_DLL@_WV?$ChTraitsCRT@_W@ATL@@@@@ATL@@@std@@V?$allocator@U?$pair@$$CBV?$CStringT@_WV?$StrTraitMFC_DLL@_WV?$ChTraitsCRT@_W@ATL@@@@@ATL@@PAVBNC_ReferenceItem@@@std@@@5@$0A@@std@@@std@@QAEAAV01@ABV01@@Z 100e75a0 f i dllmain.obj
 0002:000246b0       ??4?$map@V?$CStringT@_WV?$StrTraitMFC_DLL@_WV?$ChTraitsCRT@_W@ATL@@@@@ATL@@PAVBNC_ReferenceItem@@U?$less@V?$CStringT@_WV?$StrTraitMFC_DLL@_WV?$ChTraitsCRT@_W@ATL@@@@@ATL@@@std@@V?$allocator@U?$pair@$$CBV?$CStringT@_WV?$StrTraitMFC_DLL@_WV?$ChTraitsCRT@_W@ATL@@@@@ATL@@PAVBNC_ReferenceItem@@@std@@@5@@std@@QAEAAV01@ABV01@@Z 100e76b0 f i dllmain.obj
 0002:00024710       ??4?$shared_ptr@VBNC_FakeRect@@@std@@QAEAAV01@ABV01@@Z 100e7710 f i dllmain.obj
 0002:00024790       ??4?$vector@HV?$allocator@H@std@@@std@@QAEAAV01@ABV01@@Z 100e7790 f i dllmain.obj
 0002:00024ac0       ??4?$vector@PAVBNC_Button@@V?$allocator@PAVBNC_Button@@@std@@@std@@QAEAAV01@ABV01@@Z 100e7ac0 f i dllmain.obj
 0002:00024df0       ??4?$vector@PAVBNC_ReferenceItem@@V?$allocator@PAVBNC_ReferenceItem@@@std@@@std@@QAEAAV01@ABV01@@Z 100e7df0 f i dllmain.obj
 0002:00025120       ??4?$vector@V?$CStringT@_WV?$StrTraitMFC_DLL@_WV?$ChTraitsCRT@_W@ATL@@@@@ATL@@V?$allocator@V?$CStringT@_WV?$StrTraitMFC_DLL@_WV?$ChTraitsCRT@_W@ATL@@@@@ATL@@@std@@@std@@QAEAAV01@ABV01@@Z 100e8120 f i dllmain.obj
 0002:00025450       ??4?$vector@V?$shared_ptr@VBNC_FakeRect@@@std@@V?$allocator@V?$shared_ptr@VBNC_FakeRect@@@std@@@2@@std@@QAEAAV01@ABV01@@Z 100e8450 f i dllmain.obj
 0002:00025780       ??4BNC_Base64Low@@QAEAAV0@ABV0@@Z 100e8780 f i dllmain.obj
 0002:000257c0       ??4BNC_CaptureKeyboardMouse@@QAEAAV0@ABV0@@Z 100e87c0 f i dllmain.obj
 0002:00025810       ??4BNC_ClipboardImage@@QAEAAV0@ABV0@@Z 100e8810 f i dllmain.obj
 0002:00025860       ??4BNC_ClipboardImageOLE@@QAEAAV0@ABV0@@Z 100e8860 f i dllmain.obj
 0002:000258a0       ??4BNC_DrawString@@QAEAAV0@ABV0@@Z 100e88a0 f i dllmain.obj
 0002:00025960       ??4BNC_DwmColorControl@@QAEAAV0@ABV0@@Z 100e8960 f i dllmain.obj
 0002:000259a0       ??4BNC_EditState@@QAEAAV0@ABV0@@Z 100e89a0 f i dllmain.obj
 0002:00025a30       ??4BNC_FakeBtnSet@@QAEAAV0@ABV0@@Z 100e8a30 f i dllmain.obj
 0002:00025aa0       ??4BNC_Graphics@@QAEAAV0@ABV0@@Z 100e8aa0 f i dllmain.obj
 0002:00025af0       ??4BNC_HtmlMetaInfo@@QAEAAV0@ABV0@@Z 100e8af0 f i dllmain.obj
 0002:00025c50       ??4BNC_HyperLink@@QAEAAV0@ABV0@@Z 100e8c50 f i dllmain.obj
 0002:00025cb0       ??4BNC_MagnetEffect@@QAEAAV0@ABV0@@Z 100e8cb0 f i dllmain.obj
 0002:00025cf0       ??4BNC_MouseControl@@QAEAAV0@ABV0@@Z 100e8cf0 f i dllmain.obj
 0002:00025d40       ??4BNC_PopupMenuItem@@QAEAAV0@ABV0@@Z 100e8d40 f i dllmain.obj
 0002:00025d90       ??4BNC_RefTreeItemOption@@QAEAAV0@ABV0@@Z 100e8d90 f i dllmain.obj
 0002:00025ea0       ??4BNC_ReferenceItemSelecter@@QAEAAV0@ABV0@@Z 100e8ea0 f i dllmain.obj
 0002:00025ee0       ??4BNC_ReferenceItemSeqSort@@QAEAAV0@ABV0@@Z 100e8ee0 f i dllmain.obj
 0002:00025f30       ??4BNC_ReferenceItemSort@@QAEAAV0@ABV0@@Z 100e8f30 f i dllmain.obj
 0002:00025f90       ??4BNC_ReferenceItemTreeSort@@QAEAAV0@ABV0@@Z 100e8f90 f i dllmain.obj
 0002:00025ff0       ??4BNC_StaticObject@@QAEAAV0@ABV0@@Z 100e8ff0 f i dllmain.obj
 0002:00026050       ??4BNC_Titlebar@@QAEAAV0@ABV0@@Z 100e9050 f i dllmain.obj
 0002:00026210       ??4BNC_WindowLayered@@QAEAAV0@ABV0@@Z 100e9210 f i dllmain.obj
 0002:00026260       ??4BNC_WindowSync@@QAEAAV0@ABV0@@Z 100e9260 f i dllmain.obj
 0002:000262b0       ??4BNS_ImageInfo@@QAEAAU0@ABU0@@Z 100e92b0 f i dllmain.obj
 0002:00026300       ??4_Iterator_base12@std@@QAEAAU01@ABU01@@Z 100e9300 f i dllmain.obj
 0002:00026450       ??8?$_Tree_const_iterator@V?$_Tree_val@U?$_Tree_simple_types@U?$pair@$$CBV?$CStringT@_WV?$StrTraitMFC_DLL@_WV?$ChTraitsCRT@_W@ATL@@@@@ATL@@PAVBNC_ReferenceItem@@@std@@@std@@@std@@@std@@QBE_NABV01@@Z 100e9450 f i dllmain.obj
 0002:000265b0       ??8error_category@std@@QBE_NABV01@@Z 100e95b0 f i dllmain.obj
 0002:00026620       ??8error_condition@std@@QBE_NABV01@@Z 100e9620 f i dllmain.obj
 0002:000266d0       ??9?$_Tree_const_iterator@V?$_Tree_val@U?$_Tree_simple_types@U?$pair@$$CBV?$CStringT@_WV?$StrTraitMFC_DLL@_WV?$ChTraitsCRT@_W@ATL@@@@@ATL@@PAVBNC_ReferenceItem@@@std@@@std@@@std@@@std@@QBE_NABV01@@Z 100e96d0 f i dllmain.obj
 0002:00026760       ??A?$CSimpleArray@GV?$CSimpleArrayEqualHelper@G@ATL@@@ATL@@QAEAAGH@Z 100e9760 f i dllmain.obj
 0002:00026830       ??B?$CHeapPtrBase@_WVCCRTAllocator@ATL@@@ATL@@QBEPA_WXZ 100e9830 f i dllmain.obj
 0002:00026870       ??B?$CTraceCategoryEx@$00$0A@@ATL@@QAEIXZ 100e9870 f i dllmain.obj
 0002:000268b0       ??B?$CTraceCategoryEx@$01$0A@@ATL@@QAEIXZ 100e98b0 f i dllmain.obj
 0002:000268f0       ??B?$CTraceCategoryEx@$0CA@$0A@@ATL@@QAEIXZ 100e98f0 f i dllmain.obj
 0002:00026930       ??B?$CTypedSimpleList@PAUCRuntimeClass@@@@QAEPAUCRuntimeClass@@XZ 100e9930 f i dllmain.obj
 0002:00026980       ??B?$CTypedSimpleList@PAVCOleObjectFactory@@@@QAEPAVCOleObjectFactory@@XZ 100e9980 f i dllmain.obj
 0002:000269d0       ??E?$_Tree_const_iterator@V?$_Tree_val@U?$_Tree_simple_types@U?$pair@$$CBV?$CStringT@_WV?$StrTraitMFC_DLL@_WV?$ChTraitsCRT@_W@ATL@@@@@ATL@@PAVBNC_ReferenceItem@@@std@@@std@@@std@@@std@@QAE?AV01@H@Z 100e99d0 f i dllmain.obj
 0002:00026b10       ??E?$_Tree_const_iterator@V?$_Tree_val@U?$_Tree_simple_types@U?$pair@$$CBV?$CStringT@_WV?$StrTraitMFC_DLL@_WV?$ChTraitsCRT@_W@ATL@@@@@ATL@@PAVBNC_ReferenceItem@@@std@@@std@@@std@@@std@@QAEAAV01@XZ 100e9b10 f i dllmain.obj
 0002:00026c50       ??E?$_Tree_unchecked_const_iterator@V?$_Tree_val@U?$_Tree_simple_types@U?$pair@$$CBV?$CStringT@_WV?$StrTraitMFC_DLL@_WV?$ChTraitsCRT@_W@ATL@@@@@ATL@@PAVBNC_ReferenceItem@@@std@@@std@@@std@@U_Iterator_base12@2@@std@@QAEAAV01@XZ 100e9c50 f i dllmain.obj
 0002:00026d80       ??RCTraceFileAndLineInfo@ATL@@QBAXHIPB_WZZ 100e9d80 f i dllmain.obj
 0002:00026e00       ??RCTraceFileAndLineInfo@ATL@@QBAXPB_WZZ 100e9e00 f i dllmain.obj
 0002:00026e90       ??_E?$TSingleton@VBNC_BaseDialogTracer@@@baro@@MAEPAXI@Z 100e9e90 f i dllmain.obj
 0002:00026f50       ??_EBNC_RefTreeItemOption@@UAEPAXI@Z 100e9f50 f i dllmain.obj
 0002:00027010       ??_EBNC_TempClient@@UAEPAXI@Z 100ea010 f i dllmain.obj
 0002:000270d0       ??_EBNC_Titlebar@@UAEPAXI@Z 100ea0d0 f i dllmain.obj
 0002:00027190       ??_G?$CStringT@_WV?$StrTraitMFC_DLL@_WV?$ChTraitsCRT@_W@ATL@@@@@ATL@@QAEPAXI@Z 100ea190 f i dllmain.obj
 0002:00027210       ??_G?$TSingleton@VBNC_BaseDialogTracer@@@baro@@MAEPAXI@Z 100ea210 f i dllmain.obj
 0002:00027280       ??_G?$pair@$$CBV?$CStringT@_WV?$StrTraitMFC_DLL@_WV?$ChTraitsCRT@_W@ATL@@@@@ATL@@PAVBNC_ReferenceItem@@@std@@QAEPAXI@Z 100ea280 f i dllmain.obj
 0002:000272f0       ??_G?$shared_ptr@VBNC_FakeRect@@@std@@QAEPAXI@Z 100ea2f0 f i dllmain.obj
 0002:00027360       ??_GBNC_RefTreeItemOption@@UAEPAXI@Z 100ea360 f i dllmain.obj
 0002:000273d0       ??_GBNC_TempClient@@UAEPAXI@Z 100ea3d0 f i dllmain.obj
 0002:00027440       ??_GBNC_Titlebar@@UAEPAXI@Z 100ea440 f i dllmain.obj
 0002:000274b0       ??_GCAtlStringMgr@ATL@@UAEPAXI@Z 100ea4b0 f i dllmain.obj
 0002:000274b0       ??_ECAtlStringMgr@ATL@@UAEPAXI@Z 100ea4b0 f i dllmain.obj
 0002:00027520       ??_ECWin32Heap@ATL@@UAEPAXI@Z 100ea520 f i dllmain.obj
 0002:00027520       ??_GCWin32Heap@ATL@@UAEPAXI@Z 100ea520 f i dllmain.obj
 0002:00027590       ??_E_Generic_error_category@std@@UAEPAXI@Z 100ea590 f i dllmain.obj
 0002:00027590       ??_G_Generic_error_category@std@@UAEPAXI@Z 100ea590 f i dllmain.obj
 0002:00027600       ??_G_Iostream_error_category@std@@UAEPAXI@Z 100ea600 f i dllmain.obj
 0002:00027600       ??_E_Iostream_error_category@std@@UAEPAXI@Z 100ea600 f i dllmain.obj
 0002:00027670       ??_E_System_error_category@std@@UAEPAXI@Z 100ea670 f i dllmain.obj
 0002:00027670       ??_G_System_error_category@std@@UAEPAXI@Z 100ea670 f i dllmain.obj
 0002:000276e0       ??_Gerror_category@std@@UAEPAXI@Z 100ea6e0 f i dllmain.obj
 0002:000276e0       ??_Eerror_category@std@@UAEPAXI@Z 100ea6e0 f i dllmain.obj
 0002:00027750       ??_H@YGXPAXIHP6EPAX0@Z@Z   100ea750 f i dllmain.obj
 0002:000277c0       ?AddRef@CStringData@ATL@@QAEXXZ 100ea7c0 f i dllmain.obj
 0002:00027860       ?Allocate@?$CHeapPtr@_WVCCRTAllocator@ATL@@@ATL@@QAE_NI@Z 100ea860 f i dllmain.obj
 0002:00027930       ?Allocate@CAtlStringMgr@ATL@@UAEPAUCStringData@2@HH@Z 100ea930 f i dllmain.obj
 0002:00027be0       ?Allocate@CCRTAllocator@ATL@@SAPAXI@Z 100eabe0 f i dllmain.obj
 0002:00027c40       ?Allocate@CWin32Heap@ATL@@UAEPAXI@Z 100eac40 f i dllmain.obj
 0002:00027cb0       ?AllocateBytes@?$CHeapPtrBase@_WVCCRTAllocator@ATL@@@ATL@@QAE_NI@Z 100eacb0 f i dllmain.obj
 0002:00027d70       ?AtlWinModuleInit@ATL@@YGJPAU_ATL_WIN_MODULE70@1@@Z 100ead70 f i dllmain.obj
 0002:00027e90       ?AtlWinModuleTerm@ATL@@YGJPAU_ATL_WIN_MODULE70@1@PAUHINSTANCE__@@@Z 100eae90 f i dllmain.obj
 0002:00027f90       ?CImageStaticInitialize@CImage@ATL@@CA_NXZ 100eaf90 f i dllmain.obj
 0002:00027fe0       ?Clone@CAtlStringMgr@ATL@@UAEPAUIAtlStringMgr@2@XZ 100eafe0 f i dllmain.obj
 0002:00028020       ?Free@?$CHeapPtrBase@_WVCCRTAllocator@ATL@@@ATL@@QAEXXZ 100eb020 f i dllmain.obj
 0002:00028090       ?Free@CAtlStringMgr@ATL@@UAEXPAUCStringData@2@@Z 100eb090 f i dllmain.obj
 0002:00028190       ?Free@CCRTAllocator@ATL@@SAXPAX@Z 100eb190 f i dllmain.obj
 0002:000281f0       ?Free@CWin32Heap@ATL@@UAEXPAX@Z 100eb1f0 f i dllmain.obj
 0002:000282b0       ?GetCDCCacheInstance@CImage@ATL@@CAPAVCDCCache@12@XZ 100eb2b0 f i dllmain.obj
 0002:00028330       ?GetCategoryName@CTrace@ATL@@CAPA_WI@Z 100eb330 f i dllmain.obj
 0002:000283b0       ?GetClientSize@BNC_BaseControl@@QAE?AVCSize@@XZ 100eb3b0 f i dllmain.obj
 0002:00028410       ?GetEditCtl@BNC_Editbox@@QAEPAVCEdit@@XZ 100eb410 f i dllmain.obj
 0002:00028450       ?GetEditCtl@BNC_EditboxEx@@QAEPAVCEdit@@XZ 100eb450 f i dllmain.obj
 0002:00028490       ?GetHead@CSimpleList@@QBEPAXXZ 100eb490 f i dllmain.obj
 0002:000284d0       ?GetInitGDIPlusInstance@CImage@ATL@@CAPAVCInitGDIPlus@12@XZ 100eb4d0 f i dllmain.obj
 0002:00028550       ?GetInstance@?$TSingleton@VBNC_BaseDialogTracer@@@baro@@SAAAVBNC_BaseDialogTracer@@XZ 100eb550 f i dllmain.obj
 0002:00028640       ?GetInstance@CAtlStringMgr@ATL@@SAPAUIAtlStringMgr@2@XZ 100eb640 f i dllmain.obj
 0002:00028730       ?GetModuleInstance@CAtlBaseModule@ATL@@QAEPAUHINSTANCE__@@XZ 100eb730 f i dllmain.obj
 0002:00028770       ?GetNilString@CAtlStringMgr@ATL@@UAEPAUCStringData@2@XZ 100eb770 f i dllmain.obj
 0002:000287d0       ?GetSize@?$CSimpleArray@GV?$CSimpleArrayEqualHelper@G@ATL@@@ATL@@QBEHXZ 100eb7d0 f i dllmain.obj
 0002:00028810       ?GetSize@CWin32Heap@ATL@@UAEIPAX@Z 100eb810 f i dllmain.obj
 0002:00028880       ?GetUseCount@BNC_DummyListView@@QAEHXZ 100eb880 f i dllmain.obj
 0002:000288c0       ?Init@CComCriticalSection@ATL@@QAEJXZ 100eb8c0 f i dllmain.obj
 0002:00028950       ?IsActivate@BNC_BaseDialog@@QBE_NXZ 100eb950 f i dllmain.obj
 0002:00028990       ?OnModifyPopupPtr@BNC_TempClient@@UAEXPAVBNC_BaseDialog@@@Z 100eb990 f i dllmain.obj
 0002:000289d0       ?Reallocate@CAtlStringMgr@ATL@@UAEPAUCStringData@2@PAU32@HH@Z 100eb9d0 f i dllmain.obj
 0002:00028ca0       ?Reallocate@CWin32Heap@ATL@@UAEPAXPAXI@Z 100ebca0 f i dllmain.obj
 0002:00028d70       ?RegisterCategory@CTrace@ATL@@SAXPB_WI@Z 100ebd70 f i dllmain.obj
 0002:00028e70       ?ReleaseGDIPlus@CInitGDIPlus@CImage@ATL@@QAEXXZ 100ebe70 f i dllmain.obj
 0002:00028f10       ?RemoveAll@?$CSimpleArray@GV?$CSimpleArrayEqualHelper@G@ATL@@@ATL@@QAEXXZ 100ebf10 f i dllmain.obj
 0002:00028fd0       ?SetManager@CNilStringData@ATL@@QAEXPAUIAtlStringMgr@2@@Z 100ebfd0 f i dllmain.obj
 0002:00029070       ?StaticInitialize@CAtlStringMgr@ATL@@CA_NXZ 100ec070 f i dllmain.obj
 0002:000290c0       ?Term@CAtlComModule@ATL@@QAEXXZ 100ec0c0 f i dllmain.obj
 0002:000291c0       ?Term@CAtlWinModule@ATL@@QAEXXZ 100ec1c0 f i dllmain.obj
 0002:00029220       ?Term@CComCriticalSection@ATL@@QAEJXZ 100ec220 f i dllmain.obj
 0002:00029280       ?TraceV@CTrace@ATL@@CAXPBDHIIPB_W@Z 100ec280 f i dllmain.obj
 0002:00029620       ?TraceV@CTrace@ATL@@SAXPBDHIIPB_WPAD@Z 100ec620 f i dllmain.obj
 0002:00029810       ?_Adopt@_Iterator_base12@std@@QAEXPBU_Container_base12@2@@Z 100ec810 f i dllmain.obj
 0002:000299d0       ?_Alloc_proxy@?$_String_alloc@$0A@U?$_String_base_types@DV?$allocator@D@std@@@std@@@std@@QAEXXZ 100ec9d0 f i dllmain.obj
 0002:00029ac0       ?_Alloc_proxy@?$_Tree_alloc@$0A@U?$_Tree_base_types@U?$pair@$$CBV?$CStringT@_WV?$StrTraitMFC_DLL@_WV?$ChTraitsCRT@_W@ATL@@@@@ATL@@PAVBNC_ReferenceItem@@@std@@V?$allocator@U?$pair@$$CBV?$CStringT@_WV?$StrTraitMFC_DLL@_WV?$ChTraitsCRT@_W@ATL@@@@@ATL@@PAVBNC_ReferenceItem@@@std@@@2@@std@@@std@@QAEXXZ 100ecac0 f i dllmain.obj
 0002:00029bc0       ?_Alloc_proxy@?$_Vector_alloc@$0A@U?$_Vec_base_types@HV?$allocator@H@std@@@std@@@std@@QAEXXZ 100ecbc0 f i dllmain.obj
 0002:00029cb0       ?_Alloc_proxy@?$_Vector_alloc@$0A@U?$_Vec_base_types@PAVBNC_Button@@V?$allocator@PAVBNC_Button@@@std@@@std@@@std@@QAEXXZ 100eccb0 f i dllmain.obj
 0002:00029da0       ?_Alloc_proxy@?$_Vector_alloc@$0A@U?$_Vec_base_types@PAVBNC_ReferenceItem@@V?$allocator@PAVBNC_ReferenceItem@@@std@@@std@@@std@@QAEXXZ 100ecda0 f i dllmain.obj
 0002:00029e90       ?_Alloc_proxy@?$_Vector_alloc@$0A@U?$_Vec_base_types@V?$CStringT@_WV?$StrTraitMFC_DLL@_WV?$ChTraitsCRT@_W@ATL@@@@@ATL@@V?$allocator@V?$CStringT@_WV?$StrTraitMFC_DLL@_WV?$ChTraitsCRT@_W@ATL@@@@@ATL@@@std@@@std@@@std@@QAEXXZ 100ece90 f i dllmain.obj
 0002:00029f80       ?_Alloc_proxy@?$_Vector_alloc@$0A@U?$_Vec_base_types@V?$shared_ptr@VBNC_FakeRect@@@std@@V?$allocator@V?$shared_ptr@VBNC_FakeRect@@@std@@@2@@std@@@std@@QAEXXZ 100ecf80 f i dllmain.obj
 0002:0002a070       ?_AtlInitializeCriticalSectionEx@ATL@@YAHPAU_RTL_CRITICAL_SECTION@@KK@Z 100ed070 f i dllmain.obj
 0002:0002a0d0       ?_AtlRaiseException@ATL@@YAXKK@Z 100ed0d0 f i dllmain.obj
 0002:0002a130       ?_Buy@?$vector@HV?$allocator@H@std@@@std@@IAE_NI@Z 100ed130 f i dllmain.obj
 0002:0002a220       ?_Buy@?$vector@PAVBNC_Button@@V?$allocator@PAVBNC_Button@@@std@@@std@@IAE_NI@Z 100ed220 f i dllmain.obj
 0002:0002a310       ?_Buy@?$vector@PAVBNC_ReferenceItem@@V?$allocator@PAVBNC_ReferenceItem@@@std@@@std@@IAE_NI@Z 100ed310 f i dllmain.obj
 0002:0002a400       ?_Buy@?$vector@V?$CStringT@_WV?$StrTraitMFC_DLL@_WV?$ChTraitsCRT@_W@ATL@@@@@ATL@@V?$allocator@V?$CStringT@_WV?$StrTraitMFC_DLL@_WV?$ChTraitsCRT@_W@ATL@@@@@ATL@@@std@@@std@@IAE_NI@Z 100ed400 f i dllmain.obj
 0002:0002a4f0       ?_Buy@?$vector@V?$shared_ptr@VBNC_FakeRect@@@std@@V?$allocator@V?$shared_ptr@VBNC_FakeRect@@@std@@@2@@std@@IAE_NI@Z 100ed4f0 f i dllmain.obj
 0002:0002a5e0       ?_Buyheadnode@?$_Tree_alloc@$0A@U?$_Tree_base_types@U?$pair@$$CBV?$CStringT@_WV?$StrTraitMFC_DLL@_WV?$ChTraitsCRT@_W@ATL@@@@@ATL@@PAVBNC_ReferenceItem@@@std@@V?$allocator@U?$pair@$$CBV?$CStringT@_WV?$StrTraitMFC_DLL@_WV?$ChTraitsCRT@_W@ATL@@@@@ATL@@PAVBNC_ReferenceItem@@@std@@@2@@std@@@std@@QAEPAU?$_Tree_node@U?$pair@$$CBV?$CStringT@_WV?$StrTraitMFC_DLL@_WV?$ChTraitsCRT@_W@ATL@@@@@ATL@@PAVBNC_ReferenceItem@@@std@@PAX@2@XZ 100ed5e0 f i dllmain.obj
 0002:0002a850       ?_Buynode0@?$_Tree_buy@U?$pair@$$CBV?$CStringT@_WV?$StrTraitMFC_DLL@_WV?$ChTraitsCRT@_W@ATL@@@@@ATL@@PAVBNC_ReferenceItem@@@std@@V?$allocator@U?$pair@$$CBV?$CStringT@_WV?$StrTraitMFC_DLL@_WV?$ChTraitsCRT@_W@ATL@@@@@ATL@@PAVBNC_ReferenceItem@@@std@@@2@@std@@QAEPAU?$_Tree_node@U?$pair@$$CBV?$CStringT@_WV?$StrTraitMFC_DLL@_WV?$ChTraitsCRT@_W@ATL@@@@@ATL@@PAVBNC_ReferenceItem@@@std@@PAX@2@XZ 100ed850 f i dllmain.obj
 0002:0002aa60       ?_Change_alloc@?$_Tree_alloc@$0A@U?$_Tree_base_types@U?$pair@$$CBV?$CStringT@_WV?$StrTraitMFC_DLL@_WV?$ChTraitsCRT@_W@ATL@@@@@ATL@@PAVBNC_ReferenceItem@@@std@@V?$allocator@U?$pair@$$CBV?$CStringT@_WV?$StrTraitMFC_DLL@_WV?$ChTraitsCRT@_W@ATL@@@@@ATL@@PAVBNC_ReferenceItem@@@std@@@2@@std@@@std@@QAEXABU?$_Wrap_alloc@V?$allocator@U?$_Tree_node@U?$pair@$$CBV?$CStringT@_WV?$StrTraitMFC_DLL@_WV?$ChTraitsCRT@_W@ATL@@@@@ATL@@PAVBNC_ReferenceItem@@@std@@PAX@std@@@std@@@2@@Z 100eda60 f i dllmain.obj
 0002:0002aaa0       ?_Change_alloc@?$_Vector_alloc@$0A@U?$_Vec_base_types@HV?$allocator@H@std@@@std@@@std@@QAEXABU?$_Wrap_alloc@V?$allocator@H@std@@@2@@Z 100edaa0 f i dllmain.obj
 0002:0002aae0       ?_Change_alloc@?$_Vector_alloc@$0A@U?$_Vec_base_types@PAVBNC_Button@@V?$allocator@PAVBNC_Button@@@std@@@std@@@std@@QAEXABU?$_Wrap_alloc@V?$allocator@PAVBNC_Button@@@std@@@2@@Z 100edae0 f i dllmain.obj
 0002:0002ab20       ?_Change_alloc@?$_Vector_alloc@$0A@U?$_Vec_base_types@PAVBNC_ReferenceItem@@V?$allocator@PAVBNC_ReferenceItem@@@std@@@std@@@std@@QAEXABU?$_Wrap_alloc@V?$allocator@PAVBNC_ReferenceItem@@@std@@@2@@Z 100edb20 f i dllmain.obj
 0002:0002ab60       ?_Change_alloc@?$_Vector_alloc@$0A@U?$_Vec_base_types@V?$CStringT@_WV?$StrTraitMFC_DLL@_WV?$ChTraitsCRT@_W@ATL@@@@@ATL@@V?$allocator@V?$CStringT@_WV?$StrTraitMFC_DLL@_WV?$ChTraitsCRT@_W@ATL@@@@@ATL@@@std@@@std@@@std@@QAEXABU?$_Wrap_alloc@V?$allocator@V?$CStringT@_WV?$StrTraitMFC_DLL@_WV?$ChTraitsCRT@_W@ATL@@@@@ATL@@@std@@@2@@Z 100edb60 f i dllmain.obj
 0002:0002aba0       ?_Change_alloc@?$_Vector_alloc@$0A@U?$_Vec_base_types@V?$shared_ptr@VBNC_FakeRect@@@std@@V?$allocator@V?$shared_ptr@VBNC_FakeRect@@@std@@@2@@std@@@std@@QAEXABU?$_Wrap_alloc@V?$allocator@V?$shared_ptr@VBNC_FakeRect@@@std@@@std@@@2@@Z 100edba0 f i dllmain.obj
 0002:0002abe0       ?_Clrcont@_Iterator_base12@std@@QAEXXZ 100edbe0 f i dllmain.obj
 0002:0002ac20       ?_Color@?$_Tree_val@U?$_Tree_simple_types@U?$pair@$$CBV?$CStringT@_WV?$StrTraitMFC_DLL@_WV?$ChTraitsCRT@_W@ATL@@@@@ATL@@PAVBNC_ReferenceItem@@@std@@@std@@@std@@SAAADPAU?$_Tree_node@U?$pair@$$CBV?$CStringT@_WV?$StrTraitMFC_DLL@_WV?$ChTraitsCRT@_W@ATL@@@@@ATL@@PAVBNC_ReferenceItem@@@std@@PAX@2@@Z 100edc20 f i dllmain.obj
 0002:0002ac60       ?_Copy@?$basic_string@DU?$char_traits@D@std@@V?$allocator@D@2@@std@@QAEXII@Z 100edc60 f i dllmain.obj
 0002:0002af30       ?_Decref@?$_Ptr_base@VBNC_FakeRect@@@std@@QAEXXZ 100edf30 f i dllmain.obj
 0002:0002af90       ?_Decref@_Ref_count_base@std@@QAEXXZ 100edf90 f i dllmain.obj
 0002:0002b010       ?_Decwref@_Ref_count_base@std@@QAEXXZ 100ee010 f i dllmain.obj
 0002:0002b090       ?_Destroy@?$vector@HV?$allocator@H@std@@@std@@IAEXPAH0@Z 100ee090 f i dllmain.obj
 0002:0002b160       ?_Destroy@?$vector@PAVBNC_Button@@V?$allocator@PAVBNC_Button@@@std@@@std@@IAEXPAPAVBNC_Button@@0@Z 100ee160 f i dllmain.obj
 0002:0002b230       ?_Destroy@?$vector@PAVBNC_ReferenceItem@@V?$allocator@PAVBNC_ReferenceItem@@@std@@@std@@IAEXPAPAVBNC_ReferenceItem@@0@Z 100ee230 f i dllmain.obj
 0002:0002b300       ?_Destroy@?$vector@V?$CStringT@_WV?$StrTraitMFC_DLL@_WV?$ChTraitsCRT@_W@ATL@@@@@ATL@@V?$allocator@V?$CStringT@_WV?$StrTraitMFC_DLL@_WV?$ChTraitsCRT@_W@ATL@@@@@ATL@@@std@@@std@@IAEXPAV?$CStringT@_WV?$StrTraitMFC_DLL@_WV?$ChTraitsCRT@_W@ATL@@@@@ATL@@0@Z 100ee300 f i dllmain.obj
 0002:0002b3d0       ?_Destroy@?$vector@V?$shared_ptr@VBNC_FakeRect@@@std@@V?$allocator@V?$shared_ptr@VBNC_FakeRect@@@std@@@2@@std@@IAEXPAV?$shared_ptr@VBNC_FakeRect@@@2@0@Z 100ee3d0 f i dllmain.obj
 0002:0002b4a0       ?_Eos@?$basic_string@DU?$char_traits@D@std@@V?$allocator@D@2@@std@@QAEXI@Z 100ee4a0 f i dllmain.obj
 0002:0002b520       ?_Erase@?$_Tree@V?$_Tmap_traits@V?$CStringT@_WV?$StrTraitMFC_DLL@_WV?$ChTraitsCRT@_W@ATL@@@@@ATL@@PAVBNC_ReferenceItem@@U?$less@V?$CStringT@_WV?$StrTraitMFC_DLL@_WV?$ChTraitsCRT@_W@ATL@@@@@ATL@@@std@@V?$allocator@U?$pair@$$CBV?$CStringT@_WV?$StrTraitMFC_DLL@_WV?$ChTraitsCRT@_W@ATL@@@@@ATL@@PAVBNC_ReferenceItem@@@std@@@5@$0A@@std@@@std@@IAEXPAU?$_Tree_node@U?$pair@$$CBV?$CStringT@_WV?$StrTraitMFC_DLL@_WV?$ChTraitsCRT@_W@ATL@@@@@ATL@@PAVBNC_ReferenceItem@@@std@@PAX@2@@Z 100ee520 f i dllmain.obj
 0002:0002b630       ?_Free_proxy@?$_String_alloc@$0A@U?$_String_base_types@DV?$allocator@D@std@@@std@@@std@@QAEXXZ 100ee630 f i dllmain.obj
 0002:0002b720       ?_Free_proxy@?$_Tree_alloc@$0A@U?$_Tree_base_types@U?$pair@$$CBV?$CStringT@_WV?$StrTraitMFC_DLL@_WV?$ChTraitsCRT@_W@ATL@@@@@ATL@@PAVBNC_ReferenceItem@@@std@@V?$allocator@U?$pair@$$CBV?$CStringT@_WV?$StrTraitMFC_DLL@_WV?$ChTraitsCRT@_W@ATL@@@@@ATL@@PAVBNC_ReferenceItem@@@std@@@2@@std@@@std@@QAEXXZ 100ee720 f i dllmain.obj
 0002:0002b820       ?_Free_proxy@?$_Vector_alloc@$0A@U?$_Vec_base_types@HV?$allocator@H@std@@@std@@@std@@QAEXXZ 100ee820 f i dllmain.obj
 0002:0002b910       ?_Free_proxy@?$_Vector_alloc@$0A@U?$_Vec_base_types@PAVBNC_Button@@V?$allocator@PAVBNC_Button@@@std@@@std@@@std@@QAEXXZ 100ee910 f i dllmain.obj
 0002:0002ba00       ?_Free_proxy@?$_Vector_alloc@$0A@U?$_Vec_base_types@PAVBNC_ReferenceItem@@V?$allocator@PAVBNC_ReferenceItem@@@std@@@std@@@std@@QAEXXZ 100eea00 f i dllmain.obj
 0002:0002baf0       ?_Free_proxy@?$_Vector_alloc@$0A@U?$_Vec_base_types@V?$CStringT@_WV?$StrTraitMFC_DLL@_WV?$ChTraitsCRT@_W@ATL@@@@@ATL@@V?$allocator@V?$CStringT@_WV?$StrTraitMFC_DLL@_WV?$ChTraitsCRT@_W@ATL@@@@@ATL@@@std@@@std@@@std@@QAEXXZ 100eeaf0 f i dllmain.obj
 0002:0002bbe0       ?_Free_proxy@?$_Vector_alloc@$0A@U?$_Vec_base_types@V?$shared_ptr@VBNC_FakeRect@@@std@@V?$allocator@V?$shared_ptr@VBNC_FakeRect@@@std@@@2@@std@@@std@@QAEXXZ 100eebe0 f i dllmain.obj
 0002:0002bcd0       ?_Freeheadnode@?$_Tree_alloc@$0A@U?$_Tree_base_types@U?$pair@$$CBV?$CStringT@_WV?$StrTraitMFC_DLL@_WV?$ChTraitsCRT@_W@ATL@@@@@ATL@@PAVBNC_ReferenceItem@@@std@@V?$allocator@U?$pair@$$CBV?$CStringT@_WV?$StrTraitMFC_DLL@_WV?$ChTraitsCRT@_W@ATL@@@@@ATL@@PAVBNC_ReferenceItem@@@std@@@2@@std@@@std@@QAEXPAU?$_Tree_node@U?$pair@$$CBV?$CStringT@_WV?$StrTraitMFC_DLL@_WV?$ChTraitsCRT@_W@ATL@@@@@ATL@@PAVBNC_ReferenceItem@@@std@@PAX@2@@Z 100eecd0 f i dllmain.obj
 0002:0002bde0       ?_Freenode0@?$_Tree_buy@U?$pair@$$CBV?$CStringT@_WV?$StrTraitMFC_DLL@_WV?$ChTraitsCRT@_W@ATL@@@@@ATL@@PAVBNC_ReferenceItem@@@std@@V?$allocator@U?$pair@$$CBV?$CStringT@_WV?$StrTraitMFC_DLL@_WV?$ChTraitsCRT@_W@ATL@@@@@ATL@@PAVBNC_ReferenceItem@@@std@@@2@@std@@QAEXPAU?$_Tree_node@U?$pair@$$CBV?$CStringT@_WV?$StrTraitMFC_DLL@_WV?$ChTraitsCRT@_W@ATL@@@@@ATL@@PAVBNC_ReferenceItem@@@std@@PAX@2@@Z 100eede0 f i dllmain.obj
 0002:0002bef0       ?_Getal@?$_String_alloc@$0A@U?$_String_base_types@DV?$allocator@D@std@@@std@@@std@@QBE?AU?$_Wrap_alloc@V?$allocator@D@std@@@2@XZ 100eeef0 f i dllmain.obj
 0002:0002bf50       ?_Getal@?$_Tree_alloc@$0A@U?$_Tree_base_types@U?$pair@$$CBV?$CStringT@_WV?$StrTraitMFC_DLL@_WV?$ChTraitsCRT@_W@ATL@@@@@ATL@@PAVBNC_ReferenceItem@@@std@@V?$allocator@U?$pair@$$CBV?$CStringT@_WV?$StrTraitMFC_DLL@_WV?$ChTraitsCRT@_W@ATL@@@@@ATL@@PAVBNC_ReferenceItem@@@std@@@2@@std@@@std@@QBE?AU?$_Wrap_alloc@V?$allocator@U?$_Tree_node@U?$pair@$$CBV?$CStringT@_WV?$StrTraitMFC_DLL@_WV?$ChTraitsCRT@_W@ATL@@@@@ATL@@PAVBNC_ReferenceItem@@@std@@PAX@std@@@std@@@2@XZ 100eef50 f i dllmain.obj
 0002:0002bfb0       ?_Getal@?$_Vector_alloc@$0A@U?$_Vec_base_types@HV?$allocator@H@std@@@std@@@std@@QBE?AU?$_Wrap_alloc@V?$allocator@H@std@@@2@XZ 100eefb0 f i dllmain.obj
 0002:0002c010       ?_Getal@?$_Vector_alloc@$0A@U?$_Vec_base_types@PAVBNC_Button@@V?$allocator@PAVBNC_Button@@@std@@@std@@@std@@QBE?AU?$_Wrap_alloc@V?$allocator@PAVBNC_Button@@@std@@@2@XZ 100ef010 f i dllmain.obj
 0002:0002c070       ?_Getal@?$_Vector_alloc@$0A@U?$_Vec_base_types@PAVBNC_ReferenceItem@@V?$allocator@PAVBNC_ReferenceItem@@@std@@@std@@@std@@QBE?AU?$_Wrap_alloc@V?$allocator@PAVBNC_ReferenceItem@@@std@@@2@XZ 100ef070 f i dllmain.obj
 0002:0002c0d0       ?_Getal@?$_Vector_alloc@$0A@U?$_Vec_base_types@V?$CStringT@_WV?$StrTraitMFC_DLL@_WV?$ChTraitsCRT@_W@ATL@@@@@ATL@@V?$allocator@V?$CStringT@_WV?$StrTraitMFC_DLL@_WV?$ChTraitsCRT@_W@ATL@@@@@ATL@@@std@@@std@@@std@@QBE?AU?$_Wrap_alloc@V?$allocator@V?$CStringT@_WV?$StrTraitMFC_DLL@_WV?$ChTraitsCRT@_W@ATL@@@@@ATL@@@std@@@2@XZ 100ef0d0 f i dllmain.obj
 0002:0002c130       ?_Getal@?$_Vector_alloc@$0A@U?$_Vec_base_types@V?$shared_ptr@VBNC_FakeRect@@@std@@V?$allocator@V?$shared_ptr@VBNC_FakeRect@@@std@@@2@@std@@@std@@QBE?AU?$_Wrap_alloc@V?$allocator@V?$shared_ptr@VBNC_FakeRect@@@std@@@std@@@2@XZ 100ef130 f i dllmain.obj
 0002:0002c190       ?_Getcomp@?$_Tree_comp@$0A@V?$_Tmap_traits@V?$CStringT@_WV?$StrTraitMFC_DLL@_WV?$ChTraitsCRT@_W@ATL@@@@@ATL@@PAVBNC_ReferenceItem@@U?$less@V?$CStringT@_WV?$StrTraitMFC_DLL@_WV?$ChTraitsCRT@_W@ATL@@@@@ATL@@@std@@V?$allocator@U?$pair@$$CBV?$CStringT@_WV?$StrTraitMFC_DLL@_WV?$ChTraitsCRT@_W@ATL@@@@@ATL@@PAVBNC_ReferenceItem@@@std@@@5@$0A@@std@@@std@@QBE?AU?$less@V?$CStringT@_WV?$StrTraitMFC_DLL@_WV?$ChTraitsCRT@_W@ATL@@@@@ATL@@@2@XZ 100ef190 f i dllmain.obj
 0002:0002c1d0       ?_Getcont@_Iterator_base12@std@@QBEPBU_Container_base12@2@XZ 100ef1d0 f i dllmain.obj
 0002:0002c240       ?_Getpnext@_Iterator_base12@std@@QAEPAPAU12@XZ 100ef240 f i dllmain.obj
 0002:0002c280       ?_Grow@?$basic_string@DU?$char_traits@D@std@@V?$allocator@D@2@@std@@QAE_NI_N@Z 100ef280 f i dllmain.obj
 0002:0002c3a0       ?_Incref@_Ref_count_base@std@@QAEXXZ 100ef3a0 f i dllmain.obj
 0002:0002c3f0       ?_Inside@?$basic_string@DU?$char_traits@D@std@@V?$allocator@D@2@@std@@QAE_NPBD@Z 100ef3f0 f i dllmain.obj
 0002:0002c470       ?_Isnil@?$_Tree_val@U?$_Tree_simple_types@U?$pair@$$CBV?$CStringT@_WV?$StrTraitMFC_DLL@_WV?$ChTraitsCRT@_W@ATL@@@@@ATL@@PAVBNC_ReferenceItem@@@std@@@std@@@std@@SAAADPAU?$_Tree_node@U?$pair@$$CBV?$CStringT@_WV?$StrTraitMFC_DLL@_WV?$ChTraitsCRT@_W@ATL@@@@@ATL@@PAVBNC_ReferenceItem@@@std@@PAX@2@@Z 100ef470 f i dllmain.obj
 0002:0002c4b0       ?_Left@?$_Tree_val@U?$_Tree_simple_types@U?$pair@$$CBV?$CStringT@_WV?$StrTraitMFC_DLL@_WV?$ChTraitsCRT@_W@ATL@@@@@ATL@@PAVBNC_ReferenceItem@@@std@@@std@@@std@@SAAAPAU?$_Tree_node@U?$pair@$$CBV?$CStringT@_WV?$StrTraitMFC_DLL@_WV?$ChTraitsCRT@_W@ATL@@@@@ATL@@PAVBNC_ReferenceItem@@@std@@PAX@2@PAU32@@Z 100ef4b0 f i dllmain.obj
 0002:0002c4f0       ?_Lmost@?$_Tree@V?$_Tmap_traits@V?$CStringT@_WV?$StrTraitMFC_DLL@_WV?$ChTraitsCRT@_W@ATL@@@@@ATL@@PAVBNC_ReferenceItem@@U?$less@V?$CStringT@_WV?$StrTraitMFC_DLL@_WV?$ChTraitsCRT@_W@ATL@@@@@ATL@@@std@@V?$allocator@U?$pair@$$CBV?$CStringT@_WV?$StrTraitMFC_DLL@_WV?$ChTraitsCRT@_W@ATL@@@@@ATL@@PAVBNC_ReferenceItem@@@std@@@5@$0A@@std@@@std@@IBEAAPAU?$_Tree_node@U?$pair@$$CBV?$CStringT@_WV?$StrTraitMFC_DLL@_WV?$ChTraitsCRT@_W@ATL@@@@@ATL@@PAVBNC_ReferenceItem@@@std@@PAX@2@XZ 100ef4f0 f i dllmain.obj
 0002:0002c550       ?_Lrotate@?$_Tree@V?$_Tmap_traits@V?$CStringT@_WV?$StrTraitMFC_DLL@_WV?$ChTraitsCRT@_W@ATL@@@@@ATL@@PAVBNC_ReferenceItem@@U?$less@V?$CStringT@_WV?$StrTraitMFC_DLL@_WV?$ChTraitsCRT@_W@ATL@@@@@ATL@@@std@@V?$allocator@U?$pair@$$CBV?$CStringT@_WV?$StrTraitMFC_DLL@_WV?$ChTraitsCRT@_W@ATL@@@@@ATL@@PAVBNC_ReferenceItem@@@std@@@5@$0A@@std@@@std@@IAEXPAU?$_Tree_node@U?$pair@$$CBV?$CStringT@_WV?$StrTraitMFC_DLL@_WV?$ChTraitsCRT@_W@ATL@@@@@ATL@@PAVBNC_ReferenceItem@@@std@@PAX@2@@Z 100ef550 f i dllmain.obj
 0002:0002c700       ?_Max@?$_Tree_val@U?$_Tree_simple_types@U?$pair@$$CBV?$CStringT@_WV?$StrTraitMFC_DLL@_WV?$ChTraitsCRT@_W@ATL@@@@@ATL@@PAVBNC_ReferenceItem@@@std@@@std@@@std@@SAPAU?$_Tree_node@U?$pair@$$CBV?$CStringT@_WV?$StrTraitMFC_DLL@_WV?$ChTraitsCRT@_W@ATL@@@@@ATL@@PAVBNC_ReferenceItem@@@std@@PAX@2@PAU32@@Z 100ef700 f i dllmain.obj
 0002:0002c780       ?_Min@?$_Tree_val@U?$_Tree_simple_types@U?$pair@$$CBV?$CStringT@_WV?$StrTraitMFC_DLL@_WV?$ChTraitsCRT@_W@ATL@@@@@ATL@@PAVBNC_ReferenceItem@@@std@@@std@@@std@@SAPAU?$_Tree_node@U?$pair@$$CBV?$CStringT@_WV?$StrTraitMFC_DLL@_WV?$ChTraitsCRT@_W@ATL@@@@@ATL@@PAVBNC_ReferenceItem@@@std@@PAX@2@PAU32@@Z 100ef780 f i dllmain.obj
 0002:0002c800       ?_Mynode@?$_Tree_unchecked_const_iterator@V?$_Tree_val@U?$_Tree_simple_types@U?$pair@$$CBV?$CStringT@_WV?$StrTraitMFC_DLL@_WV?$ChTraitsCRT@_W@ATL@@@@@ATL@@PAVBNC_ReferenceItem@@@std@@@std@@@std@@U_Iterator_base12@2@@std@@QBEPAU?$_Tree_node@U?$pair@$$CBV?$CStringT@_WV?$StrTraitMFC_DLL@_WV?$ChTraitsCRT@_W@ATL@@@@@ATL@@PAVBNC_ReferenceItem@@@std@@PAX@2@XZ 100ef800 f i dllmain.obj
 0002:0002c840       ?_Myptr@?$_String_val@U?$_Simple_types@D@std@@@std@@QAEPADXZ 100ef840 f i dllmain.obj
 0002:0002c8d0       ?_Myptr@?$_String_val@U?$_Simple_types@D@std@@@std@@QBEPBDXZ 100ef8d0 f i dllmain.obj
 0002:0002c960       ?_Myval@?$_Tree_val@U?$_Tree_simple_types@U?$pair@$$CBV?$CStringT@_WV?$StrTraitMFC_DLL@_WV?$ChTraitsCRT@_W@ATL@@@@@ATL@@PAVBNC_ReferenceItem@@@std@@@std@@@std@@SAAAU?$pair@$$CBV?$CStringT@_WV?$StrTraitMFC_DLL@_WV?$ChTraitsCRT@_W@ATL@@@@@ATL@@PAVBNC_ReferenceItem@@@2@PAU?$_Tree_node@U?$pair@$$CBV?$CStringT@_WV?$StrTraitMFC_DLL@_WV?$ChTraitsCRT@_W@ATL@@@@@ATL@@PAVBNC_ReferenceItem@@@std@@PAX@2@@Z 100ef960 f i dllmain.obj
 0002:0002c9a0       ?_Orphan_me@_Iterator_base12@std@@QAEXXZ 100ef9a0 f i dllmain.obj
 0002:0002ca70       ?_Orphan_ptr@?$_Tree@V?$_Tmap_traits@V?$CStringT@_WV?$StrTraitMFC_DLL@_WV?$ChTraitsCRT@_W@ATL@@@@@ATL@@PAVBNC_ReferenceItem@@U?$less@V?$CStringT@_WV?$StrTraitMFC_DLL@_WV?$ChTraitsCRT@_W@ATL@@@@@ATL@@@std@@V?$allocator@U?$pair@$$CBV?$CStringT@_WV?$StrTraitMFC_DLL@_WV?$ChTraitsCRT@_W@ATL@@@@@ATL@@PAVBNC_ReferenceItem@@@std@@@5@$0A@@std@@@std@@IBEXAAV12@PAU?$_Tree_node@U?$pair@$$CBV?$CStringT@_WV?$StrTraitMFC_DLL@_WV?$ChTraitsCRT@_W@ATL@@@@@ATL@@PAVBNC_ReferenceItem@@@std@@PAX@2@@Z 100efa70 f i dllmain.obj
 0002:0002cc10       ?_Parent@?$_Tree_val@U?$_Tree_simple_types@U?$pair@$$CBV?$CStringT@_WV?$StrTraitMFC_DLL@_WV?$ChTraitsCRT@_W@ATL@@@@@ATL@@PAVBNC_ReferenceItem@@@std@@@std@@@std@@SAAAPAU?$_Tree_node@U?$pair@$$CBV?$CStringT@_WV?$StrTraitMFC_DLL@_WV?$ChTraitsCRT@_W@ATL@@@@@ATL@@PAVBNC_ReferenceItem@@@std@@PAX@2@PAU32@@Z 100efc10 f i dllmain.obj
 0002:0002cc50       ?_Reset0@?$_Ptr_base@VBNC_FakeRect@@@std@@QAEXPAVBNC_FakeRect@@PAV_Ref_count_base@2@@Z 100efc50 f i dllmain.obj
 0002:0002ccd0       ?_Reset@?$_Ptr_base@VBNC_FakeRect@@@std@@QAEXPAVBNC_FakeRect@@PAV_Ref_count_base@2@@Z 100efcd0 f i dllmain.obj
 0002:0002cd40       ?_Right@?$_Tree_val@U?$_Tree_simple_types@U?$pair@$$CBV?$CStringT@_WV?$StrTraitMFC_DLL@_WV?$ChTraitsCRT@_W@ATL@@@@@ATL@@PAVBNC_ReferenceItem@@@std@@@std@@@std@@SAAAPAU?$_Tree_node@U?$pair@$$CBV?$CStringT@_WV?$StrTraitMFC_DLL@_WV?$ChTraitsCRT@_W@ATL@@@@@ATL@@PAVBNC_ReferenceItem@@@std@@PAX@2@PAU32@@Z 100efd40 f i dllmain.obj
 0002:0002cd80       ?_Rmost@?$_Tree@V?$_Tmap_traits@V?$CStringT@_WV?$StrTraitMFC_DLL@_WV?$ChTraitsCRT@_W@ATL@@@@@ATL@@PAVBNC_ReferenceItem@@U?$less@V?$CStringT@_WV?$StrTraitMFC_DLL@_WV?$ChTraitsCRT@_W@ATL@@@@@ATL@@@std@@V?$allocator@U?$pair@$$CBV?$CStringT@_WV?$StrTraitMFC_DLL@_WV?$ChTraitsCRT@_W@ATL@@@@@ATL@@PAVBNC_ReferenceItem@@@std@@@5@$0A@@std@@@std@@IBEAAPAU?$_Tree_node@U?$pair@$$CBV?$CStringT@_WV?$StrTraitMFC_DLL@_WV?$ChTraitsCRT@_W@ATL@@@@@ATL@@PAVBNC_ReferenceItem@@@std@@PAX@2@XZ 100efd80 f i dllmain.obj
 0002:0002cde0       ?_Root@?$_Tree@V?$_Tmap_traits@V?$CStringT@_WV?$StrTraitMFC_DLL@_WV?$ChTraitsCRT@_W@ATL@@@@@ATL@@PAVBNC_ReferenceItem@@U?$less@V?$CStringT@_WV?$StrTraitMFC_DLL@_WV?$ChTraitsCRT@_W@ATL@@@@@ATL@@@std@@V?$allocator@U?$pair@$$CBV?$CStringT@_WV?$StrTraitMFC_DLL@_WV?$ChTraitsCRT@_W@ATL@@@@@ATL@@PAVBNC_ReferenceItem@@@std@@@5@$0A@@std@@@std@@IBEAAPAU?$_Tree_node@U?$pair@$$CBV?$CStringT@_WV?$StrTraitMFC_DLL@_WV?$ChTraitsCRT@_W@ATL@@@@@ATL@@PAVBNC_ReferenceItem@@@std@@PAX@2@XZ 100efde0 f i dllmain.obj
 0002:0002ce40       ?_Rrotate@?$_Tree@V?$_Tmap_traits@V?$CStringT@_WV?$StrTraitMFC_DLL@_WV?$ChTraitsCRT@_W@ATL@@@@@ATL@@PAVBNC_ReferenceItem@@U?$less@V?$CStringT@_WV?$StrTraitMFC_DLL@_WV?$ChTraitsCRT@_W@ATL@@@@@ATL@@@std@@V?$allocator@U?$pair@$$CBV?$CStringT@_WV?$StrTraitMFC_DLL@_WV?$ChTraitsCRT@_W@ATL@@@@@ATL@@PAVBNC_ReferenceItem@@@std@@@5@$0A@@std@@@std@@IAEXPAU?$_Tree_node@U?$pair@$$CBV?$CStringT@_WV?$StrTraitMFC_DLL@_WV?$ChTraitsCRT@_W@ATL@@@@@ATL@@PAVBNC_ReferenceItem@@@std@@PAX@2@@Z 100efe40 f i dllmain.obj
 0002:0002cff0       ?_Setcomp@?$_Tree_comp@$0A@V?$_Tmap_traits@V?$CStringT@_WV?$StrTraitMFC_DLL@_WV?$ChTraitsCRT@_W@ATL@@@@@ATL@@PAVBNC_ReferenceItem@@U?$less@V?$CStringT@_WV?$StrTraitMFC_DLL@_WV?$ChTraitsCRT@_W@ATL@@@@@ATL@@@std@@V?$allocator@U?$pair@$$CBV?$CStringT@_WV?$StrTraitMFC_DLL@_WV?$ChTraitsCRT@_W@ATL@@@@@ATL@@PAVBNC_ReferenceItem@@@std@@@5@$0A@@std@@@std@@QAEXABU?$less@V?$CStringT@_WV?$StrTraitMFC_DLL@_WV?$ChTraitsCRT@_W@ATL@@@@@ATL@@@2@@Z 100efff0 f i dllmain.obj
 0002:0002d030       ?_Swap@?$_Ptr_base@VBNC_FakeRect@@@std@@QAEXAAV12@@Z 100f0030 f i dllmain.obj
 0002:0002d0b0       ?_Tidy@?$_Tree@V?$_Tmap_traits@V?$CStringT@_WV?$StrTraitMFC_DLL@_WV?$ChTraitsCRT@_W@ATL@@@@@ATL@@PAVBNC_ReferenceItem@@U?$less@V?$CStringT@_WV?$StrTraitMFC_DLL@_WV?$ChTraitsCRT@_W@ATL@@@@@ATL@@@std@@V?$allocator@U?$pair@$$CBV?$CStringT@_WV?$StrTraitMFC_DLL@_WV?$ChTraitsCRT@_W@ATL@@@@@ATL@@PAVBNC_ReferenceItem@@@std@@@5@$0A@@std@@@std@@IAEXXZ 100f00b0 f i dllmain.obj
 0002:0002d240       ?_Tidy@?$basic_string@DU?$char_traits@D@std@@V?$allocator@D@2@@std@@QAEX_NI@Z 100f0240 f i dllmain.obj
 0002:0002d350       ?_Tidy@?$vector@HV?$allocator@H@std@@@std@@IAEXXZ 100f0350 f i dllmain.obj
 0002:0002d430       ?_Tidy@?$vector@PAVBNC_Button@@V?$allocator@PAVBNC_Button@@@std@@@std@@IAEXXZ 100f0430 f i dllmain.obj
 0002:0002d510       ?_Tidy@?$vector@PAVBNC_ReferenceItem@@V?$allocator@PAVBNC_ReferenceItem@@@std@@@std@@IAEXXZ 100f0510 f i dllmain.obj
 0002:0002d5f0       ?_Tidy@?$vector@V?$CStringT@_WV?$StrTraitMFC_DLL@_WV?$ChTraitsCRT@_W@ATL@@@@@ATL@@V?$allocator@V?$CStringT@_WV?$StrTraitMFC_DLL@_WV?$ChTraitsCRT@_W@ATL@@@@@ATL@@@std@@@std@@IAEXXZ 100f05f0 f i dllmain.obj
 0002:0002d6d0       ?_Tidy@?$vector@V?$shared_ptr@VBNC_FakeRect@@@std@@V?$allocator@V?$shared_ptr@VBNC_FakeRect@@@std@@@2@@std@@IAEXXZ 100f06d0 f i dllmain.obj
 0002:0002d7b0       ?_Unchecked@?$_Vector_const_iterator@V?$_Vector_val@U?$_Simple_types@H@std@@@std@@@std@@QBEPBHXZ 100f07b0 f i dllmain.obj
 0002:0002d7f0       ?_Unchecked@?$_Vector_const_iterator@V?$_Vector_val@U?$_Simple_types@PAVBNC_Button@@@std@@@std@@@std@@QBEPBQAVBNC_Button@@XZ 100f07f0 f i dllmain.obj
 0002:0002d830       ?_Unchecked@?$_Vector_const_iterator@V?$_Vector_val@U?$_Simple_types@PAVBNC_ReferenceItem@@@std@@@std@@@std@@QBEPBQAVBNC_ReferenceItem@@XZ 100f0830 f i dllmain.obj
 0002:0002d870       ?_Unchecked@?$_Vector_const_iterator@V?$_Vector_val@U?$_Simple_types@V?$CStringT@_WV?$StrTraitMFC_DLL@_WV?$ChTraitsCRT@_W@ATL@@@@@ATL@@@std@@@std@@@std@@QBEPBV?$CStringT@_WV?$StrTraitMFC_DLL@_WV?$ChTraitsCRT@_W@ATL@@@@@ATL@@XZ 100f0870 f i dllmain.obj
 0002:0002d8b0       ?_Unchecked@?$_Vector_const_iterator@V?$_Vector_val@U?$_Simple_types@V?$shared_ptr@VBNC_FakeRect@@@std@@@std@@@std@@@std@@QBEPBV?$shared_ptr@VBNC_FakeRect@@@2@XZ 100f08b0 f i dllmain.obj
 0002:0002d8f0       ?_Xlen@?$basic_string@DU?$char_traits@D@std@@V?$allocator@D@2@@std@@QBEXXZ 100f08f0 f i dllmain.obj
 0002:0002d950       ?_Xlen@?$vector@HV?$allocator@H@std@@@std@@IBEXXZ 100f0950 f i dllmain.obj
 0002:0002d9b0       ?_Xlen@?$vector@PAVBNC_Button@@V?$allocator@PAVBNC_Button@@@std@@@std@@IBEXXZ 100f09b0 f i dllmain.obj
 0002:0002da10       ?_Xlen@?$vector@PAVBNC_ReferenceItem@@V?$allocator@PAVBNC_ReferenceItem@@@std@@@std@@IBEXXZ 100f0a10 f i dllmain.obj
 0002:0002da70       ?_Xlen@?$vector@V?$CStringT@_WV?$StrTraitMFC_DLL@_WV?$ChTraitsCRT@_W@ATL@@@@@ATL@@V?$allocator@V?$CStringT@_WV?$StrTraitMFC_DLL@_WV?$ChTraitsCRT@_W@ATL@@@@@ATL@@@std@@@std@@IBEXXZ 100f0a70 f i dllmain.obj
 0002:0002dad0       ?_Xlen@?$vector@V?$shared_ptr@VBNC_FakeRect@@@std@@V?$allocator@V?$shared_ptr@VBNC_FakeRect@@@std@@@2@@std@@IBEXXZ 100f0ad0 f i dllmain.obj
 0002:0002db30       ?_Xran@?$basic_string@DU?$char_traits@D@std@@V?$allocator@D@2@@std@@QBEXXZ 100f0b30 f i dllmain.obj
 0002:0002db90       ?__autoclassinit2@?$CHeapPtr@_WVCCRTAllocator@ATL@@@ATL@@QAEXI@Z 100f0b90 f i dllmain.obj
 0002:0002dbf0       ?__autoclassinit2@?$_Tree_const_iterator@V?$_Tree_val@U?$_Tree_simple_types@U?$pair@$$CBV?$CStringT@_WV?$StrTraitMFC_DLL@_WV?$ChTraitsCRT@_W@ATL@@@@@ATL@@PAVBNC_ReferenceItem@@@std@@@std@@@std@@@std@@QAEXI@Z 100f0bf0 f i dllmain.obj
 0002:0002dc50       ?__autoclassinit2@BNC_AnimationDialog@@QAEXI@Z 100f0c50 f i dllmain.obj
 0002:0002dcb0       ?__autoclassinit2@BNC_AsyncMessageBox@@QAEXI@Z 100f0cb0 f i dllmain.obj
 0002:0002dd10       ?__autoclassinit2@BNC_AsyncMessageBoxRoot@@QAEXI@Z 100f0d10 f i dllmain.obj
 0002:0002dd70       ?__autoclassinit2@BNC_BaseClient@@QAEXI@Z 100f0d70 f i dllmain.obj
 0002:0002ddd0       ?__autoclassinit2@BNC_BaseControl@@QAEXI@Z 100f0dd0 f i dllmain.obj
 0002:0002de30       ?__autoclassinit2@BNC_BaseDialog@@QAEXI@Z 100f0e30 f i dllmain.obj
 0002:0002de90       ?__autoclassinit2@BNC_BaseDialogTracer@@QAEXI@Z 100f0e90 f i dllmain.obj
 0002:0002def0       ?__autoclassinit2@BNC_BaseFloating@@QAEXI@Z 100f0ef0 f i dllmain.obj
 0002:0002df50       ?__autoclassinit2@BNC_BaseInstant@@QAEXI@Z 100f0f50 f i dllmain.obj
 0002:0002dfb0       ?__autoclassinit2@BNC_BaseLayered@@QAEXI@Z 100f0fb0 f i dllmain.obj
 0002:0002e010       ?__autoclassinit2@BNC_BaseModal@@QAEXI@Z 100f1010 f i dllmain.obj
 0002:0002e070       ?__autoclassinit2@BNC_BaseModaless@@QAEXI@Z 100f1070 f i dllmain.obj
 0002:0002e0d0       ?__autoclassinit2@BNC_BaseOverlay@@QAEXI@Z 100f10d0 f i dllmain.obj
 0002:0002e130       ?__autoclassinit2@BNC_BaseRefItemControl@@QAEXI@Z 100f1130 f i dllmain.obj
 0002:0002e190       ?__autoclassinit2@BNC_BaseRefItemControlEx@@QAEXI@Z 100f1190 f i dllmain.obj
 0002:0002e1f0       ?__autoclassinit2@BNC_BaseSliderCtrl@@QAEXI@Z 100f11f0 f i dllmain.obj
 0002:0002e250       ?__autoclassinit2@BNC_BorderessProc@@QAEXI@Z 100f1250 f i dllmain.obj
 0002:0002e2b0       ?__autoclassinit2@BNC_Button@@QAEXI@Z 100f12b0 f i dllmain.obj
 0002:0002e310       ?__autoclassinit2@BNC_ButtonEx@@QAEXI@Z 100f1310 f i dllmain.obj
 0002:0002e370       ?__autoclassinit2@BNC_CaptureKeyboardMouse@@QAEXI@Z 100f1370 f i dllmain.obj
 0002:0002e3d0       ?__autoclassinit2@BNC_ClipboardImage@@QAEXI@Z 100f13d0 f i dllmain.obj
 0002:0002e430       ?__autoclassinit2@BNC_DrawObject@@QAEXI@Z 100f1430 f i dllmain.obj
 0002:0002e490       ?__autoclassinit2@BNC_DrawString@@QAEXI@Z 100f1490 f i dllmain.obj
 0002:0002e4f0       ?__autoclassinit2@BNC_DummyListControl@@QAEXI@Z 100f14f0 f i dllmain.obj
 0002:0002e550       ?__autoclassinit2@BNC_DummyListView@@QAEXI@Z 100f1550 f i dllmain.obj
 0002:0002e5b0       ?__autoclassinit2@BNC_Edit@@QAEXI@Z 100f15b0 f i dllmain.obj
 0002:0002e610       ?__autoclassinit2@BNC_Editbox@@QAEXI@Z 100f1610 f i dllmain.obj
 0002:0002e670       ?__autoclassinit2@BNC_EditboxEx@@QAEXI@Z 100f1670 f i dllmain.obj
 0002:0002e6d0       ?__autoclassinit2@BNC_FadeAnimation@@QAEXI@Z 100f16d0 f i dllmain.obj
 0002:0002e730       ?__autoclassinit2@BNC_FakeBorder@@QAEXI@Z 100f1730 f i dllmain.obj
 0002:0002e790       ?__autoclassinit2@BNC_FakeBtnSet@@QAEXI@Z 100f1790 f i dllmain.obj
 0002:0002e7f0       ?__autoclassinit2@BNC_FakeModal@@QAEXI@Z 100f17f0 f i dllmain.obj
 0002:0002e850       ?__autoclassinit2@BNC_FakeRect@@QAEXI@Z 100f1850 f i dllmain.obj
 0002:0002e8b0       ?__autoclassinit2@BNC_FakeWindow@@QAEXI@Z 100f18b0 f i dllmain.obj
 0002:0002e910       ?__autoclassinit2@BNC_FloatingButton@@QAEXI@Z 100f1910 f i dllmain.obj
 0002:0002e970       ?__autoclassinit2@BNC_FloatingMessage@@QAEXI@Z 100f1970 f i dllmain.obj
 0002:0002e9d0       ?__autoclassinit2@BNC_GDI@@QAEXI@Z 100f19d0 f i dllmain.obj
 0002:0002ea30       ?__autoclassinit2@BNC_Graphics@@QAEXI@Z 100f1a30 f i dllmain.obj
 0002:0002ea90       ?__autoclassinit2@BNC_HtmlBrowser@@QAEXI@Z 100f1a90 f i dllmain.obj
 0002:0002eaf0       ?__autoclassinit2@BNC_HtmlBrowserClient@@QAEXI@Z 100f1af0 f i dllmain.obj
 0002:0002eb50       ?__autoclassinit2@BNC_HtmlBrowserThread@@QAEXI@Z 100f1b50 f i dllmain.obj
 0002:0002ebb0       ?__autoclassinit2@BNC_HtmlMetaInfo@@QAEXI@Z 100f1bb0 f i dllmain.obj
 0002:0002ec10       ?__autoclassinit2@BNC_HyperLink@@QAEXI@Z 100f1c10 f i dllmain.obj
 0002:0002ec70       ?__autoclassinit2@BNC_MessageBox@@QAEXI@Z 100f1c70 f i dllmain.obj
 0002:0002ecd0       ?__autoclassinit2@BNC_MouseControl@@QAEXI@Z 100f1cd0 f i dllmain.obj
 0002:0002ed30       ?__autoclassinit2@BNC_PopupMenu@@QAEXI@Z 100f1d30 f i dllmain.obj
 0002:0002ed90       ?__autoclassinit2@BNC_PopupMenuItem@@QAEXI@Z 100f1d90 f i dllmain.obj
 0002:0002edf0       ?__autoclassinit2@BNC_RefListControl@@QAEXI@Z 100f1df0 f i dllmain.obj
 0002:0002ee50       ?__autoclassinit2@BNC_RefListControlEx@@QAEXI@Z 100f1e50 f i dllmain.obj
 0002:0002eeb0       ?__autoclassinit2@BNC_RefListView@@QAEXI@Z 100f1eb0 f i dllmain.obj
 0002:0002ef10       ?__autoclassinit2@BNC_RefListViewEx@@QAEXI@Z 100f1f10 f i dllmain.obj
 0002:0002ef70       ?__autoclassinit2@BNC_RefTreeControl@@QAEXI@Z 100f1f70 f i dllmain.obj
 0002:0002efd0       ?__autoclassinit2@BNC_RefTreeItemOption@@QAEXI@Z 100f1fd0 f i dllmain.obj
 0002:0002f030       ?__autoclassinit2@BNC_RefTreeView@@QAEXI@Z 100f2030 f i dllmain.obj
 0002:0002f090       ?__autoclassinit2@BNC_ReferenceItem@@QAEXI@Z 100f2090 f i dllmain.obj
 0002:0002f0f0       ?__autoclassinit2@BNC_ReferenceItemEx@@QAEXI@Z 100f20f0 f i dllmain.obj
 0002:0002f150       ?__autoclassinit2@BNC_ReferenceItemExOption@@QAEXI@Z 100f2150 f i dllmain.obj
 0002:0002f1b0       ?__autoclassinit2@BNC_ReferenceItemExOptionLine@@QAEXI@Z 100f21b0 f i dllmain.obj
 0002:0002f210       ?__autoclassinit2@BNC_RichEditbox@@QAEXI@Z 100f2210 f i dllmain.obj
 0002:0002f270       ?__autoclassinit2@BNC_SimpleHScrollbar@@QAEXI@Z 100f2270 f i dllmain.obj
 0002:0002f2d0       ?__autoclassinit2@BNC_SimpleVScrollbar@@QAEXI@Z 100f22d0 f i dllmain.obj
 0002:0002f330       ?__autoclassinit2@BNC_StaticObject@@QAEXI@Z 100f2330 f i dllmain.obj
 0002:0002f390       ?__autoclassinit2@BNC_SyncRect@@QAEXI@Z 100f2390 f i dllmain.obj
 0002:0002f3f0       ?__autoclassinit2@BNC_TabControl@@QAEXI@Z 100f23f0 f i dllmain.obj
 0002:0002f450       ?__autoclassinit2@BNC_TempClient@@QAEXI@Z 100f2450 f i dllmain.obj
 0002:0002f4b0       ?__autoclassinit2@BNC_Titlebar@@QAEXI@Z 100f24b0 f i dllmain.obj
 0002:0002f510       ?__autoclassinit2@BNC_TransparentAnimation@@QAEXI@Z 100f2510 f i dllmain.obj
 0002:0002f570       ?__autoclassinit2@BNC_WindowLayered@@QAEXI@Z 100f2570 f i dllmain.obj
 0002:0002f5d0       ?__autoclassinit2@BNC_WindowSync@@QAEXI@Z 100f25d0 f i dllmain.obj
 0002:0002f630       ?__autoclassinit2@CAtlStringMgr@ATL@@QAEXI@Z 100f2630 f i dllmain.obj
 0002:0002f690       ?__autoclassinit2@CWin32Heap@ATL@@QAEXI@Z 100f2690 f i dllmain.obj
 0002:0002f6f0       ?allocate@?$_Wrap_alloc@V?$allocator@D@std@@@std@@QAEPADI@Z 100f26f0 f i dllmain.obj
 0002:0002f750       ?allocate@?$_Wrap_alloc@V?$allocator@H@std@@@std@@QAEPAHI@Z 100f2750 f i dllmain.obj
 0002:0002f7b0       ?allocate@?$_Wrap_alloc@V?$allocator@PAVBNC_Button@@@std@@@std@@QAEPAPAVBNC_Button@@I@Z 100f27b0 f i dllmain.obj
 0002:0002f810       ?allocate@?$_Wrap_alloc@V?$allocator@PAVBNC_ReferenceItem@@@std@@@std@@QAEPAPAVBNC_ReferenceItem@@I@Z 100f2810 f i dllmain.obj
 0002:0002f870       ?allocate@?$_Wrap_alloc@V?$allocator@U?$_Tree_node@U?$pair@$$CBV?$CStringT@_WV?$StrTraitMFC_DLL@_WV?$ChTraitsCRT@_W@ATL@@@@@ATL@@PAVBNC_ReferenceItem@@@std@@PAX@std@@@std@@@std@@QAEPAU?$_Tree_node@U?$pair@$$CBV?$CStringT@_WV?$StrTraitMFC_DLL@_WV?$ChTraitsCRT@_W@ATL@@@@@ATL@@PAVBNC_ReferenceItem@@@std@@PAX@2@I@Z 100f2870 f i dllmain.obj
 0002:0002f8d0       ?allocate@?$_Wrap_alloc@V?$allocator@U_Container_proxy@std@@@std@@@std@@QAEPAU_Container_proxy@2@I@Z 100f28d0 f i dllmain.obj
 0002:0002f930       ?allocate@?$_Wrap_alloc@V?$allocator@V?$CStringT@_WV?$StrTraitMFC_DLL@_WV?$ChTraitsCRT@_W@ATL@@@@@ATL@@@std@@@std@@QAEPAV?$CStringT@_WV?$StrTraitMFC_DLL@_WV?$ChTraitsCRT@_W@ATL@@@@@ATL@@I@Z 100f2930 f i dllmain.obj
 0002:0002f990       ?allocate@?$_Wrap_alloc@V?$allocator@V?$shared_ptr@VBNC_FakeRect@@@std@@@std@@@std@@QAEPAV?$shared_ptr@VBNC_FakeRect@@@2@I@Z 100f2990 f i dllmain.obj
 0002:0002f9f0       ?allocate@?$allocator@D@std@@QAEPADI@Z 100f29f0 f i dllmain.obj
 0002:0002fa50       ?allocate@?$allocator@H@std@@QAEPAHI@Z 100f2a50 f i dllmain.obj
 0002:0002fab0       ?allocate@?$allocator@PAVBNC_Button@@@std@@QAEPAPAVBNC_Button@@I@Z 100f2ab0 f i dllmain.obj
 0002:0002fb10       ?allocate@?$allocator@PAVBNC_ReferenceItem@@@std@@QAEPAPAVBNC_ReferenceItem@@I@Z 100f2b10 f i dllmain.obj
 0002:0002fb70       ?allocate@?$allocator@U?$_Tree_node@U?$pair@$$CBV?$CStringT@_WV?$StrTraitMFC_DLL@_WV?$ChTraitsCRT@_W@ATL@@@@@ATL@@PAVBNC_ReferenceItem@@@std@@PAX@std@@@std@@QAEPAU?$_Tree_node@U?$pair@$$CBV?$CStringT@_WV?$StrTraitMFC_DLL@_WV?$ChTraitsCRT@_W@ATL@@@@@ATL@@PAVBNC_ReferenceItem@@@std@@PAX@2@I@Z 100f2b70 f i dllmain.obj
 0002:0002fbd0       ?allocate@?$allocator@U_Container_proxy@std@@@std@@QAEPAU_Container_proxy@2@I@Z 100f2bd0 f i dllmain.obj
 0002:0002fc30       ?allocate@?$allocator@V?$CStringT@_WV?$StrTraitMFC_DLL@_WV?$ChTraitsCRT@_W@ATL@@@@@ATL@@@std@@QAEPAV?$CStringT@_WV?$StrTraitMFC_DLL@_WV?$ChTraitsCRT@_W@ATL@@@@@ATL@@I@Z 100f2c30 f i dllmain.obj
 0002:0002fc90       ?allocate@?$allocator@V?$shared_ptr@VBNC_FakeRect@@@std@@@std@@QAEPAV?$shared_ptr@VBNC_FakeRect@@@2@I@Z 100f2c90 f i dllmain.obj
 0002:0002fcf0       ?assign@?$basic_string@DU?$char_traits@D@std@@V?$allocator@D@2@@std@@QAEAAV12@ABV12@II@Z 100f2cf0 f i dllmain.obj
 0002:0002fe00       ?assign@?$basic_string@DU?$char_traits@D@std@@V?$allocator@D@2@@std@@QAEAAV12@PBD@Z 100f2e00 f i dllmain.obj
 0002:0002fe90       ?assign@?$basic_string@DU?$char_traits@D@std@@V?$allocator@D@2@@std@@QAEAAV12@PBDI@Z 100f2e90 f i dllmain.obj
 0002:0002ff90       ?assign@?$char_traits@D@std@@SAXAADABD@Z 100f2f90 f i dllmain.obj
 0002:0002ffd0       ?begin@?$_Tree@V?$_Tmap_traits@V?$CStringT@_WV?$StrTraitMFC_DLL@_WV?$ChTraitsCRT@_W@ATL@@@@@ATL@@PAVBNC_ReferenceItem@@U?$less@V?$CStringT@_WV?$StrTraitMFC_DLL@_WV?$ChTraitsCRT@_W@ATL@@@@@ATL@@@std@@V?$allocator@U?$pair@$$CBV?$CStringT@_WV?$StrTraitMFC_DLL@_WV?$ChTraitsCRT@_W@ATL@@@@@ATL@@PAVBNC_ReferenceItem@@@std@@@5@$0A@@std@@@std@@QAE?AV?$_Tree_iterator@V?$_Tree_val@U?$_Tree_simple_types@U?$pair@$$CBV?$CStringT@_WV?$StrTraitMFC_DLL@_WV?$ChTraitsCRT@_W@ATL@@@@@ATL@@PAVBNC_ReferenceItem@@@std@@@std@@@std@@@2@XZ 100f2fd0 f i dllmain.obj
 0002:00030040       ?begin@?$vector@HV?$allocator@H@std@@@std@@QBE?AV?$_Vector_const_iterator@V?$_Vector_val@U?$_Simple_types@H@std@@@std@@@2@XZ 100f3040 f i dllmain.obj
 0002:000300b0       ?begin@?$vector@PAVBNC_Button@@V?$allocator@PAVBNC_Button@@@std@@@std@@QBE?AV?$_Vector_const_iterator@V?$_Vector_val@U?$_Simple_types@PAVBNC_Button@@@std@@@std@@@2@XZ 100f30b0 f i dllmain.obj
 0002:00030120       ?begin@?$vector@PAVBNC_ReferenceItem@@V?$allocator@PAVBNC_ReferenceItem@@@std@@@std@@QBE?AV?$_Vector_const_iterator@V?$_Vector_val@U?$_Simple_types@PAVBNC_ReferenceItem@@@std@@@std@@@2@XZ 100f3120 f i dllmain.obj
 0002:00030190       ?begin@?$vector@V?$CStringT@_WV?$StrTraitMFC_DLL@_WV?$ChTraitsCRT@_W@ATL@@@@@ATL@@V?$allocator@V?$CStringT@_WV?$StrTraitMFC_DLL@_WV?$ChTraitsCRT@_W@ATL@@@@@ATL@@@std@@@std@@QBE?AV?$_Vector_const_iterator@V?$_Vector_val@U?$_Simple_types@V?$CStringT@_WV?$StrTraitMFC_DLL@_WV?$ChTraitsCRT@_W@ATL@@@@@ATL@@@std@@@std@@@2@XZ 100f3190 f i dllmain.obj
 0002:00030200       ?begin@?$vector@V?$shared_ptr@VBNC_FakeRect@@@std@@V?$allocator@V?$shared_ptr@VBNC_FakeRect@@@std@@@2@@std@@QBE?AV?$_Vector_const_iterator@V?$_Vector_val@U?$_Simple_types@V?$shared_ptr@VBNC_FakeRect@@@std@@@std@@@std@@@2@XZ 100f3200 f i dllmain.obj
 0002:00030270       ?capacity@?$vector@HV?$allocator@H@std@@@std@@QBEIXZ 100f3270 f i dllmain.obj
 0002:000302c0       ?capacity@?$vector@PAVBNC_Button@@V?$allocator@PAVBNC_Button@@@std@@@std@@QBEIXZ 100f32c0 f i dllmain.obj
 0002:00030310       ?capacity@?$vector@PAVBNC_ReferenceItem@@V?$allocator@PAVBNC_ReferenceItem@@@std@@@std@@QBEIXZ 100f3310 f i dllmain.obj
 0002:00030360       ?capacity@?$vector@V?$CStringT@_WV?$StrTraitMFC_DLL@_WV?$ChTraitsCRT@_W@ATL@@@@@ATL@@V?$allocator@V?$CStringT@_WV?$StrTraitMFC_DLL@_WV?$ChTraitsCRT@_W@ATL@@@@@ATL@@@std@@@std@@QBEIXZ 100f3360 f i dllmain.obj
 0002:000303b0       ?capacity@?$vector@V?$shared_ptr@VBNC_FakeRect@@@std@@V?$allocator@V?$shared_ptr@VBNC_FakeRect@@@std@@@2@@std@@QBEIXZ 100f33b0 f i dllmain.obj
 0002:00030400       ?category@error_code@std@@QBEABVerror_category@2@XZ 100f3400 f i dllmain.obj
 0002:00030440       ?category@error_condition@std@@QBEABVerror_category@2@XZ 100f3440 f i dllmain.obj
 0002:00030480       ?clear@?$_Tree@V?$_Tmap_traits@V?$CStringT@_WV?$StrTraitMFC_DLL@_WV?$ChTraitsCRT@_W@ATL@@@@@ATL@@PAVBNC_ReferenceItem@@U?$less@V?$CStringT@_WV?$StrTraitMFC_DLL@_WV?$ChTraitsCRT@_W@ATL@@@@@ATL@@@std@@V?$allocator@U?$pair@$$CBV?$CStringT@_WV?$StrTraitMFC_DLL@_WV?$ChTraitsCRT@_W@ATL@@@@@ATL@@PAVBNC_ReferenceItem@@@std@@@5@$0A@@std@@@std@@QAEXXZ 100f3480 f i dllmain.obj
 0002:00030540       ?clear@?$vector@HV?$allocator@H@std@@@std@@QAEXXZ 100f3540 f i dllmain.obj
 0002:000305d0       ?clear@?$vector@PAVBNC_Button@@V?$allocator@PAVBNC_Button@@@std@@@std@@QAEXXZ 100f35d0 f i dllmain.obj
 0002:00030660       ?clear@?$vector@PAVBNC_ReferenceItem@@V?$allocator@PAVBNC_ReferenceItem@@@std@@@std@@QAEXXZ 100f3660 f i dllmain.obj
 0002:000306f0       ?clear@?$vector@V?$CStringT@_WV?$StrTraitMFC_DLL@_WV?$ChTraitsCRT@_W@ATL@@@@@ATL@@V?$allocator@V?$CStringT@_WV?$StrTraitMFC_DLL@_WV?$ChTraitsCRT@_W@ATL@@@@@ATL@@@std@@@std@@QAEXXZ 100f36f0 f i dllmain.obj
 0002:00030780       ?clear@?$vector@V?$shared_ptr@VBNC_FakeRect@@@std@@V?$allocator@V?$shared_ptr@VBNC_FakeRect@@@std@@@2@@std@@QAEXXZ 100f3780 f i dllmain.obj
 0002:00030810       ?construct@?$allocator@V?$CStringT@_WV?$StrTraitMFC_DLL@_WV?$ChTraitsCRT@_W@ATL@@@@@ATL@@@std@@QAEXPAV?$CStringT@_WV?$StrTraitMFC_DLL@_WV?$ChTraitsCRT@_W@ATL@@@@@ATL@@ABV34@@Z 100f3810 f i dllmain.obj
 0002:00030910       ?construct@?$allocator@V?$shared_ptr@VBNC_FakeRect@@@std@@@std@@QAEXPAV?$shared_ptr@VBNC_FakeRect@@@2@ABV32@@Z 100f3910 f i dllmain.obj
 0002:000309b0       ?copy@?$char_traits@D@std@@SAPADPADPBDI@Z 100f39b0 f i dllmain.obj
 0002:00030a30       ?deallocate@?$_Wrap_alloc@V?$allocator@D@std@@@std@@QAEXPADI@Z 100f3a30 f i dllmain.obj
 0002:00030a90       ?deallocate@?$_Wrap_alloc@V?$allocator@H@std@@@std@@QAEXPAHI@Z 100f3a90 f i dllmain.obj
 0002:00030af0       ?deallocate@?$_Wrap_alloc@V?$allocator@PAVBNC_Button@@@std@@@std@@QAEXPAPAVBNC_Button@@I@Z 100f3af0 f i dllmain.obj
 0002:00030b50       ?deallocate@?$_Wrap_alloc@V?$allocator@PAVBNC_ReferenceItem@@@std@@@std@@QAEXPAPAVBNC_ReferenceItem@@I@Z 100f3b50 f i dllmain.obj
 0002:00030bb0       ?deallocate@?$_Wrap_alloc@V?$allocator@U?$_Tree_node@U?$pair@$$CBV?$CStringT@_WV?$StrTraitMFC_DLL@_WV?$ChTraitsCRT@_W@ATL@@@@@ATL@@PAVBNC_ReferenceItem@@@std@@PAX@std@@@std@@@std@@QAEXPAU?$_Tree_node@U?$pair@$$CBV?$CStringT@_WV?$StrTraitMFC_DLL@_WV?$ChTraitsCRT@_W@ATL@@@@@ATL@@PAVBNC_ReferenceItem@@@std@@PAX@2@I@Z 100f3bb0 f i dllmain.obj
 0002:00030c10       ?deallocate@?$_Wrap_alloc@V?$allocator@U_Container_proxy@std@@@std@@@std@@QAEXPAU_Container_proxy@2@I@Z 100f3c10 f i dllmain.obj
 0002:00030c70       ?deallocate@?$_Wrap_alloc@V?$allocator@V?$CStringT@_WV?$StrTraitMFC_DLL@_WV?$ChTraitsCRT@_W@ATL@@@@@ATL@@@std@@@std@@QAEXPAV?$CStringT@_WV?$StrTraitMFC_DLL@_WV?$ChTraitsCRT@_W@ATL@@@@@ATL@@I@Z 100f3c70 f i dllmain.obj
 0002:00030cd0       ?deallocate@?$_Wrap_alloc@V?$allocator@V?$shared_ptr@VBNC_FakeRect@@@std@@@std@@@std@@QAEXPAV?$shared_ptr@VBNC_FakeRect@@@2@I@Z 100f3cd0 f i dllmain.obj
 0002:00030d30       ?deallocate@?$allocator@D@std@@QAEXPADI@Z 100f3d30 f i dllmain.obj
 0002:00030d90       ?deallocate@?$allocator@H@std@@QAEXPAHI@Z 100f3d90 f i dllmain.obj
 0002:00030df0       ?deallocate@?$allocator@PAVBNC_Button@@@std@@QAEXPAPAVBNC_Button@@I@Z 100f3df0 f i dllmain.obj
 0002:00030e50       ?deallocate@?$allocator@PAVBNC_ReferenceItem@@@std@@QAEXPAPAVBNC_ReferenceItem@@I@Z 100f3e50 f i dllmain.obj
 0002:00030eb0       ?deallocate@?$allocator@U?$_Tree_node@U?$pair@$$CBV?$CStringT@_WV?$StrTraitMFC_DLL@_WV?$ChTraitsCRT@_W@ATL@@@@@ATL@@PAVBNC_ReferenceItem@@@std@@PAX@std@@@std@@QAEXPAU?$_Tree_node@U?$pair@$$CBV?$CStringT@_WV?$StrTraitMFC_DLL@_WV?$ChTraitsCRT@_W@ATL@@@@@ATL@@PAVBNC_ReferenceItem@@@std@@PAX@2@I@Z 100f3eb0 f i dllmain.obj
 0002:00030f10       ?deallocate@?$allocator@U_Container_proxy@std@@@std@@QAEXPAU_Container_proxy@2@I@Z 100f3f10 f i dllmain.obj
 0002:00030f70       ?deallocate@?$allocator@V?$CStringT@_WV?$StrTraitMFC_DLL@_WV?$ChTraitsCRT@_W@ATL@@@@@ATL@@@std@@QAEXPAV?$CStringT@_WV?$StrTraitMFC_DLL@_WV?$ChTraitsCRT@_W@ATL@@@@@ATL@@I@Z 100f3f70 f i dllmain.obj
 0002:00030fd0       ?deallocate@?$allocator@V?$shared_ptr@VBNC_FakeRect@@@std@@@std@@QAEXPAV?$shared_ptr@VBNC_FakeRect@@@2@I@Z 100f3fd0 f i dllmain.obj
 0002:00031030       ?default_error_condition@_System_error_category@std@@UBE?AVerror_condition@2@H@Z 100f4030 f i dllmain.obj
 0002:000310e0       ?default_error_condition@error_category@std@@UBE?AVerror_condition@2@H@Z 100f40e0 f i dllmain.obj
 0002:00031140       ?empty@?$vector@HV?$allocator@H@std@@@std@@QBE_NXZ 100f4140 f i dllmain.obj
 0002:000311b0       ?empty@?$vector@PAVBNC_Button@@V?$allocator@PAVBNC_Button@@@std@@@std@@QBE_NXZ 100f41b0 f i dllmain.obj
 0002:00031220       ?empty@?$vector@PAVBNC_ReferenceItem@@V?$allocator@PAVBNC_ReferenceItem@@@std@@@std@@QBE_NXZ 100f4220 f i dllmain.obj
 0002:00031290       ?empty@?$vector@V?$CStringT@_WV?$StrTraitMFC_DLL@_WV?$ChTraitsCRT@_W@ATL@@@@@ATL@@V?$allocator@V?$CStringT@_WV?$StrTraitMFC_DLL@_WV?$ChTraitsCRT@_W@ATL@@@@@ATL@@@std@@@std@@QBE_NXZ 100f4290 f i dllmain.obj
 0002:00031300       ?empty@?$vector@V?$shared_ptr@VBNC_FakeRect@@@std@@V?$allocator@V?$shared_ptr@VBNC_FakeRect@@@std@@@2@@std@@QBE_NXZ 100f4300 f i dllmain.obj
 0002:00031370       ?end@?$_Tree@V?$_Tmap_traits@V?$CStringT@_WV?$StrTraitMFC_DLL@_WV?$ChTraitsCRT@_W@ATL@@@@@ATL@@PAVBNC_ReferenceItem@@U?$less@V?$CStringT@_WV?$StrTraitMFC_DLL@_WV?$ChTraitsCRT@_W@ATL@@@@@ATL@@@std@@V?$allocator@U?$pair@$$CBV?$CStringT@_WV?$StrTraitMFC_DLL@_WV?$ChTraitsCRT@_W@ATL@@@@@ATL@@PAVBNC_ReferenceItem@@@std@@@5@$0A@@std@@@std@@QAE?AV?$_Tree_iterator@V?$_Tree_val@U?$_Tree_simple_types@U?$pair@$$CBV?$CStringT@_WV?$StrTraitMFC_DLL@_WV?$ChTraitsCRT@_W@ATL@@@@@ATL@@PAVBNC_ReferenceItem@@@std@@@std@@@std@@@2@XZ 100f4370 f i dllmain.obj
 0002:000313e0       ?end@?$vector@HV?$allocator@H@std@@@std@@QBE?AV?$_Vector_const_iterator@V?$_Vector_val@U?$_Simple_types@H@std@@@std@@@2@XZ 100f43e0 f i dllmain.obj
 0002:00031450       ?end@?$vector@PAVBNC_Button@@V?$allocator@PAVBNC_Button@@@std@@@std@@QBE?AV?$_Vector_const_iterator@V?$_Vector_val@U?$_Simple_types@PAVBNC_Button@@@std@@@std@@@2@XZ 100f4450 f i dllmain.obj
 0002:000314c0       ?end@?$vector@PAVBNC_ReferenceItem@@V?$allocator@PAVBNC_ReferenceItem@@@std@@@std@@QBE?AV?$_Vector_const_iterator@V?$_Vector_val@U?$_Simple_types@PAVBNC_ReferenceItem@@@std@@@std@@@2@XZ 100f44c0 f i dllmain.obj
 0002:00031530       ?end@?$vector@V?$CStringT@_WV?$StrTraitMFC_DLL@_WV?$ChTraitsCRT@_W@ATL@@@@@ATL@@V?$allocator@V?$CStringT@_WV?$StrTraitMFC_DLL@_WV?$ChTraitsCRT@_W@ATL@@@@@ATL@@@std@@@std@@QBE?AV?$_Vector_const_iterator@V?$_Vector_val@U?$_Simple_types@V?$CStringT@_WV?$StrTraitMFC_DLL@_WV?$ChTraitsCRT@_W@ATL@@@@@ATL@@@std@@@std@@@2@XZ 100f4530 f i dllmain.obj
 0002:000315a0       ?end@?$vector@V?$shared_ptr@VBNC_FakeRect@@@std@@V?$allocator@V?$shared_ptr@VBNC_FakeRect@@@std@@@2@@std@@QBE?AV?$_Vector_const_iterator@V?$_Vector_val@U?$_Simple_types@V?$shared_ptr@VBNC_FakeRect@@@std@@@std@@@std@@@2@XZ 100f45a0 f i dllmain.obj
 0002:00031610       ?equivalent@error_category@std@@UBE_NABVerror_code@2@H@Z 100f4610 f i dllmain.obj
 0002:000316b0       ?equivalent@error_category@std@@UBE_NHABVerror_condition@2@@Z 100f46b0 f i dllmain.obj
 0002:00031730       ?erase@?$_Tree@V?$_Tmap_traits@V?$CStringT@_WV?$StrTraitMFC_DLL@_WV?$ChTraitsCRT@_W@ATL@@@@@ATL@@PAVBNC_ReferenceItem@@U?$less@V?$CStringT@_WV?$StrTraitMFC_DLL@_WV?$ChTraitsCRT@_W@ATL@@@@@ATL@@@std@@V?$allocator@U?$pair@$$CBV?$CStringT@_WV?$StrTraitMFC_DLL@_WV?$ChTraitsCRT@_W@ATL@@@@@ATL@@PAVBNC_ReferenceItem@@@std@@@5@$0A@@std@@@std@@QAE?AV?$_Tree_iterator@V?$_Tree_val@U?$_Tree_simple_types@U?$pair@$$CBV?$CStringT@_WV?$StrTraitMFC_DLL@_WV?$ChTraitsCRT@_W@ATL@@@@@ATL@@PAVBNC_ReferenceItem@@@std@@@std@@@std@@@2@V?$_Tree_const_iterator@V?$_Tree_val@U?$_Tree_simple_types@U?$pair@$$CBV?$CStringT@_WV?$StrTraitMFC_DLL@_WV?$ChTraitsCRT@_W@ATL@@@@@ATL@@PAVBNC_ReferenceItem@@@std@@@std@@@std@@@2@0@Z 100f4730 f i dllmain.obj
 0002:00031a50       ?erase@?$_Tree@V?$_Tmap_traits@V?$CStringT@_WV?$StrTraitMFC_DLL@_WV?$ChTraitsCRT@_W@ATL@@@@@ATL@@PAVBNC_ReferenceItem@@U?$less@V?$CStringT@_WV?$StrTraitMFC_DLL@_WV?$ChTraitsCRT@_W@ATL@@@@@ATL@@@std@@V?$allocator@U?$pair@$$CBV?$CStringT@_WV?$StrTraitMFC_DLL@_WV?$ChTraitsCRT@_W@ATL@@@@@ATL@@PAVBNC_ReferenceItem@@@std@@@5@$0A@@std@@@std@@QAE?AV?$_Tree_iterator@V?$_Tree_val@U?$_Tree_simple_types@U?$pair@$$CBV?$CStringT@_WV?$StrTraitMFC_DLL@_WV?$ChTraitsCRT@_W@ATL@@@@@ATL@@PAVBNC_ReferenceItem@@@std@@@std@@@std@@@2@V?$_Tree_const_iterator@V?$_Tree_val@U?$_Tree_simple_types@U?$pair@$$CBV?$CStringT@_WV?$StrTraitMFC_DLL@_WV?$ChTraitsCRT@_W@ATL@@@@@ATL@@PAVBNC_ReferenceItem@@@std@@@std@@@std@@@2@@Z 100f4a50 f i dllmain.obj
 0002:000324d0       ?erase@?$basic_string@DU?$char_traits@D@std@@V?$allocator@D@2@@std@@QAEAAV12@I@Z 100f54d0 f i dllmain.obj
 0002:00032550       ?erase@?$basic_string@DU?$char_traits@D@std@@V?$allocator@D@2@@std@@QAEAAV12@II@Z 100f5550 f i dllmain.obj
 0002:00032630       ?generic_category@std@@YAABVerror_category@1@XZ 100f5630 f i dllmain.obj
 0002:00032670       ?key_comp@?$_Tree@V?$_Tmap_traits@V?$CStringT@_WV?$StrTraitMFC_DLL@_WV?$ChTraitsCRT@_W@ATL@@@@@ATL@@PAVBNC_ReferenceItem@@U?$less@V?$CStringT@_WV?$StrTraitMFC_DLL@_WV?$ChTraitsCRT@_W@ATL@@@@@ATL@@@std@@V?$allocator@U?$pair@$$CBV?$CStringT@_WV?$StrTraitMFC_DLL@_WV?$ChTraitsCRT@_W@ATL@@@@@ATL@@PAVBNC_ReferenceItem@@@std@@@5@$0A@@std@@@std@@QBE?AU?$less@V?$CStringT@_WV?$StrTraitMFC_DLL@_WV?$ChTraitsCRT@_W@ATL@@@@@ATL@@@2@XZ 100f5670 f i dllmain.obj
 0002:000326d0       ?length@?$char_traits@D@std@@SAIPBD@Z 100f56d0 f i dllmain.obj
 0002:00032750       ?max_size@?$_Wrap_alloc@V?$allocator@D@std@@@std@@QBEIXZ 100f5750 f i dllmain.obj
 0002:000327b0       ?max_size@?$_Wrap_alloc@V?$allocator@H@std@@@std@@QBEIXZ 100f57b0 f i dllmain.obj
 0002:00032810       ?max_size@?$_Wrap_alloc@V?$allocator@PAVBNC_Button@@@std@@@std@@QBEIXZ 100f5810 f i dllmain.obj
 0002:00032870       ?max_size@?$_Wrap_alloc@V?$allocator@PAVBNC_ReferenceItem@@@std@@@std@@QBEIXZ 100f5870 f i dllmain.obj
 0002:000328d0       ?max_size@?$_Wrap_alloc@V?$allocator@V?$CStringT@_WV?$StrTraitMFC_DLL@_WV?$ChTraitsCRT@_W@ATL@@@@@ATL@@@std@@@std@@QBEIXZ 100f58d0 f i dllmain.obj
 0002:00032930       ?max_size@?$_Wrap_alloc@V?$allocator@V?$shared_ptr@VBNC_FakeRect@@@std@@@std@@@std@@QBEIXZ 100f5930 f i dllmain.obj
 0002:00032990       ?max_size@?$allocator@D@std@@QBEIXZ 100f5990 f i dllmain.obj
 0002:000329d0       ?max_size@?$allocator@H@std@@QBEIXZ 100f59d0 f i dllmain.obj
 0002:00032a10       ?max_size@?$allocator@PAVBNC_Button@@@std@@QBEIXZ 100f5a10 f i dllmain.obj
 0002:00032a50       ?max_size@?$allocator@PAVBNC_ReferenceItem@@@std@@QBEIXZ 100f5a50 f i dllmain.obj
 0002:00032a90       ?max_size@?$allocator@V?$CStringT@_WV?$StrTraitMFC_DLL@_WV?$ChTraitsCRT@_W@ATL@@@@@ATL@@@std@@QBEIXZ 100f5a90 f i dllmain.obj
 0002:00032ad0       ?max_size@?$allocator@V?$shared_ptr@VBNC_FakeRect@@@std@@@std@@QBEIXZ 100f5ad0 f i dllmain.obj
 0002:00032b10       ?max_size@?$allocator_traits@V?$allocator@D@std@@@std@@SAIABV?$allocator@D@2@@Z 100f5b10 f i dllmain.obj
 0002:00032b60       ?max_size@?$allocator_traits@V?$allocator@H@std@@@std@@SAIABV?$allocator@H@2@@Z 100f5b60 f i dllmain.obj
 0002:00032bb0       ?max_size@?$allocator_traits@V?$allocator@PAVBNC_Button@@@std@@@std@@SAIABV?$allocator@PAVBNC_Button@@@2@@Z 100f5bb0 f i dllmain.obj
 0002:00032c00       ?max_size@?$allocator_traits@V?$allocator@PAVBNC_ReferenceItem@@@std@@@std@@SAIABV?$allocator@PAVBNC_ReferenceItem@@@2@@Z 100f5c00 f i dllmain.obj
 0002:00032c50       ?max_size@?$allocator_traits@V?$allocator@V?$CStringT@_WV?$StrTraitMFC_DLL@_WV?$ChTraitsCRT@_W@ATL@@@@@ATL@@@std@@@std@@SAIABV?$allocator@V?$CStringT@_WV?$StrTraitMFC_DLL@_WV?$ChTraitsCRT@_W@ATL@@@@@ATL@@@2@@Z 100f5c50 f i dllmain.obj
 0002:00032ca0       ?max_size@?$allocator_traits@V?$allocator@V?$shared_ptr@VBNC_FakeRect@@@std@@@std@@@std@@SAIABV?$allocator@V?$shared_ptr@VBNC_FakeRect@@@std@@@2@@Z 100f5ca0 f i dllmain.obj
 0002:00032cf0       ?max_size@?$basic_string@DU?$char_traits@D@std@@V?$allocator@D@2@@std@@QBEIXZ 100f5cf0 f i dllmain.obj
 0002:00032d90       ?max_size@?$vector@HV?$allocator@H@std@@@std@@QBEIXZ 100f5d90 f i dllmain.obj
 0002:00032df0       ?max_size@?$vector@PAVBNC_Button@@V?$allocator@PAVBNC_Button@@@std@@@std@@QBEIXZ 100f5df0 f i dllmain.obj
 0002:00032e50       ?max_size@?$vector@PAVBNC_ReferenceItem@@V?$allocator@PAVBNC_ReferenceItem@@@std@@@std@@QBEIXZ 100f5e50 f i dllmain.obj
 0002:00032eb0       ?max_size@?$vector@V?$CStringT@_WV?$StrTraitMFC_DLL@_WV?$ChTraitsCRT@_W@ATL@@@@@ATL@@V?$allocator@V?$CStringT@_WV?$StrTraitMFC_DLL@_WV?$ChTraitsCRT@_W@ATL@@@@@ATL@@@std@@@std@@QBEIXZ 100f5eb0 f i dllmain.obj
 0002:00032f10       ?max_size@?$vector@V?$shared_ptr@VBNC_FakeRect@@@std@@V?$allocator@V?$shared_ptr@VBNC_FakeRect@@@std@@@2@@std@@QBEIXZ 100f5f10 f i dllmain.obj
 0002:00032f70       ?message@_Generic_error_category@std@@UBE?AV?$basic_string@DU?$char_traits@D@std@@V?$allocator@D@2@@2@H@Z 100f5f70 f i dllmain.obj
 0002:00033030       ?message@_Iostream_error_category@std@@UBE?AV?$basic_string@DU?$char_traits@D@std@@V?$allocator@D@2@@2@H@Z 100f6030 f i dllmain.obj
 0002:000330f0       ?message@_System_error_category@std@@UBE?AV?$basic_string@DU?$char_traits@D@std@@V?$allocator@D@2@@2@H@Z 100f60f0 f i dllmain.obj
 0002:000331b0       ?move@?$char_traits@D@std@@SAPADPADPBDI@Z 100f61b0 f i dllmain.obj
 0002:00033240       ?name@_Generic_error_category@std@@UBEPBDXZ 100f6240 f i dllmain.obj
 0002:00033280       ?name@_Iostream_error_category@std@@UBEPBDXZ 100f6280 f i dllmain.obj
 0002:000332c0       ?name@_System_error_category@std@@UBEPBDXZ 100f62c0 f i dllmain.obj
 0002:00033300       ?select_on_container_copy_construction@?$_Wrap_alloc@V?$allocator@H@std@@@std@@QBE?AU12@XZ 100f6300 f i dllmain.obj
 0002:00033370       ?select_on_container_copy_construction@?$_Wrap_alloc@V?$allocator@PAVBNC_Button@@@std@@@std@@QBE?AU12@XZ 100f6370 f i dllmain.obj
 0002:000333e0       ?select_on_container_copy_construction@?$_Wrap_alloc@V?$allocator@PAVBNC_ReferenceItem@@@std@@@std@@QBE?AU12@XZ 100f63e0 f i dllmain.obj
 0002:00033450       ?select_on_container_copy_construction@?$_Wrap_alloc@V?$allocator@U?$_Tree_node@U?$pair@$$CBV?$CStringT@_WV?$StrTraitMFC_DLL@_WV?$ChTraitsCRT@_W@ATL@@@@@ATL@@PAVBNC_ReferenceItem@@@std@@PAX@std@@@std@@@std@@QBE?AU12@XZ 100f6450 f i dllmain.obj
 0002:000334c0       ?select_on_container_copy_construction@?$_Wrap_alloc@V?$allocator@V?$CStringT@_WV?$StrTraitMFC_DLL@_WV?$ChTraitsCRT@_W@ATL@@@@@ATL@@@std@@@std@@QBE?AU12@XZ 100f64c0 f i dllmain.obj
 0002:00033530       ?select_on_container_copy_construction@?$_Wrap_alloc@V?$allocator@V?$shared_ptr@VBNC_FakeRect@@@std@@@std@@@std@@QBE?AU12@XZ 100f6530 f i dllmain.obj
 0002:000335a0       ?select_on_container_copy_construction@?$allocator@H@std@@QBE?AV12@XZ 100f65a0 f i dllmain.obj
 0002:00033600       ?select_on_container_copy_construction@?$allocator@PAVBNC_Button@@@std@@QBE?AV12@XZ 100f6600 f i dllmain.obj
 0002:00033660       ?select_on_container_copy_construction@?$allocator@PAVBNC_ReferenceItem@@@std@@QBE?AV12@XZ 100f6660 f i dllmain.obj
 0002:000336c0       ?select_on_container_copy_construction@?$allocator@U?$_Tree_node@U?$pair@$$CBV?$CStringT@_WV?$StrTraitMFC_DLL@_WV?$ChTraitsCRT@_W@ATL@@@@@ATL@@PAVBNC_ReferenceItem@@@std@@PAX@std@@@std@@QBE?AV12@XZ 100f66c0 f i dllmain.obj
 0002:00033720       ?select_on_container_copy_construction@?$allocator@V?$CStringT@_WV?$StrTraitMFC_DLL@_WV?$ChTraitsCRT@_W@ATL@@@@@ATL@@@std@@QBE?AV12@XZ 100f6720 f i dllmain.obj
 0002:00033780       ?select_on_container_copy_construction@?$allocator@V?$shared_ptr@VBNC_FakeRect@@@std@@@std@@QBE?AV12@XZ 100f6780 f i dllmain.obj
 0002:000337e0       ?select_on_container_copy_construction@?$allocator_traits@V?$allocator@H@std@@@std@@SA?AV?$allocator@H@2@ABV32@@Z 100f67e0 f i dllmain.obj
 0002:00033840       ?select_on_container_copy_construction@?$allocator_traits@V?$allocator@PAVBNC_Button@@@std@@@std@@SA?AV?$allocator@PAVBNC_Button@@@2@ABV32@@Z 100f6840 f i dllmain.obj
 0002:000338a0       ?select_on_container_copy_construction@?$allocator_traits@V?$allocator@PAVBNC_ReferenceItem@@@std@@@std@@SA?AV?$allocator@PAVBNC_ReferenceItem@@@2@ABV32@@Z 100f68a0 f i dllmain.obj
 0002:00033900       ?select_on_container_copy_construction@?$allocator_traits@V?$allocator@U?$_Tree_node@U?$pair@$$CBV?$CStringT@_WV?$StrTraitMFC_DLL@_WV?$ChTraitsCRT@_W@ATL@@@@@ATL@@PAVBNC_ReferenceItem@@@std@@PAX@std@@@std@@@std@@SA?AV?$allocator@U?$_Tree_node@U?$pair@$$CBV?$CStringT@_WV?$StrTraitMFC_DLL@_WV?$ChTraitsCRT@_W@ATL@@@@@ATL@@PAVBNC_ReferenceItem@@@std@@PAX@std@@@2@ABV32@@Z 100f6900 f i dllmain.obj
 0002:00033960       ?select_on_container_copy_construction@?$allocator_traits@V?$allocator@V?$CStringT@_WV?$StrTraitMFC_DLL@_WV?$ChTraitsCRT@_W@ATL@@@@@ATL@@@std@@@std@@SA?AV?$allocator@V?$CStringT@_WV?$StrTraitMFC_DLL@_WV?$ChTraitsCRT@_W@ATL@@@@@ATL@@@2@ABV32@@Z 100f6960 f i dllmain.obj
 0002:000339c0       ?select_on_container_copy_construction@?$allocator_traits@V?$allocator@V?$shared_ptr@VBNC_FakeRect@@@std@@@std@@@std@@SA?AV?$allocator@V?$shared_ptr@VBNC_FakeRect@@@std@@@2@ABV32@@Z 100f69c0 f i dllmain.obj
 0002:00033a20       ?size@?$_Tree@V?$_Tmap_traits@V?$CStringT@_WV?$StrTraitMFC_DLL@_WV?$ChTraitsCRT@_W@ATL@@@@@ATL@@PAVBNC_ReferenceItem@@U?$less@V?$CStringT@_WV?$StrTraitMFC_DLL@_WV?$ChTraitsCRT@_W@ATL@@@@@ATL@@@std@@V?$allocator@U?$pair@$$CBV?$CStringT@_WV?$StrTraitMFC_DLL@_WV?$ChTraitsCRT@_W@ATL@@@@@ATL@@PAVBNC_ReferenceItem@@@std@@@5@$0A@@std@@@std@@QBEIXZ 100f6a20 f i dllmain.obj
 0002:00033a60       ?size@?$basic_string@DU?$char_traits@D@std@@V?$allocator@D@2@@std@@QBEIXZ 100f6a60 f i dllmain.obj
 0002:00033aa0       ?size@?$vector@HV?$allocator@H@std@@@std@@QBEIXZ 100f6aa0 f i dllmain.obj
 0002:00033af0       ?size@?$vector@PAVBNC_Button@@V?$allocator@PAVBNC_Button@@@std@@@std@@QBEIXZ 100f6af0 f i dllmain.obj
 0002:00033b40       ?size@?$vector@PAVBNC_ReferenceItem@@V?$allocator@PAVBNC_ReferenceItem@@@std@@@std@@QBEIXZ 100f6b40 f i dllmain.obj
 0002:00033b90       ?size@?$vector@V?$CStringT@_WV?$StrTraitMFC_DLL@_WV?$ChTraitsCRT@_W@ATL@@@@@ATL@@V?$allocator@V?$CStringT@_WV?$StrTraitMFC_DLL@_WV?$ChTraitsCRT@_W@ATL@@@@@ATL@@@std@@@std@@QBEIXZ 100f6b90 f i dllmain.obj
 0002:00033be0       ?size@?$vector@V?$shared_ptr@VBNC_FakeRect@@@std@@V?$allocator@V?$shared_ptr@VBNC_FakeRect@@@std@@@2@@std@@QBEIXZ 100f6be0 f i dllmain.obj
 0002:00033c30       ?swap@?$shared_ptr@VBNC_FakeRect@@@std@@QAEXAAV12@@Z 100f6c30 f i dllmain.obj
 0002:00033c90       ?system_category@std@@YAABVerror_category@1@XZ 100f6c90 f i dllmain.obj
 0002:00033cd0       ?value@error_code@std@@QBEHXZ 100f6cd0 f i dllmain.obj
 0002:00033d10       ?value@error_condition@std@@QBEHXZ 100f6d10 f i dllmain.obj
 0002:00033d50       _DllMain@12                100f6d50 f   dllmain.obj
 0002:00033f30       _HRESULT_FROM_WIN32        100f6f30 f i dllmain.obj
 0002:00033fa0       _hypot                     100f6fa0 f i dllmain.obj
 0002:00034020       ?OnDestroy@BNC_BaseClient@@QAEXXZ 100f7020 f   BNC_BaseClient.obj
 0002:00034080       ?OnPaint@BNC_BaseClient@@QAEXXZ 100f7080 f   BNC_BaseClient.obj
 0002:00034190       ?OnNcPaint@BNC_BaseClient@@QAEXXZ 100f7190 f   BNC_BaseClient.obj
 0002:000341d0       ?OnEraseBkgnd@BNC_BaseClient@@QAEHPAVCDC@@@Z 100f71d0 f   BNC_BaseClient.obj
 0002:00034260       ?OnSize@BNC_BaseClient@@QAEXIHH@Z 100f7260 f   BNC_BaseClient.obj
 0002:000342e0       ?OnMouseMove@BNC_BaseClient@@QAEXIVCPoint@@@Z 100f72e0 f   BNC_BaseClient.obj
 0002:00034370       ?OnLButtonDown@BNC_BaseClient@@QAEXIVCPoint@@@Z 100f7370 f   BNC_BaseClient.obj
 0002:00034400       ?OnLButtonUp@BNC_BaseClient@@QAEXIVCPoint@@@Z 100f7400 f   BNC_BaseClient.obj
 0002:00034490       ?OnRButtonDown@BNC_BaseClient@@QAEXIVCPoint@@@Z 100f7490 f   BNC_BaseClient.obj
 0002:00034500       ?OnRButtonUp@BNC_BaseClient@@QAEXIVCPoint@@@Z 100f7500 f   BNC_BaseClient.obj
 0002:00034570       ?OnLButtonDblClk@BNC_BaseClient@@QAEXIVCPoint@@@Z 100f7570 f   BNC_BaseClient.obj
 0002:00034600       ?OnNcMouseMove@BNC_BaseClient@@QAEXIVCPoint@@@Z 100f7600 f   BNC_BaseClient.obj
 0002:00034660       ?OnNcLButtonDown@BNC_BaseClient@@QAEXIVCPoint@@@Z 100f7660 f   BNC_BaseClient.obj
 0002:000346d0       ?OnNcLButtonUp@BNC_BaseClient@@QAEXIVCPoint@@@Z 100f76d0 f   BNC_BaseClient.obj
 0002:00034740       ?OnNcRButtonDown@BNC_BaseClient@@QAEXIVCPoint@@@Z 100f7740 f   BNC_BaseClient.obj
 0002:000347b0       ?OnNcRButtonUp@BNC_BaseClient@@QAEXIVCPoint@@@Z 100f77b0 f   BNC_BaseClient.obj
 0002:00034820       ?OnSetFocus@BNC_BaseClient@@QAEXPAVCWnd@@@Z 100f7820 f   BNC_BaseClient.obj
 0002:000348b0       ?OnMouseWheel@BNC_BaseClient@@QAEHIFVCPoint@@@Z 100f78b0 f   BNC_BaseClient.obj
 0002:00034916       ??_9BNC_BaseClient@@$BBJA@AE 100f7916 f i BNC_BaseClient.obj
 0002:00034920       ?OnWindowPosChanged@BNC_BaseClient@@QAEXPAUtagWINDOWPOS@@@Z 100f7920 f   BNC_BaseClient.obj
 0002:00034980       ?OnWindowPosChanging@BNC_BaseClient@@QAEXPAUtagWINDOWPOS@@@Z 100f7980 f   BNC_BaseClient.obj
 0002:000349d6       ??_9BNC_BaseClient@@$BBJE@AE 100f79d6 f i BNC_BaseClient.obj
 0002:000349e0       ??_9BNC_BaseClient@@$BBJI@AE 100f79e0 f i BNC_BaseClient.obj
 0002:000349ea       ??_9BNC_BaseClient@@$BBJM@AE 100f79ea f i BNC_BaseClient.obj
 0002:000349f4       ??_9BNC_BaseClient@@$BBKA@AE 100f79f4 f i BNC_BaseClient.obj
 0002:000349fe       ??_9BNC_BaseClient@@$BBKE@AE 100f79fe f i BNC_BaseClient.obj
 0002:00034a08       ??_9BNC_BaseClient@@$BBKI@AE 100f7a08 f i BNC_BaseClient.obj
 0002:00034a12       ??_9BNC_BaseClient@@$BBKM@AE 100f7a12 f i BNC_BaseClient.obj
 0002:00034a1c       ??_9BNC_BaseClient@@$BBLA@AE 100f7a1c f i BNC_BaseClient.obj
 0002:00034a26       ??_9BNC_BaseClient@@$BBLE@AE 100f7a26 f i BNC_BaseClient.obj
 0002:00034a30       ??_9BNC_BaseClient@@$BBLI@AE 100f7a30 f i BNC_BaseClient.obj
 0002:00034a3a       ??_9BNC_BaseClient@@$BBLM@AE 100f7a3a f i BNC_BaseClient.obj
 0002:00034a44       ??_9BNC_BaseClient@@$BBMA@AE 100f7a44 f i BNC_BaseClient.obj
 0002:00034a4e       ??_9BNC_BaseClient@@$BBME@AE 100f7a4e f i BNC_BaseClient.obj
 0002:00034a58       ??_9BNC_BaseClient@@$BBMI@AE 100f7a58 f i BNC_BaseClient.obj
 0002:00034a62       ??_9BNC_BaseClient@@$BBMM@AE 100f7a62 f i BNC_BaseClient.obj
 0002:00034a6c       ??_9BNC_BaseClient@@$BBNA@AE 100f7a6c f i BNC_BaseClient.obj
 0002:00034a76       ??_9BNC_BaseClient@@$BBNE@AE 100f7a76 f i BNC_BaseClient.obj
 0002:00034a80       ?_GetBaseClass@BNC_BaseClient@@KGPAUCRuntimeClass@@XZ 100f7a80 f   BNC_BaseClient.obj
 0002:00034ad0       ??$_Allocate@PAVBNC_BaseClient@@@std@@YAPAPAVBNC_BaseClient@@IPAPAV1@@Z 100f7ad0 f i BNC_BaseClient.obj
 0002:00034b70       ??$_Debug_pointer@PAVBNC_BaseClient@@@std@@YAXPAPAVBNC_BaseClient@@PB_WI@Z 100f7b70 f i BNC_BaseClient.obj
 0002:00034be0       ??$_Debug_range2@PAPAVBNC_BaseClient@@@std@@YAXPAPAVBNC_BaseClient@@0PB_WIUrandom_access_iterator_tag@0@@Z 100f7be0 f i BNC_BaseClient.obj
 0002:00034c90       ??$_Debug_range@PAPAVBNC_BaseClient@@@std@@YAXPAPAVBNC_BaseClient@@0PB_WI@Z 100f7c90 f i BNC_BaseClient.obj
 0002:00034d10       ??$_Destroy_range@U?$_Wrap_alloc@V?$allocator@PAVBNC_BaseClient@@@std@@@std@@@std@@YAXPAPAVBNC_BaseClient@@0AAU?$_Wrap_alloc@V?$allocator@PAVBNC_BaseClient@@@std@@@0@@Z 100f7d10 f i BNC_BaseClient.obj
 0002:00034d90       ??$_Destroy_range@U?$_Wrap_alloc@V?$allocator@PAVBNC_BaseClient@@@std@@@std@@@std@@YAXPAPAVBNC_BaseClient@@0AAU?$_Wrap_alloc@V?$allocator@PAVBNC_BaseClient@@@std@@@0@U_Scalar_ptr_iterator_tag@0@@Z 100f7d90 f i BNC_BaseClient.obj
 0002:00034dc0       ??$_Destroy_range@U?$_Wrap_alloc@V?$allocator@PAVCWnd@@@std@@@std@@@std@@YAXPAPAVCWnd@@0AAU?$_Wrap_alloc@V?$allocator@PAVCWnd@@@std@@@0@@Z 100f7dc0 f i BNC_BaseClient.obj
 0002:00034e40       ??$_Destroy_range@U?$_Wrap_alloc@V?$allocator@PAVCWnd@@@std@@@std@@@std@@YAXPAPAVCWnd@@0AAU?$_Wrap_alloc@V?$allocator@PAVCWnd@@@std@@@0@U_Scalar_ptr_iterator_tag@0@@Z 100f7e40 f i BNC_BaseClient.obj
 0002:00034e70       ??$_Iter_cat@PAPAVBNC_BaseClient@@@std@@YA?AUrandom_access_iterator_tag@0@ABQAPAVBNC_BaseClient@@@Z 100f7e70 f i BNC_BaseClient.obj
 0002:00034ef0       ??$_Move@PAPAVBNC_BaseClient@@PAPAV1@@std@@YAPAPAVBNC_BaseClient@@PAPAV1@00@Z 100f7ef0 f i BNC_BaseClient.obj
 0002:00034f70       ??$_Move@PAPAVBNC_BaseClient@@PAPAV1@@std@@YAPAPAVBNC_BaseClient@@PAPAV1@00U_Scalar_ptr_iterator_tag@0@@Z 100f7f70 f i BNC_BaseClient.obj
 0002:00035000       ??$_Move@PAPAVCWnd@@PAPAV1@@std@@YAPAPAVCWnd@@PAPAV1@00@Z 100f8000 f i BNC_BaseClient.obj
 0002:00035080       ??$_Move@PAPAVCWnd@@PAPAV1@@std@@YAPAPAVCWnd@@PAPAV1@00U_Scalar_ptr_iterator_tag@0@@Z 100f8080 f i BNC_BaseClient.obj
 0002:00035110       ??$_Ptr_cat@PAVBNC_BaseClient@@PAV1@@std@@YA?AU_Scalar_ptr_iterator_tag@0@PAPAVBNC_BaseClient@@0@Z 100f8110 f i BNC_BaseClient.obj
 0002:00035180       ??$_Ptr_cat@PAVCWnd@@PAV1@@std@@YA?AU_Scalar_ptr_iterator_tag@0@PAPAVCWnd@@0@Z 100f8180 f i BNC_BaseClient.obj
 0002:000351f0       ??$_Rechecked@PAPAVBNC_BaseClient@@PAPAV1@@std@@YAAAPAPAVBNC_BaseClient@@AAPAPAV1@PAPAV1@@Z 100f81f0 f i BNC_BaseClient.obj
 0002:00035230       ??$_Umove@PAPAVBNC_BaseClient@@@?$vector@PAVBNC_BaseClient@@V?$allocator@PAVBNC_BaseClient@@@std@@@std@@IAEPAPAVBNC_BaseClient@@PAPAV2@00@Z 100f8230 f i BNC_BaseClient.obj
 0002:00035300       ??$_Unchecked@PAPAVBNC_BaseClient@@@std@@YAPAPAVBNC_BaseClient@@PAPAV1@@Z 100f8300 f i BNC_BaseClient.obj
 0002:00035340       ??$_Uninit_move@PAPAVBNC_BaseClient@@PAPAV1@U?$_Wrap_alloc@V?$allocator@PAVBNC_BaseClient@@@std@@@std@@@std@@YAPAPAVBNC_BaseClient@@PAPAV1@00AAU?$_Wrap_alloc@V?$allocator@PAVBNC_BaseClient@@@std@@@0@@Z 100f8340 f i BNC_BaseClient.obj
 0002:000353e0       ??$_Uninit_move@PAVBNC_BaseClient@@PAV1@PAV1@@std@@YAPAPAVBNC_BaseClient@@PAPAV1@00AAU?$_Wrap_alloc@V?$allocator@PAVBNC_BaseClient@@@std@@@0@0U_Scalar_ptr_iterator_tag@0@@Z 100f83e0 f i BNC_BaseClient.obj
 0002:000354a0       ??$_Uninitialized_move@PAPAVBNC_BaseClient@@PAPAV1@U?$_Wrap_alloc@V?$allocator@PAVBNC_BaseClient@@@std@@@std@@@std@@YAPAPAVBNC_BaseClient@@PAPAV1@00AAU?$_Wrap_alloc@V?$allocator@PAVBNC_BaseClient@@@std@@@0@@Z 100f84a0 f i BNC_BaseClient.obj
 0002:00035540       ??$_Val_type@PAPAVBNC_BaseClient@@@std@@YAPAPAVBNC_BaseClient@@PAPAV1@@Z 100f8540 f i BNC_BaseClient.obj
 0002:00035570       ??$addressof@QAVBNC_BaseClient@@@std@@YAPBQAVBNC_BaseClient@@ABQAV1@@Z 100f8570 f i BNC_BaseClient.obj
 0002:000355b0       ??$construct@PAVBNC_BaseClient@@AAPAV1@@?$_Wrap_alloc@V?$allocator@PAVBNC_BaseClient@@@std@@@std@@QAEXPAPAVBNC_BaseClient@@AAPAV2@@Z 100f85b0 f i BNC_BaseClient.obj
 0002:00035620       ??$construct@PAVBNC_BaseClient@@AAPAV1@@?$allocator@PAVBNC_BaseClient@@@std@@QAEXPAPAVBNC_BaseClient@@AAPAV2@@Z 100f8620 f i BNC_BaseClient.obj
 0002:00035720       ??$construct@PAVBNC_BaseClient@@AAPAV1@@?$allocator_traits@V?$allocator@PAVBNC_BaseClient@@@std@@@std@@SAXAAV?$allocator@PAVBNC_BaseClient@@@1@PAPAVBNC_BaseClient@@AAPAV3@@Z 100f8720 f i BNC_BaseClient.obj
 0002:00035780       ??$construct@PAVBNC_BaseClient@@ABQAV1@@?$_Wrap_alloc@V?$allocator@PAVBNC_BaseClient@@@std@@@std@@QAEXPAPAVBNC_BaseClient@@ABQAV2@@Z 100f8780 f i BNC_BaseClient.obj
 0002:000357f0       ??$construct@PAVBNC_BaseClient@@ABQAV1@@?$allocator_traits@V?$allocator@PAVBNC_BaseClient@@@std@@@std@@SAXAAV?$allocator@PAVBNC_BaseClient@@@1@PAPAVBNC_BaseClient@@ABQAV3@@Z 100f87f0 f i BNC_BaseClient.obj
 0002:00035850       ??$forward@AAPAVBNC_BaseClient@@@std@@YAAAPAVBNC_BaseClient@@AAPAV1@@Z 100f8850 f i BNC_BaseClient.obj
 0002:00035890       ??$forward@ABQAVBNC_BaseClient@@@std@@YAABQAVBNC_BaseClient@@ABQAV1@@Z 100f8890 f i BNC_BaseClient.obj
 0002:000358d0       ??0?$_Iterator012@Urandom_access_iterator_tag@std@@PAVBNC_BaseClient@@HPBQAV3@ABQAV3@U_Iterator_base12@2@@std@@QAE@ABU01@@Z 100f88d0 f i BNC_BaseClient.obj
 0002:00035930       ??0?$_Iterator012@Urandom_access_iterator_tag@std@@PAVBNC_BaseClient@@HPBQAV3@ABQAV3@U_Iterator_base12@2@@std@@QAE@XZ 100f8930 f i BNC_BaseClient.obj
 0002:00035990       ??0?$_Iterator012@Urandom_access_iterator_tag@std@@PAVCWnd@@HPBQAV3@ABQAV3@U_Iterator_base12@2@@std@@QAE@ABU01@@Z 100f8990 f i BNC_BaseClient.obj
 0002:000359f0       ??0?$_Iterator012@Urandom_access_iterator_tag@std@@PAVCWnd@@HPBQAV3@ABQAV3@U_Iterator_base12@2@@std@@QAE@XZ 100f89f0 f i BNC_BaseClient.obj
 0002:00035a50       ??0?$_Vector_alloc@$0A@U?$_Vec_base_types@PAVBNC_BaseClient@@V?$allocator@PAVBNC_BaseClient@@@std@@@std@@@std@@QAE@ABV?$allocator@PAVBNC_BaseClient@@@1@@Z 100f8a50 f i BNC_BaseClient.obj
 0002:00035b00       ??0?$_Vector_alloc@$0A@U?$_Vec_base_types@PAVCWnd@@V?$allocator@PAVCWnd@@@std@@@std@@@std@@QAE@ABV?$allocator@PAVCWnd@@@1@@Z 100f8b00 f i BNC_BaseClient.obj
 0002:00035bb0       ??0?$_Vector_const_iterator@V?$_Vector_val@U?$_Simple_types@PAVBNC_BaseClient@@@std@@@std@@@std@@QAE@ABV01@@Z 100f8bb0 f i BNC_BaseClient.obj
 0002:00035c20       ??0?$_Vector_const_iterator@V?$_Vector_val@U?$_Simple_types@PAVBNC_BaseClient@@@std@@@std@@@std@@QAE@PAPAVBNC_BaseClient@@PBU_Container_base12@1@@Z 100f8c20 f i BNC_BaseClient.obj
 0002:00035ce0       ??0?$_Vector_const_iterator@V?$_Vector_val@U?$_Simple_types@PAVCWnd@@@std@@@std@@@std@@QAE@ABV01@@Z 100f8ce0 f i BNC_BaseClient.obj
 0002:00035d50       ??0?$_Vector_const_iterator@V?$_Vector_val@U?$_Simple_types@PAVCWnd@@@std@@@std@@@std@@QAE@PAPAVCWnd@@PBU_Container_base12@1@@Z 100f8d50 f i BNC_BaseClient.obj
 0002:00035e10       ??0?$_Vector_iterator@V?$_Vector_val@U?$_Simple_types@PAVBNC_BaseClient@@@std@@@std@@@std@@QAE@PAPAVBNC_BaseClient@@PBU_Container_base12@1@@Z 100f8e10 f i BNC_BaseClient.obj
 0002:00035e70       ??0?$_Vector_iterator@V?$_Vector_val@U?$_Simple_types@PAVCWnd@@@std@@@std@@@std@@QAE@PAPAVCWnd@@PBU_Container_base12@1@@Z 100f8e70 f i BNC_BaseClient.obj
 0002:00035ed0       ??0?$_Vector_val@U?$_Simple_types@PAVBNC_BaseClient@@@std@@@std@@QAE@XZ 100f8ed0 f i BNC_BaseClient.obj
 0002:00035f60       ??0?$_Vector_val@U?$_Simple_types@PAVCWnd@@@std@@@std@@QAE@XZ 100f8f60 f i BNC_BaseClient.obj
 0002:00035ff0       ??0?$_Wrap_alloc@V?$allocator@PAVBNC_BaseClient@@@std@@@std@@QAE@XZ 100f8ff0 f i BNC_BaseClient.obj
 0002:00036050       ??0?$_Wrap_alloc@V?$allocator@PAVCWnd@@@std@@@std@@QAE@XZ 100f9050 f i BNC_BaseClient.obj
 0002:000360b0       ??0?$allocator@PAVBNC_BaseClient@@@std@@QAE@XZ 100f90b0 f i BNC_BaseClient.obj
 0002:000360f0       ??0?$allocator@PAVCWnd@@@std@@QAE@XZ 100f90f0 f i BNC_BaseClient.obj
 0002:00036130       ??0?$vector@PAVBNC_BaseClient@@V?$allocator@PAVBNC_BaseClient@@@std@@@std@@QAE@XZ 100f9130 f i BNC_BaseClient.obj
 0002:000361a0       ??0?$vector@PAVCWnd@@V?$allocator@PAVCWnd@@@std@@@std@@QAE@XZ 100f91a0 f i BNC_BaseClient.obj
 0002:00036210       ??0BNC_BaseClient@@QAE@XZ  100f9210 f   BNC_BaseClient.obj
 0002:00036520       ??0CPoint@@QAE@HH@Z        100f9520 f i BNC_BaseClient.obj
 0002:00036570       ??0CRect@@QAE@HHHH@Z       100f9570 f i BNC_BaseClient.obj
 0002:000365e0       ??0CRect@@QAE@XZ           100f95e0 f i BNC_BaseClient.obj
 0002:00036650       ??0CSize@@QAE@HH@Z         100f9650 f i BNC_BaseClient.obj
 0002:000366a0       ??0CSize@@QAE@XZ           100f96a0 f i BNC_BaseClient.obj
 0002:000366f0       ??1?$_Iterator012@Urandom_access_iterator_tag@std@@PAVBNC_BaseClient@@HPBQAV3@ABQAV3@U_Iterator_base12@2@@std@@QAE@XZ 100f96f0 f i BNC_BaseClient.obj
 0002:00036740       ??1?$_Iterator012@Urandom_access_iterator_tag@std@@PAVCWnd@@HPBQAV3@ABQAV3@U_Iterator_base12@2@@std@@QAE@XZ 100f9740 f i BNC_BaseClient.obj
 0002:00036790       ??1?$_Vector_alloc@$0A@U?$_Vec_base_types@PAVBNC_BaseClient@@V?$allocator@PAVBNC_BaseClient@@@std@@@std@@@std@@QAE@XZ 100f9790 f i BNC_BaseClient.obj
 0002:000367f0       ??1?$_Vector_alloc@$0A@U?$_Vec_base_types@PAVCWnd@@V?$allocator@PAVCWnd@@@std@@@std@@@std@@QAE@XZ 100f97f0 f i BNC_BaseClient.obj
 0002:00036850       ??1?$_Vector_const_iterator@V?$_Vector_val@U?$_Simple_types@PAVBNC_BaseClient@@@std@@@std@@@std@@QAE@XZ 100f9850 f i BNC_BaseClient.obj
 0002:000368a0       ??1?$_Vector_const_iterator@V?$_Vector_val@U?$_Simple_types@PAVCWnd@@@std@@@std@@@std@@QAE@XZ 100f98a0 f i BNC_BaseClient.obj
 0002:000368f0       ??1?$_Vector_iterator@V?$_Vector_val@U?$_Simple_types@PAVBNC_BaseClient@@@std@@@std@@@std@@QAE@XZ 100f98f0 f i BNC_BaseClient.obj
 0002:00036940       ??1?$_Vector_iterator@V?$_Vector_val@U?$_Simple_types@PAVCWnd@@@std@@@std@@@std@@QAE@XZ 100f9940 f i BNC_BaseClient.obj
 0002:00036990       ??1?$_Vector_val@U?$_Simple_types@PAVBNC_BaseClient@@@std@@@std@@QAE@XZ 100f9990 f i BNC_BaseClient.obj
 0002:000369f0       ??1?$_Vector_val@U?$_Simple_types@PAVCWnd@@@std@@@std@@QAE@XZ 100f99f0 f i BNC_BaseClient.obj
 0002:00036a50       ??1?$vector@PAVBNC_BaseClient@@V?$allocator@PAVBNC_BaseClient@@@std@@@std@@QAE@XZ 100f9a50 f i BNC_BaseClient.obj
 0002:00036ab0       ??1?$vector@PAVCWnd@@V?$allocator@PAVCWnd@@@std@@@std@@QAE@XZ 100f9ab0 f i BNC_BaseClient.obj
 0002:00036b10       ??1BNC_BaseClient@@UAE@XZ  100f9b10 f   BNC_BaseClient.obj
 0002:00036d20       ??4?$_Iterator012@Urandom_access_iterator_tag@std@@PAVBNC_BaseClient@@HPBQAV3@ABQAV3@U_Iterator_base12@2@@std@@QAEAAU01@ABU01@@Z 100f9d20 f i BNC_BaseClient.obj
 0002:00036d80       ??4?$_Vector_const_iterator@V?$_Vector_val@U?$_Simple_types@PAVBNC_BaseClient@@@std@@@std@@@std@@QAEAAV01@ABV01@@Z 100f9d80 f i BNC_BaseClient.obj
 0002:00036df0       ??4?$_Vector_iterator@V?$_Vector_val@U?$_Simple_types@PAVBNC_BaseClient@@@std@@@std@@@std@@QAEAAV01@ABV01@@Z 100f9df0 f i BNC_BaseClient.obj
 0002:00036e50       ??8?$_Vector_const_iterator@V?$_Vector_val@U?$_Simple_types@PAVBNC_BaseClient@@@std@@@std@@@std@@QBE_NABV01@@Z 100f9e50 f i BNC_BaseClient.obj
 0002:00036ee0       ??8?$_Vector_const_iterator@V?$_Vector_val@U?$_Simple_types@PAVCWnd@@@std@@@std@@@std@@QBE_NABV01@@Z 100f9ee0 f i BNC_BaseClient.obj
 0002:00036f70       ??8CSize@@QBEHUtagSIZE@@@Z 100f9f70 f i BNC_BaseClient.obj
 0002:00036ff0       ??9?$_Vector_const_iterator@V?$_Vector_val@U?$_Simple_types@PAVBNC_BaseClient@@@std@@@std@@@std@@QBE_NABV01@@Z 100f9ff0 f i BNC_BaseClient.obj
 0002:00037080       ??9?$_Vector_const_iterator@V?$_Vector_val@U?$_Simple_types@PAVCWnd@@@std@@@std@@@std@@QBE_NABV01@@Z 100fa080 f i BNC_BaseClient.obj
 0002:00037110       ??A?$vector@PAVBNC_BaseClient@@V?$allocator@PAVBNC_BaseClient@@@std@@@std@@QAEAAPAVBNC_BaseClient@@I@Z 100fa110 f i BNC_BaseClient.obj
 0002:00037230       ??A?$vector@PAVCWnd@@V?$allocator@PAVCWnd@@@std@@@std@@QAEAAPAVCWnd@@I@Z 100fa230 f i BNC_BaseClient.obj
 0002:00037350       ??D?$_Vector_const_iterator@V?$_Vector_val@U?$_Simple_types@PAVBNC_BaseClient@@@std@@@std@@@std@@QBEABQAVBNC_BaseClient@@XZ 100fa350 f i BNC_BaseClient.obj
 0002:00037490       ??D?$_Vector_const_iterator@V?$_Vector_val@U?$_Simple_types@PAVCWnd@@@std@@@std@@@std@@QBEABQAVCWnd@@XZ 100fa490 f i BNC_BaseClient.obj
 0002:000375d0       ??D?$_Vector_iterator@V?$_Vector_val@U?$_Simple_types@PAVBNC_BaseClient@@@std@@@std@@@std@@QBEAAPAVBNC_BaseClient@@XZ 100fa5d0 f i BNC_BaseClient.obj
 0002:00037620       ??D?$_Vector_iterator@V?$_Vector_val@U?$_Simple_types@PAVCWnd@@@std@@@std@@@std@@QBEAAPAVCWnd@@XZ 100fa620 f i BNC_BaseClient.obj
 0002:00037670       ??E?$_Vector_const_iterator@V?$_Vector_val@U?$_Simple_types@PAVBNC_BaseClient@@@std@@@std@@@std@@QAEAAV01@XZ 100fa670 f i BNC_BaseClient.obj
 0002:000377a0       ??E?$_Vector_iterator@V?$_Vector_val@U?$_Simple_types@PAVBNC_BaseClient@@@std@@@std@@@std@@QAEAAV01@XZ 100fa7a0 f i BNC_BaseClient.obj
 0002:00037800       ??_EBNC_BaseClient@@UAEPAXI@Z 100fa800 f i BNC_BaseClient.obj
 0002:000378c0       ??_GBNC_BaseClient@@UAEPAXI@Z 100fa8c0 f i BNC_BaseClient.obj
 0002:00037930       ?Animation@BNC_BaseClient@@QAEX_NN@Z 100fa930 f   BNC_BaseClient.obj
 0002:00037970       ?CheckTitlebarEvent@BNC_BaseClient@@QAE_NIJ@Z 100fa970 f   BNC_BaseClient.obj
 0002:00037a20       ?CopyDC@BNC_BaseClient@@QAEXPAVCDC@@@Z 100faa20 f   BNC_BaseClient.obj
 0002:00037bf0       ?CopyIntersectMemDC@BNC_BaseClient@@QAE_NPAUHWND__@@PAVCDC@@@Z 100fabf0 f   BNC_BaseClient.obj
 0002:00037e20       ?Create@BNC_BaseClient@@MAEHPB_W0KABUtagRECT@@PAVCWnd@@IPAUCCreateContext@@@Z 100fae20 f   BNC_BaseClient.obj
 0002:00037e60       ?CreateChild@BNC_BaseClient@@QAE_NPAV1@@Z 100fae60 f   BNC_BaseClient.obj
 0002:00037f10       ?CreateEx@BNC_BaseClient@@MAEHKPB_W0KABUtagRECT@@PAVCWnd@@IPAX@Z 100faf10 f   BNC_BaseClient.obj
 0002:00037f50       ?CreateRoot@BNC_BaseClient@@QAE_NPAVBNC_BaseDialog@@@Z 100faf50 f   BNC_BaseClient.obj
 0002:00037fb0       ?DefWindowProcW@BNC_BaseClient@@UAEJIIJ@Z 100fafb0 f   BNC_BaseClient.obj
 0002:000383c0       ?Draw@BNC_BaseClient@@QAEXPAVCDC@@PAUtagRECT@@@Z 100fb3c0 f   BNC_BaseClient.obj
 0002:00038870       ?EraseChildClient@BNC_BaseClient@@IAEXPAV1@@Z 100fb870 f   BNC_BaseClient.obj
 0002:00038d60       ?GetAliveCount@BNC_BaseClient@@SAIXZ 100fbd60 f   BNC_BaseClient.obj
 0002:00038da0       ?GetClientSize@BNC_BaseClient@@QAE?AVCSize@@XZ 100fbda0 f   BNC_BaseClient.obj
 0002:00038e00       ?GetCreateCount@BNC_BaseClient@@SAIXZ 100fbe00 f   BNC_BaseClient.obj
 0002:00038e40       ?GetCurrentTabstop@BNC_BaseClient@@IAEPAVCWnd@@XZ 100fbe40 f   BNC_BaseClient.obj
 0002:00038ed0       ?GetDeferChildCount@BNC_BaseClient@@UAEIXZ 100fbed0 f   BNC_BaseClient.obj
 0002:00038f10       ?GetLayeredWindowAttributes@CWnd@@QBEHPAKPAE0@Z 100fbf10 f i BNC_BaseClient.obj
 0002:00038fd0       ?GetMemDC@BNC_BaseClient@@QAEPAVCDC@@XZ 100fbfd0 f   BNC_BaseClient.obj
 0002:00039010       ?GetMessageMap@BNC_BaseClient@@MBEPBUAFX_MSGMAP@@XZ 100fc010 f   BNC_BaseClient.obj
 0002:00039060       ?GetOldPopupHwnd@BNC_BaseClient@@QAEPAUHWND__@@XZ 100fc060 f   BNC_BaseClient.obj
 0002:000390d0       ?GetOldPopupPtr@BNC_BaseClient@@QAEPAVBNC_BaseDialog@@XZ 100fc0d0 f   BNC_BaseClient.obj
 0002:00039110       ?GetParentClientPtr@BNC_BaseClient@@QAEPAV1@XZ 100fc110 f   BNC_BaseClient.obj
 0002:00039150       ?GetPopupHwnd@BNC_BaseClient@@QAEPAUHWND__@@XZ 100fc150 f   BNC_BaseClient.obj
 0002:000391c0       ?GetPopupPtr@BNC_BaseClient@@QAEPAVBNC_BaseDialog@@XZ 100fc1c0 f   BNC_BaseClient.obj
 0002:00039200       ?GetRuntimeClass@BNC_BaseClient@@UBEPAUCRuntimeClass@@XZ 100fc200 f   BNC_BaseClient.obj
 0002:00039240       ?GetSyncWindowPosFlag@BNC_BaseClient@@QAEIXZ 100fc240 f   BNC_BaseClient.obj
 0002:000392d0       ?GetSyncWindowPosFlags@BNC_BaseClient@@QAEIK@Z 100fc2d0 f   BNC_BaseClient.obj
 0002:00039330       ?GetThisClass@BNC_BaseClient@@SGPAUCRuntimeClass@@XZ 100fc330 f   BNC_BaseClient.obj
 0002:00039370       ?GetThisMessageMap@BNC_BaseClient@@KGPBUAFX_MSGMAP@@XZ 100fc370 f   BNC_BaseClient.obj
 0002:000393b0       ?GetThreadID@BNC_BaseClient@@QAEKXZ 100fc3b0 f   BNC_BaseClient.obj
 0002:00039450       ?Height@CRect@@QBEHXZ      100fc450 f i BNC_BaseClient.obj
 0002:000394a0       ?IntersectRect@CRect@@QAEHPBUtagRECT@@0@Z 100fc4a0 f i BNC_BaseClient.obj
 0002:00039510       ?OnButtonStateAnimation@BNC_BaseClient@@UAE_NGM@Z 100fc510 f   BNC_BaseClient.obj
 0002:00039550       ?OnCreate@BNC_BaseClient@@EAE_NXZ 100fc550 f   BNC_BaseClient.obj
 0002:00039590       ?OnDeferWindowPos@BNC_BaseClient@@UAEXPAXPAUHWND__@@HHHHI@Z 100fc590 f   BNC_BaseClient.obj
 0002:000395d0       ?OnDestroyBlock@BNC_BaseClient@@MAEJIJ@Z 100fc5d0 f   BNC_BaseClient.obj
 0002:00039610       ?OnDraw@BNC_BaseClient@@EAE_NPAVCDC@@0@Z 100fc610 f   BNC_BaseClient.obj
 0002:00039650       ?OnDrawButton@BNC_BaseClient@@UAEXGPAVCDC@@0PAVGraphics@Gdiplus@@HVCSize@@@Z 100fc650 f   BNC_BaseClient.obj
 0002:00039690       ?OnDrawChildClient@BNC_BaseClient@@UAEXPBV1@PAVCDC@@1VCSize@@@Z 100fc690 f   BNC_BaseClient.obj
 0002:000396d0       ?OnDrawListNoData@BNC_BaseClient@@UAE_NIPAVCDC@@0VCSize@@@Z 100fc6d0 f   BNC_BaseClient.obj
 0002:00039710       ?OnDrawSlider@BNC_BaseClient@@UAE_NIPAVCDC@@0PAVBNC_MouseControl@@AAVCRect@@2_N2@Z 100fc710 f   BNC_BaseClient.obj
 0002:00039750       ?OnDrawTab@BNC_BaseClient@@UAEXIIPAVCDC@@0PAVGraphics@Gdiplus@@H_NVCSize@@@Z 100fc750 f   BNC_BaseClient.obj
 0002:00039790       ?OnMessageButton@BNC_BaseClient@@MAEJIJ@Z 100fc790 f   BNC_BaseClient.obj
 0002:00039840       ?OnMessageClient@BNC_BaseClient@@MAEJIJ@Z 100fc840 f   BNC_BaseClient.obj
 0002:000398d0       ?OnMessageCombo@BNC_BaseClient@@MAEJIJ@Z 100fc8d0 f   BNC_BaseClient.obj
 0002:00039960       ?OnMessageContextMenu@BNC_BaseClient@@MAEJIJ@Z 100fc960 f   BNC_BaseClient.obj
 0002:000399f0       ?OnMessageEdit@BNC_BaseClient@@MAEJIJ@Z 100fc9f0 f   BNC_BaseClient.obj
 0002:00039a80       ?OnMessageFButton@BNC_BaseClient@@MAEJIJ@Z 100fca80 f   BNC_BaseClient.obj
 0002:00039b10       ?OnMessageHtmlWebEvent@BNC_BaseClient@@MAEJIJ@Z 100fcb10 f   BNC_BaseClient.obj
 0002:00039ba0       ?OnMessageList@BNC_BaseClient@@MAEJIJ@Z 100fcba0 f   BNC_BaseClient.obj
 0002:00039c30       ?OnMessageNotify@BNC_BaseClient@@MAEJIJ@Z 100fcc30 f   BNC_BaseClient.obj
 0002:00039cc0       ?OnMessageProgress@BNC_BaseClient@@MAEJIJ@Z 100fccc0 f   BNC_BaseClient.obj
 0002:00039d50       ?OnMessageResizeClient@BNC_BaseClient@@MAEJIJ@Z 100fcd50 f   BNC_BaseClient.obj
 0002:00039d90       ?OnMessageScroll@BNC_BaseClient@@MAEJIJ@Z 100fcd90 f   BNC_BaseClient.obj
 0002:00039e20       ?OnMessageSlider@BNC_BaseClient@@MAEJIJ@Z 100fce20 f   BNC_BaseClient.obj
 0002:00039eb0       ?OnMessageSystray@BNC_BaseClient@@MAEJIJ@Z 100fceb0 f   BNC_BaseClient.obj
 0002:00039f40       ?OnMessageTab@BNC_BaseClient@@MAEJIJ@Z 100fcf40 f   BNC_BaseClient.obj
 0002:00039fd0       ?OnMessageTabstop@BNC_BaseClient@@MAEJIJ@Z 100fcfd0 f   BNC_BaseClient.obj
 0002:0003a130       ?OnMessageTree@BNC_BaseClient@@MAEJIJ@Z 100fd130 f   BNC_BaseClient.obj
 0002:0003a1c0       ?OnModifyPopupPtr@BNC_BaseClient@@EAEXPAVBNC_BaseDialog@@@Z 100fd1c0 f   BNC_BaseClient.obj
 0002:0003a200       ?OnNotifyKeyDown@BNC_BaseClient@@UAE_NI@Z 100fd200 f   BNC_BaseClient.obj
 0002:0003a2a0       ?OnNotifyMouseWheel@BNC_BaseClient@@UAEXIF@Z 100fd2a0 f   BNC_BaseClient.obj
 0002:0003a320       ?OnPopupMinMaxInfo@BNC_BaseClient@@UAE_NPAUtagMINMAXINFO@@@Z 100fd320 f   BNC_BaseClient.obj
 0002:0003a360       ?OnPreVisibleComboList@BNC_BaseClient@@UAE_NIAAVBNC_PopupMenu@@H@Z 100fd360 f   BNC_BaseClient.obj
 0002:0003a3a0       ?OnRedraw@BNC_BaseClient@@UAEX_N@Z 100fd3a0 f   BNC_BaseClient.obj
 0002:0003a530       ?OnSelectClient@BNC_BaseClient@@EAEXPAV1@@Z 100fd530 f   BNC_BaseClient.obj
 0002:0003a570       ?OnTopWndEnable@BNC_BaseClient@@UAEXH@Z 100fd570 f   BNC_BaseClient.obj
 0002:0003a640       ?OnUpdateClient@BNC_BaseClient@@EAEXHH@Z 100fd640 f   BNC_BaseClient.obj
 0002:0003a680       ?OnUpdatePopupStatus@BNC_BaseClient@@MAEXW4BNE_POPUP_STATUS@@@Z 100fd680 f   BNC_BaseClient.obj
 0002:0003a6c0       ?PreTranslateMessage@BNC_BaseClient@@MAEHPAUtagMSG@@@Z 100fd6c0 f   BNC_BaseClient.obj
 0002:0003a780       ?SendMouseEventToPopup@BNC_BaseClient@@AAEJIIAAVCPoint@@@Z 100fd780 f   BNC_BaseClient.obj
 0002:0003a9d0       ?SendPopupSyscommand@BNC_BaseClient@@IAEJI@Z 100fd9d0 f   BNC_BaseClient.obj
 0002:0003ac70       ?SetChildTabFocus@BNC_BaseClient@@QAEPAVCWnd@@XZ 100fdc70 f   BNC_BaseClient.obj
 0002:0003ad60       ?SetNextTabstopFocus@BNC_BaseClient@@IAEXXZ 100fdd60 f   BNC_BaseClient.obj
 0002:0003aea0       ?SetPopupParentPtr@BNC_BaseClient@@QAE_NPAVBNC_BaseDialog@@@Z 100fdea0 f   BNC_BaseClient.obj
 0002:0003b090       ?SetSelectClient@BNC_BaseClient@@IAE_NPAV1@@Z 100fe090 f   BNC_BaseClient.obj
 0002:0003b230       ?SetWindowPosEx@BNC_BaseClient@@QAEXPBVCWnd@@HHHHI@Z 100fe230 f   BNC_BaseClient.obj
 0002:0003b2b0       ?UpdateClient@BNC_BaseClient@@AAEXHH@Z 100fe2b0 f   BNC_BaseClient.obj
 0002:0003b390       ?UpdatePopupPtr@BNC_BaseClient@@AAEXPAVBNC_BaseDialog@@@Z 100fe390 f   BNC_BaseClient.obj
 0002:0003b600       ?UpdatePopupStatus@BNC_BaseClient@@QAEXW4BNE_POPUP_STATUS@@@Z 100fe600 f   BNC_BaseClient.obj
 0002:0003b700       ?Width@CRect@@QBEHXZ       100fe700 f i BNC_BaseClient.obj
 0002:0003b750       ?_Alloc_proxy@?$_Vector_alloc@$0A@U?$_Vec_base_types@PAVBNC_BaseClient@@V?$allocator@PAVBNC_BaseClient@@@std@@@std@@@std@@QAEXXZ 100fe750 f i BNC_BaseClient.obj
 0002:0003b840       ?_Alloc_proxy@?$_Vector_alloc@$0A@U?$_Vec_base_types@PAVCWnd@@V?$allocator@PAVCWnd@@@std@@@std@@@std@@QAEXXZ 100fe840 f i BNC_BaseClient.obj
 0002:0003b930       ?_Compat@?$_Vector_const_iterator@V?$_Vector_val@U?$_Simple_types@PAVBNC_BaseClient@@@std@@@std@@@std@@QBEXABV12@@Z 100fe930 f i BNC_BaseClient.obj
 0002:0003ba50       ?_Compat@?$_Vector_const_iterator@V?$_Vector_val@U?$_Simple_types@PAVCWnd@@@std@@@std@@@std@@QBEXABV12@@Z 100fea50 f i BNC_BaseClient.obj
 0002:0003bb70       ?_Destroy@?$vector@PAVBNC_BaseClient@@V?$allocator@PAVBNC_BaseClient@@@std@@@std@@IAEXPAPAVBNC_BaseClient@@0@Z 100feb70 f i BNC_BaseClient.obj
 0002:0003bc40       ?_Destroy@?$vector@PAVCWnd@@V?$allocator@PAVCWnd@@@std@@@std@@IAEXPAPAVCWnd@@0@Z 100fec40 f i BNC_BaseClient.obj
 0002:0003bd10       ?_Free_proxy@?$_Vector_alloc@$0A@U?$_Vec_base_types@PAVBNC_BaseClient@@V?$allocator@PAVBNC_BaseClient@@@std@@@std@@@std@@QAEXXZ 100fed10 f i BNC_BaseClient.obj
 0002:0003be00       ?_Free_proxy@?$_Vector_alloc@$0A@U?$_Vec_base_types@PAVCWnd@@V?$allocator@PAVCWnd@@@std@@@std@@@std@@QAEXXZ 100fee00 f i BNC_BaseClient.obj
 0002:0003bef0       ?_Getal@?$_Vector_alloc@$0A@U?$_Vec_base_types@PAVBNC_BaseClient@@V?$allocator@PAVBNC_BaseClient@@@std@@@std@@@std@@QBE?AU?$_Wrap_alloc@V?$allocator@PAVBNC_BaseClient@@@std@@@2@XZ 100feef0 f i BNC_BaseClient.obj
 0002:0003bf50       ?_Getal@?$_Vector_alloc@$0A@U?$_Vec_base_types@PAVCWnd@@V?$allocator@PAVCWnd@@@std@@@std@@@std@@QBE?AU?$_Wrap_alloc@V?$allocator@PAVCWnd@@@std@@@2@XZ 100fef50 f i BNC_BaseClient.obj
 0002:0003bfb0       ?_Grow_to@?$vector@PAVBNC_BaseClient@@V?$allocator@PAVBNC_BaseClient@@@std@@@std@@IBEII@Z 100fefb0 f i BNC_BaseClient.obj
 0002:0003c060       ?_Inside@?$vector@PAVBNC_BaseClient@@V?$allocator@PAVBNC_BaseClient@@@std@@@std@@IBE_NPBQAVBNC_BaseClient@@@Z 100ff060 f i BNC_BaseClient.obj
 0002:0003c0e0       ?_Make_iter@?$vector@PAVBNC_BaseClient@@V?$allocator@PAVBNC_BaseClient@@@std@@@std@@QBE?AV?$_Vector_iterator@V?$_Vector_val@U?$_Simple_types@PAVBNC_BaseClient@@@std@@@std@@@2@V?$_Vector_const_iterator@V?$_Vector_val@U?$_Simple_types@PAVBNC_BaseClient@@@std@@@std@@@2@@Z 100ff0e0 f i BNC_BaseClient.obj
 0002:0003c1b0       ?_Make_iter@?$vector@PAVCWnd@@V?$allocator@PAVCWnd@@@std@@@std@@QBE?AV?$_Vector_iterator@V?$_Vector_val@U?$_Simple_types@PAVCWnd@@@std@@@std@@@2@V?$_Vector_const_iterator@V?$_Vector_val@U?$_Simple_types@PAVCWnd@@@std@@@std@@@2@@Z 100ff1b0 f i BNC_BaseClient.obj
 0002:0003c280       ?_Orphan_range@?$vector@PAVBNC_BaseClient@@V?$allocator@PAVBNC_BaseClient@@@std@@@std@@IBEXPAPAVBNC_BaseClient@@0@Z 100ff280 f i BNC_BaseClient.obj
 0002:0003c410       ?_Orphan_range@?$vector@PAVCWnd@@V?$allocator@PAVCWnd@@@std@@@std@@IBEXPAPAVCWnd@@0@Z 100ff410 f i BNC_BaseClient.obj
 0002:0003c5a0       ?_Reallocate@?$vector@PAVBNC_BaseClient@@V?$allocator@PAVBNC_BaseClient@@@std@@@std@@IAEXI@Z 100ff5a0 f i BNC_BaseClient.obj
 0002:0003c780       ?_Reserve@?$vector@PAVBNC_BaseClient@@V?$allocator@PAVBNC_BaseClient@@@std@@@std@@IAEXI@Z 100ff780 f i BNC_BaseClient.obj
 0002:0003c830       ?_Tidy@?$vector@PAVBNC_BaseClient@@V?$allocator@PAVBNC_BaseClient@@@std@@@std@@IAEXXZ 100ff830 f i BNC_BaseClient.obj
 0002:0003c910       ?_Tidy@?$vector@PAVCWnd@@V?$allocator@PAVCWnd@@@std@@@std@@IAEXXZ 100ff910 f i BNC_BaseClient.obj
 0002:0003c9f0       ?_Unused_capacity@?$vector@PAVBNC_BaseClient@@V?$allocator@PAVBNC_BaseClient@@@std@@@std@@QBEIXZ 100ff9f0 f i BNC_BaseClient.obj
 0002:0003ca40       ?_Xlen@?$vector@PAVBNC_BaseClient@@V?$allocator@PAVBNC_BaseClient@@@std@@@std@@IBEXXZ 100ffa40 f i BNC_BaseClient.obj
 0002:0003caa0       ?__autoclassinit2@?$_Vector_iterator@V?$_Vector_val@U?$_Simple_types@PAVBNC_BaseClient@@@std@@@std@@@std@@QAEXI@Z 100ffaa0 f i BNC_BaseClient.obj
 0002:0003cb00       ?__autoclassinit2@?$_Vector_iterator@V?$_Vector_val@U?$_Simple_types@PAVCWnd@@@std@@@std@@@std@@QAEXI@Z 100ffb00 f i BNC_BaseClient.obj
 0002:0003cb60       ?__autoclassinit2@CBitmap@@QAEXI@Z 100ffb60 f i BNC_BaseClient.obj
 0002:0003cbc0       ?__autoclassinit2@CClientDC@@QAEXI@Z 100ffbc0 f i BNC_BaseClient.obj
 0002:0003cc20       ?__autoclassinit2@CDC@@QAEXI@Z 100ffc20 f i BNC_BaseClient.obj
 0002:0003cc80       ?__autoclassinit2@CPaintDC@@QAEXI@Z 100ffc80 f i BNC_BaseClient.obj
 0002:0003cce0       ?__autoclassinit2@CRgn@@QAEXI@Z 100ffce0 f i BNC_BaseClient.obj
 0002:0003cd40       ?allocate@?$_Wrap_alloc@V?$allocator@PAVBNC_BaseClient@@@std@@@std@@QAEPAPAVBNC_BaseClient@@I@Z 100ffd40 f i BNC_BaseClient.obj
 0002:0003cda0       ?allocate@?$allocator@PAVBNC_BaseClient@@@std@@QAEPAPAVBNC_BaseClient@@I@Z 100ffda0 f i BNC_BaseClient.obj
 0002:0003ce00       ?begin@?$vector@PAVBNC_BaseClient@@V?$allocator@PAVBNC_BaseClient@@@std@@@std@@QAE?AV?$_Vector_iterator@V?$_Vector_val@U?$_Simple_types@PAVBNC_BaseClient@@@std@@@std@@@2@XZ 100ffe00 f i BNC_BaseClient.obj
 0002:0003ce70       ?begin@?$vector@PAVCWnd@@V?$allocator@PAVCWnd@@@std@@@std@@QAE?AV?$_Vector_iterator@V?$_Vector_val@U?$_Simple_types@PAVCWnd@@@std@@@std@@@2@XZ 100ffe70 f i BNC_BaseClient.obj
 0002:0003cee0       ?capacity@?$vector@PAVBNC_BaseClient@@V?$allocator@PAVBNC_BaseClient@@@std@@@std@@QBEIXZ 100ffee0 f i BNC_BaseClient.obj
 0002:0003cf30       ?clear@?$vector@PAVBNC_BaseClient@@V?$allocator@PAVBNC_BaseClient@@@std@@@std@@QAEXXZ 100fff30 f i BNC_BaseClient.obj
 0002:0003cfc0       ?clear@?$vector@PAVCWnd@@V?$allocator@PAVCWnd@@@std@@@std@@QAEXXZ 100fffc0 f i BNC_BaseClient.obj
 0002:0003d050       ?construct@?$allocator@PAVBNC_BaseClient@@@std@@QAEXPAPAVBNC_BaseClient@@ABQAV3@@Z 10100050 f i BNC_BaseClient.obj
 0002:0003d0f0       ?create@BNC_BaseClient@@AAE_NPAVCWnd@@@Z 101000f0 f   BNC_BaseClient.obj
 0002:0003d2f0       ?deallocate@?$_Wrap_alloc@V?$allocator@PAVBNC_BaseClient@@@std@@@std@@QAEXPAPAVBNC_BaseClient@@I@Z 101002f0 f i BNC_BaseClient.obj
 0002:0003d350       ?deallocate@?$_Wrap_alloc@V?$allocator@PAVCWnd@@@std@@@std@@QAEXPAPAVCWnd@@I@Z 10100350 f i BNC_BaseClient.obj
 0002:0003d3b0       ?deallocate@?$allocator@PAVBNC_BaseClient@@@std@@QAEXPAPAVBNC_BaseClient@@I@Z 101003b0 f i BNC_BaseClient.obj
 0002:0003d410       ?deallocate@?$allocator@PAVCWnd@@@std@@QAEXPAPAVCWnd@@I@Z 10100410 f i BNC_BaseClient.obj
 0002:0003d470       ?end@?$vector@PAVBNC_BaseClient@@V?$allocator@PAVBNC_BaseClient@@@std@@@std@@QAE?AV?$_Vector_iterator@V?$_Vector_val@U?$_Simple_types@PAVBNC_BaseClient@@@std@@@std@@@2@XZ 10100470 f i BNC_BaseClient.obj
 0002:0003d4e0       ?end@?$vector@PAVCWnd@@V?$allocator@PAVCWnd@@@std@@@std@@QAE?AV?$_Vector_iterator@V?$_Vector_val@U?$_Simple_types@PAVCWnd@@@std@@@std@@@2@XZ 101004e0 f i BNC_BaseClient.obj
 0002:0003d550       ?erase@?$vector@PAVBNC_BaseClient@@V?$allocator@PAVBNC_BaseClient@@@std@@@std@@QAE?AV?$_Vector_iterator@V?$_Vector_val@U?$_Simple_types@PAVBNC_BaseClient@@@std@@@std@@@2@V?$_Vector_const_iterator@V?$_Vector_val@U?$_Simple_types@PAVBNC_BaseClient@@@std@@@std@@@2@@Z 10100550 f i BNC_BaseClient.obj
 0002:0003d700       ?erase@?$vector@PAVCWnd@@V?$allocator@PAVCWnd@@@std@@@std@@QAE?AV?$_Vector_iterator@V?$_Vector_val@U?$_Simple_types@PAVCWnd@@@std@@@std@@@2@V?$_Vector_const_iterator@V?$_Vector_val@U?$_Simple_types@PAVCWnd@@@std@@@std@@@2@@Z 10100700 f i BNC_BaseClient.obj
 0002:0003d8b0       ?max_size@?$_Wrap_alloc@V?$allocator@PAVBNC_BaseClient@@@std@@@std@@QBEIXZ 101008b0 f i BNC_BaseClient.obj
 0002:0003d910       ?max_size@?$allocator@PAVBNC_BaseClient@@@std@@QBEIXZ 10100910 f i BNC_BaseClient.obj
 0002:0003d950       ?max_size@?$allocator_traits@V?$allocator@PAVBNC_BaseClient@@@std@@@std@@SAIABV?$allocator@PAVBNC_BaseClient@@@2@@Z 10100950 f i BNC_BaseClient.obj
 0002:0003d9a0       ?max_size@?$vector@PAVBNC_BaseClient@@V?$allocator@PAVBNC_BaseClient@@@std@@@std@@QBEIXZ 101009a0 f i BNC_BaseClient.obj
 0002:0003da00       ?push_back@?$vector@PAVBNC_BaseClient@@V?$allocator@PAVBNC_BaseClient@@@std@@@std@@QAEXABQAVBNC_BaseClient@@@Z 10100a00 f i BNC_BaseClient.obj
 0002:0003db90       ?size@?$vector@PAVBNC_BaseClient@@V?$allocator@PAVBNC_BaseClient@@@std@@@std@@QBEIXZ 10100b90 f i BNC_BaseClient.obj
 0002:0003dbe0       ?size@?$vector@PAVCWnd@@V?$allocator@PAVCWnd@@@std@@@std@@QBEIXZ 10100be0 f i BNC_BaseClient.obj
 0002:0003dc30       ?_GetBaseClass@BNC_BaseControl@@KGPAUCRuntimeClass@@XZ 10100c30 f   BNC_BaseControl.obj
 0002:0003dc80       ?OnCreate@BNC_BaseControl@@QAEHPAUtagCREATESTRUCTW@@@Z 10100c80 f   BNC_BaseControl.obj
 0002:0003dd00       ?OnDestroy@BNC_BaseControl@@QAEXXZ 10100d00 f   BNC_BaseControl.obj
 0002:0003de60       ?OnEraseBkgnd@BNC_BaseControl@@QAEHPAVCDC@@@Z 10100e60 f   BNC_BaseControl.obj
 0002:0003dea0       ?OnPaint@BNC_BaseControl@@QAEXXZ 10100ea0 f   BNC_BaseControl.obj
 0002:0003dfb0       ?OnSize@BNC_BaseControl@@QAEXIHH@Z 10100fb0 f   BNC_BaseControl.obj
 0002:0003e0a0       ?OnLButtonDown@BNC_BaseControl@@QAEXIVCPoint@@@Z 101010a0 f   BNC_BaseControl.obj
 0002:0003e1d0       ?OnLButtonUp@BNC_BaseControl@@QAEXIVCPoint@@@Z 101011d0 f   BNC_BaseControl.obj
 0002:0003e2d0       ?OnRButtonDown@BNC_BaseControl@@QAEXIVCPoint@@@Z 101012d0 f   BNC_BaseControl.obj
 0002:0003e360       ?OnMouseMove@BNC_BaseControl@@QAEXIVCPoint@@@Z 10101360 f   BNC_BaseControl.obj
 0002:0003e490       ?OnCaptureChanged@BNC_BaseControl@@QAEXPAVCWnd@@@Z 10101490 f   BNC_BaseControl.obj
 0002:0003e570       ?OnLButtonDblClk@BNC_BaseControl@@QAEXIVCPoint@@@Z 10101570 f   BNC_BaseControl.obj
 0002:0003e600       ??0BNC_BaseControl@@QAE@XZ 10101600 f   BNC_BaseControl.obj
 0002:0003e7b0       ??1BNC_BaseControl@@UAE@XZ 101017b0 f   BNC_BaseControl.obj
 0002:0003e970       ??_EBNC_BaseControl@@UAEPAXI@Z 10101970 f i BNC_BaseControl.obj
 0002:0003ea30       ??_GBNC_BaseControl@@UAEPAXI@Z 10101a30 f i BNC_BaseControl.obj
 0002:0003eaa0       ??_GBNC_MouseControl@@QAEPAXI@Z 10101aa0 f i BNC_BaseControl.obj
 0002:0003eb10       ?CopyParentClientMemDC@BNC_BaseControl@@IAEXPAVCDC@@@Z 10101b10 f   BNC_BaseControl.obj
 0002:0003eb80       ?Create@BNC_BaseControl@@MAEHPB_W0KABUtagRECT@@PAVCWnd@@IPAUCCreateContext@@@Z 10101b80 f   BNC_BaseControl.obj
 0002:0003ebc0       ?CreateEx@BNC_BaseControl@@MAEHKPB_W0KABUtagRECT@@PAVCWnd@@IPAX@Z 10101bc0 f   BNC_BaseControl.obj
 0002:0003ec00       ?Draw@BNC_BaseControl@@QAEXPAVCDC@@@Z 10101c00 f   BNC_BaseControl.obj
 0002:0003ef40       ?GetAliveCount@BNC_BaseControl@@SAIXZ 10101f40 f   BNC_BaseControl.obj
 0002:0003ef80       ?GetCreateCount@BNC_BaseControl@@SAIXZ 10101f80 f   BNC_BaseControl.obj
 0002:0003efc0       ?GetMessageMap@BNC_BaseControl@@MBEPBUAFX_MSGMAP@@XZ 10101fc0 f   BNC_BaseControl.obj
 0002:0003f010       ?GetPopupHwnd@BNC_BaseControl@@QAEPAUHWND__@@XZ 10102010 f   BNC_BaseControl.obj
 0002:0003f090       ?GetPopupPtr@BNC_BaseControl@@QAEPAVBNC_BaseDialog@@XZ 10102090 f   BNC_BaseControl.obj
 0002:0003f110       ?GetRuntimeClass@BNC_BaseControl@@UBEPAUCRuntimeClass@@XZ 10102110 f   BNC_BaseControl.obj
 0002:0003f150       ?GetSyncWindowPosFlag@BNC_BaseControl@@QAEIXZ 10102150 f   BNC_BaseControl.obj
 0002:0003f1e0       ?GetSyncWindowPosFlags@BNC_BaseControl@@QAEIK@Z 101021e0 f   BNC_BaseControl.obj
 0002:0003f240       ?GetThisClass@BNC_BaseControl@@SGPAUCRuntimeClass@@XZ 10102240 f   BNC_BaseControl.obj
 0002:0003f280       ?GetThisMessageMap@BNC_BaseControl@@KGPBUAFX_MSGMAP@@XZ 10102280 f   BNC_BaseControl.obj
 0002:0003f2c0       ?GetThreadID@BNC_BaseControl@@QAEKXZ 101022c0 f   BNC_BaseControl.obj
 0002:0003f360       ?GetTooltipPtr@BNC_BaseControl@@QAEPAVCToolTipCtrl@@XZ 10102360 f   BNC_BaseControl.obj
 0002:0003f3a0       ?MotifyNotiWindow@BNC_BaseControl@@QAEXPAUHWND__@@@Z 101023a0 f   BNC_BaseControl.obj
 0002:0003f3f0       ?OnCreate@BNC_BaseControl@@EAE_NXZ 101023f0 f   BNC_BaseControl.obj
 0002:0003f430       ?OnDraw@BNC_BaseControl@@EAE_NPAVCDC@@0@Z 10102430 f   BNC_BaseControl.obj
 0002:0003f470       ?OnMouseControlUpdate@BNC_BaseControl@@EAEXW4BNE_MOUSESTATE@@AAVCPoint@@@Z 10102470 f   BNC_BaseControl.obj
 0002:0003f4c0       ?OnUpdateSize@BNC_BaseControl@@EAEXHH@Z 101024c0 f   BNC_BaseControl.obj
 0002:0003f500       ?PreTranslateMessage@BNC_BaseControl@@MAEHPAUtagMSG@@@Z 10102500 f   BNC_BaseControl.obj
 0002:0003f590       ?SendMouseEventToPopup@BNC_BaseControl@@QAEJIIAAVCPoint@@@Z 10102590 f   BNC_BaseControl.obj
 0002:0003f760       ?SetFocusCursor@BNC_BaseControl@@QAEXPAUHICON__@@@Z 10102760 f   BNC_BaseControl.obj
 0002:0003f7f0       ?SetWindowPosEx@BNC_BaseControl@@QAEXPBVCWnd@@HHHHI@Z 101027f0 f   BNC_BaseControl.obj
 0002:0003f870       ?create@BNC_BaseControl@@QAE_NPAVBNC_BaseClient@@GVCRect@@@Z 10102870 f   BNC_BaseControl.obj
 0002:0003fa00       ?createEx@BNC_BaseControl@@QAE_NPAVCWnd@@G@Z 10102a00 f   BNC_BaseControl.obj
 0002:0003fb50       ?createTooltip@BNC_BaseControl@@QAE_NV?$CStringT@_WV?$StrTraitMFC_DLL@_WV?$ChTraitsCRT@_W@ATL@@@@@ATL@@@Z 10102b50 f   BNC_BaseControl.obj
 0002:0003fbbe       ??_9BNC_BaseDialog@@$BBKA@AE 10102bbe f i BNC_BaseDialog.obj
 0002:0003fbc8       ??_9BNC_BaseDialog@@$BBKE@AE 10102bc8 f i BNC_BaseDialog.obj
 0002:0003fbd2       ??_9BNC_BaseDialog@@$BBKI@AE 10102bd2 f i BNC_BaseDialog.obj
 0002:0003fbdc       ??_9BNC_BaseDialog@@$BBKM@AE 10102bdc f i BNC_BaseDialog.obj
 0002:0003fbe6       ??_9BNC_BaseDialog@@$BBLA@AE 10102be6 f i BNC_BaseDialog.obj
 0002:0003fbf0       ??_9BNC_BaseDialog@@$BBLE@AE 10102bf0 f i BNC_BaseDialog.obj
 0002:0003fbfa       ??_9BNC_BaseDialog@@$BBLI@AE 10102bfa f i BNC_BaseDialog.obj
 0002:0003fc04       ??_9BNC_BaseDialog@@$BBMA@AE 10102c04 f i BNC_BaseDialog.obj
 0002:0003fc0e       ??_9BNC_BaseDialog@@$BBLM@AE 10102c0e f i BNC_BaseDialog.obj
 0002:0003fc18       ??_9BNC_BaseDialog@@$BBME@AE 10102c18 f i BNC_BaseDialog.obj
 0002:0003fc22       ??_9BNC_BaseDialog@@$BBMI@AE 10102c22 f i BNC_BaseDialog.obj
 0002:0003fc2c       ??_9BNC_BaseDialog@@$BBMM@AE 10102c2c f i BNC_BaseDialog.obj
 0002:0003fc36       ??_9BNC_BaseDialog@@$BBNA@AE 10102c36 f i BNC_BaseDialog.obj
 0002:0003fc40       ??_9BNC_BaseDialog@@$BBNE@AE 10102c40 f i BNC_BaseDialog.obj
 0002:0003fc4a       ??_9BNC_BaseDialog@@$BBNI@AE 10102c4a f i BNC_BaseDialog.obj
 0002:0003fc54       ??_9BNC_BaseDialog@@$BBNM@AE 10102c54 f i BNC_BaseDialog.obj
 0002:0003fc5e       ??_9BNC_BaseDialog@@$BBOA@AE 10102c5e f i BNC_BaseDialog.obj
 0002:0003fc68       ??_9BNC_BaseDialog@@$BBOE@AE 10102c68 f i BNC_BaseDialog.obj
 0002:0003fc72       ??_9BNC_BaseDialog@@$BBOI@AE 10102c72 f i BNC_BaseDialog.obj
 0002:0003fc7c       ??_9BNC_BaseDialog@@$BBPA@AE 10102c7c f i BNC_BaseDialog.obj
 0002:0003fc86       ??_9BNC_BaseDialog@@$BBPE@AE 10102c86 f i BNC_BaseDialog.obj
 0002:0003fc90       ??_9BNC_BaseDialog@@$BBOM@AE 10102c90 f i BNC_BaseDialog.obj
 0002:0003fca0       ?OnCreate@BNC_BaseDialog@@QAEHPAUtagCREATESTRUCTW@@@Z 10102ca0 f   BNC_BaseDialog.obj
 0002:0003fd10       ?OnDestroy@BNC_BaseDialog@@QAEXXZ 10102d10 f   BNC_BaseDialog.obj
 0002:0003fdf0       ?OnEraseBkgnd@BNC_BaseDialog@@QAEHPAVCDC@@@Z 10102df0 f   BNC_BaseDialog.obj
 0002:0003fe60       ?OnPaint@BNC_BaseDialog@@QAEXXZ 10102e60 f   BNC_BaseDialog.obj
 0002:0003ff70       ?OnActivate@BNC_BaseDialog@@QAEXIPAVCWnd@@H@Z 10102f70 f   BNC_BaseDialog.obj
 0002:00040340       ?OnSysCommand@BNC_BaseDialog@@QAEXIJ@Z 10103340 f   BNC_BaseDialog.obj
 0002:000408e0       ?OnGetMinMaxInfo@BNC_BaseDialog@@QAEXPAUtagMINMAXINFO@@@Z 101038e0 f   BNC_BaseDialog.obj
 0002:000409e0       ?OnSize@BNC_BaseDialog@@QAEXIHH@Z 101039e0 f   BNC_BaseDialog.obj
 0002:00040a60       ?OnSizing@BNC_BaseDialog@@QAEXIPAUtagRECT@@@Z 10103a60 f   BNC_BaseDialog.obj
 0002:00040af0       ?OnWindowPosChanging@BNC_BaseDialog@@QAEXPAUtagWINDOWPOS@@@Z 10103af0 f   BNC_BaseDialog.obj
 0002:00040d90       ?OnWindowPosChanged@BNC_BaseDialog@@QAEXPAUtagWINDOWPOS@@@Z 10103d90 f   BNC_BaseDialog.obj
 0002:00040e40       ?OnNcCalcSize@BNC_BaseDialog@@QAEXHPAUtagNCCALCSIZE_PARAMS@@@Z 10103e40 f   BNC_BaseDialog.obj
 0002:00041220       ?OnMouseMove@BNC_BaseDialog@@QAEXIVCPoint@@@Z 10104220 f   BNC_BaseDialog.obj
 0002:000412a0       ?OnLButtonDown@BNC_BaseDialog@@QAEXIVCPoint@@@Z 101042a0 f   BNC_BaseDialog.obj
 0002:00041320       ?OnLButtonUp@BNC_BaseDialog@@QAEXIVCPoint@@@Z 10104320 f   BNC_BaseDialog.obj
 0002:000413a0       ?OnLButtonDblClk@BNC_BaseDialog@@QAEXIVCPoint@@@Z 101043a0 f   BNC_BaseDialog.obj
 0002:00041420       ?OnNcLButtonDown@BNC_BaseDialog@@QAEXIVCPoint@@@Z 10104420 f   BNC_BaseDialog.obj
 0002:000414d0       ?OnCaptureChanged@BNC_BaseDialog@@QAEXPAVCWnd@@@Z 101044d0 f   BNC_BaseDialog.obj
 0002:00041550       ?OnClose@BNC_BaseDialog@@QAEXXZ 10104550 f   BNC_BaseDialog.obj
 0002:00041640       ?OnSetFocus@BNC_BaseDialog@@QAEXPAVCWnd@@@Z 10104640 f   BNC_BaseDialog.obj
 0002:000416c0       ?OnNcMouseMove@BNC_BaseDialog@@QAEXIVCPoint@@@Z 101046c0 f   BNC_BaseDialog.obj
 0002:00041750       ?OnEnable@BNC_BaseDialog@@QAEXH@Z 10104750 f   BNC_BaseDialog.obj
 0002:00041c10       ?OnShowWindow@BNC_BaseDialog@@QAEXHI@Z 10104c10 f   BNC_BaseDialog.obj
 0002:00041c90       ?OnTimer@BNC_BaseDialog@@QAEXI@Z 10104c90 f   BNC_BaseDialog.obj
 0002:00041e50       ?OnHelpInfo@BNC_BaseDialog@@QAEHPAUtagHELPINFO@@@Z 10104e50 f   BNC_BaseDialog.obj
 0002:00041e90       ?OnMouseActivate@BNC_BaseDialog@@QAEHPAVCWnd@@II@Z 10104e90 f   BNC_BaseDialog.obj
 0002:00041ef0       ?OnMouseWheel@BNC_BaseDialog@@QAEHIFVCPoint@@@Z 10104ef0 f   BNC_BaseDialog.obj
 0002:00041fa0       ?OnNcActivate@BNC_BaseDialog@@QAEHH@Z 10104fa0 f   BNC_BaseDialog.obj
 0002:00042000       ?OnNcDestroy@BNC_BaseDialog@@QAEXXZ 10105000 f   BNC_BaseDialog.obj
 0002:00042070       ?OnCompositionChanged@BNC_BaseDialog@@QAEXXZ 10105070 f   BNC_BaseDialog.obj
 0002:00042190       ?OnNcRenderingChanged@BNC_BaseDialog@@QAEXH@Z 10105190 f   BNC_BaseDialog.obj
 0002:000421f0       ?OnNcLButtonDblClk@BNC_BaseDialog@@QAEXIVCPoint@@@Z 101051f0 f   BNC_BaseDialog.obj
 0002:000422b0       ?OnEnterSizeMove@BNC_BaseDialog@@QAEXXZ 101052b0 f   BNC_BaseDialog.obj
 0002:00042340       ?OnExitSizeMove@BNC_BaseDialog@@QAEXXZ 10105340 f   BNC_BaseDialog.obj
 0002:00042390       ?_GetBaseClass@BNC_BaseDialog@@KGPAUCRuntimeClass@@XZ 10105390 f   BNC_BaseDialog.obj
 0002:000423e0       ??$?0AAV?$_Tree_const_iterator@V?$_Tree_val@U?$_Tree_simple_types@PAUHWND__@@@std@@@std@@@std@@_NX@?$pair@V?$_Tree_const_iterator@V?$_Tree_val@U?$_Tree_simple_types@PAUHWND__@@@std@@@std@@@std@@_N@std@@QAE@AAV?$_Tree_const_iterator@V?$_Tree_val@U?$_Tree_simple_types@PAUHWND__@@@std@@@std@@@1@$$QA_N@Z 101053e0 f i BNC_BaseDialog.obj
 0002:000424b0       ??$?0AAV?$_Tree_const_iterator@V?$_Tree_val@U?$_Tree_simple_types@PAVBNC_BaseDialog@@@std@@@std@@@std@@_NX@?$pair@V?$_Tree_const_iterator@V?$_Tree_val@U?$_Tree_simple_types@PAVBNC_BaseDialog@@@std@@@std@@@std@@_N@std@@QAE@AAV?$_Tree_const_iterator@V?$_Tree_val@U?$_Tree_simple_types@PAVBNC_BaseDialog@@@std@@@std@@@1@$$QA_N@Z 101054b0 f i BNC_BaseDialog.obj
 0002:00042580       ??$?0U?$_Tree_node@PAUHWND__@@PAX@std@@@?$allocator@PAUHWND__@@@std@@QAE@ABV?$allocator@U?$_Tree_node@PAUHWND__@@PAX@std@@@1@@Z 10105580 f i BNC_BaseDialog.obj
 0002:000425c0       ??$?0U?$_Tree_node@PAUHWND__@@PAX@std@@@?$allocator@U_Container_proxy@std@@@std@@QAE@ABV?$allocator@U?$_Tree_node@PAUHWND__@@PAX@std@@@1@@Z 101055c0 f i BNC_BaseDialog.obj
 0002:00042600       ??$?0U?$_Tree_node@PAVBNC_BaseDialog@@PAX@std@@@?$allocator@U_Container_proxy@std@@@std@@QAE@ABV?$allocator@U?$_Tree_node@PAVBNC_BaseDialog@@PAX@std@@@1@@Z 10105600 f i BNC_BaseDialog.obj
 0002:00042640       ??$?0U?$_Wrap_alloc@V?$allocator@U?$_Tree_node@PAUHWND__@@PAX@std@@@std@@@std@@@?$_Wrap_alloc@V?$allocator@U_Container_proxy@std@@@std@@@std@@QAE@ABU?$_Wrap_alloc@V?$allocator@U?$_Tree_node@PAUHWND__@@PAX@std@@@std@@@1@@Z 10105640 f i BNC_BaseDialog.obj
 0002:000426a0       ??$?0U?$_Wrap_alloc@V?$allocator@U?$_Tree_node@PAVBNC_BaseDialog@@PAX@std@@@std@@@std@@@?$_Wrap_alloc@V?$allocator@U_Container_proxy@std@@@std@@@std@@QAE@ABU?$_Wrap_alloc@V?$allocator@U?$_Tree_node@PAVBNC_BaseDialog@@PAX@std@@@std@@@1@@Z 101056a0 f i BNC_BaseDialog.obj
 0002:00042700       ??$?0V?$_Tree_const_iterator@V?$_Tree_val@U?$_Tree_simple_types@PAUHWND__@@@std@@@std@@@std@@_NX@?$pair@V?$_Tree_const_iterator@V?$_Tree_val@U?$_Tree_simple_types@PAUHWND__@@@std@@@std@@@std@@_N@std@@QAE@$$QAV?$_Tree_const_iterator@V?$_Tree_val@U?$_Tree_simple_types@PAUHWND__@@@std@@@std@@@1@$$QA_N@Z 10105700 f i BNC_BaseDialog.obj
 0002:000427d0       ??$?0V?$_Tree_const_iterator@V?$_Tree_val@U?$_Tree_simple_types@PAVBNC_BaseDialog@@@std@@@std@@@std@@_NX@?$pair@V?$_Tree_const_iterator@V?$_Tree_val@U?$_Tree_simple_types@PAVBNC_BaseDialog@@@std@@@std@@@std@@_N@std@@QAE@$$QAV?$_Tree_const_iterator@V?$_Tree_val@U?$_Tree_simple_types@PAVBNC_BaseDialog@@@std@@@std@@@1@$$QA_N@Z 101057d0 f i BNC_BaseDialog.obj
 0002:000428a0       ??$_Allocate@PAVBNC_BaseDialog@@@std@@YAPAPAVBNC_BaseDialog@@IPAPAV1@@Z 101058a0 f i BNC_BaseDialog.obj
 0002:00042940       ??$_Allocate@U?$_Tree_node@PAUHWND__@@PAX@std@@@std@@YAPAU?$_Tree_node@PAUHWND__@@PAX@0@IPAU10@@Z 10105940 f i BNC_BaseDialog.obj
 0002:000429d0       ??$_Allocate@U?$_Tree_node@PAVBNC_BaseDialog@@PAX@std@@@std@@YAPAU?$_Tree_node@PAVBNC_BaseDialog@@PAX@0@IPAU10@@Z 101059d0 f i BNC_BaseDialog.obj
 0002:00042a60       ??$_Buynode@AAPAUHWND__@@@?$_Tree_buy@PAUHWND__@@V?$allocator@PAUHWND__@@@std@@@std@@QAEPAU?$_Tree_node@PAUHWND__@@PAX@1@AAPAUHWND__@@@Z 10105a60 f i BNC_BaseDialog.obj
 0002:00042bd0       ??$_Buynode@ABQAUHWND__@@@?$_Tree_buy@PAUHWND__@@V?$allocator@PAUHWND__@@@std@@@std@@QAEPAU?$_Tree_node@PAUHWND__@@PAX@1@ABQAUHWND__@@@Z 10105bd0 f i BNC_BaseDialog.obj
 0002:00042d40       ??$_Buynode@ABQAVBNC_BaseDialog@@@?$_Tree_buy@PAVBNC_BaseDialog@@V?$allocator@PAVBNC_BaseDialog@@@std@@@std@@QAEPAU?$_Tree_node@PAVBNC_BaseDialog@@PAX@1@ABQAVBNC_BaseDialog@@@Z 10105d40 f i BNC_BaseDialog.obj
 0002:00042eb0       ??$_Buynode_if_nil@ABQAUHWND__@@@?$_Tree@V?$_Tset_traits@PAUHWND__@@U?$less@PAUHWND__@@@std@@V?$allocator@PAUHWND__@@@3@$0A@@std@@@std@@IAEPAU?$_Tree_node@PAUHWND__@@PAX@1@U_Nil@1@ABQAUHWND__@@@Z 10105eb0 f i BNC_BaseDialog.obj
 0002:00042f20       ??$_Buynode_if_nil@ABQAVBNC_BaseDialog@@@?$_Tree@V?$_Tset_traits@PAVBNC_BaseDialog@@U?$less@PAVBNC_BaseDialog@@@std@@V?$allocator@PAVBNC_BaseDialog@@@3@$0A@@std@@@std@@IAEPAU?$_Tree_node@PAVBNC_BaseDialog@@PAX@1@U_Nil@1@ABQAVBNC_BaseDialog@@@Z 10105f20 f i BNC_BaseDialog.obj
 0002:00042f90       ??$_Copy@U?$integral_constant@_N$0A@@std@@@?$_Tree@V?$_Tset_traits@PAUHWND__@@U?$less@PAUHWND__@@@std@@V?$allocator@PAUHWND__@@@3@$0A@@std@@@std@@IAEXABV01@U?$integral_constant@_N$0A@@1@@Z 10105f90 f i BNC_BaseDialog.obj
 0002:000430c0       ??$_Copy_nodes@U?$integral_constant@_N$0A@@std@@@?$_Tree@V?$_Tset_traits@PAUHWND__@@U?$less@PAUHWND__@@@std@@V?$allocator@PAUHWND__@@@3@$0A@@std@@@std@@IAEPAU?$_Tree_node@PAUHWND__@@PAX@1@PAU21@0U?$integral_constant@_N$0A@@1@@Z 101060c0 f i BNC_BaseDialog.obj
 0002:00043310       ??$_Copy_or_move@U?$integral_constant@_N$0A@@std@@U?$integral_constant@_N$00@2@U32@H@?$_Tree@V?$_Tset_traits@PAUHWND__@@U?$less@PAUHWND__@@@std@@V?$allocator@PAUHWND__@@@3@$0A@@std@@@std@@IAEPAU?$_Tree_node@PAUHWND__@@PAX@1@PAU21@U?$integral_constant@_N$0A@@1@U?$integral_constant@_N$00@1@2H@Z 10106310 f i BNC_BaseDialog.obj
 0002:00043380       ??$_Debug_lt_pred@U?$less@PAUHWND__@@@std@@ABQAUHWND__@@ABQAU3@@std@@YA_NU?$less@PAUHWND__@@@0@ABQAUHWND__@@1PB_WI@Z 10106380 f i BNC_BaseDialog.obj
 0002:00043460       ??$_Debug_lt_pred@U?$less@PAVBNC_BaseDialog@@@std@@ABQAVBNC_BaseDialog@@ABQAV3@@std@@YA_NU?$less@PAVBNC_BaseDialog@@@0@ABQAVBNC_BaseDialog@@1PB_WI@Z 10106460 f i BNC_BaseDialog.obj
 0002:00043540       ??$_Debug_pointer@PAVBNC_BaseDialog@@@std@@YAXPAPAVBNC_BaseDialog@@PB_WI@Z 10106540 f i BNC_BaseDialog.obj
 0002:000435b0       ??$_Debug_range2@PAPAVBNC_BaseDialog@@@std@@YAXPAPAVBNC_BaseDialog@@0PB_WIUrandom_access_iterator_tag@0@@Z 101065b0 f i BNC_BaseDialog.obj
 0002:00043660       ??$_Debug_range@PAPAVBNC_BaseDialog@@@std@@YAXPAPAVBNC_BaseDialog@@0PB_WI@Z 10106660 f i BNC_BaseDialog.obj
 0002:000436e0       ??$_Destroy_range@U?$_Wrap_alloc@V?$allocator@PAVBNC_BaseDialog@@@std@@@std@@@std@@YAXPAPAVBNC_BaseDialog@@0AAU?$_Wrap_alloc@V?$allocator@PAVBNC_BaseDialog@@@std@@@0@@Z 101066e0 f i BNC_BaseDialog.obj
 0002:00043760       ??$_Destroy_range@U?$_Wrap_alloc@V?$allocator@PAVBNC_BaseDialog@@@std@@@std@@@std@@YAXPAPAVBNC_BaseDialog@@0AAU?$_Wrap_alloc@V?$allocator@PAVBNC_BaseDialog@@@std@@@0@U_Scalar_ptr_iterator_tag@0@@Z 10106760 f i BNC_BaseDialog.obj
 0002:00043790       ??$_Insert_at@ABQAUHWND__@@U_Nil@std@@@?$_Tree@V?$_Tset_traits@PAUHWND__@@U?$less@PAUHWND__@@@std@@V?$allocator@PAUHWND__@@@3@$0A@@std@@@std@@IAE?AV?$_Tree_const_iterator@V?$_Tree_val@U?$_Tree_simple_types@PAUHWND__@@@std@@@std@@@1@_NPAU?$_Tree_node@PAUHWND__@@PAX@1@ABQAUHWND__@@U_Nil@1@@Z 10106790 f i BNC_BaseDialog.obj
 0002:00043d20       ??$_Insert_at@ABQAVBNC_BaseDialog@@U_Nil@std@@@?$_Tree@V?$_Tset_traits@PAVBNC_BaseDialog@@U?$less@PAVBNC_BaseDialog@@@std@@V?$allocator@PAVBNC_BaseDialog@@@3@$0A@@std@@@std@@IAE?AV?$_Tree_const_iterator@V?$_Tree_val@U?$_Tree_simple_types@PAVBNC_BaseDialog@@@std@@@std@@@1@_NPAU?$_Tree_node@PAVBNC_BaseDialog@@PAX@1@ABQAVBNC_BaseDialog@@U_Nil@1@@Z 10106d20 f i BNC_BaseDialog.obj
 0002:000442b0       ??$_Insert_nohint@ABQAUHWND__@@U_Nil@std@@@?$_Tree@V?$_Tset_traits@PAUHWND__@@U?$less@PAUHWND__@@@std@@V?$allocator@PAUHWND__@@@3@$0A@@std@@@std@@IAE?AU?$pair@V?$_Tree_const_iterator@V?$_Tree_val@U?$_Tree_simple_types@PAUHWND__@@@std@@@std@@@std@@_N@1@_NABQAUHWND__@@U_Nil@1@@Z 101072b0 f i BNC_BaseDialog.obj
 0002:00044a10       ??$_Insert_nohint@ABQAVBNC_BaseDialog@@U_Nil@std@@@?$_Tree@V?$_Tset_traits@PAVBNC_BaseDialog@@U?$less@PAVBNC_BaseDialog@@@std@@V?$allocator@PAVBNC_BaseDialog@@@3@$0A@@std@@@std@@IAE?AU?$pair@V?$_Tree_const_iterator@V?$_Tree_val@U?$_Tree_simple_types@PAVBNC_BaseDialog@@@std@@@std@@@std@@_N@1@_NABQAVBNC_BaseDialog@@U_Nil@1@@Z 10107a10 f i BNC_BaseDialog.obj
 0002:00045170       ??$_Iter_cat@PAPAVBNC_BaseDialog@@@std@@YA?AUrandom_access_iterator_tag@0@ABQAPAVBNC_BaseDialog@@@Z 10108170 f i BNC_BaseDialog.obj
 0002:000451f0       ??$_Move@AAPAVBNC_FakeModal@@@std@@YA$$QAPAVBNC_FakeModal@@AAPAV1@@Z 101081f0 f i BNC_BaseDialog.obj
 0002:00045230       ??$_Move@PAPAVBNC_BaseDialog@@PAPAV1@@std@@YAPAPAVBNC_BaseDialog@@PAPAV1@00@Z 10108230 f i BNC_BaseDialog.obj
 0002:000452b0       ??$_Move@PAPAVBNC_BaseDialog@@PAPAV1@@std@@YAPAPAVBNC_BaseDialog@@PAPAV1@00U_Scalar_ptr_iterator_tag@0@@Z 101082b0 f i BNC_BaseDialog.obj
 0002:00045340       ??$_Ptr_cat@PAVBNC_BaseDialog@@PAV1@@std@@YA?AU_Scalar_ptr_iterator_tag@0@PAPAVBNC_BaseDialog@@0@Z 10108340 f i BNC_BaseDialog.obj
 0002:000453b0       ??$_Rechecked@PAPAVBNC_BaseDialog@@PAPAV1@@std@@YAAAPAPAVBNC_BaseDialog@@AAPAPAV1@PAPAV1@@Z 101083b0 f i BNC_BaseDialog.obj
 0002:000453f0       ??$_Reset@VBNC_FakeModal@@@?$_Ptr_base@VBNC_FakeModal@@@std@@QAEXABV01@@Z 101083f0 f i BNC_BaseDialog.obj
 0002:00045460       ??$_Umove@PAPAVBNC_BaseDialog@@@?$vector@PAVBNC_BaseDialog@@V?$allocator@PAVBNC_BaseDialog@@@std@@@std@@IAEPAPAVBNC_BaseDialog@@PAPAV2@00@Z 10108460 f i BNC_BaseDialog.obj
 0002:00045530       ??$_Unchecked@PAPAVBNC_BaseDialog@@@std@@YAPAPAVBNC_BaseDialog@@PAPAV1@@Z 10108530 f i BNC_BaseDialog.obj
 0002:00045570       ??$_Uninit_move@PAPAVBNC_BaseDialog@@PAPAV1@U?$_Wrap_alloc@V?$allocator@PAVBNC_BaseDialog@@@std@@@std@@@std@@YAPAPAVBNC_BaseDialog@@PAPAV1@00AAU?$_Wrap_alloc@V?$allocator@PAVBNC_BaseDialog@@@std@@@0@@Z 10108570 f i BNC_BaseDialog.obj
 0002:00045610       ??$_Uninit_move@PAVBNC_BaseDialog@@PAV1@PAV1@@std@@YAPAPAVBNC_BaseDialog@@PAPAV1@00AAU?$_Wrap_alloc@V?$allocator@PAVBNC_BaseDialog@@@std@@@0@0U_Scalar_ptr_iterator_tag@0@@Z 10108610 f i BNC_BaseDialog.obj
 0002:000456d0       ??$_Uninitialized_move@PAPAVBNC_BaseDialog@@PAPAV1@U?$_Wrap_alloc@V?$allocator@PAVBNC_BaseDialog@@@std@@@std@@@std@@YAPAPAVBNC_BaseDialog@@PAPAV1@00AAU?$_Wrap_alloc@V?$allocator@PAVBNC_BaseDialog@@@std@@@0@@Z 101086d0 f i BNC_BaseDialog.obj
 0002:00045770       ??$_Val_type@PAPAVBNC_BaseDialog@@@std@@YAPAPAVBNC_BaseDialog@@PAPAV1@@Z 10108770 f i BNC_BaseDialog.obj
 0002:000457a0       ??$addressof@PAU?$_Tree_node@PAUHWND__@@PAX@std@@@std@@YAPAPAU?$_Tree_node@PAUHWND__@@PAX@0@AAPAU10@@Z 101087a0 f i BNC_BaseDialog.obj
 0002:000457e0       ??$addressof@PAU?$_Tree_node@PAVBNC_BaseDialog@@PAX@std@@@std@@YAPAPAU?$_Tree_node@PAVBNC_BaseDialog@@PAX@0@AAPAU10@@Z 101087e0 f i BNC_BaseDialog.obj
 0002:00045820       ??$addressof@PAUHWND__@@@std@@YAPAPAUHWND__@@AAPAU1@@Z 10108820 f i BNC_BaseDialog.obj
 0002:00045860       ??$addressof@PAVBNC_BaseDialog@@@std@@YAPAPAVBNC_BaseDialog@@AAPAV1@@Z 10108860 f i BNC_BaseDialog.obj
 0002:000458a0       ??$addressof@QAVBNC_BaseDialog@@@std@@YAPBQAVBNC_BaseDialog@@ABQAV1@@Z 101088a0 f i BNC_BaseDialog.obj
 0002:000458e0       ??$addressof@VBNC_CaptureKeyboardMouse@@@std@@YAPAVBNC_CaptureKeyboardMouse@@AAV1@@Z 101088e0 f i BNC_BaseDialog.obj
 0002:00045920       ??$construct@PAU?$_Tree_node@PAUHWND__@@PAX@std@@AAPAU12@@?$_Wrap_alloc@V?$allocator@U?$_Tree_node@PAUHWND__@@PAX@std@@@std@@@std@@QAEXPAPAU?$_Tree_node@PAUHWND__@@PAX@1@AAPAU21@@Z 10108920 f i BNC_BaseDialog.obj
 0002:00045990       ??$construct@PAU?$_Tree_node@PAUHWND__@@PAX@std@@AAPAU12@@?$allocator@U?$_Tree_node@PAUHWND__@@PAX@std@@@std@@QAEXPAPAU?$_Tree_node@PAUHWND__@@PAX@1@AAPAU21@@Z 10108990 f i BNC_BaseDialog.obj
 0002:00045a90       ??$construct@PAU?$_Tree_node@PAUHWND__@@PAX@std@@AAPAU12@@?$allocator_traits@V?$allocator@U?$_Tree_node@PAUHWND__@@PAX@std@@@std@@@std@@SAXAAV?$allocator@U?$_Tree_node@PAUHWND__@@PAX@std@@@1@PAPAU?$_Tree_node@PAUHWND__@@PAX@1@AAPAU31@@Z 10108a90 f i BNC_BaseDialog.obj
 0002:00045af0       ??$construct@PAU?$_Tree_node@PAVBNC_BaseDialog@@PAX@std@@AAPAU12@@?$_Wrap_alloc@V?$allocator@U?$_Tree_node@PAVBNC_BaseDialog@@PAX@std@@@std@@@std@@QAEXPAPAU?$_Tree_node@PAVBNC_BaseDialog@@PAX@1@AAPAU21@@Z 10108af0 f i BNC_BaseDialog.obj
 0002:00045b60       ??$construct@PAU?$_Tree_node@PAVBNC_BaseDialog@@PAX@std@@AAPAU12@@?$allocator@U?$_Tree_node@PAVBNC_BaseDialog@@PAX@std@@@std@@QAEXPAPAU?$_Tree_node@PAVBNC_BaseDialog@@PAX@1@AAPAU21@@Z 10108b60 f i BNC_BaseDialog.obj
 0002:00045c60       ??$construct@PAU?$_Tree_node@PAVBNC_BaseDialog@@PAX@std@@AAPAU12@@?$allocator_traits@V?$allocator@U?$_Tree_node@PAVBNC_BaseDialog@@PAX@std@@@std@@@std@@SAXAAV?$allocator@U?$_Tree_node@PAVBNC_BaseDialog@@PAX@std@@@1@PAPAU?$_Tree_node@PAVBNC_BaseDialog@@PAX@1@AAPAU31@@Z 10108c60 f i BNC_BaseDialog.obj
 0002:00045cc0       ??$construct@PAUHWND__@@AAPAU1@@?$_Wrap_alloc@V?$allocator@U?$_Tree_node@PAUHWND__@@PAX@std@@@std@@@std@@QAEXPAPAUHWND__@@AAPAU2@@Z 10108cc0 f i BNC_BaseDialog.obj
 0002:00045d30       ??$construct@PAUHWND__@@AAPAU1@@?$allocator@U?$_Tree_node@PAUHWND__@@PAX@std@@@std@@QAEXPAPAUHWND__@@AAPAU2@@Z 10108d30 f i BNC_BaseDialog.obj
 0002:00045e30       ??$construct@PAUHWND__@@AAPAU1@@?$allocator_traits@V?$allocator@U?$_Tree_node@PAUHWND__@@PAX@std@@@std@@@std@@SAXAAV?$allocator@U?$_Tree_node@PAUHWND__@@PAX@std@@@1@PAPAUHWND__@@AAPAU3@@Z 10108e30 f i BNC_BaseDialog.obj
 0002:00045e90       ??$construct@PAUHWND__@@ABQAU1@@?$_Wrap_alloc@V?$allocator@U?$_Tree_node@PAUHWND__@@PAX@std@@@std@@@std@@QAEXPAPAUHWND__@@ABQAU2@@Z 10108e90 f i BNC_BaseDialog.obj
 0002:00045f00       ??$construct@PAUHWND__@@ABQAU1@@?$allocator@U?$_Tree_node@PAUHWND__@@PAX@std@@@std@@QAEXPAPAUHWND__@@ABQAU2@@Z 10108f00 f i BNC_BaseDialog.obj
 0002:00046000       ??$construct@PAUHWND__@@ABQAU1@@?$allocator_traits@V?$allocator@U?$_Tree_node@PAUHWND__@@PAX@std@@@std@@@std@@SAXAAV?$allocator@U?$_Tree_node@PAUHWND__@@PAX@std@@@1@PAPAUHWND__@@ABQAU3@@Z 10109000 f i BNC_BaseDialog.obj
 0002:00046060       ??$construct@PAVBNC_BaseDialog@@AAPAV1@@?$_Wrap_alloc@V?$allocator@PAVBNC_BaseDialog@@@std@@@std@@QAEXPAPAVBNC_BaseDialog@@AAPAV2@@Z 10109060 f i BNC_BaseDialog.obj
 0002:000460d0       ??$construct@PAVBNC_BaseDialog@@AAPAV1@@?$allocator@PAVBNC_BaseDialog@@@std@@QAEXPAPAVBNC_BaseDialog@@AAPAV2@@Z 101090d0 f i BNC_BaseDialog.obj
 0002:000461d0       ??$construct@PAVBNC_BaseDialog@@AAPAV1@@?$allocator_traits@V?$allocator@PAVBNC_BaseDialog@@@std@@@std@@SAXAAV?$allocator@PAVBNC_BaseDialog@@@1@PAPAVBNC_BaseDialog@@AAPAV3@@Z 101091d0 f i BNC_BaseDialog.obj
 0002:00046230       ??$construct@PAVBNC_BaseDialog@@ABQAV1@@?$_Wrap_alloc@V?$allocator@PAVBNC_BaseDialog@@@std@@@std@@QAEXPAPAVBNC_BaseDialog@@ABQAV2@@Z 10109230 f i BNC_BaseDialog.obj
 0002:000462a0       ??$construct@PAVBNC_BaseDialog@@ABQAV1@@?$_Wrap_alloc@V?$allocator@U?$_Tree_node@PAVBNC_BaseDialog@@PAX@std@@@std@@@std@@QAEXPAPAVBNC_BaseDialog@@ABQAV2@@Z 101092a0 f i BNC_BaseDialog.obj
 0002:00046310       ??$construct@PAVBNC_BaseDialog@@ABQAV1@@?$allocator@U?$_Tree_node@PAVBNC_BaseDialog@@PAX@std@@@std@@QAEXPAPAVBNC_BaseDialog@@ABQAV2@@Z 10109310 f i BNC_BaseDialog.obj
 0002:00046410       ??$construct@PAVBNC_BaseDialog@@ABQAV1@@?$allocator_traits@V?$allocator@PAVBNC_BaseDialog@@@std@@@std@@SAXAAV?$allocator@PAVBNC_BaseDialog@@@1@PAPAVBNC_BaseDialog@@ABQAV3@@Z 10109410 f i BNC_BaseDialog.obj
 0002:00046470       ??$construct@PAVBNC_BaseDialog@@ABQAV1@@?$allocator_traits@V?$allocator@U?$_Tree_node@PAVBNC_BaseDialog@@PAX@std@@@std@@@std@@SAXAAV?$allocator@U?$_Tree_node@PAVBNC_BaseDialog@@PAX@std@@@1@PAPAVBNC_BaseDialog@@ABQAV3@@Z 10109470 f i BNC_BaseDialog.obj
 0002:000464d0       ??$destroy@PAU?$_Tree_node@PAUHWND__@@PAX@std@@@?$_Wrap_alloc@V?$allocator@U?$_Tree_node@PAUHWND__@@PAX@std@@@std@@@std@@QAEXPAPAU?$_Tree_node@PAUHWND__@@PAX@1@@Z 101094d0 f i BNC_BaseDialog.obj
 0002:00046530       ??$destroy@PAU?$_Tree_node@PAUHWND__@@PAX@std@@@?$allocator@U?$_Tree_node@PAUHWND__@@PAX@std@@@std@@QAEXPAPAU?$_Tree_node@PAUHWND__@@PAX@1@@Z 10109530 f i BNC_BaseDialog.obj
 0002:00046570       ??$destroy@PAU?$_Tree_node@PAUHWND__@@PAX@std@@@?$allocator_traits@V?$allocator@U?$_Tree_node@PAUHWND__@@PAX@std@@@std@@@std@@SAXAAV?$allocator@U?$_Tree_node@PAUHWND__@@PAX@std@@@1@PAPAU?$_Tree_node@PAUHWND__@@PAX@1@@Z 10109570 f i BNC_BaseDialog.obj
 0002:000465c0       ??$destroy@PAU?$_Tree_node@PAVBNC_BaseDialog@@PAX@std@@@?$_Wrap_alloc@V?$allocator@U?$_Tree_node@PAVBNC_BaseDialog@@PAX@std@@@std@@@std@@QAEXPAPAU?$_Tree_node@PAVBNC_BaseDialog@@PAX@1@@Z 101095c0 f i BNC_BaseDialog.obj
 0002:00046620       ??$destroy@PAU?$_Tree_node@PAVBNC_BaseDialog@@PAX@std@@@?$allocator@U?$_Tree_node@PAVBNC_BaseDialog@@PAX@std@@@std@@QAEXPAPAU?$_Tree_node@PAVBNC_BaseDialog@@PAX@1@@Z 10109620 f i BNC_BaseDialog.obj
 0002:00046660       ??$destroy@PAU?$_Tree_node@PAVBNC_BaseDialog@@PAX@std@@@?$allocator_traits@V?$allocator@U?$_Tree_node@PAVBNC_BaseDialog@@PAX@std@@@std@@@std@@SAXAAV?$allocator@U?$_Tree_node@PAVBNC_BaseDialog@@PAX@std@@@1@PAPAU?$_Tree_node@PAVBNC_BaseDialog@@PAX@1@@Z 10109660 f i BNC_BaseDialog.obj
 0002:000466b0       ??$destroy@PAUHWND__@@@?$_Wrap_alloc@V?$allocator@U?$_Tree_node@PAUHWND__@@PAX@std@@@std@@@std@@QAEXPAPAUHWND__@@@Z 101096b0 f i BNC_BaseDialog.obj
 0002:00046710       ??$destroy@PAUHWND__@@@?$allocator@U?$_Tree_node@PAUHWND__@@PAX@std@@@std@@QAEXPAPAUHWND__@@@Z 10109710 f i BNC_BaseDialog.obj
 0002:00046750       ??$destroy@PAUHWND__@@@?$allocator_traits@V?$allocator@U?$_Tree_node@PAUHWND__@@PAX@std@@@std@@@std@@SAXAAV?$allocator@U?$_Tree_node@PAUHWND__@@PAX@std@@@1@PAPAUHWND__@@@Z 10109750 f i BNC_BaseDialog.obj
 0002:000467a0       ??$destroy@PAVBNC_BaseDialog@@@?$_Wrap_alloc@V?$allocator@U?$_Tree_node@PAVBNC_BaseDialog@@PAX@std@@@std@@@std@@QAEXPAPAVBNC_BaseDialog@@@Z 101097a0 f i BNC_BaseDialog.obj
 0002:00046800       ??$destroy@PAVBNC_BaseDialog@@@?$allocator@U?$_Tree_node@PAVBNC_BaseDialog@@PAX@std@@@std@@QAEXPAPAVBNC_BaseDialog@@@Z 10109800 f i BNC_BaseDialog.obj
 0002:00046840       ??$destroy@PAVBNC_BaseDialog@@@?$allocator_traits@V?$allocator@U?$_Tree_node@PAVBNC_BaseDialog@@PAX@std@@@std@@@std@@SAXAAV?$allocator@U?$_Tree_node@PAVBNC_BaseDialog@@PAX@std@@@1@PAPAVBNC_BaseDialog@@@Z 10109840 f i BNC_BaseDialog.obj
 0002:00046890       ??$forward@AAPAU?$_Tree_node@PAUHWND__@@PAX@std@@@std@@YAAAPAU?$_Tree_node@PAUHWND__@@PAX@0@AAPAU10@@Z 10109890 f i BNC_BaseDialog.obj
 0002:000468d0       ??$forward@AAPAU?$_Tree_node@PAVBNC_BaseDialog@@PAX@std@@@std@@YAAAPAU?$_Tree_node@PAVBNC_BaseDialog@@PAX@0@AAPAU10@@Z 101098d0 f i BNC_BaseDialog.obj
 0002:00046910       ??$forward@AAPAUHWND__@@@std@@YAAAPAUHWND__@@AAPAU1@@Z 10109910 f i BNC_BaseDialog.obj
 0002:00046950       ??$forward@AAPAVBNC_BaseDialog@@@std@@YAAAPAVBNC_BaseDialog@@AAPAV1@@Z 10109950 f i BNC_BaseDialog.obj
 0002:00046990       ??$forward@AAV?$_Tree_const_iterator@V?$_Tree_val@U?$_Tree_simple_types@PAUHWND__@@@std@@@std@@@std@@@std@@YAAAV?$_Tree_const_iterator@V?$_Tree_val@U?$_Tree_simple_types@PAUHWND__@@@std@@@std@@@0@AAV10@@Z 10109990 f i BNC_BaseDialog.obj
 0002:000469d0       ??$forward@AAV?$_Tree_const_iterator@V?$_Tree_val@U?$_Tree_simple_types@PAVBNC_BaseDialog@@@std@@@std@@@std@@@std@@YAAAV?$_Tree_const_iterator@V?$_Tree_val@U?$_Tree_simple_types@PAVBNC_BaseDialog@@@std@@@std@@@0@AAV10@@Z 101099d0 f i BNC_BaseDialog.obj
 0002:00046a10       ??$forward@ABQAUHWND__@@@std@@YAABQAUHWND__@@ABQAU1@@Z 10109a10 f i BNC_BaseDialog.obj
 0002:00046a50       ??$forward@ABQAVBNC_BaseDialog@@@std@@YAABQAVBNC_BaseDialog@@ABQAV1@@Z 10109a50 f i BNC_BaseDialog.obj
 0002:00046a90       ??$forward@V?$_Ptr_base@VBNC_FakeModal@@@std@@@std@@YA$$QAV?$_Ptr_base@VBNC_FakeModal@@@0@AAV10@@Z 10109a90 f i BNC_BaseDialog.obj
 0002:00046ad0       ??$forward@V?$_Tree_const_iterator@V?$_Tree_val@U?$_Tree_simple_types@PAUHWND__@@@std@@@std@@@std@@@std@@YA$$QAV?$_Tree_const_iterator@V?$_Tree_val@U?$_Tree_simple_types@PAUHWND__@@@std@@@std@@@0@AAV10@@Z 10109ad0 f i BNC_BaseDialog.obj
 0002:00046b10       ??$forward@V?$_Tree_const_iterator@V?$_Tree_val@U?$_Tree_simple_types@PAVBNC_BaseDialog@@@std@@@std@@@std@@@std@@YA$$QAV?$_Tree_const_iterator@V?$_Tree_val@U?$_Tree_simple_types@PAVBNC_BaseDialog@@@std@@@std@@@0@AAV10@@Z 10109b10 f i BNC_BaseDialog.obj
 0002:00046b50       ??$forward@V?$shared_ptr@VBNC_FakeModal@@@std@@@std@@YA$$QAV?$shared_ptr@VBNC_FakeModal@@@0@AAV10@@Z 10109b50 f i BNC_BaseDialog.obj
 0002:00046b90       ??$forward@_N@std@@YA$$QA_NAA_N@Z 10109b90 f i BNC_BaseDialog.obj
 0002:00046bd0       ??$move@AAV?$shared_ptr@VBNC_FakeModal@@@std@@@std@@YA$$QAV?$shared_ptr@VBNC_FakeModal@@@0@AAV10@@Z 10109bd0 f i BNC_BaseDialog.obj
 0002:00046c10       ??$swap@PAVBNC_FakeModal@@@std@@YAXAAPAVBNC_FakeModal@@0@Z 10109c10 f i BNC_BaseDialog.obj
 0002:00046cf0       ??$wcscpy_s@$0IA@@@YAHAAY0IA@_WPB_W@Z 10109cf0 f i BNC_BaseDialog.obj
 0002:00046d60       ??0?$_Iterator012@Ubidirectional_iterator_tag@std@@PAUHWND__@@HPBQAU3@ABQAU3@U_Iterator_base12@2@@std@@QAE@ABU01@@Z 10109d60 f i BNC_BaseDialog.obj
 0002:00046dc0       ??0?$_Iterator012@Ubidirectional_iterator_tag@std@@PAUHWND__@@HPBQAU3@ABQAU3@U_Iterator_base12@2@@std@@QAE@XZ 10109dc0 f i BNC_BaseDialog.obj
 0002:00046e20       ??0?$_Iterator012@Ubidirectional_iterator_tag@std@@PAVBNC_BaseDialog@@HPBQAV3@ABQAV3@U_Iterator_base12@2@@std@@QAE@ABU01@@Z 10109e20 f i BNC_BaseDialog.obj
 0002:00046e80       ??0?$_Iterator012@Ubidirectional_iterator_tag@std@@PAVBNC_BaseDialog@@HPBQAV3@ABQAV3@U_Iterator_base12@2@@std@@QAE@XZ 10109e80 f i BNC_BaseDialog.obj
 0002:00046ee0       ??0?$_Iterator012@Urandom_access_iterator_tag@std@@PAVBNC_BaseDialog@@HPBQAV3@ABQAV3@U_Iterator_base12@2@@std@@QAE@ABU01@@Z 10109ee0 f i BNC_BaseDialog.obj
 0002:00046f40       ??0?$_Iterator012@Urandom_access_iterator_tag@std@@PAVBNC_BaseDialog@@HPBQAV3@ABQAV3@U_Iterator_base12@2@@std@@QAE@XZ 10109f40 f i BNC_BaseDialog.obj
 0002:00046fa0       ??0?$_Ptr_base@VBNC_FakeModal@@@std@@QAE@$$QAV01@@Z 10109fa0 f i BNC_BaseDialog.obj
 0002:00047020       ??0?$_Ptr_base@VBNC_FakeModal@@@std@@QAE@XZ 1010a020 f i BNC_BaseDialog.obj
 0002:00047070       ??0?$_Tree@V?$_Tset_traits@PAUHWND__@@U?$less@PAUHWND__@@@std@@V?$allocator@PAUHWND__@@@3@$0A@@std@@@std@@QAE@ABU?$less@PAUHWND__@@@1@ABV?$allocator@PAUHWND__@@@1@@Z 1010a070 f i BNC_BaseDialog.obj
 0002:000470d0       ??0?$_Tree@V?$_Tset_traits@PAUHWND__@@U?$less@PAUHWND__@@@std@@V?$allocator@PAUHWND__@@@3@$0A@@std@@@std@@QAE@ABV01@ABV?$allocator@PAUHWND__@@@1@@Z 1010a0d0 f i BNC_BaseDialog.obj
 0002:000471f0       ??0?$_Tree@V?$_Tset_traits@PAVBNC_BaseDialog@@U?$less@PAVBNC_BaseDialog@@@std@@V?$allocator@PAVBNC_BaseDialog@@@3@$0A@@std@@@std@@QAE@ABU?$less@PAVBNC_BaseDialog@@@1@ABV?$allocator@PAVBNC_BaseDialog@@@1@@Z 1010a1f0 f i BNC_BaseDialog.obj
 0002:00047250       ??0?$_Tree_alloc@$0A@U?$_Tree_base_types@PAUHWND__@@V?$allocator@PAUHWND__@@@std@@@std@@@std@@QAE@ABV?$allocator@PAUHWND__@@@1@@Z 1010a250 f i BNC_BaseDialog.obj
 0002:00047350       ??0?$_Tree_alloc@$0A@U?$_Tree_base_types@PAVBNC_BaseDialog@@V?$allocator@PAVBNC_BaseDialog@@@std@@@std@@@std@@QAE@ABV?$allocator@PAVBNC_BaseDialog@@@1@@Z 1010a350 f i BNC_BaseDialog.obj
 0002:00047450       ??0?$_Tree_buy@PAUHWND__@@V?$allocator@PAUHWND__@@@std@@@std@@QAE@ABV?$allocator@PAUHWND__@@@1@@Z 1010a450 f i BNC_BaseDialog.obj
 0002:000474b0       ??0?$_Tree_buy@PAVBNC_BaseDialog@@V?$allocator@PAVBNC_BaseDialog@@@std@@@std@@QAE@ABV?$allocator@PAVBNC_BaseDialog@@@1@@Z 1010a4b0 f i BNC_BaseDialog.obj
 0002:00047510       ??0?$_Tree_comp@$0A@V?$_Tset_traits@PAUHWND__@@U?$less@PAUHWND__@@@std@@V?$allocator@PAUHWND__@@@3@$0A@@std@@@std@@QAE@ABU?$less@PAUHWND__@@@1@ABV?$allocator@PAUHWND__@@@1@@Z 1010a510 f i BNC_BaseDialog.obj
 0002:00047570       ??0?$_Tree_comp@$0A@V?$_Tset_traits@PAVBNC_BaseDialog@@U?$less@PAVBNC_BaseDialog@@@std@@V?$allocator@PAVBNC_BaseDialog@@@3@$0A@@std@@@std@@QAE@ABU?$less@PAVBNC_BaseDialog@@@1@ABV?$allocator@PAVBNC_BaseDialog@@@1@@Z 1010a570 f i BNC_BaseDialog.obj
 0002:000475d0       ??0?$_Tree_const_iterator@V?$_Tree_val@U?$_Tree_simple_types@PAUHWND__@@@std@@@std@@@std@@QAE@ABV01@@Z 1010a5d0 f i BNC_BaseDialog.obj
 0002:00047630       ??0?$_Tree_const_iterator@V?$_Tree_val@U?$_Tree_simple_types@PAUHWND__@@@std@@@std@@@std@@QAE@PAU?$_Tree_node@PAUHWND__@@PAX@1@PBV?$_Tree_val@U?$_Tree_simple_types@PAUHWND__@@@std@@@1@@Z 1010a630 f i BNC_BaseDialog.obj
 0002:00047690       ??0?$_Tree_const_iterator@V?$_Tree_val@U?$_Tree_simple_types@PAVBNC_BaseDialog@@@std@@@std@@@std@@QAE@ABV01@@Z 1010a690 f i BNC_BaseDialog.obj
 0002:000476f0       ??0?$_Tree_const_iterator@V?$_Tree_val@U?$_Tree_simple_types@PAVBNC_BaseDialog@@@std@@@std@@@std@@QAE@PAU?$_Tree_node@PAVBNC_BaseDialog@@PAX@1@PBV?$_Tree_val@U?$_Tree_simple_types@PAVBNC_BaseDialog@@@std@@@1@@Z 1010a6f0 f i BNC_BaseDialog.obj
 0002:00047750       ??0?$_Tree_unchecked_const_iterator@V?$_Tree_val@U?$_Tree_simple_types@PAUHWND__@@@std@@@std@@U_Iterator_base12@2@@std@@QAE@ABV01@@Z 1010a750 f i BNC_BaseDialog.obj
 0002:000477c0       ??0?$_Tree_unchecked_const_iterator@V?$_Tree_val@U?$_Tree_simple_types@PAUHWND__@@@std@@@std@@U_Iterator_base12@2@@std@@QAE@PAU?$_Tree_node@PAUHWND__@@PAX@1@PBV?$_Tree_val@U?$_Tree_simple_types@PAUHWND__@@@std@@@1@@Z 1010a7c0 f i BNC_BaseDialog.obj
 0002:00047880       ??0?$_Tree_unchecked_const_iterator@V?$_Tree_val@U?$_Tree_simple_types@PAVBNC_BaseDialog@@@std@@@std@@U_Iterator_base12@2@@std@@QAE@ABV01@@Z 1010a880 f i BNC_BaseDialog.obj
 0002:000478f0       ??0?$_Tree_unchecked_const_iterator@V?$_Tree_val@U?$_Tree_simple_types@PAVBNC_BaseDialog@@@std@@@std@@U_Iterator_base12@2@@std@@QAE@PAU?$_Tree_node@PAVBNC_BaseDialog@@PAX@1@PBV?$_Tree_val@U?$_Tree_simple_types@PAVBNC_BaseDialog@@@std@@@1@@Z 1010a8f0 f i BNC_BaseDialog.obj
 0002:000479b0       ??0?$_Tree_val@U?$_Tree_simple_types@PAUHWND__@@@std@@@std@@QAE@XZ 1010a9b0 f i BNC_BaseDialog.obj
 0002:00047a30       ??0?$_Tree_val@U?$_Tree_simple_types@PAVBNC_BaseDialog@@@std@@@std@@QAE@XZ 1010aa30 f i BNC_BaseDialog.obj
 0002:00047ab0       ??0?$_Vector_alloc@$0A@U?$_Vec_base_types@PAVBNC_BaseDialog@@V?$allocator@PAVBNC_BaseDialog@@@std@@@std@@@std@@QAE@ABV?$allocator@PAVBNC_BaseDialog@@@1@@Z 1010aab0 f i BNC_BaseDialog.obj
 0002:00047b60       ??0?$_Vector_const_iterator@V?$_Vector_val@U?$_Simple_types@PAVBNC_BaseDialog@@@std@@@std@@@std@@QAE@ABV01@@Z 1010ab60 f i BNC_BaseDialog.obj
 0002:00047bd0       ??0?$_Vector_const_iterator@V?$_Vector_val@U?$_Simple_types@PAVBNC_BaseDialog@@@std@@@std@@@std@@QAE@PAPAVBNC_BaseDialog@@PBU_Container_base12@1@@Z 1010abd0 f i BNC_BaseDialog.obj
 0002:00047c90       ??0?$_Vector_iterator@V?$_Vector_val@U?$_Simple_types@PAVBNC_BaseDialog@@@std@@@std@@@std@@QAE@PAPAVBNC_BaseDialog@@PBU_Container_base12@1@@Z 1010ac90 f i BNC_BaseDialog.obj
 0002:00047cf0       ??0?$_Vector_val@U?$_Simple_types@PAVBNC_BaseDialog@@@std@@@std@@QAE@XZ 1010acf0 f i BNC_BaseDialog.obj
 0002:00047d80       ??0?$_Wrap_alloc@V?$allocator@PAVBNC_BaseDialog@@@std@@@std@@QAE@XZ 1010ad80 f i BNC_BaseDialog.obj
 0002:00047de0       ??0?$_Wrap_alloc@V?$allocator@U?$_Tree_node@PAUHWND__@@PAX@std@@@std@@@std@@QAE@ABV?$allocator@U?$_Tree_node@PAUHWND__@@PAX@std@@@1@@Z 1010ade0 f i BNC_BaseDialog.obj
 0002:00047e40       ??0?$_Wrap_alloc@V?$allocator@U?$_Tree_node@PAUHWND__@@PAX@std@@@std@@@std@@QAE@XZ 1010ae40 f i BNC_BaseDialog.obj
 0002:00047ea0       ??0?$_Wrap_alloc@V?$allocator@U?$_Tree_node@PAVBNC_BaseDialog@@PAX@std@@@std@@@std@@QAE@XZ 1010aea0 f i BNC_BaseDialog.obj
 0002:00047f00       ??0?$allocator@PAUHWND__@@@std@@QAE@XZ 1010af00 f i BNC_BaseDialog.obj
 0002:00047f40       ??0?$allocator@PAVBNC_BaseDialog@@@std@@QAE@XZ 1010af40 f i BNC_BaseDialog.obj
 0002:00047f80       ??0?$allocator@U?$_Tree_node@PAUHWND__@@PAX@std@@@std@@QAE@ABV01@@Z 1010af80 f i BNC_BaseDialog.obj
 0002:00047fc0       ??0?$allocator@U?$_Tree_node@PAUHWND__@@PAX@std@@@std@@QAE@XZ 1010afc0 f i BNC_BaseDialog.obj
 0002:00048000       ??0?$allocator@U?$_Tree_node@PAVBNC_BaseDialog@@PAX@std@@@std@@QAE@XZ 1010b000 f i BNC_BaseDialog.obj
 0002:00048040       ??0?$atomic@I@std@@QAE@I@Z 1010b040 f i BNC_BaseDialog.obj
 0002:000480a0       ??0?$set@PAUHWND__@@U?$less@PAUHWND__@@@std@@V?$allocator@PAUHWND__@@@3@@std@@QAE@ABV01@@Z 1010b0a0 f i BNC_BaseDialog.obj
 0002:00048140       ??0?$set@PAUHWND__@@U?$less@PAUHWND__@@@std@@V?$allocator@PAUHWND__@@@3@@std@@QAE@XZ 1010b140 f i BNC_BaseDialog.obj
 0002:000481b0       ??0?$set@PAVBNC_BaseDialog@@U?$less@PAVBNC_BaseDialog@@@std@@V?$allocator@PAVBNC_BaseDialog@@@3@@std@@QAE@XZ 1010b1b0 f i BNC_BaseDialog.obj
 0002:00048220       ??0?$shared_ptr@VBNC_FakeModal@@@std@@QAE@$$QAV01@@Z 1010b220 f i BNC_BaseDialog.obj
 0002:00048290       ??0?$shared_ptr@VBNC_FakeModal@@@std@@QAE@$$T@Z 1010b290 f i BNC_BaseDialog.obj
 0002:000482f0       ??0?$shared_ptr@VBNC_FakeModal@@@std@@QAE@ABV01@@Z 1010b2f0 f i BNC_BaseDialog.obj
 0002:00048360       ??0?$shared_ptr@VBNC_FakeModal@@@std@@QAE@XZ 1010b360 f i BNC_BaseDialog.obj
 0002:000483c0       ??0?$vector@PAVBNC_BaseDialog@@V?$allocator@PAVBNC_BaseDialog@@@std@@@std@@QAE@XZ 1010b3c0 f i BNC_BaseDialog.obj
 0002:00048430       ??0BNC_BaseDialog@@QAE@IPAVCWnd@@@Z 1010b430 f   BNC_BaseDialog.obj
 0002:000487a0       ??0BNC_BaseDialog@@QAE@XZ  1010b7a0 f   BNC_BaseDialog.obj
 0002:00048ad0       ??0BNC_BaseDialogTracer@@QAE@U_token@?$TSingleton@VBNC_BaseDialogTracer@@@baro@@@Z 1010bad0 f   BNC_BaseDialog.obj
 0002:00048bd0       ??0BNS_BorderessProcAttribute@@QAE@XZ 1010bbd0 f i BNC_BaseDialog.obj
 0002:00048c30       ??0CPoint@@QAE@XZ          1010bc30 f i BNC_BaseDialog.obj
 0002:00048c80       ??0Graphics@Gdiplus@@QAE@PAUHDC__@@@Z 1010bc80 f i BNC_BaseDialog.obj
 0002:00048d50       ??0RectF@Gdiplus@@QAE@MMMM@Z 1010bd50 f i BNC_BaseDialog.obj
 0002:00048dd0       ??1?$_Iterator012@Ubidirectional_iterator_tag@std@@PAUHWND__@@HPBQAU3@ABQAU3@U_Iterator_base12@2@@std@@QAE@XZ 1010bdd0 f i BNC_BaseDialog.obj
 0002:00048e20       ??1?$_Iterator012@Ubidirectional_iterator_tag@std@@PAVBNC_BaseDialog@@HPBQAV3@ABQAV3@U_Iterator_base12@2@@std@@QAE@XZ 1010be20 f i BNC_BaseDialog.obj
 0002:00048e70       ??1?$_Iterator012@Urandom_access_iterator_tag@std@@PAVBNC_BaseDialog@@HPBQAV3@ABQAV3@U_Iterator_base12@2@@std@@QAE@XZ 1010be70 f i BNC_BaseDialog.obj
 0002:00048ec0       ??1?$_Tree@V?$_Tset_traits@PAUHWND__@@U?$less@PAUHWND__@@@std@@V?$allocator@PAUHWND__@@@3@$0A@@std@@@std@@QAE@XZ 1010bec0 f i BNC_BaseDialog.obj
 0002:00048f20       ??1?$_Tree@V?$_Tset_traits@PAVBNC_BaseDialog@@U?$less@PAVBNC_BaseDialog@@@std@@V?$allocator@PAVBNC_BaseDialog@@@3@$0A@@std@@@std@@QAE@XZ 1010bf20 f i BNC_BaseDialog.obj
 0002:00048f80       ??1?$_Tree_alloc@$0A@U?$_Tree_base_types@PAUHWND__@@V?$allocator@PAUHWND__@@@std@@@std@@@std@@QAE@XZ 1010bf80 f i BNC_BaseDialog.obj
 0002:00048ff0       ??1?$_Tree_alloc@$0A@U?$_Tree_base_types@PAVBNC_BaseDialog@@V?$allocator@PAVBNC_BaseDialog@@@std@@@std@@@std@@QAE@XZ 1010bff0 f i BNC_BaseDialog.obj
 0002:00049060       ??1?$_Tree_buy@PAUHWND__@@V?$allocator@PAUHWND__@@@std@@@std@@QAE@XZ 1010c060 f i BNC_BaseDialog.obj
 0002:000490b0       ??1?$_Tree_buy@PAVBNC_BaseDialog@@V?$allocator@PAVBNC_BaseDialog@@@std@@@std@@QAE@XZ 1010c0b0 f i BNC_BaseDialog.obj
 0002:00049100       ??1?$_Tree_comp@$0A@V?$_Tset_traits@PAUHWND__@@U?$less@PAUHWND__@@@std@@V?$allocator@PAUHWND__@@@3@$0A@@std@@@std@@QAE@XZ 1010c100 f i BNC_BaseDialog.obj
 0002:00049150       ??1?$_Tree_comp@$0A@V?$_Tset_traits@PAVBNC_BaseDialog@@U?$less@PAVBNC_BaseDialog@@@std@@V?$allocator@PAVBNC_BaseDialog@@@3@$0A@@std@@@std@@QAE@XZ 1010c150 f i BNC_BaseDialog.obj
 0002:000491a0       ??1?$_Tree_const_iterator@V?$_Tree_val@U?$_Tree_simple_types@PAUHWND__@@@std@@@std@@@std@@QAE@XZ 1010c1a0 f i BNC_BaseDialog.obj
 0002:000491f0       ??1?$_Tree_const_iterator@V?$_Tree_val@U?$_Tree_simple_types@PAVBNC_BaseDialog@@@std@@@std@@@std@@QAE@XZ 1010c1f0 f i BNC_BaseDialog.obj
 0002:00049240       ??1?$_Tree_unchecked_const_iterator@V?$_Tree_val@U?$_Tree_simple_types@PAUHWND__@@@std@@@std@@U_Iterator_base12@2@@std@@QAE@XZ 1010c240 f i BNC_BaseDialog.obj
 0002:00049290       ??1?$_Tree_unchecked_const_iterator@V?$_Tree_val@U?$_Tree_simple_types@PAVBNC_BaseDialog@@@std@@@std@@U_Iterator_base12@2@@std@@QAE@XZ 1010c290 f i BNC_BaseDialog.obj
 0002:000492e0       ??1?$_Tree_val@U?$_Tree_simple_types@PAUHWND__@@@std@@@std@@QAE@XZ 1010c2e0 f i BNC_BaseDialog.obj
 0002:00049340       ??1?$_Tree_val@U?$_Tree_simple_types@PAVBNC_BaseDialog@@@std@@@std@@QAE@XZ 1010c340 f i BNC_BaseDialog.obj
 0002:000493a0       ??1?$_Vector_alloc@$0A@U?$_Vec_base_types@PAVBNC_BaseDialog@@V?$allocator@PAVBNC_BaseDialog@@@std@@@std@@@std@@QAE@XZ 1010c3a0 f i BNC_BaseDialog.obj
 0002:00049400       ??1?$_Vector_const_iterator@V?$_Vector_val@U?$_Simple_types@PAVBNC_BaseDialog@@@std@@@std@@@std@@QAE@XZ 1010c400 f i BNC_BaseDialog.obj
 0002:00049450       ??1?$_Vector_iterator@V?$_Vector_val@U?$_Simple_types@PAVBNC_BaseDialog@@@std@@@std@@@std@@QAE@XZ 1010c450 f i BNC_BaseDialog.obj
 0002:000494a0       ??1?$_Vector_val@U?$_Simple_types@PAVBNC_BaseDialog@@@std@@@std@@QAE@XZ 1010c4a0 f i BNC_BaseDialog.obj
 0002:00049500       ??1?$pair@V?$_Tree_const_iterator@V?$_Tree_val@U?$_Tree_simple_types@PAUHWND__@@@std@@@std@@@std@@_N@std@@QAE@XZ 1010c500 f i BNC_BaseDialog.obj
 0002:00049550       ??1?$pair@V?$_Tree_const_iterator@V?$_Tree_val@U?$_Tree_simple_types@PAVBNC_BaseDialog@@@std@@@std@@@std@@_N@std@@QAE@XZ 1010c550 f i BNC_BaseDialog.obj
 0002:000495a0       ??1?$set@PAUHWND__@@U?$less@PAUHWND__@@@std@@V?$allocator@PAUHWND__@@@3@@std@@QAE@XZ 1010c5a0 f i BNC_BaseDialog.obj
 0002:000495f0       ??1?$set@PAVBNC_BaseDialog@@U?$less@PAVBNC_BaseDialog@@@std@@V?$allocator@PAVBNC_BaseDialog@@@3@@std@@QAE@XZ 1010c5f0 f i BNC_BaseDialog.obj
 0002:00049640       ??1?$shared_ptr@VBNC_FakeModal@@@std@@QAE@XZ 1010c640 f i BNC_BaseDialog.obj
 0002:00049690       ??1?$vector@PAVBNC_BaseDialog@@V?$allocator@PAVBNC_BaseDialog@@@std@@@std@@QAE@XZ 1010c690 f i BNC_BaseDialog.obj
 0002:000496f0       ??1BNC_BaseDialog@@UAE@XZ  1010c6f0 f   BNC_BaseDialog.obj
 0002:00049be0       ??1BNC_BaseDialogTracer@@UAE@XZ 1010cbe0 f   BNC_BaseDialog.obj
 0002:00049ce0       ??1Graphics@Gdiplus@@QAE@XZ 1010cce0 f i BNC_BaseDialog.obj
 0002:00049d40       ??4?$shared_ptr@VBNC_FakeModal@@@std@@QAEAAV01@$$QAV01@@Z 1010cd40 f i BNC_BaseDialog.obj
 0002:00049dd0       ??4?$shared_ptr@VBNC_FakeModal@@@std@@QAEAAV01@ABV01@@Z 1010cdd0 f i BNC_BaseDialog.obj
 0002:00049e50       ??4atomic_uint@std@@QAEII@Z 1010ce50 f i BNC_BaseDialog.obj
 0002:00049eb0       ??8?$_Tree_const_iterator@V?$_Tree_val@U?$_Tree_simple_types@PAUHWND__@@@std@@@std@@@std@@QBE_NABV01@@Z 1010ceb0 f i BNC_BaseDialog.obj
 0002:0004a010       ??8?$_Tree_const_iterator@V?$_Tree_val@U?$_Tree_simple_types@PAVBNC_BaseDialog@@@std@@@std@@@std@@QBE_NABV01@@Z 1010d010 f i BNC_BaseDialog.obj
 0002:0004a170       ??8?$_Vector_const_iterator@V?$_Vector_val@U?$_Simple_types@PAVBNC_BaseDialog@@@std@@@std@@@std@@QBE_NABV01@@Z 1010d170 f i BNC_BaseDialog.obj
 0002:0004a200       ??8CRect@@QBEHABUtagRECT@@@Z 1010d200 f i BNC_BaseDialog.obj
 0002:0004a270       ??9?$_Tree_const_iterator@V?$_Tree_val@U?$_Tree_simple_types@PAUHWND__@@@std@@@std@@@std@@QBE_NABV01@@Z 1010d270 f i BNC_BaseDialog.obj
 0002:0004a300       ??9?$_Tree_const_iterator@V?$_Tree_val@U?$_Tree_simple_types@PAVBNC_BaseDialog@@@std@@@std@@@std@@QBE_NABV01@@Z 1010d300 f i BNC_BaseDialog.obj
 0002:0004a390       ??9?$_Vector_const_iterator@V?$_Vector_val@U?$_Simple_types@PAVBNC_BaseDialog@@@std@@@std@@@std@@QBE_NABV01@@Z 1010d390 f i BNC_BaseDialog.obj
 0002:0004a420       ??A?$vector@PAVBNC_BaseDialog@@V?$allocator@PAVBNC_BaseDialog@@@std@@@std@@QAEAAPAVBNC_BaseDialog@@I@Z 1010d420 f i BNC_BaseDialog.obj
 0002:0004a540       ??B?$shared_ptr@VBNC_FakeModal@@@std@@QBE_NXZ 1010d540 f i BNC_BaseDialog.obj
 0002:0004a5c0       ??Batomic_uint@std@@QBEIXZ 1010d5c0 f i BNC_BaseDialog.obj
 0002:0004a620       ??C?$shared_ptr@VBNC_FakeModal@@@std@@QBEPAVBNC_FakeModal@@XZ 1010d620 f i BNC_BaseDialog.obj
 0002:0004a670       ??C?$unique_ptr@VBNC_CaptureKeyboardMouse@@U?$default_delete@VBNC_CaptureKeyboardMouse@@@std@@@std@@QBEPAVBNC_CaptureKeyboardMouse@@XZ 1010d670 f i BNC_BaseDialog.obj
 0002:0004a6d0       ??D?$_Tree_const_iterator@V?$_Tree_val@U?$_Tree_simple_types@PAUHWND__@@@std@@@std@@@std@@QBEABQAUHWND__@@XZ 1010d6d0 f i BNC_BaseDialog.obj
 0002:0004a810       ??D?$_Tree_const_iterator@V?$_Tree_val@U?$_Tree_simple_types@PAVBNC_BaseDialog@@@std@@@std@@@std@@QBEABQAVBNC_BaseDialog@@XZ 1010d810 f i BNC_BaseDialog.obj
 0002:0004a950       ??D?$_Vector_const_iterator@V?$_Vector_val@U?$_Simple_types@PAVBNC_BaseDialog@@@std@@@std@@@std@@QBEABQAVBNC_BaseDialog@@XZ 1010d950 f i BNC_BaseDialog.obj
 0002:0004aa90       ??D?$_Vector_iterator@V?$_Vector_val@U?$_Simple_types@PAVBNC_BaseDialog@@@std@@@std@@@std@@QBEAAPAVBNC_BaseDialog@@XZ 1010da90 f i BNC_BaseDialog.obj
 0002:0004aae0       ??D?$unique_ptr@VBNC_CaptureKeyboardMouse@@U?$default_delete@VBNC_CaptureKeyboardMouse@@@std@@@std@@QBEAAVBNC_CaptureKeyboardMouse@@XZ 1010dae0 f i BNC_BaseDialog.obj
 0002:0004ab20       ??E?$_Tree_const_iterator@V?$_Tree_val@U?$_Tree_simple_types@PAUHWND__@@@std@@@std@@@std@@QAE?AV01@H@Z 1010db20 f i BNC_BaseDialog.obj
 0002:0004ac60       ??E?$_Tree_const_iterator@V?$_Tree_val@U?$_Tree_simple_types@PAUHWND__@@@std@@@std@@@std@@QAEAAV01@XZ 1010dc60 f i BNC_BaseDialog.obj
 0002:0004ada0       ??E?$_Tree_const_iterator@V?$_Tree_val@U?$_Tree_simple_types@PAVBNC_BaseDialog@@@std@@@std@@@std@@QAE?AV01@H@Z 1010dda0 f i BNC_BaseDialog.obj
 0002:0004aee0       ??E?$_Tree_const_iterator@V?$_Tree_val@U?$_Tree_simple_types@PAVBNC_BaseDialog@@@std@@@std@@@std@@QAEAAV01@XZ 1010dee0 f i BNC_BaseDialog.obj
 0002:0004b020       ??E?$_Tree_unchecked_const_iterator@V?$_Tree_val@U?$_Tree_simple_types@PAUHWND__@@@std@@@std@@U_Iterator_base12@2@@std@@QAEAAV01@XZ 1010e020 f i BNC_BaseDialog.obj
 0002:0004b150       ??E?$_Tree_unchecked_const_iterator@V?$_Tree_val@U?$_Tree_simple_types@PAVBNC_BaseDialog@@@std@@@std@@U_Iterator_base12@2@@std@@QAEAAV01@XZ 1010e150 f i BNC_BaseDialog.obj
 0002:0004b280       ??E?$_Vector_const_iterator@V?$_Vector_val@U?$_Simple_types@PAVBNC_BaseDialog@@@std@@@std@@@std@@QAEAAV01@XZ 1010e280 f i BNC_BaseDialog.obj
 0002:0004b3b0       ??E?$_Vector_iterator@V?$_Vector_val@U?$_Simple_types@PAVBNC_BaseDialog@@@std@@@std@@@std@@QAEAAV01@XZ 1010e3b0 f i BNC_BaseDialog.obj
 0002:0004b410       ??Eatomic_uint@std@@QAEIH@Z 1010e410 f i BNC_BaseDialog.obj
 0002:0004b470       ??F?$_Tree_const_iterator@V?$_Tree_val@U?$_Tree_simple_types@PAUHWND__@@@std@@@std@@@std@@QAEAAV01@XZ 1010e470 f i BNC_BaseDialog.obj
 0002:0004b650       ??F?$_Tree_const_iterator@V?$_Tree_val@U?$_Tree_simple_types@PAVBNC_BaseDialog@@@std@@@std@@@std@@QAEAAV01@XZ 1010e650 f i BNC_BaseDialog.obj
 0002:0004b830       ??F?$_Tree_unchecked_const_iterator@V?$_Tree_val@U?$_Tree_simple_types@PAUHWND__@@@std@@@std@@U_Iterator_base12@2@@std@@QAEAAV01@XZ 1010e830 f i BNC_BaseDialog.obj
 0002:0004b990       ??F?$_Tree_unchecked_const_iterator@V?$_Tree_val@U?$_Tree_simple_types@PAVBNC_BaseDialog@@@std@@@std@@U_Iterator_base12@2@@std@@QAEAAV01@XZ 1010e990 f i BNC_BaseDialog.obj
 0002:0004baf0       ??R?$less@PAUHWND__@@@std@@QBE_NABQAUHWND__@@0@Z 1010eaf0 f i BNC_BaseDialog.obj
 0002:0004bb60       ??R?$less@PAVBNC_BaseDialog@@@std@@QBE_NABQAVBNC_BaseDialog@@0@Z 1010eb60 f i BNC_BaseDialog.obj
 0002:0004bbd0       ??_EBNC_BaseDialog@@UAEPAXI@Z 1010ebd0 f i BNC_BaseDialog.obj
 0002:0004bc90       ??_EBNC_BaseDialogTracer@@UAEPAXI@Z 1010ec90 f i BNC_BaseDialog.obj
 0002:0004bd50       ??_GBNC_BaseDialog@@UAEPAXI@Z 1010ed50 f i BNC_BaseDialog.obj
 0002:0004bdc0       ??_GBNC_BaseDialogTracer@@UAEPAXI@Z 1010edc0 f i BNC_BaseDialog.obj
 0002:0004be30       ?Animation@BNC_BaseDialog@@QAEX_NPAVCPoint@@1N@Z 1010ee30 f   BNC_BaseDialog.obj
 0002:0004c1f0       ?BeginFakeModalLoop@BNC_BaseDialog@@QAE_NV?$shared_ptr@VBNC_FakeModal@@@std@@I@Z 1010f1f0 f   BNC_BaseDialog.obj
 0002:0004c520       ?BreakFakeModalLoop@BNC_BaseDialog@@QAEXXZ 1010f520 f   BNC_BaseDialog.obj
 0002:0004c5e0       ?CenterPoint@CRect@@QBE?AVCPoint@@XZ 1010f5e0 f i BNC_BaseDialog.obj
 0002:0004c660       ?CheckHitTest@BNC_BaseDialog@@AAEIVCPoint@@@Z 1010f660 f   BNC_BaseDialog.obj
 0002:0004c7b0       ?CheckMonitorArea@BNC_BaseDialog@@IAE?AVCRect@@AAV2@@Z 1010f7b0 f   BNC_BaseDialog.obj
 0002:0004c960       ?Clear@BNS_BorderessProcAttribute@@QAEXXZ 1010f960 f i BNC_BaseDialog.obj
 0002:0004c9e0       ?CopyDC@BNC_BaseDialog@@QAEXPAVCDC@@@Z 1010f9e0 f   BNC_BaseDialog.obj
 0002:0004cbb0       ?Create@BNC_BaseDialog@@UAEHPB_WPAVCWnd@@@Z 1010fbb0 f   BNC_BaseDialog.obj
 0002:0004cbf0       ?CreateDisableOverlay@BNC_BaseDialog@@AAE_NXZ 1010fbf0 f   BNC_BaseDialog.obj
 0002:0004ce80       ?CreateEx@BNC_BaseDialog@@UAEHKPB_W0KABUtagRECT@@PAVCWnd@@IPAX@Z 1010fe80 f   BNC_BaseDialog.obj
 0002:0004cec0       ?CreateInactiveOverlay@BNC_BaseDialog@@AAE_NXZ 1010fec0 f   BNC_BaseDialog.obj
 0002:0004d160       ?CreateSystemMessage@BNC_BaseDialog@@AAE_NXZ 10110160 f   BNC_BaseDialog.obj
 0002:0004d420       ?DefWindowProcW@BNC_BaseDialog@@MAEJIIJ@Z 10110420 f   BNC_BaseDialog.obj
 0002:0004d510       ?DefaultParams@BNC_BaseDialog@@AAEXXZ 10110510 f   BNC_BaseDialog.obj
 0002:0004dda0       ?Delete@BNC_BaseDialogTracer@@AAE_NPAUHWND__@@@Z 10110da0 f   BNC_BaseDialog.obj
 0002:0004e030       ?DestroyWindow@BNC_BaseDialog@@UAEHXZ 10111030 f   BNC_BaseDialog.obj
 0002:0004e5b0       ?DoDataExchange@BNC_BaseDialog@@MAEXPAVCDataExchange@@@Z 101115b0 f   BNC_BaseDialog.obj
 0002:0004e610       ?Draw@BNC_BaseDialog@@QAEXPAVCDC@@PAUtagRECT@@_N@Z 10111610 f   BNC_BaseDialog.obj
 0002:0004eae0       ?DrawImage@Graphics@Gdiplus@@QAE?AW4Status@2@PAVImage@2@ABVRectF@2@MMMMW4Unit@2@PBVImageAttributes@2@P6GHPAX@Z4@Z 10111ae0 f i BNC_BaseDialog.obj
 0002:0004ec30       ?DrawImage@Graphics@Gdiplus@@QAE?AW4Status@2@PAVImage@2@HHHHHHW4Unit@2@@Z 10111c30 f i BNC_BaseDialog.obj
 0002:0004ecf0       ?DrawOutsideLine@BNC_BaseDialog@@IAEXPAVCDC@@@Z 10111cf0 f   BNC_BaseDialog.obj
 0002:0004ed90       ?DrawOutsideLine@BNC_BaseDialog@@IAEXPAVCDC@@K@Z 10111d90 f   BNC_BaseDialog.obj
 0002:0004efa0       ?EnableBorderessProc@BNC_BaseDialog@@QAE_N_N@Z 10111fa0 f   BNC_BaseDialog.obj
 0002:0004f210       ?EnableResizing@BNC_BaseDialog@@QAEX_N@Z 10112210 f   BNC_BaseDialog.obj
 0002:0004f350       ?EnableTopmost@BNC_BaseDialog@@QAEX_N@Z 10112350 f   BNC_BaseDialog.obj
 0002:0004f430       ?EnableWindowLayered@BNC_BaseDialog@@QAEX_N0@Z 10112430 f   BNC_BaseDialog.obj
 0002:0004f580       ?EnableWindowSync@BNC_BaseDialog@@QAEXH@Z 10112580 f   BNC_BaseDialog.obj
 0002:0004f650       ?EndCallModal@BNC_BaseDialog@@QAE_NAAVBNC_BaseModal@@@Z 10112650 f   BNC_BaseDialog.obj
 0002:0004f6f0       ?EndFakeModalLoop@BNC_BaseDialog@@QAEXPAVBNC_FakeModal@@@Z 101126f0 f   BNC_BaseDialog.obj
 0002:0004f7f0       ?FromPopupHwnd@BNC_BaseDialogTracer@@QAEPAUHWND__@@PAVCWnd@@@Z 101127f0 f   BNC_BaseDialog.obj
 0002:0004fa90       ?FromPopupPtr@BNC_BaseDialogTracer@@QAEPAVBNC_BaseDialog@@PAVCWnd@@@Z 10112a90 f   BNC_BaseDialog.obj
 0002:0004fd00       ?GetAliveCount@BNC_BaseDialog@@SAIXZ 10112d00 f   BNC_BaseDialog.obj
 0002:0004fd60       ?GetAliveDialog@BNC_BaseDialogTracer@@QAE?AV?$set@PAUHWND__@@U?$less@PAUHWND__@@@std@@V?$allocator@PAUHWND__@@@3@@std@@XZ 10112d60 f   BNC_BaseDialog.obj
 0002:0004fed0       ?GetAlpha@BNC_BaseDialog@@QAEEXZ 10112ed0 f   BNC_BaseDialog.obj
 0002:0004ff90       ?GetApplicationUserData@BNC_BaseDialog@@EAEKXZ 10112f90 f   BNC_BaseDialog.obj
 0002:0004ffd0       ?GetApplySyncAlpha@BNC_BaseDialog@@QAEEXZ 10112fd0 f   BNC_BaseDialog.obj
 0002:00050070       ?GetCenterArea@BNC_BaseDialog@@IAE?AVCRect@@PAVCWnd@@HH_N@Z 10113070 f   BNC_BaseDialog.obj
 0002:000503b0       ?GetCreateCount@BNC_BaseDialog@@SAIXZ 101133b0 f   BNC_BaseDialog.obj
 0002:00050400       ?GetDefaultWnd@BNC_BaseDialog@@QBE?AVCRect@@XZ 10113400 f   BNC_BaseDialog.obj
 0002:00050470       ?GetDisableOverlayPtr@BNC_BaseDialog@@QAEPAVBNC_BaseFloating@@XZ 10113470 f   BNC_BaseDialog.obj
 0002:000504b0       ?GetDlgType@BNC_BaseDialog@@QAE?AW4BNE_DIALOG_TYPE@@XZ 101134b0 f   BNC_BaseDialog.obj
 0002:000504f0       ?GetFixPoint@BNC_BaseDialog@@SA_NAAVCRect@@KAAVCPoint@@AAVCSize@@1PAV2@@Z 101134f0 f   BNC_BaseDialog.obj
 0002:00050880       ?GetHDWP@BNC_BaseDialog@@QAEPAXXZ 10113880 f   BNC_BaseDialog.obj
 0002:000508c0       ?GetHitTest@BNC_BaseDialog@@QAEIXZ 101138c0 f   BNC_BaseDialog.obj
 0002:00050960       ?GetInitParent@BNC_BaseDialog@@QAEPAVCWnd@@XZ 10113960 f   BNC_BaseDialog.obj
 0002:000509a0       ?GetInitWindowPosFlags@BNC_BaseDialog@@EAEIXZ 101139a0 f   BNC_BaseDialog.obj
 0002:000509e0       ?GetInitWindowStyle@BNC_BaseDialog@@EAEKXZ 101139e0 f   BNC_BaseDialog.obj
 0002:00050a20       ?GetInitWindowStyleEx@BNC_BaseDialog@@EAEKXZ 10113a20 f   BNC_BaseDialog.obj
 0002:00050a60       ?GetMaxMonitorResolution@BNC_BaseDialog@@SA?AVCSize@@XZ 10113a60 f   BNC_BaseDialog.obj
 0002:00050ab0       ?GetMessageMap@BNC_BaseDialog@@MBEPBUAFX_MSGMAP@@XZ 10113ab0 f   BNC_BaseDialog.obj
 0002:00050b00       ?GetNormalRect@BNC_BaseDialog@@QAE?AVCRect@@XZ 10113b00 f   BNC_BaseDialog.obj
 0002:00050bc0       ?GetRootClient@BNC_BaseDialog@@QAEPAUHWND__@@XZ 10113bc0 f   BNC_BaseDialog.obj
 0002:00050c30       ?GetRuntimeClass@BNC_BaseDialog@@UBEPAUCRuntimeClass@@XZ 10113c30 f   BNC_BaseDialog.obj
 0002:00050c70       ?GetSyncWindowPosFlag@BNC_BaseDialog@@QAEIXZ 10113c70 f   BNC_BaseDialog.obj
 0002:00050d00       ?GetSyncWindowPosFlags@BNC_BaseDialog@@QAEIK@Z 10113d00 f   BNC_BaseDialog.obj
 0002:00050d60       ?GetSystemMessagePtr@BNC_BaseDialog@@QAEPAVBNC_FloatingMessage@@XZ 10113d60 f   BNC_BaseDialog.obj
 0002:00050da0       ?GetSystemTrayData@BNC_BaseDialog@@QAEPBU_NOTIFYICONDATAW@@XZ 10113da0 f   BNC_BaseDialog.obj
 0002:00050de0       ?GetThisClass@BNC_BaseDialog@@SGPAUCRuntimeClass@@XZ 10113de0 f   BNC_BaseDialog.obj
 0002:00050e20       ?GetThisMessageMap@BNC_BaseDialog@@KGPBUAFX_MSGMAP@@XZ 10113e20 f   BNC_BaseDialog.obj
 0002:00050e60       ?GetThreadID@BNC_BaseDialog@@QAEKXZ 10113e60 f   BNC_BaseDialog.obj
 0002:00050ea0       ?GetTransparentAnimationRange@BNC_BaseDialog@@QAE?AU?$pair@EE@std@@XZ 10113ea0 f   BNC_BaseDialog.obj
 0002:00050f10       ?GetUpdateSyncPos@BNC_BaseDialog@@IAEXHHHHAAVCPoint@@AAVCSize@@AAI@Z 10113f10 f   BNC_BaseDialog.obj
 0002:00051390       ?GetVisiableStatus@BNC_BaseDialog@@QAEIXZ 10114390 f   BNC_BaseDialog.obj
 0002:00051430       ?HideSystemMessage@BNC_BaseDialog@@QAEX_N@Z 10114430 f   BNC_BaseDialog.obj
 0002:000514a0       ?Initialize@BNC_BaseDialog@@AAEX_N00@Z 101144a0 f   BNC_BaseDialog.obj
 0002:00051770       ?Insert@BNC_BaseDialogTracer@@AAE_NPAUHWND__@@@Z 10114770 f   BNC_BaseDialog.obj
 0002:00051930       ?IsAlive@BNC_BaseDialogTracer@@QAE_NPAUHWND__@@@Z 10114930 f   BNC_BaseDialog.obj
 0002:00051b40       ?IsAnimationVisible@BNC_BaseDialog@@QAE_NXZ 10114b40 f   BNC_BaseDialog.obj
 0002:00051be0       ?IsAutoDelete@BNC_BaseDialog@@QAE_NXZ 10114be0 f   BNC_BaseDialog.obj
 0002:00051c20       ?IsEnableTopmost@BNC_BaseDialog@@QBE_NXZ 10114c20 f   BNC_BaseDialog.obj
 0002:00051c60       ?IsZoomedEx@BNC_BaseDialog@@QAE_NXZ 10114c60 f   BNC_BaseDialog.obj
 0002:00051d00       ?LButtonDblClk@BNC_BaseDialog@@IAEXAAIAAVCPoint@@@Z 10114d00 f   BNC_BaseDialog.obj
 0002:00051e00       ?LButtonDown@BNC_BaseDialog@@IAEXAAIAAVCPoint@@@Z 10114e00 f   BNC_BaseDialog.obj
 0002:00051ed0       ?LButtonUp@BNC_BaseDialog@@IAEXAAIAAVCPoint@@@Z 10114ed0 f   BNC_BaseDialog.obj
 0002:00051f30       ?MouseMove@BNC_BaseDialog@@IAEXAAIAAVCPoint@@@Z 10114f30 f   BNC_BaseDialog.obj
 0002:00052190       ?NotifyRootClient@BNC_BaseDialog@@IAEXW4BNE_POPUP_STATUS@@@Z 10115190 f   BNC_BaseDialog.obj
 0002:00052250       ?OnCancel@BNC_BaseDialog@@MAEXXZ 10115250 f   BNC_BaseDialog.obj
 0002:000522b0       ?OnCloseBlock@BNC_BaseDialog@@EAEJIJ@Z 101152b0 f   BNC_BaseDialog.obj
 0002:00052370       ?OnCreate@BNC_BaseDialog@@EAE_NXZ 10115370 f   BNC_BaseDialog.obj
 0002:000523b0       ?OnCreateDefaultPos@BNC_BaseDialog@@EAEXXZ 101153b0 f   BNC_BaseDialog.obj
 0002:000523f0       ?OnDestroyBlock@BNC_BaseDialog@@EAEJIJ@Z 101153f0 f   BNC_BaseDialog.obj
 0002:00052520       ?OnDisplayChange@BNC_BaseDialog@@EAEJIJ@Z 10115520 f   BNC_BaseDialog.obj
 0002:00052560       ?OnDpiChange@BNC_BaseDialog@@EAEJIJ@Z 10115560 f   BNC_BaseDialog.obj
 0002:000525a0       ?OnDraw@BNC_BaseDialog@@EAE_NPAVCDC@@0@Z 101155a0 f   BNC_BaseDialog.obj
 0002:00052740       ?OnDrawEnd@BNC_BaseDialog@@EAEXXZ 10115740 f   BNC_BaseDialog.obj
 0002:00052780       ?OnDrawRootClient@BNC_BaseDialog@@UAE_NPAVCDC@@0@Z 10115780 f   BNC_BaseDialog.obj
 0002:00052800       ?OnFirstTransparentAnimation@BNC_BaseDialog@@UAEXE@Z 10115800 f   BNC_BaseDialog.obj
 0002:00052840       ?OnInitDialog@BNC_BaseDialog@@MAEHXZ 10115840 f   BNC_BaseDialog.obj
 0002:00053300       ?OnMessageButton@BNC_BaseDialog@@EAEJIJ@Z 10116300 f   BNC_BaseDialog.obj
 0002:00053450       ?OnMessageClient@BNC_BaseDialog@@EAEJIJ@Z 10116450 f   BNC_BaseDialog.obj
 0002:00053490       ?OnMessageCombo@BNC_BaseDialog@@EAEJIJ@Z 10116490 f   BNC_BaseDialog.obj
 0002:000534d0       ?OnMessageContextMenu@BNC_BaseDialog@@EAEJIJ@Z 101164d0 f   BNC_BaseDialog.obj
 0002:00053520       ?OnMessageEdit@BNC_BaseDialog@@EAEJIJ@Z 10116520 f   BNC_BaseDialog.obj
 0002:00053590       ?OnMessageFButton@BNC_BaseDialog@@EAEJIJ@Z 10116590 f   BNC_BaseDialog.obj
 0002:000536e0       ?OnMessageForeground@BNC_BaseDialog@@EAEJIJ@Z 101166e0 f   BNC_BaseDialog.obj
 0002:000537d0       ?OnMessageHtmlWebEvent@BNC_BaseDialog@@EAEJIJ@Z 101167d0 f   BNC_BaseDialog.obj
 0002:00053810       ?OnMessageList@BNC_BaseDialog@@EAEJIJ@Z 10116810 f   BNC_BaseDialog.obj
 0002:000538d0       ?OnMessageNotify@BNC_BaseDialog@@EAEJIJ@Z 101168d0 f   BNC_BaseDialog.obj
 0002:00053910       ?OnMessageProgress@BNC_BaseDialog@@EAEJIJ@Z 10116910 f   BNC_BaseDialog.obj
 0002:00053950       ?OnMessageRedraw@BNC_BaseDialog@@EAEJIJ@Z 10116950 f   BNC_BaseDialog.obj
 0002:00053b00       ?OnMessageScroll@BNC_BaseDialog@@EAEJIJ@Z 10116b00 f   BNC_BaseDialog.obj
 0002:00053bb0       ?OnMessageSlider@BNC_BaseDialog@@EAEJIJ@Z 10116bb0 f   BNC_BaseDialog.obj
 0002:00053c80       ?OnMessageSystray@BNC_BaseDialog@@EAEJIJ@Z 10116c80 f   BNC_BaseDialog.obj
 0002:00053cc0       ?OnMessageTab@BNC_BaseDialog@@EAEJIJ@Z 10116cc0 f   BNC_BaseDialog.obj
 0002:00053d80       ?OnMessageTransparent@BNC_BaseDialog@@EAEJIJ@Z 10116d80 f   BNC_BaseDialog.obj
 0002:00053ec0       ?OnMessageTree@BNC_BaseDialog@@EAEJIJ@Z 10116ec0 f   BNC_BaseDialog.obj
 0002:00053f00       ?OnOK@BNC_BaseDialog@@MAEXXZ 10116f00 f   BNC_BaseDialog.obj
 0002:00053f60       ?OnShowWindowSync@BNC_BaseDialog@@AAEXHPAUtagWINDOWPOS@@@Z 10116f60 f   BNC_BaseDialog.obj
 0002:00054210       ?OnSyncWindowPos@BNC_BaseDialog@@MAE_NPAXPBVCWnd@@HHHHI@Z 10117210 f   BNC_BaseDialog.obj
 0002:00054250       ?OnTransparentUpdate@BNC_BaseDialog@@EAEXW4TransparentStep@@EEEM@Z 10117250 f   BNC_BaseDialog.obj
 0002:00054290       ?OnUpdateSize@BNC_BaseDialog@@EAEXHH@Z 10117290 f   BNC_BaseDialog.obj
 0002:00054430       ?OnUpdateSystemMessagePos@BNC_BaseDialog@@UAEXPAUBNS_SyncPos@@@Z 10117430 f   BNC_BaseDialog.obj
 0002:00054470       ?OnUpdateWindowRgn@BNC_BaseDialog@@UAEXHH@Z 10117470 f   BNC_BaseDialog.obj
 0002:000545a0       ?OnUpdateWindowStatus@BNC_BaseDialog@@EAEXW4BNE_POPUP_STATUS@@@Z 101175a0 f   BNC_BaseDialog.obj
 0002:000545e0       ?PostNcDestroy@BNC_BaseDialog@@MAEXXZ 101175e0 f   BNC_BaseDialog.obj
 0002:00054870       ?PreTranslateMessage@BNC_BaseDialog@@MAEHPAUtagMSG@@@Z 10117870 f   BNC_BaseDialog.obj
 0002:00054a80       ?RegSyncBlending@BNC_BaseDialog@@AAE_N_NPAV1@@Z 10117a80 f   BNC_BaseDialog.obj
 0002:00054e10       ?RegSyncDialog@BNC_BaseDialog@@QAEK_NPAV1@K@Z 10117e10 f   BNC_BaseDialog.obj
 0002:00055000       ?RegSyncEnable@BNC_BaseDialog@@AAE_N_NPAV1@@Z 10118000 f   BNC_BaseDialog.obj
 0002:00055390       ?RegSyncPosition@BNC_BaseDialog@@AAE_N_NPAV1@@Z 10118390 f   BNC_BaseDialog.obj
 0002:00055980       ?RegSyncVisible@BNC_BaseDialog@@AAE_N_NPAV1@@Z 10118980 f   BNC_BaseDialog.obj
 0002:00055d10       ?RegSyncZorder@BNC_BaseDialog@@AAE_N_NPAV1@@Z 10118d10 f   BNC_BaseDialog.obj
 0002:00056060       ?ReleaseHDC@Graphics@Gdiplus@@QAEXPAUHDC__@@@Z 10119060 f i BNC_BaseDialog.obj
 0002:000560d0       ?ResetLayerInfo@BNC_BaseDialog@@IAEXXZ 101190d0 f   BNC_BaseDialog.obj
 0002:00056220       ?ResetSyncVisible@BNC_BaseDialog@@QAEX_N@Z 10119220 f   BNC_BaseDialog.obj
 0002:00056630       ?RunCallModal@BNC_BaseDialog@@QAEHAAVBNC_BaseModal@@_NEK@Z 10119630 f   BNC_BaseDialog.obj
 0002:00056720       ?RunFlashEffect@BNC_BaseDialog@@QAEXI@Z 10119720 f   BNC_BaseDialog.obj
 0002:00056890       ?RunTransparentAnimation@BNC_BaseDialog@@QAEX_NNPBVCWnd@@0@Z 10119890 f   BNC_BaseDialog.obj
 0002:00056960       ?SetAlpha@BNC_BaseDialog@@QAEEE_N@Z 10119960 f   BNC_BaseDialog.obj
 0002:00056ff0       ?SetClickEdge@BNC_BaseDialog@@AAEX_N@Z 10119ff0 f   BNC_BaseDialog.obj
 0002:00057110       ?SetForegroundWindowEx@BNC_BaseDialog@@QAEXXZ 1011a110 f   BNC_BaseDialog.obj
 0002:00057170       ?SetForegroundWindowEx@BNC_BaseDialog@@SAXPAUHWND__@@@Z 1011a170 f   BNC_BaseDialog.obj
 0002:00057320       ?SetInterpolationMode@Graphics@Gdiplus@@QAE?AW4Status@2@W4InterpolationMode@2@@Z 1011a320 f i BNC_BaseDialog.obj
 0002:00057390       ?SetLayerBitmap@BNC_BaseDialog@@QAE_NPAVCBitmap@@@Z 1011a390 f   BNC_BaseDialog.obj
 0002:00057740       ?SetLayerBitmapEx@BNC_BaseDialog@@QAE_NPAVCBitmap@@VCSize@@@Z 1011a740 f   BNC_BaseDialog.obj
 0002:00057af0       ?SetLayerCDC@BNC_BaseDialog@@QAE_NPAVCDC@@VCSize@@@Z 1011aaf0 f   BNC_BaseDialog.obj
 0002:00057e30       ?SetLayerImage@BNC_BaseDialog@@QAE_NPAVImage@Gdiplus@@VCPoint@@VCSize@@@Z 1011ae30 f   BNC_BaseDialog.obj
 0002:00058200       ?SetLayerImageEx@BNC_BaseDialog@@QAE_NPAVImage@Gdiplus@@VCPoint@@VCSize@@2@Z 1011b200 f   BNC_BaseDialog.obj
 0002:00058590       ?SetLayeredWindowAttributes@CWnd@@QAEHKEK@Z 1011b590 f i BNC_BaseDialog.obj
 0002:00058650       ?SetLayeredWindowAttributesEx@BNC_BaseDialog@@IAEXE@Z 1011b650 f   BNC_BaseDialog.obj
 0002:000587f0       ?SetNativeGraphics@Graphics@Gdiplus@@IAEXPAVGpGraphics@2@@Z 1011b7f0 f i BNC_BaseDialog.obj
 0002:00058840       ?SetRoundCorner@BNC_BaseDialog@@IAEX_N0HH@Z 1011b840 f   BNC_BaseDialog.obj
 0002:00058d40       ?SetSmoothingMode@Graphics@Gdiplus@@QAE?AW4Status@2@W4SmoothingMode@2@@Z 1011bd40 f i BNC_BaseDialog.obj
 0002:00058db0       ?SetStatus@Graphics@Gdiplus@@IBE?AW4Status@2@W432@@Z 1011bdb0 f i BNC_BaseDialog.obj
 0002:00058e10       ?SetSyncAlpha@BNC_BaseDialog@@QAEXE@Z 1011be10 f   BNC_BaseDialog.obj
 0002:00058e80       ?SetSyncPos@BNC_BaseDialog@@QAEXKVCPoint@@KVCSize@@PAVCWnd@@_N@Z 1011be80 f   BNC_BaseDialog.obj
 0002:000590a0       ?SetSyncWindowPos@BNC_BaseDialog@@IAEXPAXPBVCWnd@@HHHHI@Z 1011c0a0 f   BNC_BaseDialog.obj
 0002:00059320       ?SetTransparentAnimationRange@BNC_BaseDialog@@QAEXEE@Z 1011c320 f   BNC_BaseDialog.obj
 0002:00059390       ?SetWindowLongEx@BNC_BaseDialog@@IAEXH_NK@Z 1011c390 f   BNC_BaseDialog.obj
 0002:00059480       ?SetWindowPosEx@BNC_BaseDialog@@QAEXPBVCWnd@@HHHHI@Z 1011c480 f   BNC_BaseDialog.obj
 0002:00059540       ?ShowAnimation@BNC_BaseDialog@@QAEXPBVCWnd@@AAVCPoint@@N@Z 1011c540 f   BNC_BaseDialog.obj
 0002:00059660       ?ShowDefaultPos@BNC_BaseDialog@@QAEXXZ 1011c660 f   BNC_BaseDialog.obj
 0002:00059710       ?ShowDialog@BNC_BaseDialog@@UAE_NPBVCWnd@@PAUHWND__@@KVCPoint@@1@Z 1011c710 f   BNC_BaseDialog.obj
 0002:00059750       ?ShowDialogDefault@BNC_BaseDialog@@QAEX_NPBVCWnd@@PAUHWND__@@KVCPoint@@N@Z 1011c750 f   BNC_BaseDialog.obj
 0002:0005a130       ?ShowDisableOverlay@BNC_BaseDialog@@QAEX_N@Z 1011d130 f   BNC_BaseDialog.obj
 0002:0005a1f0       ?ShowRestoreWindow@BNC_BaseDialog@@SAXPAUHWND__@@0_N1@Z 1011d1f0 f   BNC_BaseDialog.obj
 0002:0005a560       ?ShowSyncDialog@BNC_BaseDialog@@SAXPAV1@NPBVCWnd@@PAUHWND__@@KVCPoint@@@Z 1011d560 f   BNC_BaseDialog.obj
 0002:0005ad40       ?ShowSystemMessage@BNC_BaseDialog@@QAEXIIIPAVCBitmap@@VCPoint@@VCSize@@_N@Z 1011dd40 f   BNC_BaseDialog.obj
 0002:0005ae20       ?ShowSystemMessage@BNC_BaseDialog@@QAEXIIIPB_WK_N1@Z 1011de20 f   BNC_BaseDialog.obj
 0002:0005aec0       ?ShowSystemMessage@BNC_BaseDialog@@QAEXIIIPB_W_N1@Z 1011dec0 f   BNC_BaseDialog.obj
 0002:0005afb0       ?ShowWindowSync@BNC_BaseDialog@@QAEXH@Z 1011dfb0 f   BNC_BaseDialog.obj
 0002:0005b070       ?SystemTrayCheckRestore@BNC_BaseDialog@@QAEXXZ 1011e070 f   BNC_BaseDialog.obj
 0002:0005b260       ?SystemTrayDelete@BNC_BaseDialog@@QAEXXZ 1011e260 f   BNC_BaseDialog.obj
 0002:0005b350       ?SystemTrayInsert@BNC_BaseDialog@@QAEXPB_WIIV?$CStringT@_WV?$StrTraitMFC_DLL@_WV?$ChTraitsCRT@_W@ATL@@@@@ATL@@@Z 1011e350 f   BNC_BaseDialog.obj
 0002:0005b760       ?SystemTrayModify@BNC_BaseDialog@@QAEXI@Z 1011e760 f   BNC_BaseDialog.obj
 0002:0005b840       ?UpdateClickEdge@BNC_BaseDialog@@EAEXXZ 1011e840 f   BNC_BaseDialog.obj
 0002:0005b880       ?UpdateClient@BNC_BaseDialog@@AAEXHH@Z 1011e880 f   BNC_BaseDialog.obj
 0002:0005bc10       ?UpdateCursor@BNC_BaseDialog@@AAEXI@Z 1011ec10 f   BNC_BaseDialog.obj
 0002:0005be90       ?UpdateDisplayChange@BNC_BaseDialog@@SAXIJ@Z 1011ee90 f   BNC_BaseDialog.obj
 0002:0005c460       ?UpdateLayerBitmap@BNC_BaseDialog@@IAE_NPAVCBitmap@@VCSize@@E@Z 1011f460 f   BNC_BaseDialog.obj
 0002:0005c730       ?UpdateLayerBitmapEx@BNC_BaseDialog@@IAE_NPAVCBitmap@@VCSize@@1E@Z 1011f730 f   BNC_BaseDialog.obj
 0002:0005cb70       ?UpdateLayerCDC@BNC_BaseDialog@@IAE_NPAVCDC@@VCSize@@E@Z 1011fb70 f   BNC_BaseDialog.obj
 0002:0005cd90       ?UpdateLayerImage@BNC_BaseDialog@@IAE_NPAVImage@Gdiplus@@VCPoint@@VCSize@@E@Z 1011fd90 f   BNC_BaseDialog.obj
 0002:0005d1b0       ?UpdateLayerImageEx@BNC_BaseDialog@@IAE_NPAVImage@Gdiplus@@VCPoint@@VCSize@@2E@Z 101201b0 f   BNC_BaseDialog.obj
 0002:0005d660       ?UpdateLayeredWindow@CWnd@@QAEHPAVCDC@@PAUtagPOINT@@PAUtagSIZE@@01KPAU_BLENDFUNCTION@@K@Z 10120660 f i BNC_BaseDialog.obj
 0002:0005d740       ?UpdateLayeredWindowEx@BNC_BaseDialog@@IAEHPAVCDC@@PAUtagPOINT@@PAUtagSIZE@@01KPAU_BLENDFUNCTION@@K@Z 10120740 f   BNC_BaseDialog.obj
 0002:0005d8c0       ?UpdateSyncPosition@BNC_BaseDialog@@AAEXPAUtagWINDOWPOS@@@Z 101208c0 f   BNC_BaseDialog.obj
 0002:0005de30       ?UpdateSyncPosition@BNC_BaseDialog@@QAEXXZ 10120e30 f   BNC_BaseDialog.obj
 0002:0005de90       ?UpdateSyncZorder@BNC_BaseDialog@@AAEXXZ 10120e90 f   BNC_BaseDialog.obj
 0002:0005e140       ?UpdateTransparent@BNC_BaseDialog@@QAEEW4TransparentStep@@EEEM@Z 10121140 f   BNC_BaseDialog.obj
 0002:0005e220       ?UpdateWindowPos@BNC_BaseDialog@@AAEXPAUtagWINDOWPOS@@@Z 10121220 f   BNC_BaseDialog.obj
 0002:0005e6b0       ?WindowProc@BNC_BaseDialog@@MAEJIIJ@Z 101216b0 f   BNC_BaseDialog.obj
 0002:0005e710       ?_Alloc_proxy@?$_Tree_alloc@$0A@U?$_Tree_base_types@PAUHWND__@@V?$allocator@PAUHWND__@@@std@@@std@@@std@@QAEXXZ 10121710 f i BNC_BaseDialog.obj
 0002:0005e810       ?_Alloc_proxy@?$_Tree_alloc@$0A@U?$_Tree_base_types@PAVBNC_BaseDialog@@V?$allocator@PAVBNC_BaseDialog@@@std@@@std@@@std@@QAEXXZ 10121810 f i BNC_BaseDialog.obj
 0002:0005e910       ?_Alloc_proxy@?$_Vector_alloc@$0A@U?$_Vec_base_types@PAVBNC_BaseDialog@@V?$allocator@PAVBNC_BaseDialog@@@std@@@std@@@std@@QAEXXZ 10121910 f i BNC_BaseDialog.obj
 0002:0005ea00       ?_Assign_rv@?$_Ptr_base@VBNC_FakeModal@@@std@@QAEX$$QAV12@@Z 10121a00 f i BNC_BaseDialog.obj
 0002:0005ea60       ?_AtlGetConversionACP@ATL@@YGIXZ 10121a60 f i BNC_BaseDialog.obj
 0002:0005eaa0       ?_Atomic_fetch_add_4@std@@YAKPCKKW4memory_order@1@@Z 10121aa0 f i BNC_BaseDialog.obj
 0002:0005ec50       ?_Atomic_load_4@std@@YAKPCKW4memory_order@1@@Z 10121c50 f i BNC_BaseDialog.obj
 0002:0005ede0       ?_Atomic_store_4@std@@YAXPCKKW4memory_order@1@@Z 10121de0 f i BNC_BaseDialog.obj
 0002:0005ef60       ?_Buyheadnode@?$_Tree_alloc@$0A@U?$_Tree_base_types@PAUHWND__@@V?$allocator@PAUHWND__@@@std@@@std@@@std@@QAEPAU?$_Tree_node@PAUHWND__@@PAX@2@XZ 10121f60 f i BNC_BaseDialog.obj
 0002:0005f1d0       ?_Buyheadnode@?$_Tree_alloc@$0A@U?$_Tree_base_types@PAVBNC_BaseDialog@@V?$allocator@PAVBNC_BaseDialog@@@std@@@std@@@std@@QAEPAU?$_Tree_node@PAVBNC_BaseDialog@@PAX@2@XZ 101221d0 f i BNC_BaseDialog.obj
 0002:0005f440       ?_Buynode0@?$_Tree_buy@PAUHWND__@@V?$allocator@PAUHWND__@@@std@@@std@@QAEPAU?$_Tree_node@PAUHWND__@@PAX@2@XZ 10122440 f i BNC_BaseDialog.obj
 0002:0005f650       ?_Buynode0@?$_Tree_buy@PAVBNC_BaseDialog@@V?$allocator@PAVBNC_BaseDialog@@@std@@@std@@QAEPAU?$_Tree_node@PAVBNC_BaseDialog@@PAX@2@XZ 10122650 f i BNC_BaseDialog.obj
 0002:0005f860       ?_Color@?$_Tree_val@U?$_Tree_simple_types@PAUHWND__@@@std@@@std@@SAAADPAU?$_Tree_node@PAUHWND__@@PAX@2@@Z 10122860 f i BNC_BaseDialog.obj
 0002:0005f8a0       ?_Color@?$_Tree_val@U?$_Tree_simple_types@PAVBNC_BaseDialog@@@std@@@std@@SAAADPAU?$_Tree_node@PAVBNC_BaseDialog@@PAX@2@@Z 101228a0 f i BNC_BaseDialog.obj
 0002:0005f8e0       ?_Compat@?$_Vector_const_iterator@V?$_Vector_val@U?$_Simple_types@PAVBNC_BaseDialog@@@std@@@std@@@std@@QBEXABV12@@Z 101228e0 f i BNC_BaseDialog.obj
 0002:0005fa00       ?_Decref@?$_Ptr_base@VBNC_FakeModal@@@std@@QAEXXZ 10122a00 f i BNC_BaseDialog.obj
 0002:0005fa60       ?_Destroy@?$vector@PAVBNC_BaseDialog@@V?$allocator@PAVBNC_BaseDialog@@@std@@@std@@IAEXPAPAVBNC_BaseDialog@@0@Z 10122a60 f i BNC_BaseDialog.obj
 0002:0005fb30       ?_Destroy_if_not_nil@?$_Tree@V?$_Tset_traits@PAUHWND__@@U?$less@PAUHWND__@@@std@@V?$allocator@PAUHWND__@@@3@$0A@@std@@@std@@IAEXU_Nil@2@@Z 10122b30 f i BNC_BaseDialog.obj
 0002:0005fb70       ?_Destroy_if_not_nil@?$_Tree@V?$_Tset_traits@PAVBNC_BaseDialog@@U?$less@PAVBNC_BaseDialog@@@std@@V?$allocator@PAVBNC_BaseDialog@@@3@$0A@@std@@@std@@IAEXU_Nil@2@@Z 10122b70 f i BNC_BaseDialog.obj
 0002:0005fbb0       ?_Erase@?$_Tree@V?$_Tset_traits@PAUHWND__@@U?$less@PAUHWND__@@@std@@V?$allocator@PAUHWND__@@@3@$0A@@std@@@std@@IAEXPAU?$_Tree_node@PAUHWND__@@PAX@2@@Z 10122bb0 f i BNC_BaseDialog.obj
 0002:0005fcc0       ?_Erase@?$_Tree@V?$_Tset_traits@PAVBNC_BaseDialog@@U?$less@PAVBNC_BaseDialog@@@std@@V?$allocator@PAVBNC_BaseDialog@@@3@$0A@@std@@@std@@IAEXPAU?$_Tree_node@PAVBNC_BaseDialog@@PAX@2@@Z 10122cc0 f i BNC_BaseDialog.obj
 0002:0005fdd0       ?_Fetch_add_acquire_4@std@@YAKPCKK@Z 10122dd0 f i BNC_BaseDialog.obj
 0002:0005fe10       ?_Fetch_add_relaxed_4@std@@YAKPCKK@Z 10122e10 f i BNC_BaseDialog.obj
 0002:0005fe50       ?_Fetch_add_release_4@std@@YAKPCKK@Z 10122e50 f i BNC_BaseDialog.obj
 0002:0005fe90       ?_Fetch_add_seq_cst_4@std@@YAKPCKK@Z 10122e90 f i BNC_BaseDialog.obj
 0002:0005fed0       ?_Free_proxy@?$_Tree_alloc@$0A@U?$_Tree_base_types@PAUHWND__@@V?$allocator@PAUHWND__@@@std@@@std@@@std@@QAEXXZ 10122ed0 f i BNC_BaseDialog.obj
 0002:0005ffd0       ?_Free_proxy@?$_Tree_alloc@$0A@U?$_Tree_base_types@PAVBNC_BaseDialog@@V?$allocator@PAVBNC_BaseDialog@@@std@@@std@@@std@@QAEXXZ 10122fd0 f i BNC_BaseDialog.obj
 0002:000600d0       ?_Free_proxy@?$_Vector_alloc@$0A@U?$_Vec_base_types@PAVBNC_BaseDialog@@V?$allocator@PAVBNC_BaseDialog@@@std@@@std@@@std@@QAEXXZ 101230d0 f i BNC_BaseDialog.obj
 0002:000601c0       ?_Freeheadnode@?$_Tree_alloc@$0A@U?$_Tree_base_types@PAUHWND__@@V?$allocator@PAUHWND__@@@std@@@std@@@std@@QAEXPAU?$_Tree_node@PAUHWND__@@PAX@2@@Z 101231c0 f i BNC_BaseDialog.obj
 0002:000602d0       ?_Freeheadnode@?$_Tree_alloc@$0A@U?$_Tree_base_types@PAVBNC_BaseDialog@@V?$allocator@PAVBNC_BaseDialog@@@std@@@std@@@std@@QAEXPAU?$_Tree_node@PAVBNC_BaseDialog@@PAX@2@@Z 101232d0 f i BNC_BaseDialog.obj
 0002:000603e0       ?_Freenode0@?$_Tree_buy@PAUHWND__@@V?$allocator@PAUHWND__@@@std@@@std@@QAEXPAU?$_Tree_node@PAUHWND__@@PAX@2@@Z 101233e0 f i BNC_BaseDialog.obj
 0002:000604f0       ?_Freenode0@?$_Tree_buy@PAVBNC_BaseDialog@@V?$allocator@PAVBNC_BaseDialog@@@std@@@std@@QAEXPAU?$_Tree_node@PAVBNC_BaseDialog@@PAX@2@@Z 101234f0 f i BNC_BaseDialog.obj
 0002:00060600       ?_Get@?$_Ptr_base@VBNC_FakeModal@@@std@@QBEPAVBNC_FakeModal@@XZ 10123600 f i BNC_BaseDialog.obj
 0002:00060640       ?_Getal@?$_Tree_alloc@$0A@U?$_Tree_base_types@PAUHWND__@@V?$allocator@PAUHWND__@@@std@@@std@@@std@@QBE?AU?$_Wrap_alloc@V?$allocator@U?$_Tree_node@PAUHWND__@@PAX@std@@@std@@@2@XZ 10123640 f i BNC_BaseDialog.obj
 0002:000606a0       ?_Getal@?$_Tree_alloc@$0A@U?$_Tree_base_types@PAVBNC_BaseDialog@@V?$allocator@PAVBNC_BaseDialog@@@std@@@std@@@std@@QBE?AU?$_Wrap_alloc@V?$allocator@U?$_Tree_node@PAVBNC_BaseDialog@@PAX@std@@@std@@@2@XZ 101236a0 f i BNC_BaseDialog.obj
 0002:00060700       ?_Getal@?$_Vector_alloc@$0A@U?$_Vec_base_types@PAVBNC_BaseDialog@@V?$allocator@PAVBNC_BaseDialog@@@std@@@std@@@std@@QBE?AU?$_Wrap_alloc@V?$allocator@PAVBNC_BaseDialog@@@std@@@2@XZ 10123700 f i BNC_BaseDialog.obj
 0002:00060760       ?_Getcomp@?$_Tree_comp@$0A@V?$_Tset_traits@PAUHWND__@@U?$less@PAUHWND__@@@std@@V?$allocator@PAUHWND__@@@3@$0A@@std@@@std@@QBE?AU?$less@PAUHWND__@@@2@XZ 10123760 f i BNC_BaseDialog.obj
 0002:000607a0       ?_Getcomp@?$_Tree_comp@$0A@V?$_Tset_traits@PAVBNC_BaseDialog@@U?$less@PAVBNC_BaseDialog@@@std@@V?$allocator@PAVBNC_BaseDialog@@@3@$0A@@std@@@std@@QBE?AU?$less@PAVBNC_BaseDialog@@@2@XZ 101237a0 f i BNC_BaseDialog.obj
 0002:000607e0       ?_Grow_to@?$vector@PAVBNC_BaseDialog@@V?$allocator@PAVBNC_BaseDialog@@@std@@@std@@IBEII@Z 101237e0 f i BNC_BaseDialog.obj
 0002:00060890       ?_Inside@?$vector@PAVBNC_BaseDialog@@V?$allocator@PAVBNC_BaseDialog@@@std@@@std@@IBE_NPBQAVBNC_BaseDialog@@@Z 10123890 f i BNC_BaseDialog.obj
 0002:00060910       ?_Isnil@?$_Tree_val@U?$_Tree_simple_types@PAUHWND__@@@std@@@std@@SAAADPAU?$_Tree_node@PAUHWND__@@PAX@2@@Z 10123910 f i BNC_BaseDialog.obj
 0002:00060950       ?_Isnil@?$_Tree_val@U?$_Tree_simple_types@PAVBNC_BaseDialog@@@std@@@std@@SAAADPAU?$_Tree_node@PAVBNC_BaseDialog@@PAX@2@@Z 10123950 f i BNC_BaseDialog.obj
 0002:00060990       ?_Key@?$_Tree@V?$_Tset_traits@PAUHWND__@@U?$less@PAUHWND__@@@std@@V?$allocator@PAUHWND__@@@3@$0A@@std@@@std@@IBEABQAUHWND__@@PAU?$_Tree_node@PAUHWND__@@PAX@2@@Z 10123990 f i BNC_BaseDialog.obj
 0002:00060a00       ?_Key@?$_Tree@V?$_Tset_traits@PAVBNC_BaseDialog@@U?$less@PAVBNC_BaseDialog@@@std@@V?$allocator@PAVBNC_BaseDialog@@@3@$0A@@std@@@std@@IBEABQAVBNC_BaseDialog@@PAU?$_Tree_node@PAVBNC_BaseDialog@@PAX@2@@Z 10123a00 f i BNC_BaseDialog.obj
 0002:00060a70       ?_Kfn@?$_Tree@V?$_Tset_traits@PAUHWND__@@U?$less@PAUHWND__@@@std@@V?$allocator@PAUHWND__@@@3@$0A@@std@@@std@@IBEABQAUHWND__@@ABQAU3@@Z 10123a70 f i BNC_BaseDialog.obj
 0002:00060ad0       ?_Kfn@?$_Tree@V?$_Tset_traits@PAVBNC_BaseDialog@@U?$less@PAVBNC_BaseDialog@@@std@@V?$allocator@PAVBNC_BaseDialog@@@3@$0A@@std@@@std@@IBEABQAVBNC_BaseDialog@@ABQAV3@@Z 10123ad0 f i BNC_BaseDialog.obj
 0002:00060b30       ?_Kfn@?$_Tset_traits@PAUHWND__@@U?$less@PAUHWND__@@@std@@V?$allocator@PAUHWND__@@@3@$0A@@std@@SAABQAUHWND__@@ABQAU3@@Z 10123b30 f i BNC_BaseDialog.obj
 0002:00060b70       ?_Kfn@?$_Tset_traits@PAVBNC_BaseDialog@@U?$less@PAVBNC_BaseDialog@@@std@@V?$allocator@PAVBNC_BaseDialog@@@3@$0A@@std@@SAABQAVBNC_BaseDialog@@ABQAV3@@Z 10123b70 f i BNC_BaseDialog.obj
 0002:00060bb0       ?_Lbound@?$_Tree@V?$_Tset_traits@PAUHWND__@@U?$less@PAUHWND__@@@std@@V?$allocator@PAUHWND__@@@3@$0A@@std@@@std@@IAEPAU?$_Tree_node@PAUHWND__@@PAX@2@ABQAUHWND__@@@Z 10123bb0 f i BNC_BaseDialog.obj
 0002:00060cc0       ?_Lbound@?$_Tree@V?$_Tset_traits@PAVBNC_BaseDialog@@U?$less@PAVBNC_BaseDialog@@@std@@V?$allocator@PAVBNC_BaseDialog@@@3@$0A@@std@@@std@@IAEPAU?$_Tree_node@PAVBNC_BaseDialog@@PAX@2@ABQAVBNC_BaseDialog@@@Z 10123cc0 f i BNC_BaseDialog.obj
 0002:00060dd0       ?_Left@?$_Tree_val@U?$_Tree_simple_types@PAUHWND__@@@std@@@std@@SAAAPAU?$_Tree_node@PAUHWND__@@PAX@2@PAU32@@Z 10123dd0 f i BNC_BaseDialog.obj
 0002:00060e10       ?_Left@?$_Tree_val@U?$_Tree_simple_types@PAVBNC_BaseDialog@@@std@@@std@@SAAAPAU?$_Tree_node@PAVBNC_BaseDialog@@PAX@2@PAU32@@Z 10123e10 f i BNC_BaseDialog.obj
 0002:00060e50       ?_Lmost@?$_Tree@V?$_Tset_traits@PAUHWND__@@U?$less@PAUHWND__@@@std@@V?$allocator@PAUHWND__@@@3@$0A@@std@@@std@@IBEAAPAU?$_Tree_node@PAUHWND__@@PAX@2@XZ 10123e50 f i BNC_BaseDialog.obj
 0002:00060eb0       ?_Lmost@?$_Tree@V?$_Tset_traits@PAVBNC_BaseDialog@@U?$less@PAVBNC_BaseDialog@@@std@@V?$allocator@PAVBNC_BaseDialog@@@3@$0A@@std@@@std@@IBEAAPAU?$_Tree_node@PAVBNC_BaseDialog@@PAX@2@XZ 10123eb0 f i BNC_BaseDialog.obj
 0002:00060f10       ?_Load_acquire_4@std@@YAKPCK@Z 10123f10 f i BNC_BaseDialog.obj
 0002:00060f60       ?_Load_relaxed_4@std@@YAKPCK@Z 10123f60 f i BNC_BaseDialog.obj
 0002:00060fa0       ?_Load_seq_cst_4@std@@YAKPCK@Z 10123fa0 f i BNC_BaseDialog.obj
 0002:00060fe0       ?_Lrotate@?$_Tree@V?$_Tset_traits@PAUHWND__@@U?$less@PAUHWND__@@@std@@V?$allocator@PAUHWND__@@@3@$0A@@std@@@std@@IAEXPAU?$_Tree_node@PAUHWND__@@PAX@2@@Z 10123fe0 f i BNC_BaseDialog.obj
 0002:00061190       ?_Lrotate@?$_Tree@V?$_Tset_traits@PAVBNC_BaseDialog@@U?$less@PAVBNC_BaseDialog@@@std@@V?$allocator@PAVBNC_BaseDialog@@@3@$0A@@std@@@std@@IAEXPAU?$_Tree_node@PAVBNC_BaseDialog@@PAX@2@@Z 10124190 f i BNC_BaseDialog.obj
 0002:00061340       ?_Make_iter@?$vector@PAVBNC_BaseDialog@@V?$allocator@PAVBNC_BaseDialog@@@std@@@std@@QBE?AV?$_Vector_iterator@V?$_Vector_val@U?$_Simple_types@PAVBNC_BaseDialog@@@std@@@std@@@2@V?$_Vector_const_iterator@V?$_Vector_val@U?$_Simple_types@PAVBNC_BaseDialog@@@std@@@std@@@2@@Z 10124340 f i BNC_BaseDialog.obj
 0002:00061410       ?_Max@?$_Tree_val@U?$_Tree_simple_types@PAUHWND__@@@std@@@std@@SAPAU?$_Tree_node@PAUHWND__@@PAX@2@PAU32@@Z 10124410 f i BNC_BaseDialog.obj
 0002:00061490       ?_Max@?$_Tree_val@U?$_Tree_simple_types@PAVBNC_BaseDialog@@@std@@@std@@SAPAU?$_Tree_node@PAVBNC_BaseDialog@@PAX@2@PAU32@@Z 10124490 f i BNC_BaseDialog.obj
 0002:00061510       ?_Min@?$_Tree_val@U?$_Tree_simple_types@PAUHWND__@@@std@@@std@@SAPAU?$_Tree_node@PAUHWND__@@PAX@2@PAU32@@Z 10124510 f i BNC_BaseDialog.obj
 0002:00061590       ?_Min@?$_Tree_val@U?$_Tree_simple_types@PAVBNC_BaseDialog@@@std@@@std@@SAPAU?$_Tree_node@PAVBNC_BaseDialog@@PAX@2@PAU32@@Z 10124590 f i BNC_BaseDialog.obj
 0002:00061610       ?_Mynode@?$_Tree_unchecked_const_iterator@V?$_Tree_val@U?$_Tree_simple_types@PAUHWND__@@@std@@@std@@U_Iterator_base12@2@@std@@QBEPAU?$_Tree_node@PAUHWND__@@PAX@2@XZ 10124610 f i BNC_BaseDialog.obj
 0002:00061650       ?_Mynode@?$_Tree_unchecked_const_iterator@V?$_Tree_val@U?$_Tree_simple_types@PAVBNC_BaseDialog@@@std@@@std@@U_Iterator_base12@2@@std@@QBEPAU?$_Tree_node@PAVBNC_BaseDialog@@PAX@2@XZ 10124650 f i BNC_BaseDialog.obj
 0002:00061690       ?_Myval@?$_Tree_val@U?$_Tree_simple_types@PAUHWND__@@@std@@@std@@SAAAPAUHWND__@@PAU?$_Tree_node@PAUHWND__@@PAX@2@@Z 10124690 f i BNC_BaseDialog.obj
 0002:000616d0       ?_Myval@?$_Tree_val@U?$_Tree_simple_types@PAVBNC_BaseDialog@@@std@@@std@@SAAAPAVBNC_BaseDialog@@PAU?$_Tree_node@PAVBNC_BaseDialog@@PAX@2@@Z 101246d0 f i BNC_BaseDialog.obj
 0002:00061710       ?_Orphan_ptr@?$_Tree@V?$_Tset_traits@PAUHWND__@@U?$less@PAUHWND__@@@std@@V?$allocator@PAUHWND__@@@3@$0A@@std@@@std@@IBEXAAV12@PAU?$_Tree_node@PAUHWND__@@PAX@2@@Z 10124710 f i BNC_BaseDialog.obj
 0002:000618b0       ?_Orphan_ptr@?$_Tree@V?$_Tset_traits@PAVBNC_BaseDialog@@U?$less@PAVBNC_BaseDialog@@@std@@V?$allocator@PAVBNC_BaseDialog@@@3@$0A@@std@@@std@@IBEXAAV12@PAU?$_Tree_node@PAVBNC_BaseDialog@@PAX@2@@Z 101248b0 f i BNC_BaseDialog.obj
 0002:00061a50       ?_Orphan_range@?$vector@PAVBNC_BaseDialog@@V?$allocator@PAVBNC_BaseDialog@@@std@@@std@@IBEXPAPAVBNC_BaseDialog@@0@Z 10124a50 f i BNC_BaseDialog.obj
 0002:00061be0       ?_Parent@?$_Tree_val@U?$_Tree_simple_types@PAUHWND__@@@std@@@std@@SAAAPAU?$_Tree_node@PAUHWND__@@PAX@2@PAU32@@Z 10124be0 f i BNC_BaseDialog.obj
 0002:00061c20       ?_Parent@?$_Tree_val@U?$_Tree_simple_types@PAVBNC_BaseDialog@@@std@@@std@@SAAAPAU?$_Tree_node@PAVBNC_BaseDialog@@PAX@2@PAU32@@Z 10124c20 f i BNC_BaseDialog.obj
 0002:00061c60       ?_Reallocate@?$vector@PAVBNC_BaseDialog@@V?$allocator@PAVBNC_BaseDialog@@@std@@@std@@IAEXI@Z 10124c60 f i BNC_BaseDialog.obj
 0002:00061e40       ?_Reserve@?$vector@PAVBNC_BaseDialog@@V?$allocator@PAVBNC_BaseDialog@@@std@@@std@@IAEXI@Z 10124e40 f i BNC_BaseDialog.obj
 0002:00061ef0       ?_Reset0@?$_Ptr_base@VBNC_FakeModal@@@std@@QAEXPAVBNC_FakeModal@@PAV_Ref_count_base@2@@Z 10124ef0 f i BNC_BaseDialog.obj
 0002:00061f70       ?_Reset@?$_Ptr_base@VBNC_FakeModal@@@std@@QAEXPAVBNC_FakeModal@@PAV_Ref_count_base@2@@Z 10124f70 f i BNC_BaseDialog.obj
 0002:00061fe0       ?_Right@?$_Tree_val@U?$_Tree_simple_types@PAUHWND__@@@std@@@std@@SAAAPAU?$_Tree_node@PAUHWND__@@PAX@2@PAU32@@Z 10124fe0 f i BNC_BaseDialog.obj
 0002:00062020       ?_Right@?$_Tree_val@U?$_Tree_simple_types@PAVBNC_BaseDialog@@@std@@@std@@SAAAPAU?$_Tree_node@PAVBNC_BaseDialog@@PAX@2@PAU32@@Z 10125020 f i BNC_BaseDialog.obj
 0002:00062060       ?_Rmost@?$_Tree@V?$_Tset_traits@PAUHWND__@@U?$less@PAUHWND__@@@std@@V?$allocator@PAUHWND__@@@3@$0A@@std@@@std@@IBEAAPAU?$_Tree_node@PAUHWND__@@PAX@2@XZ 10125060 f i BNC_BaseDialog.obj
 0002:000620c0       ?_Rmost@?$_Tree@V?$_Tset_traits@PAVBNC_BaseDialog@@U?$less@PAVBNC_BaseDialog@@@std@@V?$allocator@PAVBNC_BaseDialog@@@3@$0A@@std@@@std@@IBEAAPAU?$_Tree_node@PAVBNC_BaseDialog@@PAX@2@XZ 101250c0 f i BNC_BaseDialog.obj
 0002:00062120       ?_Root@?$_Tree@V?$_Tset_traits@PAUHWND__@@U?$less@PAUHWND__@@@std@@V?$allocator@PAUHWND__@@@3@$0A@@std@@@std@@IBEAAPAU?$_Tree_node@PAUHWND__@@PAX@2@XZ 10125120 f i BNC_BaseDialog.obj
 0002:00062180       ?_Root@?$_Tree@V?$_Tset_traits@PAVBNC_BaseDialog@@U?$less@PAVBNC_BaseDialog@@@std@@V?$allocator@PAVBNC_BaseDialog@@@3@$0A@@std@@@std@@IBEAAPAU?$_Tree_node@PAVBNC_BaseDialog@@PAX@2@XZ 10125180 f i BNC_BaseDialog.obj
 0002:000621e0       ?_Rrotate@?$_Tree@V?$_Tset_traits@PAUHWND__@@U?$less@PAUHWND__@@@std@@V?$allocator@PAUHWND__@@@3@$0A@@std@@@std@@IAEXPAU?$_Tree_node@PAUHWND__@@PAX@2@@Z 101251e0 f i BNC_BaseDialog.obj
 0002:00062390       ?_Rrotate@?$_Tree@V?$_Tset_traits@PAVBNC_BaseDialog@@U?$less@PAVBNC_BaseDialog@@@std@@V?$allocator@PAVBNC_BaseDialog@@@3@$0A@@std@@@std@@IAEXPAU?$_Tree_node@PAVBNC_BaseDialog@@PAX@2@@Z 10125390 f i BNC_BaseDialog.obj
 0002:00062540       ?_Store_relaxed_4@std@@YAXPCKK@Z 10125540 f i BNC_BaseDialog.obj
 0002:00062580       ?_Store_release_4@std@@YAXPCKK@Z 10125580 f i BNC_BaseDialog.obj
 0002:000625c0       ?_Store_seq_cst_4@std@@YAXPCKK@Z 101255c0 f i BNC_BaseDialog.obj
 0002:00062600       ?_Swap@?$_Ptr_base@VBNC_FakeModal@@@std@@QAEXAAV12@@Z 10125600 f i BNC_BaseDialog.obj
 0002:00062680       ?_Tidy@?$_Tree@V?$_Tset_traits@PAUHWND__@@U?$less@PAUHWND__@@@std@@V?$allocator@PAUHWND__@@@3@$0A@@std@@@std@@IAEXXZ 10125680 f i BNC_BaseDialog.obj
 0002:00062730       ?_Tidy@?$_Tree@V?$_Tset_traits@PAVBNC_BaseDialog@@U?$less@PAVBNC_BaseDialog@@@std@@V?$allocator@PAVBNC_BaseDialog@@@3@$0A@@std@@@std@@IAEXXZ 10125730 f i BNC_BaseDialog.obj
 0002:000627e0       ?_Tidy@?$vector@PAVBNC_BaseDialog@@V?$allocator@PAVBNC_BaseDialog@@@std@@@std@@IAEXXZ 101257e0 f i BNC_BaseDialog.obj
 0002:000628c0       ?_Unused_capacity@?$vector@PAVBNC_BaseDialog@@V?$allocator@PAVBNC_BaseDialog@@@std@@@std@@QBEIXZ 101258c0 f i BNC_BaseDialog.obj
 0002:00062910       ?_Xlen@?$vector@PAVBNC_BaseDialog@@V?$allocator@PAVBNC_BaseDialog@@@std@@@std@@IBEXXZ 10125910 f i BNC_BaseDialog.obj
 0002:00062970       ?__autoclassinit2@?$_Tree_const_iterator@V?$_Tree_val@U?$_Tree_simple_types@PAUHWND__@@@std@@@std@@@std@@QAEXI@Z 10125970 f i BNC_BaseDialog.obj
 0002:000629d0       ?__autoclassinit2@?$_Tree_const_iterator@V?$_Tree_val@U?$_Tree_simple_types@PAVBNC_BaseDialog@@@std@@@std@@@std@@QAEXI@Z 101259d0 f i BNC_BaseDialog.obj
 0002:00062a30       ?__autoclassinit2@?$_Vector_iterator@V?$_Vector_val@U?$_Simple_types@PAVBNC_BaseDialog@@@std@@@std@@@std@@QAEXI@Z 10125a30 f i BNC_BaseDialog.obj
 0002:00062a90       ?__autoclassinit2@?$set@PAUHWND__@@U?$less@PAUHWND__@@@std@@V?$allocator@PAUHWND__@@@3@@std@@QAEXI@Z 10125a90 f i BNC_BaseDialog.obj
 0002:00062af0       ?__autoclassinit2@CPen@@QAEXI@Z 10125af0 f i BNC_BaseDialog.obj
 0002:00062b50       ?__autoclassinit2@Graphics@Gdiplus@@QAEXI@Z 10125b50 f i BNC_BaseDialog.obj
 0002:00062bb0       ?abs@@YAJJ@Z               10125bb0 f i BNC_BaseDialog.obj
 0002:00062c00       ?allocate@?$_Wrap_alloc@V?$allocator@PAVBNC_BaseDialog@@@std@@@std@@QAEPAPAVBNC_BaseDialog@@I@Z 10125c00 f i BNC_BaseDialog.obj
 0002:00062c60       ?allocate@?$_Wrap_alloc@V?$allocator@U?$_Tree_node@PAUHWND__@@PAX@std@@@std@@@std@@QAEPAU?$_Tree_node@PAUHWND__@@PAX@2@I@Z 10125c60 f i BNC_BaseDialog.obj
 0002:00062cc0       ?allocate@?$_Wrap_alloc@V?$allocator@U?$_Tree_node@PAVBNC_BaseDialog@@PAX@std@@@std@@@std@@QAEPAU?$_Tree_node@PAVBNC_BaseDialog@@PAX@2@I@Z 10125cc0 f i BNC_BaseDialog.obj
 0002:00062d20       ?allocate@?$allocator@PAVBNC_BaseDialog@@@std@@QAEPAPAVBNC_BaseDialog@@I@Z 10125d20 f i BNC_BaseDialog.obj
 0002:00062d80       ?allocate@?$allocator@U?$_Tree_node@PAUHWND__@@PAX@std@@@std@@QAEPAU?$_Tree_node@PAUHWND__@@PAX@2@I@Z 10125d80 f i BNC_BaseDialog.obj
 0002:00062de0       ?allocate@?$allocator@U?$_Tree_node@PAVBNC_BaseDialog@@PAX@std@@@std@@QAEPAU?$_Tree_node@PAVBNC_BaseDialog@@PAX@2@I@Z 10125de0 f i BNC_BaseDialog.obj
 0002:00062e40       ?atomic_fetch_add@std@@YAIPAUatomic_uint@1@I@Z 10125e40 f i BNC_BaseDialog.obj
 0002:00062ea0       ?atomic_fetch_add_explicit@std@@YAIPAUatomic_uint@1@IW4memory_order@1@@Z 10125ea0 f i BNC_BaseDialog.obj
 0002:00062f00       ?atomic_load@std@@YAIPBUatomic_uint@1@@Z 10125f00 f i BNC_BaseDialog.obj
 0002:00062f50       ?atomic_load_explicit@std@@YAIPBUatomic_uint@1@W4memory_order@1@@Z 10125f50 f i BNC_BaseDialog.obj
 0002:00062fb0       ?atomic_store@std@@YAXPAUatomic_uint@1@I@Z 10125fb0 f i BNC_BaseDialog.obj
 0002:00063010       ?atomic_store_explicit@std@@YAXPAUatomic_uint@1@IW4memory_order@1@@Z 10126010 f i BNC_BaseDialog.obj
 0002:00063070       ?begin@?$_Tree@V?$_Tset_traits@PAUHWND__@@U?$less@PAUHWND__@@@std@@V?$allocator@PAUHWND__@@@3@$0A@@std@@@std@@QAE?AV?$_Tree_const_iterator@V?$_Tree_val@U?$_Tree_simple_types@PAUHWND__@@@std@@@std@@@2@XZ 10126070 f i BNC_BaseDialog.obj
 0002:000630e0       ?begin@?$_Tree@V?$_Tset_traits@PAVBNC_BaseDialog@@U?$less@PAVBNC_BaseDialog@@@std@@V?$allocator@PAVBNC_BaseDialog@@@3@$0A@@std@@@std@@QAE?AV?$_Tree_const_iterator@V?$_Tree_val@U?$_Tree_simple_types@PAVBNC_BaseDialog@@@std@@@std@@@2@XZ 101260e0 f i BNC_BaseDialog.obj
 0002:00063150       ?begin@?$vector@PAVBNC_BaseDialog@@V?$allocator@PAVBNC_BaseDialog@@@std@@@std@@QAE?AV?$_Vector_iterator@V?$_Vector_val@U?$_Simple_types@PAVBNC_BaseDialog@@@std@@@std@@@2@XZ 10126150 f i BNC_BaseDialog.obj
 0002:000631c0       ?capacity@?$vector@PAVBNC_BaseDialog@@V?$allocator@PAVBNC_BaseDialog@@@std@@@std@@QBEIXZ 101261c0 f i BNC_BaseDialog.obj
 0002:00063210       ?clear@?$_Tree@V?$_Tset_traits@PAUHWND__@@U?$less@PAUHWND__@@@std@@V?$allocator@PAUHWND__@@@3@$0A@@std@@@std@@QAEXXZ 10126210 f i BNC_BaseDialog.obj
 0002:000632d0       ?clear@?$_Tree@V?$_Tset_traits@PAVBNC_BaseDialog@@U?$less@PAVBNC_BaseDialog@@@std@@V?$allocator@PAVBNC_BaseDialog@@@3@$0A@@std@@@std@@QAEXXZ 101262d0 f i BNC_BaseDialog.obj
 0002:00063390       ?clear@?$vector@PAVBNC_BaseDialog@@V?$allocator@PAVBNC_BaseDialog@@@std@@@std@@QAEXXZ 10126390 f i BNC_BaseDialog.obj
 0002:00063420       ?construct@?$allocator@PAVBNC_BaseDialog@@@std@@QAEXPAPAVBNC_BaseDialog@@ABQAV3@@Z 10126420 f i BNC_BaseDialog.obj
 0002:000634c0       ?create@BNC_BaseDialog@@QAE_NIVCRect@@_N1PAVCWnd@@1@Z 101264c0 f   BNC_BaseDialog.obj
 0002:000635f0       ?deallocate@?$_Wrap_alloc@V?$allocator@PAVBNC_BaseDialog@@@std@@@std@@QAEXPAPAVBNC_BaseDialog@@I@Z 101265f0 f i BNC_BaseDialog.obj
 0002:00063650       ?deallocate@?$_Wrap_alloc@V?$allocator@U?$_Tree_node@PAUHWND__@@PAX@std@@@std@@@std@@QAEXPAU?$_Tree_node@PAUHWND__@@PAX@2@I@Z 10126650 f i BNC_BaseDialog.obj
 0002:000636b0       ?deallocate@?$_Wrap_alloc@V?$allocator@U?$_Tree_node@PAVBNC_BaseDialog@@PAX@std@@@std@@@std@@QAEXPAU?$_Tree_node@PAVBNC_BaseDialog@@PAX@2@I@Z 101266b0 f i BNC_BaseDialog.obj
 0002:00063710       ?deallocate@?$allocator@PAVBNC_BaseDialog@@@std@@QAEXPAPAVBNC_BaseDialog@@I@Z 10126710 f i BNC_BaseDialog.obj
 0002:00063770       ?deallocate@?$allocator@U?$_Tree_node@PAUHWND__@@PAX@std@@@std@@QAEXPAU?$_Tree_node@PAUHWND__@@PAX@2@I@Z 10126770 f i BNC_BaseDialog.obj
 0002:000637d0       ?deallocate@?$allocator@U?$_Tree_node@PAVBNC_BaseDialog@@PAX@std@@@std@@QAEXPAU?$_Tree_node@PAVBNC_BaseDialog@@PAX@2@I@Z 101267d0 f i BNC_BaseDialog.obj
 0002:00063830       ?end@?$_Tree@V?$_Tset_traits@PAUHWND__@@U?$less@PAUHWND__@@@std@@V?$allocator@PAUHWND__@@@3@$0A@@std@@@std@@QAE?AV?$_Tree_const_iterator@V?$_Tree_val@U?$_Tree_simple_types@PAUHWND__@@@std@@@std@@@2@XZ 10126830 f i BNC_BaseDialog.obj
 0002:000638a0       ?end@?$_Tree@V?$_Tset_traits@PAVBNC_BaseDialog@@U?$less@PAVBNC_BaseDialog@@@std@@V?$allocator@PAVBNC_BaseDialog@@@3@$0A@@std@@@std@@QAE?AV?$_Tree_const_iterator@V?$_Tree_val@U?$_Tree_simple_types@PAVBNC_BaseDialog@@@std@@@std@@@2@XZ 101268a0 f i BNC_BaseDialog.obj
 0002:00063910       ?end@?$vector@PAVBNC_BaseDialog@@V?$allocator@PAVBNC_BaseDialog@@@std@@@std@@QAE?AV?$_Vector_iterator@V?$_Vector_val@U?$_Simple_types@PAVBNC_BaseDialog@@@std@@@std@@@2@XZ 10126910 f i BNC_BaseDialog.obj
 0002:00063980       ?erase@?$_Tree@V?$_Tset_traits@PAUHWND__@@U?$less@PAUHWND__@@@std@@V?$allocator@PAUHWND__@@@3@$0A@@std@@@std@@QAE?AV?$_Tree_const_iterator@V?$_Tree_val@U?$_Tree_simple_types@PAUHWND__@@@std@@@std@@@2@V32@0@Z 10126980 f i BNC_BaseDialog.obj
 0002:00063ca0       ?erase@?$_Tree@V?$_Tset_traits@PAUHWND__@@U?$less@PAUHWND__@@@std@@V?$allocator@PAUHWND__@@@3@$0A@@std@@@std@@QAE?AV?$_Tree_const_iterator@V?$_Tree_val@U?$_Tree_simple_types@PAUHWND__@@@std@@@std@@@2@V32@@Z 10126ca0 f i BNC_BaseDialog.obj
 0002:00064720       ?erase@?$_Tree@V?$_Tset_traits@PAVBNC_BaseDialog@@U?$less@PAVBNC_BaseDialog@@@std@@V?$allocator@PAVBNC_BaseDialog@@@3@$0A@@std@@@std@@QAE?AV?$_Tree_const_iterator@V?$_Tree_val@U?$_Tree_simple_types@PAVBNC_BaseDialog@@@std@@@std@@@2@V32@0@Z 10127720 f i BNC_BaseDialog.obj
 0002:00064a40       ?erase@?$_Tree@V?$_Tset_traits@PAVBNC_BaseDialog@@U?$less@PAVBNC_BaseDialog@@@std@@V?$allocator@PAVBNC_BaseDialog@@@3@$0A@@std@@@std@@QAE?AV?$_Tree_const_iterator@V?$_Tree_val@U?$_Tree_simple_types@PAVBNC_BaseDialog@@@std@@@std@@@2@V32@@Z 10127a40 f i BNC_BaseDialog.obj
 0002:000654c0       ?erase@?$vector@PAVBNC_BaseDialog@@V?$allocator@PAVBNC_BaseDialog@@@std@@@std@@QAE?AV?$_Vector_iterator@V?$_Vector_val@U?$_Simple_types@PAVBNC_BaseDialog@@@std@@@std@@@2@V?$_Vector_const_iterator@V?$_Vector_val@U?$_Simple_types@PAVBNC_BaseDialog@@@std@@@std@@@2@@Z 101284c0 f i BNC_BaseDialog.obj
 0002:00065670       ?find@?$_Tree@V?$_Tset_traits@PAUHWND__@@U?$less@PAUHWND__@@@std@@V?$allocator@PAUHWND__@@@3@$0A@@std@@@std@@QAE?AV?$_Tree_const_iterator@V?$_Tree_val@U?$_Tree_simple_types@PAUHWND__@@@std@@@std@@@2@ABQAUHWND__@@@Z 10128670 f i BNC_BaseDialog.obj
 0002:000659a0       ?find@?$_Tree@V?$_Tset_traits@PAVBNC_BaseDialog@@U?$less@PAVBNC_BaseDialog@@@std@@V?$allocator@PAVBNC_BaseDialog@@@3@$0A@@std@@@std@@QAE?AV?$_Tree_const_iterator@V?$_Tree_val@U?$_Tree_simple_types@PAVBNC_BaseDialog@@@std@@@std@@@2@ABQAVBNC_BaseDialog@@@Z 101289a0 f i BNC_BaseDialog.obj
 0002:00065cd0       ?get@?$shared_ptr@VBNC_FakeModal@@@std@@QBEPAVBNC_FakeModal@@XZ 10128cd0 f i BNC_BaseDialog.obj
 0002:00065d20       ?insert@?$_Tree@V?$_Tset_traits@PAUHWND__@@U?$less@PAUHWND__@@@std@@V?$allocator@PAUHWND__@@@3@$0A@@std@@@std@@QAE?AU?$pair@V?$_Tree_const_iterator@V?$_Tree_val@U?$_Tree_simple_types@PAUHWND__@@@std@@@std@@@std@@_N@2@ABQAUHWND__@@@Z 10128d20 f i BNC_BaseDialog.obj
 0002:00065db0       ?insert@?$_Tree@V?$_Tset_traits@PAVBNC_BaseDialog@@U?$less@PAVBNC_BaseDialog@@@std@@V?$allocator@PAVBNC_BaseDialog@@@3@$0A@@std@@@std@@QAE?AU?$pair@V?$_Tree_const_iterator@V?$_Tree_val@U?$_Tree_simple_types@PAVBNC_BaseDialog@@@std@@@std@@@std@@_N@2@ABQAVBNC_BaseDialog@@@Z 10128db0 f i BNC_BaseDialog.obj
 0002:00065e40       ?insert@?$set@PAUHWND__@@U?$less@PAUHWND__@@@std@@V?$allocator@PAUHWND__@@@3@@std@@QAE?AU?$pair@V?$_Tree_const_iterator@V?$_Tree_val@U?$_Tree_simple_types@PAUHWND__@@@std@@@std@@@std@@_N@2@ABQAUHWND__@@@Z 10128e40 f i BNC_BaseDialog.obj
 0002:00065ec0       ?insert@?$set@PAVBNC_BaseDialog@@U?$less@PAVBNC_BaseDialog@@@std@@V?$allocator@PAVBNC_BaseDialog@@@3@@std@@QAE?AU?$pair@V?$_Tree_const_iterator@V?$_Tree_val@U?$_Tree_simple_types@PAVBNC_BaseDialog@@@std@@@std@@@std@@_N@2@ABQAVBNC_BaseDialog@@@Z 10128ec0 f i BNC_BaseDialog.obj
 0002:00065f40       ?key_comp@?$_Tree@V?$_Tset_traits@PAUHWND__@@U?$less@PAUHWND__@@@std@@V?$allocator@PAUHWND__@@@3@$0A@@std@@@std@@QBE?AU?$less@PAUHWND__@@@2@XZ 10128f40 f i BNC_BaseDialog.obj
 0002:00065fa0       ?lower_bound@?$_Tree@V?$_Tset_traits@PAUHWND__@@U?$less@PAUHWND__@@@std@@V?$allocator@PAUHWND__@@@3@$0A@@std@@@std@@QAE?AV?$_Tree_const_iterator@V?$_Tree_val@U?$_Tree_simple_types@PAUHWND__@@@std@@@std@@@2@ABQAUHWND__@@@Z 10128fa0 f i BNC_BaseDialog.obj
 0002:00066030       ?lower_bound@?$_Tree@V?$_Tset_traits@PAVBNC_BaseDialog@@U?$less@PAVBNC_BaseDialog@@@std@@V?$allocator@PAVBNC_BaseDialog@@@3@$0A@@std@@@std@@QAE?AV?$_Tree_const_iterator@V?$_Tree_val@U?$_Tree_simple_types@PAVBNC_BaseDialog@@@std@@@std@@@2@ABQAVBNC_BaseDialog@@@Z 10129030 f i BNC_BaseDialog.obj
 0002:000660c0       ?max_size@?$_Tree@V?$_Tset_traits@PAUHWND__@@U?$less@PAUHWND__@@@std@@V?$allocator@PAUHWND__@@@3@$0A@@std@@@std@@QBEIXZ 101290c0 f i BNC_BaseDialog.obj
 0002:00066120       ?max_size@?$_Tree@V?$_Tset_traits@PAVBNC_BaseDialog@@U?$less@PAVBNC_BaseDialog@@@std@@V?$allocator@PAVBNC_BaseDialog@@@3@$0A@@std@@@std@@QBEIXZ 10129120 f i BNC_BaseDialog.obj
 0002:00066180       ?max_size@?$_Wrap_alloc@V?$allocator@PAVBNC_BaseDialog@@@std@@@std@@QBEIXZ 10129180 f i BNC_BaseDialog.obj
 0002:000661e0       ?max_size@?$_Wrap_alloc@V?$allocator@U?$_Tree_node@PAUHWND__@@PAX@std@@@std@@@std@@QBEIXZ 101291e0 f i BNC_BaseDialog.obj
 0002:00066240       ?max_size@?$_Wrap_alloc@V?$allocator@U?$_Tree_node@PAVBNC_BaseDialog@@PAX@std@@@std@@@std@@QBEIXZ 10129240 f i BNC_BaseDialog.obj
 0002:000662a0       ?max_size@?$allocator@PAVBNC_BaseDialog@@@std@@QBEIXZ 101292a0 f i BNC_BaseDialog.obj
 0002:000662e0       ?max_size@?$allocator@U?$_Tree_node@PAUHWND__@@PAX@std@@@std@@QBEIXZ 101292e0 f i BNC_BaseDialog.obj
 0002:00066320       ?max_size@?$allocator@U?$_Tree_node@PAVBNC_BaseDialog@@PAX@std@@@std@@QBEIXZ 10129320 f i BNC_BaseDialog.obj
 0002:00066360       ?max_size@?$allocator_traits@V?$allocator@PAVBNC_BaseDialog@@@std@@@std@@SAIABV?$allocator@PAVBNC_BaseDialog@@@2@@Z 10129360 f i BNC_BaseDialog.obj
 0002:000663b0       ?max_size@?$allocator_traits@V?$allocator@U?$_Tree_node@PAUHWND__@@PAX@std@@@std@@@std@@SAIABV?$allocator@U?$_Tree_node@PAUHWND__@@PAX@std@@@2@@Z 101293b0 f i BNC_BaseDialog.obj
 0002:00066400       ?max_size@?$allocator_traits@V?$allocator@U?$_Tree_node@PAVBNC_BaseDialog@@PAX@std@@@std@@@std@@SAIABV?$allocator@U?$_Tree_node@PAVBNC_BaseDialog@@PAX@std@@@2@@Z 10129400 f i BNC_BaseDialog.obj
 0002:00066450       ?max_size@?$vector@PAVBNC_BaseDialog@@V?$allocator@PAVBNC_BaseDialog@@@std@@@std@@QBEIXZ 10129450 f i BNC_BaseDialog.obj
 0002:000664b0       ?pointer_to@?$pointer_traits@PAVBNC_CaptureKeyboardMouse@@@std@@SAPAVBNC_CaptureKeyboardMouse@@AAV3@@Z 101294b0 f i BNC_BaseDialog.obj
 0002:00066500       ?push_back@?$vector@PAVBNC_BaseDialog@@V?$allocator@PAVBNC_BaseDialog@@@std@@@std@@QAEXABQAVBNC_BaseDialog@@@Z 10129500 f i BNC_BaseDialog.obj
 0002:00066690       ?select_on_container_copy_construction@?$_Wrap_alloc@V?$allocator@U?$_Tree_node@PAUHWND__@@PAX@std@@@std@@@std@@QBE?AU12@XZ 10129690 f i BNC_BaseDialog.obj
 0002:00066700       ?select_on_container_copy_construction@?$allocator@U?$_Tree_node@PAUHWND__@@PAX@std@@@std@@QBE?AV12@XZ 10129700 f i BNC_BaseDialog.obj
 0002:00066760       ?select_on_container_copy_construction@?$allocator_traits@V?$allocator@U?$_Tree_node@PAUHWND__@@PAX@std@@@std@@@std@@SA?AV?$allocator@U?$_Tree_node@PAUHWND__@@PAX@std@@@2@ABV32@@Z 10129760 f i BNC_BaseDialog.obj
 0002:000667c0       ?size@?$_Tree@V?$_Tset_traits@PAUHWND__@@U?$less@PAUHWND__@@@std@@V?$allocator@PAUHWND__@@@3@$0A@@std@@@std@@QBEIXZ 101297c0 f i BNC_BaseDialog.obj
 0002:00066800       ?size@?$_Tree@V?$_Tset_traits@PAVBNC_BaseDialog@@U?$less@PAVBNC_BaseDialog@@@std@@V?$allocator@PAVBNC_BaseDialog@@@3@$0A@@std@@@std@@QBEIXZ 10129800 f i BNC_BaseDialog.obj
 0002:00066840       ?size@?$vector@PAVBNC_BaseDialog@@V?$allocator@PAVBNC_BaseDialog@@@std@@@std@@QBEIXZ 10129840 f i BNC_BaseDialog.obj
 0002:00066890       ?swap@?$shared_ptr@VBNC_FakeModal@@@std@@QAEXAAV12@@Z 10129890 f i BNC_BaseDialog.obj
 0002:000668f0       _==                        101298f0 f i BNC_BaseDialog.obj
 0002:00066970       _IsEqualGUID               10129970 f i BNC_BaseDialog.obj
 0002:000669f0       ?OnDestroy@BNC_BaseFloating@@QAEXXZ 101299f0 f   BNC_BaseFloating.obj
 0002:00066a40       ?OnWindowPosChanging@BNC_BaseFloating@@QAEXPAUtagWINDOWPOS@@@Z 10129a40 f   BNC_BaseFloating.obj
 0002:00066aa0       ?OnLButtonDown@BNC_BaseFloating@@QAEXIVCPoint@@@Z 10129aa0 f   BNC_BaseFloating.obj
 0002:00066b50       ?OnRButtonDown@BNC_BaseFloating@@QAEXIVCPoint@@@Z 10129b50 f   BNC_BaseFloating.obj
 0002:00066bb0       ?OnMButtonDown@BNC_BaseFloating@@QAEXIVCPoint@@@Z 10129bb0 f   BNC_BaseFloating.obj
 0002:00066c60       ?OnSetFocus@BNC_BaseFloating@@QAEXPAVCWnd@@@Z 10129c60 f   BNC_BaseFloating.obj
 0002:00066cc0       ?OnMouseMove@BNC_BaseFloating@@QAEXIVCPoint@@@Z 10129cc0 f   BNC_BaseFloating.obj
 0002:00066e30       ??0BNC_BaseFloating@@QAE@XZ 10129e30 f   BNC_BaseFloating.obj
 0002:00066f80       ??1BNC_BaseFloating@@UAE@XZ 10129f80 f   BNC_BaseFloating.obj
 0002:00067040       ??_EBNC_BaseFloating@@UAEPAXI@Z 1012a040 f i BNC_BaseFloating.obj
 0002:00067100       ??_GBNC_BaseFloating@@UAEPAXI@Z 1012a100 f i BNC_BaseFloating.obj
 0002:00067170       ?GetMessageMap@BNC_BaseFloating@@MBEPBUAFX_MSGMAP@@XZ 1012a170 f   BNC_BaseFloating.obj
 0002:000671c0       ?GetThisMessageMap@BNC_BaseFloating@@KGPBUAFX_MSGMAP@@XZ 1012a1c0 f   BNC_BaseFloating.obj
 0002:00067200       ?OnDraw@BNC_BaseFloating@@EAE_NPAVCDC@@0@Z 1012a200 f   BNC_BaseFloating.obj
 0002:00067240       ?OnInitDialog@BNC_BaseFloating@@MAEHXZ 1012a240 f   BNC_BaseFloating.obj
 0002:000672b0       ?PreTranslateMessage@BNC_BaseFloating@@UAEHPAUtagMSG@@@Z 1012a2b0 f   BNC_BaseFloating.obj
 0002:00067360       ?OnLButtonDown@BNC_BaseInstant@@QAEXIVCPoint@@@Z 1012a360 f   BNC_BaseInstant.obj
 0002:000673e0       ?OnRButtonDown@BNC_BaseInstant@@QAEXIVCPoint@@@Z 1012a3e0 f   BNC_BaseInstant.obj
 0002:00067460       ?OnMButtonDown@BNC_BaseInstant@@QAEXIVCPoint@@@Z 1012a460 f   BNC_BaseInstant.obj
 0002:000674e0       ?OnXButtonDown@BNC_BaseInstant@@QAEXIIVCPoint@@@Z 1012a4e0 f   BNC_BaseInstant.obj
 0002:00067560       ?OnCaptureChanged@BNC_BaseInstant@@QAEXPAVCWnd@@@Z 1012a560 f   BNC_BaseInstant.obj
 0002:00067600       ?OnMouseActivate@BNC_BaseInstant@@QAEHPAVCWnd@@II@Z 1012a600 f   BNC_BaseInstant.obj
 0002:000676b0       ?OnMouseLeave@BNC_BaseInstant@@QAEXXZ 1012a6b0 f   BNC_BaseInstant.obj
 0002:00067740       ?OnDestroy@BNC_BaseInstant@@QAEXXZ 1012a740 f   BNC_BaseInstant.obj
 0002:000677d0       ?OnMouseMove@BNC_BaseInstant@@QAEXIVCPoint@@@Z 1012a7d0 f   BNC_BaseInstant.obj
 0002:000678b0       ??0BNC_BaseInstant@@QAE@XZ 1012a8b0 f   BNC_BaseInstant.obj
 0002:00067a20       ??1BNC_BaseInstant@@UAE@XZ 1012aa20 f   BNC_BaseInstant.obj
 0002:00067ae0       ??_EBNC_BaseInstant@@UAEPAXI@Z 1012aae0 f i BNC_BaseInstant.obj
 0002:00067ba0       ??_GBNC_BaseInstant@@UAEPAXI@Z 1012aba0 f i BNC_BaseInstant.obj
 0002:00067c10       ?CheckCursorWindow@BNC_BaseInstant@@IAE_NXZ 1012ac10 f   BNC_BaseInstant.obj
 0002:00067c90       ?GetHideReason@BNC_BaseInstant@@QAE?AW4BNE_INSTANT_HIDE_REASON@@XZ 1012ac90 f   BNC_BaseInstant.obj
 0002:00067cd0       ?GetMessageMap@BNC_BaseInstant@@MBEPBUAFX_MSGMAP@@XZ 1012acd0 f   BNC_BaseInstant.obj
 0002:00067d20       ?GetThisMessageMap@BNC_BaseInstant@@KGPBUAFX_MSGMAP@@XZ 1012ad20 f   BNC_BaseInstant.obj
 0002:00067d60       ?Hide@BNC_BaseInstant@@QAE_NW4BNE_INSTANT_HIDE_REASON@@@Z 1012ad60 f   BNC_BaseInstant.obj
 0002:00067ec0       ?IsFamilyWindow@BNC_BaseInstant@@IAE_NPAVCWnd@@@Z 1012aec0 f   BNC_BaseInstant.obj
 0002:00067f80       ?MouseAction@BNC_BaseInstant@@AAEXAAIAAVCPoint@@W4BNE_INSTANT_HIDE_REASON@@@Z 1012af80 f   BNC_BaseInstant.obj
 0002:00067fe0       ?OnHide@BNC_BaseInstant@@UAE_NW4BNE_INSTANT_HIDE_REASON@@@Z 1012afe0 f   BNC_BaseInstant.obj
 0002:00068020       ?OnInitDialog@BNC_BaseInstant@@MAEHXZ 1012b020 f   BNC_BaseInstant.obj
 0002:000680c0       ?OnUpdateSize@BNC_BaseInstant@@EAEXHH@Z 1012b0c0 f   BNC_BaseInstant.obj
 0002:000681f0       ?Show@BNC_BaseInstant@@QAE_NPAVCWnd@@HH@Z 1012b1f0 f   BNC_BaseInstant.obj
 0002:00068340       ?_GetBaseClass@BNC_BaseLayered@@KGPAUCRuntimeClass@@XZ 1012b340 f   BNC_BaseLayered.obj
 0002:00068390       ?OnDestroy@BNC_BaseLayered@@IAEXXZ 1012b390 f   BNC_BaseLayered.obj
 0002:000683e0       ?OnTimer@BNC_BaseLayered@@IAEXI@Z 1012b3e0 f   BNC_BaseLayered.obj
 0002:000686c0       ?OnPaint@BNC_BaseLayered@@QAEXXZ 1012b6c0 f   BNC_BaseLayered.obj
 0002:00068780       ?OnEraseBkgnd@BNC_BaseLayered@@QAEHPAVCDC@@@Z 1012b780 f   BNC_BaseLayered.obj
 0002:000687c0       ??0?$lock_guard@Vrecursive_mutex@std@@@std@@QAE@AAVrecursive_mutex@1@@Z 1012b7c0 f i BNC_BaseLayered.obj
 0002:00068830       ??0BNC_BaseLayered@@QAE@XZ 1012b830 f   BNC_BaseLayered.obj
 0002:00068a90       ??0_Mutex_base@std@@QAE@H@Z 1012ba90 f i BNC_BaseLayered.obj
 0002:00068b00       ??0recursive_mutex@std@@QAE@XZ 1012bb00 f i BNC_BaseLayered.obj
 0002:00068b60       ??1?$lock_guard@Vrecursive_mutex@std@@@std@@QAE@XZ 1012bb60 f i BNC_BaseLayered.obj
 0002:00068bc0       ??1BNC_BaseLayered@@UAE@XZ 1012bbc0 f   BNC_BaseLayered.obj
 0002:00068d10       ??1_Mutex_base@std@@QAE@XZ 1012bd10 f i BNC_BaseLayered.obj
 0002:00068d70       ??1recursive_mutex@std@@QAE@XZ 1012bd70 f i BNC_BaseLayered.obj
 0002:00068dc0       ??_EBNC_BaseLayered@@UAEPAXI@Z 1012bdc0 f i BNC_BaseLayered.obj
 0002:00068e80       ??_GBNC_BaseLayered@@UAEPAXI@Z 1012be80 f i BNC_BaseLayered.obj
 0002:00068ef0       ?CommitLayer@BNC_BaseLayered@@AAE_NEVCPoint@@VCSize@@PAV2@@Z 1012bef0 f   BNC_BaseLayered.obj
 0002:00069340       ?Create@BNC_BaseLayered@@EAEHPB_WPAVCWnd@@@Z 1012c340 f   BNC_BaseLayered.obj
 0002:00069380       ?CreateEx@BNC_BaseLayered@@EAEHKPB_W0KABUtagRECT@@PAVCWnd@@IPAX@Z 1012c380 f   BNC_BaseLayered.obj
 0002:000693c0       ?GetHeight@Image@Gdiplus@@QAEIXZ 1012c3c0 f i BNC_BaseLayered.obj
 0002:00069490       ?GetMessageMap@BNC_BaseLayered@@MBEPBUAFX_MSGMAP@@XZ 1012c490 f   BNC_BaseLayered.obj
 0002:000694e0       ?GetRuntimeClass@BNC_BaseLayered@@UBEPAUCRuntimeClass@@XZ 1012c4e0 f   BNC_BaseLayered.obj
 0002:00069520       ?GetThisClass@BNC_BaseLayered@@SGPAUCRuntimeClass@@XZ 1012c520 f   BNC_BaseLayered.obj
 0002:00069560       ?GetThisMessageMap@BNC_BaseLayered@@KGPBUAFX_MSGMAP@@XZ 1012c560 f   BNC_BaseLayered.obj
 0002:000695a0       ?GetWidth@Image@Gdiplus@@QAEIXZ 1012c5a0 f i BNC_BaseLayered.obj
 0002:00069660       ?OnCommitLayer@BNC_BaseLayered@@EAEXPAVCDC@@EVCPoint@@VCSize@@@Z 1012c660 f   BNC_BaseLayered.obj
 0002:000696a0       ?OnInitDialog@BNC_BaseLayered@@MAEHXZ 1012c6a0 f   BNC_BaseLayered.obj
 0002:00069750       ?OnStopHide@BNC_BaseLayered@@EAEXXZ 1012c750 f   BNC_BaseLayered.obj
 0002:00069790       ?SetStatus@Image@Gdiplus@@IBE?AW4Status@2@W432@@Z 1012c790 f i BNC_BaseLayered.obj
 0002:000697f0       ?StopHide@BNC_BaseLayered@@QAEXXZ 1012c7f0 f   BNC_BaseLayered.obj
 0002:000698d0       ?UpdateLayer@BNC_BaseLayered@@QAE_NPAEPAVCPoint@@PAVCSize@@1@Z 1012c8d0 f   BNC_BaseLayered.obj
 0002:00069b70       ?UpdateLayerBitmap@BNC_BaseLayered@@QAE_NPAVCBitmap@@VCSize@@PAEPAVCPoint@@PAV3@3@Z 1012cb70 f   BNC_BaseLayered.obj
 0002:00069f80       ?UpdateLayerImage@BNC_BaseLayered@@QAE_NPAVImage@Gdiplus@@PAEPAVCPoint@@PAVCSize@@32@Z 1012cf80 f   BNC_BaseLayered.obj
 0002:0006a830       ?_Check_C_return@std@@YAHH@Z 1012d830 f i BNC_BaseLayered.obj
 0002:0006a8a0       ?_Mtx_initX@std@@YAHPAPAU_Mtx_internal_imp_t@@H@Z 1012d8a0 f i BNC_BaseLayered.obj
 0002:0006a910       ?_Mtx_lockX@std@@YAHPAPAU_Mtx_internal_imp_t@@@Z 1012d910 f i BNC_BaseLayered.obj
 0002:0006a980       ?_Mtx_unlockX@std@@YAHPAPAU_Mtx_internal_imp_t@@@Z 1012d980 f i BNC_BaseLayered.obj
 0002:0006a9f0       ?create@BNC_BaseLayered@@QAE_NPAVCWnd@@_N@Z 1012d9f0 f   BNC_BaseLayered.obj
 0002:0006abd0       ?lock@_Mutex_base@std@@QAEXXZ 1012dbd0 f i BNC_BaseLayered.obj
 0002:0006ac30       ?unlock@_Mutex_base@std@@QAEXXZ 1012dc30 f i BNC_BaseLayered.obj
 0002:0006ac90       ?OnDestroy@BNC_BaseModal@@QAEXXZ 1012dc90 f   BNC_BaseModal.obj
 0002:0006ae60       ?OnMouseActivate@BNC_BaseModal@@QAEHPAVCWnd@@II@Z 1012de60 f   BNC_BaseModal.obj
 0002:0006aec0       ?OnActivate@BNC_BaseModal@@QAEXIPAVCWnd@@H@Z 1012dec0 f   BNC_BaseModal.obj
 0002:0006af70       ?OnClose@BNC_BaseModal@@QAEXXZ 1012df70 f   BNC_BaseModal.obj
 0002:0006b020       ??0BNC_BaseModal@@QAE@IPAVCWnd@@0PAPAV0@PAVBNC_BaseDialog@@@Z 1012e020 f   BNC_BaseModal.obj
 0002:0006b1e0       ??1BNC_BaseModal@@UAE@XZ   1012e1e0 f   BNC_BaseModal.obj
 0002:0006b2a0       ??_EBNC_BaseModal@@UAEPAXI@Z 1012e2a0 f i BNC_BaseModal.obj
 0002:0006b360       ??_GBNC_BaseModal@@UAEPAXI@Z 1012e360 f i BNC_BaseModal.obj
 0002:0006b3d0       ?Break@BNC_BaseModal@@QAEXXZ 1012e3d0 f   BNC_BaseModal.obj
 0002:0006b4f0       ?ContinueModal@BNC_BaseModal@@EAEHXZ 1012e4f0 f   BNC_BaseModal.obj
 0002:0006b560       ?CreateIndirect@BNC_BaseModal@@MAEHPBUDLGTEMPLATE@@PAVCWnd@@PAX@Z 1012e560 f   BNC_BaseModal.obj
 0002:0006b5a0       ?GetAliveCount@BNC_BaseModal@@SAIXZ 1012e5a0 f   BNC_BaseModal.obj
 0002:0006b5e0       ?GetAliveModal@BNC_BaseModal@@SA?AV?$set@PAUHWND__@@U?$less@PAUHWND__@@@std@@V?$allocator@PAUHWND__@@@3@@std@@XZ 1012e5e0 f   BNC_BaseModal.obj
 0002:0006b660       ?GetCreateCount@BNC_BaseModal@@SAIXZ 1012e660 f   BNC_BaseModal.obj
 0002:0006b6a0       ?GetMessageMap@BNC_BaseModal@@MBEPBUAFX_MSGMAP@@XZ 1012e6a0 f   BNC_BaseModal.obj
 0002:0006b6f0       ?GetThisMessageMap@BNC_BaseModal@@KGPBUAFX_MSGMAP@@XZ 1012e6f0 f   BNC_BaseModal.obj
 0002:0006b730       ?IsOkClose@BNC_BaseModal@@QAE_NXZ 1012e730 f   BNC_BaseModal.obj
 0002:0006b770       ?Modal@BNC_BaseModal@@QAEH_NEK@Z 1012e770 f   BNC_BaseModal.obj
 0002:0006b9a0       ?OnBreak@BNC_BaseModal@@EAEXXZ 1012e9a0 f   BNC_BaseModal.obj
 0002:0006b9e0       ?OnCancel@BNC_BaseModal@@MAEXXZ 1012e9e0 f   BNC_BaseModal.obj
 0002:0006ba90       ?OnInitDialog@BNC_BaseModal@@MAEHXZ 1012ea90 f   BNC_BaseModal.obj
 0002:0006bc50       ?OnOK@BNC_BaseModal@@MAEXXZ 1012ec50 f   BNC_BaseModal.obj
 0002:0006bd10       ?OnUpdateSize@BNC_BaseModal@@EAEXHH@Z 1012ed10 f   BNC_BaseModal.obj
 0002:0006bde0       ?PreTranslateMessage@BNC_BaseModal@@MAEHPAUtagMSG@@@Z 1012ede0 f   BNC_BaseModal.obj
 0002:0006bf10       ?OnDestroy@BNC_BaseModaless@@IAEXXZ 1012ef10 f   BNC_BaseModaless.obj
 0002:0006bf70       ?OnWindowPosChanging@BNC_BaseModaless@@IAEXPAUtagWINDOWPOS@@@Z 1012ef70 f   BNC_BaseModaless.obj
 0002:0006bfd0       ?OnClose@BNC_BaseModaless@@QAEXXZ 1012efd0 f   BNC_BaseModaless.obj
 0002:0006c020       ??0BNC_BaseModaless@@QAE@XZ 1012f020 f   BNC_BaseModaless.obj
 0002:0006c120       ??1BNC_BaseModaless@@UAE@XZ 1012f120 f   BNC_BaseModaless.obj
 0002:0006c1e0       ??_EBNC_BaseModaless@@UAEPAXI@Z 1012f1e0 f i BNC_BaseModaless.obj
 0002:0006c2a0       ??_GBNC_BaseModaless@@UAEPAXI@Z 1012f2a0 f i BNC_BaseModaless.obj
 0002:0006c310       ?GetAliveCount@BNC_BaseModaless@@SAIXZ 1012f310 f   BNC_BaseModaless.obj
 0002:0006c350       ?GetCreateCount@BNC_BaseModaless@@SAIXZ 1012f350 f   BNC_BaseModaless.obj
 0002:0006c390       ?GetMessageMap@BNC_BaseModaless@@MBEPBUAFX_MSGMAP@@XZ 1012f390 f   BNC_BaseModaless.obj
 0002:0006c3e0       ?GetThisMessageMap@BNC_BaseModaless@@KGPBUAFX_MSGMAP@@XZ 1012f3e0 f   BNC_BaseModaless.obj
 0002:0006c420       ?OnInitDialog@BNC_BaseModaless@@MAEHXZ 1012f420 f   BNC_BaseModaless.obj
 0002:0006c4a0       ?OnUpdateSize@BNC_BaseModaless@@EAEXHH@Z 1012f4a0 f   BNC_BaseModaless.obj
 0002:0006c5d0       ?PreTranslateMessage@BNC_BaseModaless@@MAEHPAUtagMSG@@@Z 1012f5d0 f   BNC_BaseModaless.obj
 0002:0006c630       ?OnDestroy@BNC_BaseOverlay@@QAEXXZ 1012f630 f   BNC_BaseOverlay.obj
 0002:0006c840       ?OnTimer@BNC_BaseOverlay@@QAEXI@Z 1012f840 f   BNC_BaseOverlay.obj
 0002:0006c960       ?OnWindowPosChanged@BNC_BaseOverlay@@QAEXPAUtagWINDOWPOS@@@Z 1012f960 f   BNC_BaseOverlay.obj
 0002:0006c9c0       ?OnWindowPosChanging@BNC_BaseOverlay@@QAEXPAUtagWINDOWPOS@@@Z 1012f9c0 f   BNC_BaseOverlay.obj
 0002:0006ca40       ?OnSetFocus@BNC_BaseOverlay@@QAEXPAVCWnd@@@Z 1012fa40 f   BNC_BaseOverlay.obj
 0002:0006cac0       ?OnActivate@BNC_BaseOverlay@@QAEXIPAVCWnd@@H@Z 1012fac0 f   BNC_BaseOverlay.obj
 0002:0006cb70       ??0?$_Iterator012@Urandom_access_iterator_tag@std@@VCRect@@HPBV3@ABV3@U_Iterator_base12@2@@std@@QAE@XZ 1012fb70 f i BNC_BaseOverlay.obj
 0002:0006cbd0       ??0?$_Vector_const_iterator@V?$_Vector_val@U?$_Simple_types@VCRect@@@std@@@std@@@std@@QAE@PAVCRect@@PBU_Container_base12@1@@Z 1012fbd0 f i BNC_BaseOverlay.obj
 0002:0006cc90       ??0?$_Vector_iterator@V?$_Vector_val@U?$_Simple_types@VCRect@@@std@@@std@@@std@@QAE@PAVCRect@@PBU_Container_base12@1@@Z 1012fc90 f i BNC_BaseOverlay.obj
 0002:0006ccf0       ??0BNC_BaseOverlay@@QAE@IPAVCWnd@@PAVCDialog@@EK@Z 1012fcf0 f   BNC_BaseOverlay.obj
 0002:0006ceb0       ??1?$_Iterator012@Urandom_access_iterator_tag@std@@VCRect@@HPBV3@ABV3@U_Iterator_base12@2@@std@@QAE@XZ 1012feb0 f i BNC_BaseOverlay.obj
 0002:0006cf00       ??1?$_Vector_const_iterator@V?$_Vector_val@U?$_Simple_types@VCRect@@@std@@@std@@@std@@QAE@XZ 1012ff00 f i BNC_BaseOverlay.obj
 0002:0006cf50       ??1?$_Vector_iterator@V?$_Vector_val@U?$_Simple_types@VCRect@@@std@@@std@@@std@@QAE@XZ 1012ff50 f i BNC_BaseOverlay.obj
 0002:0006cfa0       ??1BNC_BaseOverlay@@UAE@XZ 1012ffa0 f   BNC_BaseOverlay.obj
 0002:0006d060       ??8?$_Vector_const_iterator@V?$_Vector_val@U?$_Simple_types@VCRect@@@std@@@std@@@std@@QBE_NABV01@@Z 10130060 f i BNC_BaseOverlay.obj
 0002:0006d0f0       ??9?$_Vector_const_iterator@V?$_Vector_val@U?$_Simple_types@VCRect@@@std@@@std@@@std@@QBE_NABV01@@Z 101300f0 f i BNC_BaseOverlay.obj
 0002:0006d180       ??D?$_Vector_const_iterator@V?$_Vector_val@U?$_Simple_types@VCRect@@@std@@@std@@@std@@QBEABVCRect@@XZ 10130180 f i BNC_BaseOverlay.obj
 0002:0006d2c0       ??D?$_Vector_iterator@V?$_Vector_val@U?$_Simple_types@VCRect@@@std@@@std@@@std@@QBEAAVCRect@@XZ 101302c0 f i BNC_BaseOverlay.obj
 0002:0006d310       ??E?$_Vector_const_iterator@V?$_Vector_val@U?$_Simple_types@VCRect@@@std@@@std@@@std@@QAEAAV01@XZ 10130310 f i BNC_BaseOverlay.obj
 0002:0006d440       ??E?$_Vector_iterator@V?$_Vector_val@U?$_Simple_types@VCRect@@@std@@@std@@@std@@QAEAAV01@XZ 10130440 f i BNC_BaseOverlay.obj
 0002:0006d4a0       ??_EBNC_BaseOverlay@@UAEPAXI@Z 101304a0 f i BNC_BaseOverlay.obj
 0002:0006d560       ??_GBNC_BaseOverlay@@UAEPAXI@Z 10130560 f i BNC_BaseOverlay.obj
 0002:0006d5d0       ?Break@BNC_BaseOverlay@@QAEXXZ 101305d0 f   BNC_BaseOverlay.obj
 0002:0006d640       ?GetAliveCount@BNC_BaseOverlay@@SAIXZ 10130640 f   BNC_BaseOverlay.obj
 0002:0006d680       ?GetAliveOverlay@BNC_BaseOverlay@@SA?AV?$set@PAUHWND__@@U?$less@PAUHWND__@@@std@@V?$allocator@PAUHWND__@@@3@@std@@XZ 10130680 f   BNC_BaseOverlay.obj
 0002:0006d700       ?GetCreateCount@BNC_BaseOverlay@@SAIXZ 10130700 f   BNC_BaseOverlay.obj
 0002:0006d740       ?GetMessageMap@BNC_BaseOverlay@@MBEPBUAFX_MSGMAP@@XZ 10130740 f   BNC_BaseOverlay.obj
 0002:0006d790       ?GetThisMessageMap@BNC_BaseOverlay@@KGPBUAFX_MSGMAP@@XZ 10130790 f   BNC_BaseOverlay.obj
 0002:0006d7d0       ?Modal@BNC_BaseOverlay@@QAEH_N@Z 101307d0 f   BNC_BaseOverlay.obj
 0002:0006d950       ?OnCreate@BNC_BaseOverlay@@EAE_NXZ 10130950 f   BNC_BaseOverlay.obj
 0002:0006dd20       ?OnDraw@BNC_BaseOverlay@@EAE_NPAVCDC@@0@Z 10130d20 f   BNC_BaseOverlay.obj
 0002:0006dd60       ?OnInitDialog@BNC_BaseOverlay@@MAEHXZ 10130d60 f   BNC_BaseOverlay.obj
 0002:0006dec0       ?OnUpdateSize@BNC_BaseOverlay@@EAEXHH@Z 10130ec0 f   BNC_BaseOverlay.obj
 0002:0006dff0       ?PreTranslateMessage@BNC_BaseOverlay@@UAEHPAUtagMSG@@@Z 10130ff0 f   BNC_BaseOverlay.obj
 0002:0006e0a0       ?_Compat@?$_Vector_const_iterator@V?$_Vector_val@U?$_Simple_types@VCRect@@@std@@@std@@@std@@QBEXABV12@@Z 101310a0 f i BNC_BaseOverlay.obj
 0002:0006e1c0       ?__autoclassinit2@?$_Vector_iterator@V?$_Vector_val@U?$_Simple_types@VCRect@@@std@@@std@@@std@@QAEXI@Z 101311c0 f i BNC_BaseOverlay.obj
 0002:0006e220       ?begin@?$vector@VCRect@@V?$allocator@VCRect@@@std@@@std@@QAE?AV?$_Vector_iterator@V?$_Vector_val@U?$_Simple_types@VCRect@@@std@@@std@@@2@XZ 10131220 f i BNC_BaseOverlay.obj
 0002:0006e290       ?end@?$vector@VCRect@@V?$allocator@VCRect@@@std@@@std@@QAE?AV?$_Vector_iterator@V?$_Vector_val@U?$_Simple_types@VCRect@@@std@@@std@@@2@XZ 10131290 f i BNC_BaseOverlay.obj
 0002:0006e300       ?OnMouseMove@BNC_BaseRefItemControl@@IAEXIVCPoint@@@Z 10131300 f   BNC_BaseRefItemControl.obj
 0002:0006e410       ?OnLButtonDown@BNC_BaseRefItemControl@@IAEXIVCPoint@@@Z 10131410 f   BNC_BaseRefItemControl.obj
 0002:0006e490       ?OnRButtonDown@BNC_BaseRefItemControl@@IAEXIVCPoint@@@Z 10131490 f   BNC_BaseRefItemControl.obj
 0002:0006e510       ?OnLButtonUp@BNC_BaseRefItemControl@@IAEXIVCPoint@@@Z 10131510 f   BNC_BaseRefItemControl.obj
 0002:0006e590       ?OnRButtonUp@BNC_BaseRefItemControl@@IAEXIVCPoint@@@Z 10131590 f   BNC_BaseRefItemControl.obj
 0002:0006e610       ?OnLButtonDblClk@BNC_BaseRefItemControl@@IAEXIVCPoint@@@Z 10131610 f   BNC_BaseRefItemControl.obj
 0002:0006e690       ?OnCaptureChanged@BNC_BaseRefItemControl@@IAEXPAVCWnd@@@Z 10131690 f   BNC_BaseRefItemControl.obj
 0002:0006e750       ??$?0AAV?$_Tree_const_iterator@V?$_Tree_val@U?$_Tree_simple_types@PAVBNC_ReferenceItem@@@std@@@std@@@std@@_NX@?$pair@V?$_Tree_const_iterator@V?$_Tree_val@U?$_Tree_simple_types@PAVBNC_ReferenceItem@@@std@@@std@@@std@@_N@std@@QAE@AAV?$_Tree_const_iterator@V?$_Tree_val@U?$_Tree_simple_types@PAVBNC_ReferenceItem@@@std@@@std@@@1@$$QA_N@Z 10131750 f i BNC_BaseRefItemControl.obj
 0002:0006e820       ??$?0U?$_Tree_node@PAVBNC_ReferenceItem@@PAX@std@@@?$allocator@PAVBNC_ReferenceItem@@@std@@QAE@ABV?$allocator@U?$_Tree_node@PAVBNC_ReferenceItem@@PAX@std@@@1@@Z 10131820 f i BNC_BaseRefItemControl.obj
 0002:0006e860       ??$?0U?$_Tree_node@PAVBNC_ReferenceItem@@PAX@std@@@?$allocator@U_Container_proxy@std@@@std@@QAE@ABV?$allocator@U?$_Tree_node@PAVBNC_ReferenceItem@@PAX@std@@@1@@Z 10131860 f i BNC_BaseRefItemControl.obj
 0002:0006e8a0       ??$?0U?$_Wrap_alloc@V?$allocator@U?$_Tree_node@PAVBNC_ReferenceItem@@PAX@std@@@std@@@std@@@?$_Wrap_alloc@V?$allocator@U_Container_proxy@std@@@std@@@std@@QAE@ABU?$_Wrap_alloc@V?$allocator@U?$_Tree_node@PAVBNC_ReferenceItem@@PAX@std@@@std@@@1@@Z 101318a0 f i BNC_BaseRefItemControl.obj
 0002:0006e900       ??$?0V?$_Tree_const_iterator@V?$_Tree_val@U?$_Tree_simple_types@PAVBNC_ReferenceItem@@@std@@@std@@@std@@_NX@?$pair@V?$_Tree_const_iterator@V?$_Tree_val@U?$_Tree_simple_types@PAVBNC_ReferenceItem@@@std@@@std@@@std@@_N@std@@QAE@$$QAV?$_Tree_const_iterator@V?$_Tree_val@U?$_Tree_simple_types@PAVBNC_ReferenceItem@@@std@@@std@@@1@$$QA_N@Z 10131900 f i BNC_BaseRefItemControl.obj
 0002:0006e9d0       ??$_Allocate@U?$_Tree_node@PAVBNC_ReferenceItem@@PAX@std@@@std@@YAPAU?$_Tree_node@PAVBNC_ReferenceItem@@PAX@0@IPAU10@@Z 101319d0 f i BNC_BaseRefItemControl.obj
 0002:0006ea60       ??$_Buynode@AAPAVBNC_ReferenceItem@@@?$_Tree_buy@PAVBNC_ReferenceItem@@V?$allocator@PAVBNC_ReferenceItem@@@std@@@std@@QAEPAU?$_Tree_node@PAVBNC_ReferenceItem@@PAX@1@AAPAVBNC_ReferenceItem@@@Z 10131a60 f i BNC_BaseRefItemControl.obj
 0002:0006ebd0       ??$_Buynode@ABQAVBNC_ReferenceItem@@@?$_Tree_buy@PAVBNC_ReferenceItem@@V?$allocator@PAVBNC_ReferenceItem@@@std@@@std@@QAEPAU?$_Tree_node@PAVBNC_ReferenceItem@@PAX@1@ABQAVBNC_ReferenceItem@@@Z 10131bd0 f i BNC_BaseRefItemControl.obj
 0002:0006ed40       ??$_Buynode_if_nil@ABQAVBNC_ReferenceItem@@@?$_Tree@V?$_Tset_traits@PAVBNC_ReferenceItem@@U?$less@PAVBNC_ReferenceItem@@@std@@V?$allocator@PAVBNC_ReferenceItem@@@3@$0A@@std@@@std@@IAEPAU?$_Tree_node@PAVBNC_ReferenceItem@@PAX@1@U_Nil@1@ABQAVBNC_ReferenceItem@@@Z 10131d40 f i BNC_BaseRefItemControl.obj
 0002:0006edb0       ??$_Copy@U?$integral_constant@_N$0A@@std@@@?$_Tree@V?$_Tset_traits@PAVBNC_ReferenceItem@@U?$less@PAVBNC_ReferenceItem@@@std@@V?$allocator@PAVBNC_ReferenceItem@@@3@$0A@@std@@@std@@IAEXABV01@U?$integral_constant@_N$0A@@1@@Z 10131db0 f i BNC_BaseRefItemControl.obj
 0002:0006eee0       ??$_Copy_nodes@U?$integral_constant@_N$0A@@std@@@?$_Tree@V?$_Tset_traits@PAVBNC_ReferenceItem@@U?$less@PAVBNC_ReferenceItem@@@std@@V?$allocator@PAVBNC_ReferenceItem@@@3@$0A@@std@@@std@@IAEPAU?$_Tree_node@PAVBNC_ReferenceItem@@PAX@1@PAU21@0U?$integral_constant@_N$0A@@1@@Z 10131ee0 f i BNC_BaseRefItemControl.obj
 0002:0006f130       ??$_Copy_or_move@U?$integral_constant@_N$0A@@std@@U?$integral_constant@_N$00@2@U32@H@?$_Tree@V?$_Tset_traits@PAVBNC_ReferenceItem@@U?$less@PAVBNC_ReferenceItem@@@std@@V?$allocator@PAVBNC_ReferenceItem@@@3@$0A@@std@@@std@@IAEPAU?$_Tree_node@PAVBNC_ReferenceItem@@PAX@1@PAU21@U?$integral_constant@_N$0A@@1@U?$integral_constant@_N$00@1@2H@Z 10132130 f i BNC_BaseRefItemControl.obj
 0002:0006f1a0       ??$_Debug_lt_pred@U?$less@PAVBNC_ReferenceItem@@@std@@ABQAVBNC_ReferenceItem@@ABQAV3@@std@@YA_NU?$less@PAVBNC_ReferenceItem@@@0@ABQAVBNC_ReferenceItem@@1PB_WI@Z 101321a0 f i BNC_BaseRefItemControl.obj
 0002:0006f280       ??$_Insert_at@ABQAVBNC_ReferenceItem@@U_Nil@std@@@?$_Tree@V?$_Tset_traits@PAVBNC_ReferenceItem@@U?$less@PAVBNC_ReferenceItem@@@std@@V?$allocator@PAVBNC_ReferenceItem@@@3@$0A@@std@@@std@@IAE?AV?$_Tree_const_iterator@V?$_Tree_val@U?$_Tree_simple_types@PAVBNC_ReferenceItem@@@std@@@std@@@1@_NPAU?$_Tree_node@PAVBNC_ReferenceItem@@PAX@1@ABQAVBNC_ReferenceItem@@U_Nil@1@@Z 10132280 f i BNC_BaseRefItemControl.obj
 0002:0006f810       ??$_Insert_nohint@ABQAVBNC_ReferenceItem@@U_Nil@std@@@?$_Tree@V?$_Tset_traits@PAVBNC_ReferenceItem@@U?$less@PAVBNC_ReferenceItem@@@std@@V?$allocator@PAVBNC_ReferenceItem@@@3@$0A@@std@@@std@@IAE?AU?$pair@V?$_Tree_const_iterator@V?$_Tree_val@U?$_Tree_simple_types@PAVBNC_ReferenceItem@@@std@@@std@@@std@@_N@1@_NABQAVBNC_ReferenceItem@@U_Nil@1@@Z 10132810 f i BNC_BaseRefItemControl.obj
 0002:0006ff70       ??$addressof@PAU?$_Tree_node@PAVBNC_ReferenceItem@@PAX@std@@@std@@YAPAPAU?$_Tree_node@PAVBNC_ReferenceItem@@PAX@0@AAPAU10@@Z 10132f70 f i BNC_BaseRefItemControl.obj
 0002:0006ffb0       ??$addressof@PAVBNC_ReferenceItem@@@std@@YAPAPAVBNC_ReferenceItem@@AAPAV1@@Z 10132fb0 f i BNC_BaseRefItemControl.obj
 0002:0006fff0       ??$construct@PAU?$_Tree_node@PAVBNC_ReferenceItem@@PAX@std@@AAPAU12@@?$_Wrap_alloc@V?$allocator@U?$_Tree_node@PAVBNC_ReferenceItem@@PAX@std@@@std@@@std@@QAEXPAPAU?$_Tree_node@PAVBNC_ReferenceItem@@PAX@1@AAPAU21@@Z 10132ff0 f i BNC_BaseRefItemControl.obj
 0002:00070060       ??$construct@PAU?$_Tree_node@PAVBNC_ReferenceItem@@PAX@std@@AAPAU12@@?$allocator@U?$_Tree_node@PAVBNC_ReferenceItem@@PAX@std@@@std@@QAEXPAPAU?$_Tree_node@PAVBNC_ReferenceItem@@PAX@1@AAPAU21@@Z 10133060 f i BNC_BaseRefItemControl.obj
 0002:00070160       ??$construct@PAU?$_Tree_node@PAVBNC_ReferenceItem@@PAX@std@@AAPAU12@@?$allocator_traits@V?$allocator@U?$_Tree_node@PAVBNC_ReferenceItem@@PAX@std@@@std@@@std@@SAXAAV?$allocator@U?$_Tree_node@PAVBNC_ReferenceItem@@PAX@std@@@1@PAPAU?$_Tree_node@PAVBNC_ReferenceItem@@PAX@1@AAPAU31@@Z 10133160 f i BNC_BaseRefItemControl.obj
 0002:000701c0       ??$construct@PAVBNC_ReferenceItem@@AAPAV1@@?$_Wrap_alloc@V?$allocator@U?$_Tree_node@PAVBNC_ReferenceItem@@PAX@std@@@std@@@std@@QAEXPAPAVBNC_ReferenceItem@@AAPAV2@@Z 101331c0 f i BNC_BaseRefItemControl.obj
 0002:00070230       ??$construct@PAVBNC_ReferenceItem@@AAPAV1@@?$allocator@U?$_Tree_node@PAVBNC_ReferenceItem@@PAX@std@@@std@@QAEXPAPAVBNC_ReferenceItem@@AAPAV2@@Z 10133230 f i BNC_BaseRefItemControl.obj
 0002:00070330       ??$construct@PAVBNC_ReferenceItem@@AAPAV1@@?$allocator_traits@V?$allocator@U?$_Tree_node@PAVBNC_ReferenceItem@@PAX@std@@@std@@@std@@SAXAAV?$allocator@U?$_Tree_node@PAVBNC_ReferenceItem@@PAX@std@@@1@PAPAVBNC_ReferenceItem@@AAPAV3@@Z 10133330 f i BNC_BaseRefItemControl.obj
 0002:00070390       ??$construct@PAVBNC_ReferenceItem@@ABQAV1@@?$_Wrap_alloc@V?$allocator@U?$_Tree_node@PAVBNC_ReferenceItem@@PAX@std@@@std@@@std@@QAEXPAPAVBNC_ReferenceItem@@ABQAV2@@Z 10133390 f i BNC_BaseRefItemControl.obj
 0002:00070400       ??$construct@PAVBNC_ReferenceItem@@ABQAV1@@?$allocator@U?$_Tree_node@PAVBNC_ReferenceItem@@PAX@std@@@std@@QAEXPAPAVBNC_ReferenceItem@@ABQAV2@@Z 10133400 f i BNC_BaseRefItemControl.obj
 0002:00070500       ??$construct@PAVBNC_ReferenceItem@@ABQAV1@@?$allocator_traits@V?$allocator@U?$_Tree_node@PAVBNC_ReferenceItem@@PAX@std@@@std@@@std@@SAXAAV?$allocator@U?$_Tree_node@PAVBNC_ReferenceItem@@PAX@std@@@1@PAPAVBNC_ReferenceItem@@ABQAV3@@Z 10133500 f i BNC_BaseRefItemControl.obj
 0002:00070560       ??$destroy@PAU?$_Tree_node@PAVBNC_ReferenceItem@@PAX@std@@@?$_Wrap_alloc@V?$allocator@U?$_Tree_node@PAVBNC_ReferenceItem@@PAX@std@@@std@@@std@@QAEXPAPAU?$_Tree_node@PAVBNC_ReferenceItem@@PAX@1@@Z 10133560 f i BNC_BaseRefItemControl.obj
 0002:000705c0       ??$destroy@PAU?$_Tree_node@PAVBNC_ReferenceItem@@PAX@std@@@?$allocator@U?$_Tree_node@PAVBNC_ReferenceItem@@PAX@std@@@std@@QAEXPAPAU?$_Tree_node@PAVBNC_ReferenceItem@@PAX@1@@Z 101335c0 f i BNC_BaseRefItemControl.obj
 0002:00070600       ??$destroy@PAU?$_Tree_node@PAVBNC_ReferenceItem@@PAX@std@@@?$allocator_traits@V?$allocator@U?$_Tree_node@PAVBNC_ReferenceItem@@PAX@std@@@std@@@std@@SAXAAV?$allocator@U?$_Tree_node@PAVBNC_ReferenceItem@@PAX@std@@@1@PAPAU?$_Tree_node@PAVBNC_ReferenceItem@@PAX@1@@Z 10133600 f i BNC_BaseRefItemControl.obj
 0002:00070650       ??$destroy@PAVBNC_ReferenceItem@@@?$_Wrap_alloc@V?$allocator@U?$_Tree_node@PAVBNC_ReferenceItem@@PAX@std@@@std@@@std@@QAEXPAPAVBNC_ReferenceItem@@@Z 10133650 f i BNC_BaseRefItemControl.obj
 0002:000706b0       ??$destroy@PAVBNC_ReferenceItem@@@?$allocator@U?$_Tree_node@PAVBNC_ReferenceItem@@PAX@std@@@std@@QAEXPAPAVBNC_ReferenceItem@@@Z 101336b0 f i BNC_BaseRefItemControl.obj
 0002:000706f0       ??$destroy@PAVBNC_ReferenceItem@@@?$allocator_traits@V?$allocator@U?$_Tree_node@PAVBNC_ReferenceItem@@PAX@std@@@std@@@std@@SAXAAV?$allocator@U?$_Tree_node@PAVBNC_ReferenceItem@@PAX@std@@@1@PAPAVBNC_ReferenceItem@@@Z 101336f0 f i BNC_BaseRefItemControl.obj
 0002:00070740       ??$forward@AAPAU?$_Tree_node@PAVBNC_ReferenceItem@@PAX@std@@@std@@YAAAPAU?$_Tree_node@PAVBNC_ReferenceItem@@PAX@0@AAPAU10@@Z 10133740 f i BNC_BaseRefItemControl.obj
 0002:00070780       ??$forward@AAPAVBNC_ReferenceItem@@@std@@YAAAPAVBNC_ReferenceItem@@AAPAV1@@Z 10133780 f i BNC_BaseRefItemControl.obj
 0002:000707c0       ??$forward@AAV?$_Tree_const_iterator@V?$_Tree_val@U?$_Tree_simple_types@PAVBNC_ReferenceItem@@@std@@@std@@@std@@@std@@YAAAV?$_Tree_const_iterator@V?$_Tree_val@U?$_Tree_simple_types@PAVBNC_ReferenceItem@@@std@@@std@@@0@AAV10@@Z 101337c0 f i BNC_BaseRefItemControl.obj
 0002:00070800       ??$forward@ABQAVBNC_ReferenceItem@@@std@@YAABQAVBNC_ReferenceItem@@ABQAV1@@Z 10133800 f i BNC_BaseRefItemControl.obj
 0002:00070840       ??$forward@V?$_Tree_const_iterator@V?$_Tree_val@U?$_Tree_simple_types@PAVBNC_ReferenceItem@@@std@@@std@@@std@@@std@@YA$$QAV?$_Tree_const_iterator@V?$_Tree_val@U?$_Tree_simple_types@PAVBNC_ReferenceItem@@@std@@@std@@@0@AAV10@@Z 10133840 f i BNC_BaseRefItemControl.obj
 0002:00070880       ??0?$_Iterator012@Ubidirectional_iterator_tag@std@@PAVBNC_ReferenceItem@@HPBQAV3@ABQAV3@U_Iterator_base12@2@@std@@QAE@ABU01@@Z 10133880 f i BNC_BaseRefItemControl.obj
 0002:000708e0       ??0?$_Iterator012@Ubidirectional_iterator_tag@std@@PAVBNC_ReferenceItem@@HPBQAV3@ABQAV3@U_Iterator_base12@2@@std@@QAE@XZ 101338e0 f i BNC_BaseRefItemControl.obj
 0002:00070940       ??0?$_Tree@V?$_Tset_traits@PAVBNC_ReferenceItem@@U?$less@PAVBNC_ReferenceItem@@@std@@V?$allocator@PAVBNC_ReferenceItem@@@3@$0A@@std@@@std@@QAE@ABU?$less@PAVBNC_ReferenceItem@@@1@ABV?$allocator@PAVBNC_ReferenceItem@@@1@@Z 10133940 f i BNC_BaseRefItemControl.obj
 0002:000709a0       ??0?$_Tree@V?$_Tset_traits@PAVBNC_ReferenceItem@@U?$less@PAVBNC_ReferenceItem@@@std@@V?$allocator@PAVBNC_ReferenceItem@@@3@$0A@@std@@@std@@QAE@ABV01@ABV?$allocator@PAVBNC_ReferenceItem@@@1@@Z 101339a0 f i BNC_BaseRefItemControl.obj
 0002:00070ac0       ??0?$_Tree_alloc@$0A@U?$_Tree_base_types@PAVBNC_ReferenceItem@@V?$allocator@PAVBNC_ReferenceItem@@@std@@@std@@@std@@QAE@ABV?$allocator@PAVBNC_ReferenceItem@@@1@@Z 10133ac0 f i BNC_BaseRefItemControl.obj
 0002:00070bc0       ??0?$_Tree_buy@PAVBNC_ReferenceItem@@V?$allocator@PAVBNC_ReferenceItem@@@std@@@std@@QAE@ABV?$allocator@PAVBNC_ReferenceItem@@@1@@Z 10133bc0 f i BNC_BaseRefItemControl.obj
 0002:00070c20       ??0?$_Tree_comp@$0A@V?$_Tset_traits@PAVBNC_ReferenceItem@@U?$less@PAVBNC_ReferenceItem@@@std@@V?$allocator@PAVBNC_ReferenceItem@@@3@$0A@@std@@@std@@QAE@ABU?$less@PAVBNC_ReferenceItem@@@1@ABV?$allocator@PAVBNC_ReferenceItem@@@1@@Z 10133c20 f i BNC_BaseRefItemControl.obj
 0002:00070c80       ??0?$_Tree_const_iterator@V?$_Tree_val@U?$_Tree_simple_types@PAVBNC_ReferenceItem@@@std@@@std@@@std@@QAE@ABV01@@Z 10133c80 f i BNC_BaseRefItemControl.obj
 0002:00070ce0       ??0?$_Tree_const_iterator@V?$_Tree_val@U?$_Tree_simple_types@PAVBNC_ReferenceItem@@@std@@@std@@@std@@QAE@PAU?$_Tree_node@PAVBNC_ReferenceItem@@PAX@1@PBV?$_Tree_val@U?$_Tree_simple_types@PAVBNC_ReferenceItem@@@std@@@1@@Z 10133ce0 f i BNC_BaseRefItemControl.obj
 0002:00070d40       ??0?$_Tree_unchecked_const_iterator@V?$_Tree_val@U?$_Tree_simple_types@PAVBNC_ReferenceItem@@@std@@@std@@U_Iterator_base12@2@@std@@QAE@ABV01@@Z 10133d40 f i BNC_BaseRefItemControl.obj
 0002:00070db0       ??0?$_Tree_unchecked_const_iterator@V?$_Tree_val@U?$_Tree_simple_types@PAVBNC_ReferenceItem@@@std@@@std@@U_Iterator_base12@2@@std@@QAE@PAU?$_Tree_node@PAVBNC_ReferenceItem@@PAX@1@PBV?$_Tree_val@U?$_Tree_simple_types@PAVBNC_ReferenceItem@@@std@@@1@@Z 10133db0 f i BNC_BaseRefItemControl.obj
 0002:00070e70       ??0?$_Tree_val@U?$_Tree_simple_types@PAVBNC_ReferenceItem@@@std@@@std@@QAE@XZ 10133e70 f i BNC_BaseRefItemControl.obj
 0002:00070ef0       ??0?$_Wrap_alloc@V?$allocator@U?$_Tree_node@PAVBNC_ReferenceItem@@PAX@std@@@std@@@std@@QAE@ABV?$allocator@U?$_Tree_node@PAVBNC_ReferenceItem@@PAX@std@@@1@@Z 10133ef0 f i BNC_BaseRefItemControl.obj
 0002:00070f50       ??0?$_Wrap_alloc@V?$allocator@U?$_Tree_node@PAVBNC_ReferenceItem@@PAX@std@@@std@@@std@@QAE@XZ 10133f50 f i BNC_BaseRefItemControl.obj
 0002:00070fb0       ??0?$allocator@U?$_Tree_node@PAVBNC_ReferenceItem@@PAX@std@@@std@@QAE@ABV01@@Z 10133fb0 f i BNC_BaseRefItemControl.obj
 0002:00070ff0       ??0?$allocator@U?$_Tree_node@PAVBNC_ReferenceItem@@PAX@std@@@std@@QAE@XZ 10133ff0 f i BNC_BaseRefItemControl.obj
 0002:00071030       ??0?$set@PAVBNC_ReferenceItem@@U?$less@PAVBNC_ReferenceItem@@@std@@V?$allocator@PAVBNC_ReferenceItem@@@3@@std@@QAE@ABV01@@Z 10134030 f i BNC_BaseRefItemControl.obj
 0002:000710d0       ??0?$set@PAVBNC_ReferenceItem@@U?$less@PAVBNC_ReferenceItem@@@std@@V?$allocator@PAVBNC_ReferenceItem@@@3@@std@@QAE@XZ 101340d0 f i BNC_BaseRefItemControl.obj
 0002:00071140       ??0BNC_BaseRefItemControl@@QAE@XZ 10134140 f   BNC_BaseRefItemControl.obj
 0002:00071380       ??0BNS_ReferenceItemSortOption@@QAE@XZ 10134380 f i BNC_BaseRefItemControl.obj
 0002:000713e0       ??1?$_Iterator012@Ubidirectional_iterator_tag@std@@PAVBNC_ReferenceItem@@HPBQAV3@ABQAV3@U_Iterator_base12@2@@std@@QAE@XZ 101343e0 f i BNC_BaseRefItemControl.obj
 0002:00071430       ??1?$_Tree@V?$_Tset_traits@PAVBNC_ReferenceItem@@U?$less@PAVBNC_ReferenceItem@@@std@@V?$allocator@PAVBNC_ReferenceItem@@@3@$0A@@std@@@std@@QAE@XZ 10134430 f i BNC_BaseRefItemControl.obj
 0002:00071490       ??1?$_Tree_alloc@$0A@U?$_Tree_base_types@PAVBNC_ReferenceItem@@V?$allocator@PAVBNC_ReferenceItem@@@std@@@std@@@std@@QAE@XZ 10134490 f i BNC_BaseRefItemControl.obj
 0002:00071500       ??1?$_Tree_buy@PAVBNC_ReferenceItem@@V?$allocator@PAVBNC_ReferenceItem@@@std@@@std@@QAE@XZ 10134500 f i BNC_BaseRefItemControl.obj
 0002:00071550       ??1?$_Tree_comp@$0A@V?$_Tset_traits@PAVBNC_ReferenceItem@@U?$less@PAVBNC_ReferenceItem@@@std@@V?$allocator@PAVBNC_ReferenceItem@@@3@$0A@@std@@@std@@QAE@XZ 10134550 f i BNC_BaseRefItemControl.obj
 0002:000715a0       ??1?$_Tree_const_iterator@V?$_Tree_val@U?$_Tree_simple_types@PAVBNC_ReferenceItem@@@std@@@std@@@std@@QAE@XZ 101345a0 f i BNC_BaseRefItemControl.obj
 0002:000715f0       ??1?$_Tree_unchecked_const_iterator@V?$_Tree_val@U?$_Tree_simple_types@PAVBNC_ReferenceItem@@@std@@@std@@U_Iterator_base12@2@@std@@QAE@XZ 101345f0 f i BNC_BaseRefItemControl.obj
 0002:00071640       ??1?$_Tree_val@U?$_Tree_simple_types@PAVBNC_ReferenceItem@@@std@@@std@@QAE@XZ 10134640 f i BNC_BaseRefItemControl.obj
 0002:000716a0       ??1?$pair@V?$_Tree_const_iterator@V?$_Tree_val@U?$_Tree_simple_types@PAVBNC_ReferenceItem@@@std@@@std@@@std@@_N@std@@QAE@XZ 101346a0 f i BNC_BaseRefItemControl.obj
 0002:000716f0       ??1?$set@PAVBNC_ReferenceItem@@U?$less@PAVBNC_ReferenceItem@@@std@@V?$allocator@PAVBNC_ReferenceItem@@@3@@std@@QAE@XZ 101346f0 f i BNC_BaseRefItemControl.obj
 0002:00071740       ??1BNC_BaseRefItemControl@@UAE@XZ 10134740 f   BNC_BaseRefItemControl.obj
 0002:00071840       ??8?$_Tree_const_iterator@V?$_Tree_val@U?$_Tree_simple_types@PAVBNC_ReferenceItem@@@std@@@std@@@std@@QBE_NABV01@@Z 10134840 f i BNC_BaseRefItemControl.obj
 0002:000719a0       ??9?$_Tree_const_iterator@V?$_Tree_val@U?$_Tree_simple_types@PAVBNC_ReferenceItem@@@std@@@std@@@std@@QBE_NABV01@@Z 101349a0 f i BNC_BaseRefItemControl.obj
 0002:00071a30       ??D?$_Tree_const_iterator@V?$_Tree_val@U?$_Tree_simple_types@PAVBNC_ReferenceItem@@@std@@@std@@@std@@QBEABQAVBNC_ReferenceItem@@XZ 10134a30 f i BNC_BaseRefItemControl.obj
 0002:00071b70       ??E?$_Tree_const_iterator@V?$_Tree_val@U?$_Tree_simple_types@PAVBNC_ReferenceItem@@@std@@@std@@@std@@QAE?AV01@H@Z 10134b70 f i BNC_BaseRefItemControl.obj
 0002:00071cb0       ??E?$_Tree_const_iterator@V?$_Tree_val@U?$_Tree_simple_types@PAVBNC_ReferenceItem@@@std@@@std@@@std@@QAEAAV01@XZ 10134cb0 f i BNC_BaseRefItemControl.obj
 0002:00071df0       ??E?$_Tree_unchecked_const_iterator@V?$_Tree_val@U?$_Tree_simple_types@PAVBNC_ReferenceItem@@@std@@@std@@U_Iterator_base12@2@@std@@QAEAAV01@XZ 10134df0 f i BNC_BaseRefItemControl.obj
 0002:00071f20       ??F?$_Tree_const_iterator@V?$_Tree_val@U?$_Tree_simple_types@PAVBNC_ReferenceItem@@@std@@@std@@@std@@QAEAAV01@XZ 10134f20 f i BNC_BaseRefItemControl.obj
 0002:00072100       ??F?$_Tree_unchecked_const_iterator@V?$_Tree_val@U?$_Tree_simple_types@PAVBNC_ReferenceItem@@@std@@@std@@U_Iterator_base12@2@@std@@QAEAAV01@XZ 10135100 f i BNC_BaseRefItemControl.obj
 0002:00072260       ??HATL@@YA?AV?$CStringT@_WV?$StrTraitMFC_DLL@_WV?$ChTraitsCRT@_W@ATL@@@@@0@PB_WABV10@@Z 10135260 f i BNC_BaseRefItemControl.obj
 0002:00072420       ??R?$less@PAVBNC_ReferenceItem@@@std@@QBE_NABQAVBNC_ReferenceItem@@0@Z 10135420 f i BNC_BaseRefItemControl.obj
 0002:00072490       ??_EBNC_BaseRefItemControl@@UAEPAXI@Z 10135490 f i BNC_BaseRefItemControl.obj
 0002:00072550       ??_GBNC_BaseRefItemControl@@UAEPAXI@Z 10135550 f i BNC_BaseRefItemControl.obj
 0002:000725c0       ?Clear@BNS_ReferenceItemSortOption@@QAEXXZ 101355c0 f i BNC_BaseRefItemControl.obj
 0002:00072640       ?ClearMouseItem@BNC_BaseRefItemControl@@IAEX_N@Z 10135640 f   BNC_BaseRefItemControl.obj
 0002:00072950       ?DefaultDrawItem@BNC_BaseRefItemControl@@IAEXPAVCDC@@0PBVBNC_ReferenceItem@@W4BNE_REFITEM_STATE@@ABVCSize@@@Z 10135950 f   BNC_BaseRefItemControl.obj
 0002:00072cc0       ?DrawMouseActionItem@BNC_BaseRefItemControl@@EAEX_N@Z 10135cc0 f   BNC_BaseRefItemControl.obj
 0002:00073080       ?GetItemState@BNC_BaseRefItemControl@@MAE?AW4BNE_REFITEM_STATE@@PAVBNC_ReferenceItem@@@Z 10136080 f   BNC_BaseRefItemControl.obj
 0002:00073370       ?GetLastSelectItem@BNC_BaseRefItemControl@@IAEPBVBNC_ReferenceItem@@XZ 10136370 f   BNC_BaseRefItemControl.obj
 0002:000733b0       ?GetMessageMap@BNC_BaseRefItemControl@@MBEPBUAFX_MSGMAP@@XZ 101363b0 f   BNC_BaseRefItemControl.obj
 0002:00073400       ?GetNewMouseItem@BNC_BaseRefItemControl@@IAEPBVBNC_ReferenceItem@@XZ 10136400 f   BNC_BaseRefItemControl.obj
 0002:00073440       ?GetOldMouseItem@BNC_BaseRefItemControl@@IAEPBVBNC_ReferenceItem@@XZ 10136440 f   BNC_BaseRefItemControl.obj
 0002:00073480       ?GetSelectItem@BNC_BaseRefItemControl@@QAEPAVBNC_ReferenceItem@@XZ 10136480 f   BNC_BaseRefItemControl.obj
 0002:000734c0       ?GetSelectItemList@BNC_BaseRefItemControl@@IAE?BV?$set@PAVBNC_ReferenceItem@@U?$less@PAVBNC_ReferenceItem@@@std@@V?$allocator@PAVBNC_ReferenceItem@@@3@@std@@XZ 101364c0 f   BNC_BaseRefItemControl.obj
 0002:00073540       ?GetThisMessageMap@BNC_BaseRefItemControl@@KGPBUAFX_MSGMAP@@XZ 10136540 f   BNC_BaseRefItemControl.obj
 0002:00073580       ?IsCompareMouseAction@BNC_BaseRefItemControl@@AAE_NPAVBNC_ReferenceItem@@0@Z 10136580 f   BNC_BaseRefItemControl.obj
 0002:00073690       ?ResetMouseRectIndex@BNC_BaseRefItemControl@@QAEXPAVBNC_ReferenceItem@@_N@Z 10136690 f   BNC_BaseRefItemControl.obj
 0002:00073780       ?SetSelectItem@BNC_BaseRefItemControl@@QAEXPAVBNC_ReferenceItem@@@Z 10136780 f   BNC_BaseRefItemControl.obj
 0002:00073860       ?UpdateDeleteItem@BNC_BaseRefItemControl@@IAEXPAVBNC_ReferenceItem@@@Z 10136860 f   BNC_BaseRefItemControl.obj
 0002:00073ab0       ?UpdateLBtnSelect@BNC_BaseRefItemControl@@AAE_NIPAVBNC_ReferenceItem@@AAVCPoint@@@Z 10136ab0 f   BNC_BaseRefItemControl.obj
 0002:00073f20       ?UpdateMouseAction@BNC_BaseRefItemControl@@AAEXIW4BNE_MOUSEACTION@@AAVCPoint@@@Z 10136f20 f   BNC_BaseRefItemControl.obj
 0002:00074720       ?UpdateMouseItem@BNC_BaseRefItemControl@@AAEXPAVBNC_ReferenceItem@@@Z 10137720 f   BNC_BaseRefItemControl.obj
 0002:00074830       ?UpdateRBtnSelect@BNC_BaseRefItemControl@@AAE_NIPAVBNC_ReferenceItem@@AAVCPoint@@@Z 10137830 f   BNC_BaseRefItemControl.obj
 0002:00074900       ?_Alloc_proxy@?$_Tree_alloc@$0A@U?$_Tree_base_types@PAVBNC_ReferenceItem@@V?$allocator@PAVBNC_ReferenceItem@@@std@@@std@@@std@@QAEXXZ 10137900 f i BNC_BaseRefItemControl.obj
 0002:00074a00       ?_Buyheadnode@?$_Tree_alloc@$0A@U?$_Tree_base_types@PAVBNC_ReferenceItem@@V?$allocator@PAVBNC_ReferenceItem@@@std@@@std@@@std@@QAEPAU?$_Tree_node@PAVBNC_ReferenceItem@@PAX@2@XZ 10137a00 f i BNC_BaseRefItemControl.obj
 0002:00074c70       ?_Buynode0@?$_Tree_buy@PAVBNC_ReferenceItem@@V?$allocator@PAVBNC_ReferenceItem@@@std@@@std@@QAEPAU?$_Tree_node@PAVBNC_ReferenceItem@@PAX@2@XZ 10137c70 f i BNC_BaseRefItemControl.obj
 0002:00074e80       ?_Color@?$_Tree_val@U?$_Tree_simple_types@PAVBNC_ReferenceItem@@@std@@@std@@SAAADPAU?$_Tree_node@PAVBNC_ReferenceItem@@PAX@2@@Z 10137e80 f i BNC_BaseRefItemControl.obj
 0002:00074ec0       ?_Destroy_if_not_nil@?$_Tree@V?$_Tset_traits@PAVBNC_ReferenceItem@@U?$less@PAVBNC_ReferenceItem@@@std@@V?$allocator@PAVBNC_ReferenceItem@@@3@$0A@@std@@@std@@IAEXU_Nil@2@@Z 10137ec0 f i BNC_BaseRefItemControl.obj
 0002:00074f00       ?_Erase@?$_Tree@V?$_Tset_traits@PAVBNC_ReferenceItem@@U?$less@PAVBNC_ReferenceItem@@@std@@V?$allocator@PAVBNC_ReferenceItem@@@3@$0A@@std@@@std@@IAEXPAU?$_Tree_node@PAVBNC_ReferenceItem@@PAX@2@@Z 10137f00 f i BNC_BaseRefItemControl.obj
 0002:00075010       ?_Free_proxy@?$_Tree_alloc@$0A@U?$_Tree_base_types@PAVBNC_ReferenceItem@@V?$allocator@PAVBNC_ReferenceItem@@@std@@@std@@@std@@QAEXXZ 10138010 f i BNC_BaseRefItemControl.obj
 0002:00075110       ?_Freeheadnode@?$_Tree_alloc@$0A@U?$_Tree_base_types@PAVBNC_ReferenceItem@@V?$allocator@PAVBNC_ReferenceItem@@@std@@@std@@@std@@QAEXPAU?$_Tree_node@PAVBNC_ReferenceItem@@PAX@2@@Z 10138110 f i BNC_BaseRefItemControl.obj
 0002:00075220       ?_Freenode0@?$_Tree_buy@PAVBNC_ReferenceItem@@V?$allocator@PAVBNC_ReferenceItem@@@std@@@std@@QAEXPAU?$_Tree_node@PAVBNC_ReferenceItem@@PAX@2@@Z 10138220 f i BNC_BaseRefItemControl.obj
 0002:00075330       ?_Getal@?$_Tree_alloc@$0A@U?$_Tree_base_types@PAVBNC_ReferenceItem@@V?$allocator@PAVBNC_ReferenceItem@@@std@@@std@@@std@@QBE?AU?$_Wrap_alloc@V?$allocator@U?$_Tree_node@PAVBNC_ReferenceItem@@PAX@std@@@std@@@2@XZ 10138330 f i BNC_BaseRefItemControl.obj
 0002:00075390       ?_Getcomp@?$_Tree_comp@$0A@V?$_Tset_traits@PAVBNC_ReferenceItem@@U?$less@PAVBNC_ReferenceItem@@@std@@V?$allocator@PAVBNC_ReferenceItem@@@3@$0A@@std@@@std@@QBE?AU?$less@PAVBNC_ReferenceItem@@@2@XZ 10138390 f i BNC_BaseRefItemControl.obj
 0002:000753d0       ?_Isnil@?$_Tree_val@U?$_Tree_simple_types@PAVBNC_ReferenceItem@@@std@@@std@@SAAADPAU?$_Tree_node@PAVBNC_ReferenceItem@@PAX@2@@Z 101383d0 f i BNC_BaseRefItemControl.obj
 0002:00075410       ?_Key@?$_Tree@V?$_Tset_traits@PAVBNC_ReferenceItem@@U?$less@PAVBNC_ReferenceItem@@@std@@V?$allocator@PAVBNC_ReferenceItem@@@3@$0A@@std@@@std@@IBEABQAVBNC_ReferenceItem@@PAU?$_Tree_node@PAVBNC_ReferenceItem@@PAX@2@@Z 10138410 f i BNC_BaseRefItemControl.obj
 0002:00075480       ?_Kfn@?$_Tree@V?$_Tset_traits@PAVBNC_ReferenceItem@@U?$less@PAVBNC_ReferenceItem@@@std@@V?$allocator@PAVBNC_ReferenceItem@@@3@$0A@@std@@@std@@IBEABQAVBNC_ReferenceItem@@ABQAV3@@Z 10138480 f i BNC_BaseRefItemControl.obj
 0002:000754e0       ?_Kfn@?$_Tset_traits@PAVBNC_ReferenceItem@@U?$less@PAVBNC_ReferenceItem@@@std@@V?$allocator@PAVBNC_ReferenceItem@@@3@$0A@@std@@SAABQAVBNC_ReferenceItem@@ABQAV3@@Z 101384e0 f i BNC_BaseRefItemControl.obj
 0002:00075520       ?_Lbound@?$_Tree@V?$_Tset_traits@PAVBNC_ReferenceItem@@U?$less@PAVBNC_ReferenceItem@@@std@@V?$allocator@PAVBNC_ReferenceItem@@@3@$0A@@std@@@std@@IAEPAU?$_Tree_node@PAVBNC_ReferenceItem@@PAX@2@ABQAVBNC_ReferenceItem@@@Z 10138520 f i BNC_BaseRefItemControl.obj
 0002:00075630       ?_Left@?$_Tree_val@U?$_Tree_simple_types@PAVBNC_ReferenceItem@@@std@@@std@@SAAAPAU?$_Tree_node@PAVBNC_ReferenceItem@@PAX@2@PAU32@@Z 10138630 f i BNC_BaseRefItemControl.obj
 0002:00075670       ?_Lmost@?$_Tree@V?$_Tset_traits@PAVBNC_ReferenceItem@@U?$less@PAVBNC_ReferenceItem@@@std@@V?$allocator@PAVBNC_ReferenceItem@@@3@$0A@@std@@@std@@IBEAAPAU?$_Tree_node@PAVBNC_ReferenceItem@@PAX@2@XZ 10138670 f i BNC_BaseRefItemControl.obj
 0002:000756d0       ?_Lrotate@?$_Tree@V?$_Tset_traits@PAVBNC_ReferenceItem@@U?$less@PAVBNC_ReferenceItem@@@std@@V?$allocator@PAVBNC_ReferenceItem@@@3@$0A@@std@@@std@@IAEXPAU?$_Tree_node@PAVBNC_ReferenceItem@@PAX@2@@Z 101386d0 f i BNC_BaseRefItemControl.obj
 0002:00075880       ?_Max@?$_Tree_val@U?$_Tree_simple_types@PAVBNC_ReferenceItem@@@std@@@std@@SAPAU?$_Tree_node@PAVBNC_ReferenceItem@@PAX@2@PAU32@@Z 10138880 f i BNC_BaseRefItemControl.obj
 0002:00075900       ?_Min@?$_Tree_val@U?$_Tree_simple_types@PAVBNC_ReferenceItem@@@std@@@std@@SAPAU?$_Tree_node@PAVBNC_ReferenceItem@@PAX@2@PAU32@@Z 10138900 f i BNC_BaseRefItemControl.obj
 0002:00075980       ?_Mynode@?$_Tree_unchecked_const_iterator@V?$_Tree_val@U?$_Tree_simple_types@PAVBNC_ReferenceItem@@@std@@@std@@U_Iterator_base12@2@@std@@QBEPAU?$_Tree_node@PAVBNC_ReferenceItem@@PAX@2@XZ 10138980 f i BNC_BaseRefItemControl.obj
 0002:000759c0       ?_Myval@?$_Tree_val@U?$_Tree_simple_types@PAVBNC_ReferenceItem@@@std@@@std@@SAAAPAVBNC_ReferenceItem@@PAU?$_Tree_node@PAVBNC_ReferenceItem@@PAX@2@@Z 101389c0 f i BNC_BaseRefItemControl.obj
 0002:00075a00       ?_Orphan_ptr@?$_Tree@V?$_Tset_traits@PAVBNC_ReferenceItem@@U?$less@PAVBNC_ReferenceItem@@@std@@V?$allocator@PAVBNC_ReferenceItem@@@3@$0A@@std@@@std@@IBEXAAV12@PAU?$_Tree_node@PAVBNC_ReferenceItem@@PAX@2@@Z 10138a00 f i BNC_BaseRefItemControl.obj
 0002:00075ba0       ?_Parent@?$_Tree_val@U?$_Tree_simple_types@PAVBNC_ReferenceItem@@@std@@@std@@SAAAPAU?$_Tree_node@PAVBNC_ReferenceItem@@PAX@2@PAU32@@Z 10138ba0 f i BNC_BaseRefItemControl.obj
 0002:00075be0       ?_Right@?$_Tree_val@U?$_Tree_simple_types@PAVBNC_ReferenceItem@@@std@@@std@@SAAAPAU?$_Tree_node@PAVBNC_ReferenceItem@@PAX@2@PAU32@@Z 10138be0 f i BNC_BaseRefItemControl.obj
 0002:00075c20       ?_Rmost@?$_Tree@V?$_Tset_traits@PAVBNC_ReferenceItem@@U?$less@PAVBNC_ReferenceItem@@@std@@V?$allocator@PAVBNC_ReferenceItem@@@3@$0A@@std@@@std@@IBEAAPAU?$_Tree_node@PAVBNC_ReferenceItem@@PAX@2@XZ 10138c20 f i BNC_BaseRefItemControl.obj
 0002:00075c80       ?_Root@?$_Tree@V?$_Tset_traits@PAVBNC_ReferenceItem@@U?$less@PAVBNC_ReferenceItem@@@std@@V?$allocator@PAVBNC_ReferenceItem@@@3@$0A@@std@@@std@@IBEAAPAU?$_Tree_node@PAVBNC_ReferenceItem@@PAX@2@XZ 10138c80 f i BNC_BaseRefItemControl.obj
 0002:00075ce0       ?_Rrotate@?$_Tree@V?$_Tset_traits@PAVBNC_ReferenceItem@@U?$less@PAVBNC_ReferenceItem@@@std@@V?$allocator@PAVBNC_ReferenceItem@@@3@$0A@@std@@@std@@IAEXPAU?$_Tree_node@PAVBNC_ReferenceItem@@PAX@2@@Z 10138ce0 f i BNC_BaseRefItemControl.obj
 0002:00075e90       ?_Tidy@?$_Tree@V?$_Tset_traits@PAVBNC_ReferenceItem@@U?$less@PAVBNC_ReferenceItem@@@std@@V?$allocator@PAVBNC_ReferenceItem@@@3@$0A@@std@@@std@@IAEXXZ 10138e90 f i BNC_BaseRefItemControl.obj
 0002:00075f40       ?__autoclassinit2@?$_Tree_const_iterator@V?$_Tree_val@U?$_Tree_simple_types@PAVBNC_ReferenceItem@@@std@@@std@@@std@@QAEXI@Z 10138f40 f i BNC_BaseRefItemControl.obj
 0002:00075fa0       ?allocate@?$_Wrap_alloc@V?$allocator@U?$_Tree_node@PAVBNC_ReferenceItem@@PAX@std@@@std@@@std@@QAEPAU?$_Tree_node@PAVBNC_ReferenceItem@@PAX@2@I@Z 10138fa0 f i BNC_BaseRefItemControl.obj
 0002:00076000       ?allocate@?$allocator@U?$_Tree_node@PAVBNC_ReferenceItem@@PAX@std@@@std@@QAEPAU?$_Tree_node@PAVBNC_ReferenceItem@@PAX@2@I@Z 10139000 f i BNC_BaseRefItemControl.obj
 0002:00076060       ?begin@?$_Tree@V?$_Tset_traits@PAVBNC_ReferenceItem@@U?$less@PAVBNC_ReferenceItem@@@std@@V?$allocator@PAVBNC_ReferenceItem@@@3@$0A@@std@@@std@@QAE?AV?$_Tree_const_iterator@V?$_Tree_val@U?$_Tree_simple_types@PAVBNC_ReferenceItem@@@std@@@std@@@2@XZ 10139060 f i BNC_BaseRefItemControl.obj
 0002:000760d0       ?clear@?$_Tree@V?$_Tset_traits@PAVBNC_ReferenceItem@@U?$less@PAVBNC_ReferenceItem@@@std@@V?$allocator@PAVBNC_ReferenceItem@@@3@$0A@@std@@@std@@QAEXXZ 101390d0 f i BNC_BaseRefItemControl.obj
 0002:00076190       ?deallocate@?$_Wrap_alloc@V?$allocator@U?$_Tree_node@PAVBNC_ReferenceItem@@PAX@std@@@std@@@std@@QAEXPAU?$_Tree_node@PAVBNC_ReferenceItem@@PAX@2@I@Z 10139190 f i BNC_BaseRefItemControl.obj
 0002:000761f0       ?deallocate@?$allocator@U?$_Tree_node@PAVBNC_ReferenceItem@@PAX@std@@@std@@QAEXPAU?$_Tree_node@PAVBNC_ReferenceItem@@PAX@2@I@Z 101391f0 f i BNC_BaseRefItemControl.obj
 0002:00076250       ?end@?$_Tree@V?$_Tset_traits@PAVBNC_ReferenceItem@@U?$less@PAVBNC_ReferenceItem@@@std@@V?$allocator@PAVBNC_ReferenceItem@@@3@$0A@@std@@@std@@QAE?AV?$_Tree_const_iterator@V?$_Tree_val@U?$_Tree_simple_types@PAVBNC_ReferenceItem@@@std@@@std@@@2@XZ 10139250 f i BNC_BaseRefItemControl.obj
 0002:000762c0       ?erase@?$_Tree@V?$_Tset_traits@PAVBNC_ReferenceItem@@U?$less@PAVBNC_ReferenceItem@@@std@@V?$allocator@PAVBNC_ReferenceItem@@@3@$0A@@std@@@std@@QAE?AV?$_Tree_const_iterator@V?$_Tree_val@U?$_Tree_simple_types@PAVBNC_ReferenceItem@@@std@@@std@@@2@V32@0@Z 101392c0 f i BNC_BaseRefItemControl.obj
 0002:000765e0       ?erase@?$_Tree@V?$_Tset_traits@PAVBNC_ReferenceItem@@U?$less@PAVBNC_ReferenceItem@@@std@@V?$allocator@PAVBNC_ReferenceItem@@@3@$0A@@std@@@std@@QAE?AV?$_Tree_const_iterator@V?$_Tree_val@U?$_Tree_simple_types@PAVBNC_ReferenceItem@@@std@@@std@@@2@V32@@Z 101395e0 f i BNC_BaseRefItemControl.obj
 0002:00077060       ?find@?$_Tree@V?$_Tset_traits@PAVBNC_ReferenceItem@@U?$less@PAVBNC_ReferenceItem@@@std@@V?$allocator@PAVBNC_ReferenceItem@@@3@$0A@@std@@@std@@QAE?AV?$_Tree_const_iterator@V?$_Tree_val@U?$_Tree_simple_types@PAVBNC_ReferenceItem@@@std@@@std@@@2@ABQAVBNC_ReferenceItem@@@Z 1013a060 f i BNC_BaseRefItemControl.obj
 0002:00077390       ?insert@?$_Tree@V?$_Tset_traits@PAVBNC_ReferenceItem@@U?$less@PAVBNC_ReferenceItem@@@std@@V?$allocator@PAVBNC_ReferenceItem@@@3@$0A@@std@@@std@@QAE?AU?$pair@V?$_Tree_const_iterator@V?$_Tree_val@U?$_Tree_simple_types@PAVBNC_ReferenceItem@@@std@@@std@@@std@@_N@2@ABQAVBNC_ReferenceItem@@@Z 1013a390 f i BNC_BaseRefItemControl.obj
 0002:00077420       ?insert@?$set@PAVBNC_ReferenceItem@@U?$less@PAVBNC_ReferenceItem@@@std@@V?$allocator@PAVBNC_ReferenceItem@@@3@@std@@QAE?AU?$pair@V?$_Tree_const_iterator@V?$_Tree_val@U?$_Tree_simple_types@PAVBNC_ReferenceItem@@@std@@@std@@@std@@_N@2@ABQAVBNC_ReferenceItem@@@Z 1013a420 f i BNC_BaseRefItemControl.obj
 0002:000774a0       ?key_comp@?$_Tree@V?$_Tset_traits@PAVBNC_ReferenceItem@@U?$less@PAVBNC_ReferenceItem@@@std@@V?$allocator@PAVBNC_ReferenceItem@@@3@$0A@@std@@@std@@QBE?AU?$less@PAVBNC_ReferenceItem@@@2@XZ 1013a4a0 f i BNC_BaseRefItemControl.obj
 0002:00077500       ?lower_bound@?$_Tree@V?$_Tset_traits@PAVBNC_ReferenceItem@@U?$less@PAVBNC_ReferenceItem@@@std@@V?$allocator@PAVBNC_ReferenceItem@@@3@$0A@@std@@@std@@QAE?AV?$_Tree_const_iterator@V?$_Tree_val@U?$_Tree_simple_types@PAVBNC_ReferenceItem@@@std@@@std@@@2@ABQAVBNC_ReferenceItem@@@Z 1013a500 f i BNC_BaseRefItemControl.obj
 0002:00077590       ?max_size@?$_Tree@V?$_Tset_traits@PAVBNC_ReferenceItem@@U?$less@PAVBNC_ReferenceItem@@@std@@V?$allocator@PAVBNC_ReferenceItem@@@3@$0A@@std@@@std@@QBEIXZ 1013a590 f i BNC_BaseRefItemControl.obj
 0002:000775f0       ?max_size@?$_Wrap_alloc@V?$allocator@U?$_Tree_node@PAVBNC_ReferenceItem@@PAX@std@@@std@@@std@@QBEIXZ 1013a5f0 f i BNC_BaseRefItemControl.obj
 0002:00077650       ?max_size@?$allocator@U?$_Tree_node@PAVBNC_ReferenceItem@@PAX@std@@@std@@QBEIXZ 1013a650 f i BNC_BaseRefItemControl.obj
 0002:00077690       ?max_size@?$allocator_traits@V?$allocator@U?$_Tree_node@PAVBNC_ReferenceItem@@PAX@std@@@std@@@std@@SAIABV?$allocator@U?$_Tree_node@PAVBNC_ReferenceItem@@PAX@std@@@2@@Z 1013a690 f i BNC_BaseRefItemControl.obj
 0002:000776e0       ?select_on_container_copy_construction@?$_Wrap_alloc@V?$allocator@U?$_Tree_node@PAVBNC_ReferenceItem@@PAX@std@@@std@@@std@@QBE?AU12@XZ 1013a6e0 f i BNC_BaseRefItemControl.obj
 0002:00077750       ?select_on_container_copy_construction@?$allocator@U?$_Tree_node@PAVBNC_ReferenceItem@@PAX@std@@@std@@QBE?AV12@XZ 1013a750 f i BNC_BaseRefItemControl.obj
 0002:000777b0       ?select_on_container_copy_construction@?$allocator_traits@V?$allocator@U?$_Tree_node@PAVBNC_ReferenceItem@@PAX@std@@@std@@@std@@SA?AV?$allocator@U?$_Tree_node@PAVBNC_ReferenceItem@@PAX@std@@@2@ABV32@@Z 1013a7b0 f i BNC_BaseRefItemControl.obj
 0002:00077810       ?size@?$_Tree@V?$_Tset_traits@PAVBNC_ReferenceItem@@U?$less@PAVBNC_ReferenceItem@@@std@@V?$allocator@PAVBNC_ReferenceItem@@@3@$0A@@std@@@std@@QBEIXZ 1013a810 f i BNC_BaseRefItemControl.obj
 0002:00077850       ?OnMouseMove@BNC_BaseRefItemControlEx@@IAEXIVCPoint@@@Z 1013a850 f   BNC_BaseRefItemControlEx.obj
 0002:00077990       ?OnLButtonDown@BNC_BaseRefItemControlEx@@IAEXIVCPoint@@@Z 1013a990 f   BNC_BaseRefItemControlEx.obj
 0002:00077a20       ?OnRButtonDown@BNC_BaseRefItemControlEx@@IAEXIVCPoint@@@Z 1013aa20 f   BNC_BaseRefItemControlEx.obj
 0002:00077ab0       ?OnLButtonUp@BNC_BaseRefItemControlEx@@IAEXIVCPoint@@@Z 1013aab0 f   BNC_BaseRefItemControlEx.obj
 0002:00077b40       ?OnRButtonUp@BNC_BaseRefItemControlEx@@IAEXIVCPoint@@@Z 1013ab40 f   BNC_BaseRefItemControlEx.obj
 0002:00077c00       ?OnLButtonDblClk@BNC_BaseRefItemControlEx@@IAEXIVCPoint@@@Z 1013ac00 f   BNC_BaseRefItemControlEx.obj
 0002:00077ca0       ?OnCaptureChanged@BNC_BaseRefItemControlEx@@IAEXPAVCWnd@@@Z 1013aca0 f   BNC_BaseRefItemControlEx.obj
 0002:00077d60       ?OnDestroy@BNC_BaseRefItemControlEx@@IAEXXZ 1013ad60 f   BNC_BaseRefItemControlEx.obj
 0002:00077dc0       ??$?0AAV?$_Tree_const_iterator@V?$_Tree_val@U?$_Tree_simple_types@PAVBNC_ReferenceItemEx@@@std@@@std@@@std@@_NX@?$pair@V?$_Tree_const_iterator@V?$_Tree_val@U?$_Tree_simple_types@PAVBNC_ReferenceItemEx@@@std@@@std@@@std@@_N@std@@QAE@AAV?$_Tree_const_iterator@V?$_Tree_val@U?$_Tree_simple_types@PAVBNC_ReferenceItemEx@@@std@@@std@@@1@$$QA_N@Z 1013adc0 f i BNC_BaseRefItemControlEx.obj
 0002:00077e90       ??$?0U?$_Tree_node@PAVBNC_ReferenceItemEx@@PAX@std@@@?$allocator@PAVBNC_ReferenceItemEx@@@std@@QAE@ABV?$allocator@U?$_Tree_node@PAVBNC_ReferenceItemEx@@PAX@std@@@1@@Z 1013ae90 f i BNC_BaseRefItemControlEx.obj
 0002:00077ed0       ??$?0U?$_Tree_node@PAVBNC_ReferenceItemEx@@PAX@std@@@?$allocator@U_Container_proxy@std@@@std@@QAE@ABV?$allocator@U?$_Tree_node@PAVBNC_ReferenceItemEx@@PAX@std@@@1@@Z 1013aed0 f i BNC_BaseRefItemControlEx.obj
 0002:00077f10       ??$?0U?$_Wrap_alloc@V?$allocator@U?$_Tree_node@PAVBNC_ReferenceItemEx@@PAX@std@@@std@@@std@@@?$_Wrap_alloc@V?$allocator@U_Container_proxy@std@@@std@@@std@@QAE@ABU?$_Wrap_alloc@V?$allocator@U?$_Tree_node@PAVBNC_ReferenceItemEx@@PAX@std@@@std@@@1@@Z 1013af10 f i BNC_BaseRefItemControlEx.obj
 0002:00077f70       ??$?0V?$_Tree_const_iterator@V?$_Tree_val@U?$_Tree_simple_types@PAVBNC_ReferenceItemEx@@@std@@@std@@@std@@_NX@?$pair@V?$_Tree_const_iterator@V?$_Tree_val@U?$_Tree_simple_types@PAVBNC_ReferenceItemEx@@@std@@@std@@@std@@_N@std@@QAE@$$QAV?$_Tree_const_iterator@V?$_Tree_val@U?$_Tree_simple_types@PAVBNC_ReferenceItemEx@@@std@@@std@@@1@$$QA_N@Z 1013af70 f i BNC_BaseRefItemControlEx.obj
 0002:00078040       ??$_Allocate@U?$_Tree_node@PAVBNC_ReferenceItemEx@@PAX@std@@@std@@YAPAU?$_Tree_node@PAVBNC_ReferenceItemEx@@PAX@0@IPAU10@@Z 1013b040 f i BNC_BaseRefItemControlEx.obj
 0002:000780d0       ??$_Buynode@AAPAVBNC_ReferenceItemEx@@@?$_Tree_buy@PAVBNC_ReferenceItemEx@@V?$allocator@PAVBNC_ReferenceItemEx@@@std@@@std@@QAEPAU?$_Tree_node@PAVBNC_ReferenceItemEx@@PAX@1@AAPAVBNC_ReferenceItemEx@@@Z 1013b0d0 f i BNC_BaseRefItemControlEx.obj
 0002:00078240       ??$_Buynode@ABQAVBNC_ReferenceItemEx@@@?$_Tree_buy@PAVBNC_ReferenceItemEx@@V?$allocator@PAVBNC_ReferenceItemEx@@@std@@@std@@QAEPAU?$_Tree_node@PAVBNC_ReferenceItemEx@@PAX@1@ABQAVBNC_ReferenceItemEx@@@Z 1013b240 f i BNC_BaseRefItemControlEx.obj
 0002:000783b0       ??$_Buynode_if_nil@ABQAVBNC_ReferenceItemEx@@@?$_Tree@V?$_Tset_traits@PAVBNC_ReferenceItemEx@@U?$less@PAVBNC_ReferenceItemEx@@@std@@V?$allocator@PAVBNC_ReferenceItemEx@@@3@$0A@@std@@@std@@IAEPAU?$_Tree_node@PAVBNC_ReferenceItemEx@@PAX@1@U_Nil@1@ABQAVBNC_ReferenceItemEx@@@Z 1013b3b0 f i BNC_BaseRefItemControlEx.obj
 0002:00078420       ??$_Copy@U?$integral_constant@_N$0A@@std@@@?$_Tree@V?$_Tset_traits@PAVBNC_ReferenceItemEx@@U?$less@PAVBNC_ReferenceItemEx@@@std@@V?$allocator@PAVBNC_ReferenceItemEx@@@3@$0A@@std@@@std@@IAEXABV01@U?$integral_constant@_N$0A@@1@@Z 1013b420 f i BNC_BaseRefItemControlEx.obj
 0002:00078550       ??$_Copy_nodes@U?$integral_constant@_N$0A@@std@@@?$_Tree@V?$_Tset_traits@PAVBNC_ReferenceItemEx@@U?$less@PAVBNC_ReferenceItemEx@@@std@@V?$allocator@PAVBNC_ReferenceItemEx@@@3@$0A@@std@@@std@@IAEPAU?$_Tree_node@PAVBNC_ReferenceItemEx@@PAX@1@PAU21@0U?$integral_constant@_N$0A@@1@@Z 1013b550 f i BNC_BaseRefItemControlEx.obj
 0002:000787a0       ??$_Copy_or_move@U?$integral_constant@_N$0A@@std@@U?$integral_constant@_N$00@2@U32@H@?$_Tree@V?$_Tset_traits@PAVBNC_ReferenceItemEx@@U?$less@PAVBNC_ReferenceItemEx@@@std@@V?$allocator@PAVBNC_ReferenceItemEx@@@3@$0A@@std@@@std@@IAEPAU?$_Tree_node@PAVBNC_ReferenceItemEx@@PAX@1@PAU21@U?$integral_constant@_N$0A@@1@U?$integral_constant@_N$00@1@2H@Z 1013b7a0 f i BNC_BaseRefItemControlEx.obj
 0002:00078810       ??$_Debug_lt_pred@U?$less@PAVBNC_ReferenceItemEx@@@std@@ABQAVBNC_ReferenceItemEx@@ABQAV3@@std@@YA_NU?$less@PAVBNC_ReferenceItemEx@@@0@ABQAVBNC_ReferenceItemEx@@1PB_WI@Z 1013b810 f i BNC_BaseRefItemControlEx.obj
 0002:000788f0       ??$_Insert_at@ABQAVBNC_ReferenceItemEx@@U_Nil@std@@@?$_Tree@V?$_Tset_traits@PAVBNC_ReferenceItemEx@@U?$less@PAVBNC_ReferenceItemEx@@@std@@V?$allocator@PAVBNC_ReferenceItemEx@@@3@$0A@@std@@@std@@IAE?AV?$_Tree_const_iterator@V?$_Tree_val@U?$_Tree_simple_types@PAVBNC_ReferenceItemEx@@@std@@@std@@@1@_NPAU?$_Tree_node@PAVBNC_ReferenceItemEx@@PAX@1@ABQAVBNC_ReferenceItemEx@@U_Nil@1@@Z 1013b8f0 f i BNC_BaseRefItemControlEx.obj
 0002:00078e80       ??$_Insert_nohint@ABQAVBNC_ReferenceItemEx@@U_Nil@std@@@?$_Tree@V?$_Tset_traits@PAVBNC_ReferenceItemEx@@U?$less@PAVBNC_ReferenceItemEx@@@std@@V?$allocator@PAVBNC_ReferenceItemEx@@@3@$0A@@std@@@std@@IAE?AU?$pair@V?$_Tree_const_iterator@V?$_Tree_val@U?$_Tree_simple_types@PAVBNC_ReferenceItemEx@@@std@@@std@@@std@@_N@1@_NABQAVBNC_ReferenceItemEx@@U_Nil@1@@Z 1013be80 f i BNC_BaseRefItemControlEx.obj
 0002:000795e0       ??$addressof@PAU?$_Tree_node@PAVBNC_ReferenceItemEx@@PAX@std@@@std@@YAPAPAU?$_Tree_node@PAVBNC_ReferenceItemEx@@PAX@0@AAPAU10@@Z 1013c5e0 f i BNC_BaseRefItemControlEx.obj
 0002:00079620       ??$addressof@PAVBNC_ReferenceItemEx@@@std@@YAPAPAVBNC_ReferenceItemEx@@AAPAV1@@Z 1013c620 f i BNC_BaseRefItemControlEx.obj
 0002:00079660       ??$construct@PAU?$_Tree_node@PAVBNC_ReferenceItemEx@@PAX@std@@AAPAU12@@?$_Wrap_alloc@V?$allocator@U?$_Tree_node@PAVBNC_ReferenceItemEx@@PAX@std@@@std@@@std@@QAEXPAPAU?$_Tree_node@PAVBNC_ReferenceItemEx@@PAX@1@AAPAU21@@Z 1013c660 f i BNC_BaseRefItemControlEx.obj
 0002:000796d0       ??$construct@PAU?$_Tree_node@PAVBNC_ReferenceItemEx@@PAX@std@@AAPAU12@@?$allocator@U?$_Tree_node@PAVBNC_ReferenceItemEx@@PAX@std@@@std@@QAEXPAPAU?$_Tree_node@PAVBNC_ReferenceItemEx@@PAX@1@AAPAU21@@Z 1013c6d0 f i BNC_BaseRefItemControlEx.obj
 0002:000797d0       ??$construct@PAU?$_Tree_node@PAVBNC_ReferenceItemEx@@PAX@std@@AAPAU12@@?$allocator_traits@V?$allocator@U?$_Tree_node@PAVBNC_ReferenceItemEx@@PAX@std@@@std@@@std@@SAXAAV?$allocator@U?$_Tree_node@PAVBNC_ReferenceItemEx@@PAX@std@@@1@PAPAU?$_Tree_node@PAVBNC_ReferenceItemEx@@PAX@1@AAPAU31@@Z 1013c7d0 f i BNC_BaseRefItemControlEx.obj
 0002:00079830       ??$construct@PAVBNC_ReferenceItemEx@@AAPAV1@@?$_Wrap_alloc@V?$allocator@U?$_Tree_node@PAVBNC_ReferenceItemEx@@PAX@std@@@std@@@std@@QAEXPAPAVBNC_ReferenceItemEx@@AAPAV2@@Z 1013c830 f i BNC_BaseRefItemControlEx.obj
 0002:000798a0       ??$construct@PAVBNC_ReferenceItemEx@@AAPAV1@@?$allocator@U?$_Tree_node@PAVBNC_ReferenceItemEx@@PAX@std@@@std@@QAEXPAPAVBNC_ReferenceItemEx@@AAPAV2@@Z 1013c8a0 f i BNC_BaseRefItemControlEx.obj
 0002:000799a0       ??$construct@PAVBNC_ReferenceItemEx@@AAPAV1@@?$allocator_traits@V?$allocator@U?$_Tree_node@PAVBNC_ReferenceItemEx@@PAX@std@@@std@@@std@@SAXAAV?$allocator@U?$_Tree_node@PAVBNC_ReferenceItemEx@@PAX@std@@@1@PAPAVBNC_ReferenceItemEx@@AAPAV3@@Z 1013c9a0 f i BNC_BaseRefItemControlEx.obj
 0002:00079a00       ??$construct@PAVBNC_ReferenceItemEx@@ABQAV1@@?$_Wrap_alloc@V?$allocator@U?$_Tree_node@PAVBNC_ReferenceItemEx@@PAX@std@@@std@@@std@@QAEXPAPAVBNC_ReferenceItemEx@@ABQAV2@@Z 1013ca00 f i BNC_BaseRefItemControlEx.obj
 0002:00079a70       ??$construct@PAVBNC_ReferenceItemEx@@ABQAV1@@?$allocator@U?$_Tree_node@PAVBNC_ReferenceItemEx@@PAX@std@@@std@@QAEXPAPAVBNC_ReferenceItemEx@@ABQAV2@@Z 1013ca70 f i BNC_BaseRefItemControlEx.obj
 0002:00079b70       ??$construct@PAVBNC_ReferenceItemEx@@ABQAV1@@?$allocator_traits@V?$allocator@U?$_Tree_node@PAVBNC_ReferenceItemEx@@PAX@std@@@std@@@std@@SAXAAV?$allocator@U?$_Tree_node@PAVBNC_ReferenceItemEx@@PAX@std@@@1@PAPAVBNC_ReferenceItemEx@@ABQAV3@@Z 1013cb70 f i BNC_BaseRefItemControlEx.obj
 0002:00079bd0       ??$destroy@PAU?$_Tree_node@PAVBNC_ReferenceItemEx@@PAX@std@@@?$_Wrap_alloc@V?$allocator@U?$_Tree_node@PAVBNC_ReferenceItemEx@@PAX@std@@@std@@@std@@QAEXPAPAU?$_Tree_node@PAVBNC_ReferenceItemEx@@PAX@1@@Z 1013cbd0 f i BNC_BaseRefItemControlEx.obj
 0002:00079c30       ??$destroy@PAU?$_Tree_node@PAVBNC_ReferenceItemEx@@PAX@std@@@?$allocator@U?$_Tree_node@PAVBNC_ReferenceItemEx@@PAX@std@@@std@@QAEXPAPAU?$_Tree_node@PAVBNC_ReferenceItemEx@@PAX@1@@Z 1013cc30 f i BNC_BaseRefItemControlEx.obj
 0002:00079c70       ??$destroy@PAU?$_Tree_node@PAVBNC_ReferenceItemEx@@PAX@std@@@?$allocator_traits@V?$allocator@U?$_Tree_node@PAVBNC_ReferenceItemEx@@PAX@std@@@std@@@std@@SAXAAV?$allocator@U?$_Tree_node@PAVBNC_ReferenceItemEx@@PAX@std@@@1@PAPAU?$_Tree_node@PAVBNC_ReferenceItemEx@@PAX@1@@Z 1013cc70 f i BNC_BaseRefItemControlEx.obj
 0002:00079cc0       ??$destroy@PAVBNC_ReferenceItemEx@@@?$_Wrap_alloc@V?$allocator@U?$_Tree_node@PAVBNC_ReferenceItemEx@@PAX@std@@@std@@@std@@QAEXPAPAVBNC_ReferenceItemEx@@@Z 1013ccc0 f i BNC_BaseRefItemControlEx.obj
 0002:00079d20       ??$destroy@PAVBNC_ReferenceItemEx@@@?$allocator@U?$_Tree_node@PAVBNC_ReferenceItemEx@@PAX@std@@@std@@QAEXPAPAVBNC_ReferenceItemEx@@@Z 1013cd20 f i BNC_BaseRefItemControlEx.obj
 0002:00079d60       ??$destroy@PAVBNC_ReferenceItemEx@@@?$allocator_traits@V?$allocator@U?$_Tree_node@PAVBNC_ReferenceItemEx@@PAX@std@@@std@@@std@@SAXAAV?$allocator@U?$_Tree_node@PAVBNC_ReferenceItemEx@@PAX@std@@@1@PAPAVBNC_ReferenceItemEx@@@Z 1013cd60 f i BNC_BaseRefItemControlEx.obj
 0002:00079db0       ??$forward@AAPAU?$_Tree_node@PAVBNC_ReferenceItemEx@@PAX@std@@@std@@YAAAPAU?$_Tree_node@PAVBNC_ReferenceItemEx@@PAX@0@AAPAU10@@Z 1013cdb0 f i BNC_BaseRefItemControlEx.obj
 0002:00079df0       ??$forward@AAPAVBNC_ReferenceItemEx@@@std@@YAAAPAVBNC_ReferenceItemEx@@AAPAV1@@Z 1013cdf0 f i BNC_BaseRefItemControlEx.obj
 0002:00079e30       ??$forward@AAV?$_Tree_const_iterator@V?$_Tree_val@U?$_Tree_simple_types@PAVBNC_ReferenceItemEx@@@std@@@std@@@std@@@std@@YAAAV?$_Tree_const_iterator@V?$_Tree_val@U?$_Tree_simple_types@PAVBNC_ReferenceItemEx@@@std@@@std@@@0@AAV10@@Z 1013ce30 f i BNC_BaseRefItemControlEx.obj
 0002:00079e70       ??$forward@ABQAVBNC_ReferenceItemEx@@@std@@YAABQAVBNC_ReferenceItemEx@@ABQAV1@@Z 1013ce70 f i BNC_BaseRefItemControlEx.obj
 0002:00079eb0       ??$forward@V?$_Tree_const_iterator@V?$_Tree_val@U?$_Tree_simple_types@PAVBNC_ReferenceItemEx@@@std@@@std@@@std@@@std@@YA$$QAV?$_Tree_const_iterator@V?$_Tree_val@U?$_Tree_simple_types@PAVBNC_ReferenceItemEx@@@std@@@std@@@0@AAV10@@Z 1013ceb0 f i BNC_BaseRefItemControlEx.obj
 0002:00079ef0       ??0?$_Iterator012@Ubidirectional_iterator_tag@std@@PAVBNC_ReferenceItemEx@@HPBQAV3@ABQAV3@U_Iterator_base12@2@@std@@QAE@ABU01@@Z 1013cef0 f i BNC_BaseRefItemControlEx.obj
 0002:00079f50       ??0?$_Iterator012@Ubidirectional_iterator_tag@std@@PAVBNC_ReferenceItemEx@@HPBQAV3@ABQAV3@U_Iterator_base12@2@@std@@QAE@XZ 1013cf50 f i BNC_BaseRefItemControlEx.obj
 0002:00079fb0       ??0?$_Tree@V?$_Tset_traits@PAVBNC_ReferenceItemEx@@U?$less@PAVBNC_ReferenceItemEx@@@std@@V?$allocator@PAVBNC_ReferenceItemEx@@@3@$0A@@std@@@std@@QAE@ABU?$less@PAVBNC_ReferenceItemEx@@@1@ABV?$allocator@PAVBNC_ReferenceItemEx@@@1@@Z 1013cfb0 f i BNC_BaseRefItemControlEx.obj
 0002:0007a010       ??0?$_Tree@V?$_Tset_traits@PAVBNC_ReferenceItemEx@@U?$less@PAVBNC_ReferenceItemEx@@@std@@V?$allocator@PAVBNC_ReferenceItemEx@@@3@$0A@@std@@@std@@QAE@ABV01@ABV?$allocator@PAVBNC_ReferenceItemEx@@@1@@Z 1013d010 f i BNC_BaseRefItemControlEx.obj
 0002:0007a130       ??0?$_Tree_alloc@$0A@U?$_Tree_base_types@PAVBNC_ReferenceItemEx@@V?$allocator@PAVBNC_ReferenceItemEx@@@std@@@std@@@std@@QAE@ABV?$allocator@PAVBNC_ReferenceItemEx@@@1@@Z 1013d130 f i BNC_BaseRefItemControlEx.obj
 0002:0007a230       ??0?$_Tree_buy@PAVBNC_ReferenceItemEx@@V?$allocator@PAVBNC_ReferenceItemEx@@@std@@@std@@QAE@ABV?$allocator@PAVBNC_ReferenceItemEx@@@1@@Z 1013d230 f i BNC_BaseRefItemControlEx.obj
 0002:0007a290       ??0?$_Tree_comp@$0A@V?$_Tset_traits@PAVBNC_ReferenceItemEx@@U?$less@PAVBNC_ReferenceItemEx@@@std@@V?$allocator@PAVBNC_ReferenceItemEx@@@3@$0A@@std@@@std@@QAE@ABU?$less@PAVBNC_ReferenceItemEx@@@1@ABV?$allocator@PAVBNC_ReferenceItemEx@@@1@@Z 1013d290 f i BNC_BaseRefItemControlEx.obj
 0002:0007a2f0       ??0?$_Tree_const_iterator@V?$_Tree_val@U?$_Tree_simple_types@PAVBNC_ReferenceItemEx@@@std@@@std@@@std@@QAE@ABV01@@Z 1013d2f0 f i BNC_BaseRefItemControlEx.obj
 0002:0007a350       ??0?$_Tree_const_iterator@V?$_Tree_val@U?$_Tree_simple_types@PAVBNC_ReferenceItemEx@@@std@@@std@@@std@@QAE@PAU?$_Tree_node@PAVBNC_ReferenceItemEx@@PAX@1@PBV?$_Tree_val@U?$_Tree_simple_types@PAVBNC_ReferenceItemEx@@@std@@@1@@Z 1013d350 f i BNC_BaseRefItemControlEx.obj
 0002:0007a3b0       ??0?$_Tree_unchecked_const_iterator@V?$_Tree_val@U?$_Tree_simple_types@PAVBNC_ReferenceItemEx@@@std@@@std@@U_Iterator_base12@2@@std@@QAE@ABV01@@Z 1013d3b0 f i BNC_BaseRefItemControlEx.obj
 0002:0007a420       ??0?$_Tree_unchecked_const_iterator@V?$_Tree_val@U?$_Tree_simple_types@PAVBNC_ReferenceItemEx@@@std@@@std@@U_Iterator_base12@2@@std@@QAE@PAU?$_Tree_node@PAVBNC_ReferenceItemEx@@PAX@1@PBV?$_Tree_val@U?$_Tree_simple_types@PAVBNC_ReferenceItemEx@@@std@@@1@@Z 1013d420 f i BNC_BaseRefItemControlEx.obj
 0002:0007a4e0       ??0?$_Tree_val@U?$_Tree_simple_types@PAVBNC_ReferenceItemEx@@@std@@@std@@QAE@XZ 1013d4e0 f i BNC_BaseRefItemControlEx.obj
 0002:0007a560       ??0?$_Wrap_alloc@V?$allocator@U?$_Tree_node@PAVBNC_ReferenceItemEx@@PAX@std@@@std@@@std@@QAE@ABV?$allocator@U?$_Tree_node@PAVBNC_ReferenceItemEx@@PAX@std@@@1@@Z 1013d560 f i BNC_BaseRefItemControlEx.obj
 0002:0007a5c0       ??0?$_Wrap_alloc@V?$allocator@U?$_Tree_node@PAVBNC_ReferenceItemEx@@PAX@std@@@std@@@std@@QAE@XZ 1013d5c0 f i BNC_BaseRefItemControlEx.obj
 0002:0007a620       ??0?$allocator@PAVBNC_ReferenceItemEx@@@std@@QAE@XZ 1013d620 f i BNC_BaseRefItemControlEx.obj
 0002:0007a660       ??0?$allocator@U?$_Tree_node@PAVBNC_ReferenceItemEx@@PAX@std@@@std@@QAE@ABV01@@Z 1013d660 f i BNC_BaseRefItemControlEx.obj
 0002:0007a6a0       ??0?$allocator@U?$_Tree_node@PAVBNC_ReferenceItemEx@@PAX@std@@@std@@QAE@XZ 1013d6a0 f i BNC_BaseRefItemControlEx.obj
 0002:0007a6e0       ??0?$set@PAVBNC_ReferenceItemEx@@U?$less@PAVBNC_ReferenceItemEx@@@std@@V?$allocator@PAVBNC_ReferenceItemEx@@@3@@std@@QAE@ABV01@@Z 1013d6e0 f i BNC_BaseRefItemControlEx.obj
 0002:0007a780       ??0?$set@PAVBNC_ReferenceItemEx@@U?$less@PAVBNC_ReferenceItemEx@@@std@@V?$allocator@PAVBNC_ReferenceItemEx@@@3@@std@@QAE@XZ 1013d780 f i BNC_BaseRefItemControlEx.obj
 0002:0007a7f0       ??0BNC_BaseRefItemControlEx@@QAE@XZ 1013d7f0 f   BNC_BaseRefItemControlEx.obj
 0002:0007aad0       ??1?$_Iterator012@Ubidirectional_iterator_tag@std@@PAVBNC_ReferenceItemEx@@HPBQAV3@ABQAV3@U_Iterator_base12@2@@std@@QAE@XZ 1013dad0 f i BNC_BaseRefItemControlEx.obj
 0002:0007ab20       ??1?$_Tree@V?$_Tset_traits@PAVBNC_ReferenceItemEx@@U?$less@PAVBNC_ReferenceItemEx@@@std@@V?$allocator@PAVBNC_ReferenceItemEx@@@3@$0A@@std@@@std@@QAE@XZ 1013db20 f i BNC_BaseRefItemControlEx.obj
 0002:0007ab80       ??1?$_Tree_alloc@$0A@U?$_Tree_base_types@PAVBNC_ReferenceItemEx@@V?$allocator@PAVBNC_ReferenceItemEx@@@std@@@std@@@std@@QAE@XZ 1013db80 f i BNC_BaseRefItemControlEx.obj
 0002:0007abf0       ??1?$_Tree_buy@PAVBNC_ReferenceItemEx@@V?$allocator@PAVBNC_ReferenceItemEx@@@std@@@std@@QAE@XZ 1013dbf0 f i BNC_BaseRefItemControlEx.obj
 0002:0007ac40       ??1?$_Tree_comp@$0A@V?$_Tset_traits@PAVBNC_ReferenceItemEx@@U?$less@PAVBNC_ReferenceItemEx@@@std@@V?$allocator@PAVBNC_ReferenceItemEx@@@3@$0A@@std@@@std@@QAE@XZ 1013dc40 f i BNC_BaseRefItemControlEx.obj
 0002:0007ac90       ??1?$_Tree_const_iterator@V?$_Tree_val@U?$_Tree_simple_types@PAVBNC_ReferenceItemEx@@@std@@@std@@@std@@QAE@XZ 1013dc90 f i BNC_BaseRefItemControlEx.obj
 0002:0007ace0       ??1?$_Tree_unchecked_const_iterator@V?$_Tree_val@U?$_Tree_simple_types@PAVBNC_ReferenceItemEx@@@std@@@std@@U_Iterator_base12@2@@std@@QAE@XZ 1013dce0 f i BNC_BaseRefItemControlEx.obj
 0002:0007ad30       ??1?$_Tree_val@U?$_Tree_simple_types@PAVBNC_ReferenceItemEx@@@std@@@std@@QAE@XZ 1013dd30 f i BNC_BaseRefItemControlEx.obj
 0002:0007ad90       ??1?$pair@V?$_Tree_const_iterator@V?$_Tree_val@U?$_Tree_simple_types@PAVBNC_ReferenceItemEx@@@std@@@std@@@std@@_N@std@@QAE@XZ 1013dd90 f i BNC_BaseRefItemControlEx.obj
 0002:0007ade0       ??1?$set@PAVBNC_ReferenceItemEx@@U?$less@PAVBNC_ReferenceItemEx@@@std@@V?$allocator@PAVBNC_ReferenceItemEx@@@3@@std@@QAE@XZ 1013dde0 f i BNC_BaseRefItemControlEx.obj
 0002:0007ae30       ??1BNC_BaseRefItemControlEx@@UAE@XZ 1013de30 f   BNC_BaseRefItemControlEx.obj
 0002:0007af30       ??8?$_Tree_const_iterator@V?$_Tree_val@U?$_Tree_simple_types@PAVBNC_ReferenceItemEx@@@std@@@std@@@std@@QBE_NABV01@@Z 1013df30 f i BNC_BaseRefItemControlEx.obj
 0002:0007b090       ??8CPoint@@QBEHUtagPOINT@@@Z 1013e090 f i BNC_BaseRefItemControlEx.obj
 0002:0007b110       ??9?$_Tree_const_iterator@V?$_Tree_val@U?$_Tree_simple_types@PAVBNC_ReferenceItemEx@@@std@@@std@@@std@@QBE_NABV01@@Z 1013e110 f i BNC_BaseRefItemControlEx.obj
 0002:0007b1a0       ??9CPoint@@QBEHUtagPOINT@@@Z 1013e1a0 f i BNC_BaseRefItemControlEx.obj
 0002:0007b220       ??D?$_Tree_const_iterator@V?$_Tree_val@U?$_Tree_simple_types@PAVBNC_ReferenceItemEx@@@std@@@std@@@std@@QBEABQAVBNC_ReferenceItemEx@@XZ 1013e220 f i BNC_BaseRefItemControlEx.obj
 0002:0007b360       ??E?$_Tree_const_iterator@V?$_Tree_val@U?$_Tree_simple_types@PAVBNC_ReferenceItemEx@@@std@@@std@@@std@@QAE?AV01@H@Z 1013e360 f i BNC_BaseRefItemControlEx.obj
 0002:0007b4a0       ??E?$_Tree_const_iterator@V?$_Tree_val@U?$_Tree_simple_types@PAVBNC_ReferenceItemEx@@@std@@@std@@@std@@QAEAAV01@XZ 1013e4a0 f i BNC_BaseRefItemControlEx.obj
 0002:0007b5e0       ??E?$_Tree_unchecked_const_iterator@V?$_Tree_val@U?$_Tree_simple_types@PAVBNC_ReferenceItemEx@@@std@@@std@@U_Iterator_base12@2@@std@@QAEAAV01@XZ 1013e5e0 f i BNC_BaseRefItemControlEx.obj
 0002:0007b710       ??F?$_Tree_const_iterator@V?$_Tree_val@U?$_Tree_simple_types@PAVBNC_ReferenceItemEx@@@std@@@std@@@std@@QAEAAV01@XZ 1013e710 f i BNC_BaseRefItemControlEx.obj
 0002:0007b8f0       ??F?$_Tree_unchecked_const_iterator@V?$_Tree_val@U?$_Tree_simple_types@PAVBNC_ReferenceItemEx@@@std@@@std@@U_Iterator_base12@2@@std@@QAEAAV01@XZ 1013e8f0 f i BNC_BaseRefItemControlEx.obj
 0002:0007ba50       ??R?$less@PAVBNC_ReferenceItemEx@@@std@@QBE_NABQAVBNC_ReferenceItemEx@@0@Z 1013ea50 f i BNC_BaseRefItemControlEx.obj
 0002:0007bac0       ??_EBNC_BaseRefItemControlEx@@UAEPAXI@Z 1013eac0 f i BNC_BaseRefItemControlEx.obj
 0002:0007bb80       ??_GBNC_BaseRefItemControlEx@@UAEPAXI@Z 1013eb80 f i BNC_BaseRefItemControlEx.obj
 0002:0007bbf0       ?ClearMouseItem@BNC_BaseRefItemControlEx@@IAEX_N@Z 1013ebf0 f   BNC_BaseRefItemControlEx.obj
 0002:0007bf60       ?DefaultDrawItem@BNC_BaseRefItemControlEx@@IAEXPAVCDC@@0PAVBNC_ReferenceItemEx@@W4BNE_REFITEM_STATE@@VCSize@@@Z 1013ef60 f   BNC_BaseRefItemControlEx.obj
 0002:0007c380       ?DragEnter@BNC_BaseRefItemControlEx@@AAEXPAVBNC_ReferenceItemEx@@AAVCPoint@@1_N@Z 1013f380 f   BNC_BaseRefItemControlEx.obj
 0002:0007c680       ?DragLeave@BNC_BaseRefItemControlEx@@QAEXXZ 1013f680 f   BNC_BaseRefItemControlEx.obj
 0002:0007c780       ?DragMove@BNC_BaseRefItemControlEx@@AAEXAAVCPoint@@@Z 1013f780 f   BNC_BaseRefItemControlEx.obj
 0002:0007cba0       ?DrawMouseActionItem@BNC_BaseRefItemControlEx@@EAEX_N@Z 1013fba0 f   BNC_BaseRefItemControlEx.obj
 0002:0007d100       ?GetItemState@BNC_BaseRefItemControlEx@@MAE?AW4BNE_REFITEM_STATE@@PAVBNC_ReferenceItemEx@@@Z 10140100 f   BNC_BaseRefItemControlEx.obj
 0002:0007d3f0       ?GetLastSelectItem@BNC_BaseRefItemControlEx@@IAEPBVBNC_ReferenceItemEx@@XZ 101403f0 f   BNC_BaseRefItemControlEx.obj
 0002:0007d430       ?GetMessageMap@BNC_BaseRefItemControlEx@@MBEPBUAFX_MSGMAP@@XZ 10140430 f   BNC_BaseRefItemControlEx.obj
 0002:0007d480       ?GetNewMouseItem@BNC_BaseRefItemControlEx@@IAEPBVBNC_ReferenceItemEx@@XZ 10140480 f   BNC_BaseRefItemControlEx.obj
 0002:0007d4c0       ?GetOldMouseItem@BNC_BaseRefItemControlEx@@IAEPBVBNC_ReferenceItemEx@@XZ 101404c0 f   BNC_BaseRefItemControlEx.obj
 0002:0007d500       ?GetSelectItemList@BNC_BaseRefItemControlEx@@IAE?BV?$set@PAVBNC_ReferenceItemEx@@U?$less@PAVBNC_ReferenceItemEx@@@std@@V?$allocator@PAVBNC_ReferenceItemEx@@@3@@std@@XZ 10140500 f   BNC_BaseRefItemControlEx.obj
 0002:0007d580       ?GetThisMessageMap@BNC_BaseRefItemControlEx@@KGPBUAFX_MSGMAP@@XZ 10140580 f   BNC_BaseRefItemControlEx.obj
 0002:0007d5c0       ?IsCompareMouseAction@BNC_BaseRefItemControlEx@@AAE_NPAVBNC_ReferenceItemEx@@0@Z 101405c0 f   BNC_BaseRefItemControlEx.obj
 0002:0007d720       ?OnDragEnter@BNC_BaseRefItemControlEx@@EAE_NPAVBNC_ReferenceItemEx@@AAVCPoint@@_N@Z 10140720 f   BNC_BaseRefItemControlEx.obj
 0002:0007d760       ?OnDragLeave@BNC_BaseRefItemControlEx@@EAE_NPAVBNC_ReferenceItemEx@@@Z 10140760 f   BNC_BaseRefItemControlEx.obj
 0002:0007d7a0       ?OnDragMove@BNC_BaseRefItemControlEx@@EAE_NPAVBNC_ReferenceItemEx@@AAVCPoint@@@Z 101407a0 f   BNC_BaseRefItemControlEx.obj
 0002:0007d7e0       ?SetSelectItem@BNC_BaseRefItemControlEx@@QAEXPAVBNC_ReferenceItemEx@@@Z 101407e0 f   BNC_BaseRefItemControlEx.obj
 0002:0007d8c0       ?UpdateDeleteItem@BNC_BaseRefItemControlEx@@IAEXPAVBNC_ReferenceItemEx@@@Z 101408c0 f   BNC_BaseRefItemControlEx.obj
 0002:0007db90       ?UpdateLBtnSelect@BNC_BaseRefItemControlEx@@AAE_NIPAVBNC_ReferenceItemEx@@AAVCPoint@@@Z 10140b90 f   BNC_BaseRefItemControlEx.obj
 0002:0007e000       ?UpdateMouseAction@BNC_BaseRefItemControlEx@@AAEXIW4BNE_MOUSEACTION@@AAVCPoint@@@Z 10141000 f   BNC_BaseRefItemControlEx.obj
 0002:0007e9d0       ?UpdateMouseItem@BNC_BaseRefItemControlEx@@AAEXPAVBNC_ReferenceItemEx@@@Z 101419d0 f   BNC_BaseRefItemControlEx.obj
 0002:0007eae0       ?UpdateRBtnSelect@BNC_BaseRefItemControlEx@@AAE_NIPAVBNC_ReferenceItemEx@@AAVCPoint@@@Z 10141ae0 f   BNC_BaseRefItemControlEx.obj
 0002:0007ebb0       ?_Alloc_proxy@?$_Tree_alloc@$0A@U?$_Tree_base_types@PAVBNC_ReferenceItemEx@@V?$allocator@PAVBNC_ReferenceItemEx@@@std@@@std@@@std@@QAEXXZ 10141bb0 f i BNC_BaseRefItemControlEx.obj
 0002:0007ecb0       ?_Buyheadnode@?$_Tree_alloc@$0A@U?$_Tree_base_types@PAVBNC_ReferenceItemEx@@V?$allocator@PAVBNC_ReferenceItemEx@@@std@@@std@@@std@@QAEPAU?$_Tree_node@PAVBNC_ReferenceItemEx@@PAX@2@XZ 10141cb0 f i BNC_BaseRefItemControlEx.obj
 0002:0007ef20       ?_Buynode0@?$_Tree_buy@PAVBNC_ReferenceItemEx@@V?$allocator@PAVBNC_ReferenceItemEx@@@std@@@std@@QAEPAU?$_Tree_node@PAVBNC_ReferenceItemEx@@PAX@2@XZ 10141f20 f i BNC_BaseRefItemControlEx.obj
 0002:0007f130       ?_Color@?$_Tree_val@U?$_Tree_simple_types@PAVBNC_ReferenceItemEx@@@std@@@std@@SAAADPAU?$_Tree_node@PAVBNC_ReferenceItemEx@@PAX@2@@Z 10142130 f i BNC_BaseRefItemControlEx.obj
 0002:0007f170       ?_Destroy_if_not_nil@?$_Tree@V?$_Tset_traits@PAVBNC_ReferenceItemEx@@U?$less@PAVBNC_ReferenceItemEx@@@std@@V?$allocator@PAVBNC_ReferenceItemEx@@@3@$0A@@std@@@std@@IAEXU_Nil@2@@Z 10142170 f i BNC_BaseRefItemControlEx.obj
 0002:0007f1b0       ?_Erase@?$_Tree@V?$_Tset_traits@PAVBNC_ReferenceItemEx@@U?$less@PAVBNC_ReferenceItemEx@@@std@@V?$allocator@PAVBNC_ReferenceItemEx@@@3@$0A@@std@@@std@@IAEXPAU?$_Tree_node@PAVBNC_ReferenceItemEx@@PAX@2@@Z 101421b0 f i BNC_BaseRefItemControlEx.obj
 0002:0007f2c0       ?_Free_proxy@?$_Tree_alloc@$0A@U?$_Tree_base_types@PAVBNC_ReferenceItemEx@@V?$allocator@PAVBNC_ReferenceItemEx@@@std@@@std@@@std@@QAEXXZ 101422c0 f i BNC_BaseRefItemControlEx.obj
 0002:0007f3c0       ?_Freeheadnode@?$_Tree_alloc@$0A@U?$_Tree_base_types@PAVBNC_ReferenceItemEx@@V?$allocator@PAVBNC_ReferenceItemEx@@@std@@@std@@@std@@QAEXPAU?$_Tree_node@PAVBNC_ReferenceItemEx@@PAX@2@@Z 101423c0 f i BNC_BaseRefItemControlEx.obj
 0002:0007f4d0       ?_Freenode0@?$_Tree_buy@PAVBNC_ReferenceItemEx@@V?$allocator@PAVBNC_ReferenceItemEx@@@std@@@std@@QAEXPAU?$_Tree_node@PAVBNC_ReferenceItemEx@@PAX@2@@Z 101424d0 f i BNC_BaseRefItemControlEx.obj
 0002:0007f5e0       ?_Getal@?$_Tree_alloc@$0A@U?$_Tree_base_types@PAVBNC_ReferenceItemEx@@V?$allocator@PAVBNC_ReferenceItemEx@@@std@@@std@@@std@@QBE?AU?$_Wrap_alloc@V?$allocator@U?$_Tree_node@PAVBNC_ReferenceItemEx@@PAX@std@@@std@@@2@XZ 101425e0 f i BNC_BaseRefItemControlEx.obj
 0002:0007f640       ?_Getcomp@?$_Tree_comp@$0A@V?$_Tset_traits@PAVBNC_ReferenceItemEx@@U?$less@PAVBNC_ReferenceItemEx@@@std@@V?$allocator@PAVBNC_ReferenceItemEx@@@3@$0A@@std@@@std@@QBE?AU?$less@PAVBNC_ReferenceItemEx@@@2@XZ 10142640 f i BNC_BaseRefItemControlEx.obj
 0002:0007f680       ?_Isnil@?$_Tree_val@U?$_Tree_simple_types@PAVBNC_ReferenceItemEx@@@std@@@std@@SAAADPAU?$_Tree_node@PAVBNC_ReferenceItemEx@@PAX@2@@Z 10142680 f i BNC_BaseRefItemControlEx.obj
 0002:0007f6c0       ?_Key@?$_Tree@V?$_Tset_traits@PAVBNC_ReferenceItemEx@@U?$less@PAVBNC_ReferenceItemEx@@@std@@V?$allocator@PAVBNC_ReferenceItemEx@@@3@$0A@@std@@@std@@IBEABQAVBNC_ReferenceItemEx@@PAU?$_Tree_node@PAVBNC_ReferenceItemEx@@PAX@2@@Z 101426c0 f i BNC_BaseRefItemControlEx.obj
 0002:0007f730       ?_Kfn@?$_Tree@V?$_Tset_traits@PAVBNC_ReferenceItemEx@@U?$less@PAVBNC_ReferenceItemEx@@@std@@V?$allocator@PAVBNC_ReferenceItemEx@@@3@$0A@@std@@@std@@IBEABQAVBNC_ReferenceItemEx@@ABQAV3@@Z 10142730 f i BNC_BaseRefItemControlEx.obj
 0002:0007f790       ?_Kfn@?$_Tset_traits@PAVBNC_ReferenceItemEx@@U?$less@PAVBNC_ReferenceItemEx@@@std@@V?$allocator@PAVBNC_ReferenceItemEx@@@3@$0A@@std@@SAABQAVBNC_ReferenceItemEx@@ABQAV3@@Z 10142790 f i BNC_BaseRefItemControlEx.obj
 0002:0007f7d0       ?_Lbound@?$_Tree@V?$_Tset_traits@PAVBNC_ReferenceItemEx@@U?$less@PAVBNC_ReferenceItemEx@@@std@@V?$allocator@PAVBNC_ReferenceItemEx@@@3@$0A@@std@@@std@@IAEPAU?$_Tree_node@PAVBNC_ReferenceItemEx@@PAX@2@ABQAVBNC_ReferenceItemEx@@@Z 101427d0 f i BNC_BaseRefItemControlEx.obj
 0002:0007f8e0       ?_Left@?$_Tree_val@U?$_Tree_simple_types@PAVBNC_ReferenceItemEx@@@std@@@std@@SAAAPAU?$_Tree_node@PAVBNC_ReferenceItemEx@@PAX@2@PAU32@@Z 101428e0 f i BNC_BaseRefItemControlEx.obj
 0002:0007f920       ?_Lmost@?$_Tree@V?$_Tset_traits@PAVBNC_ReferenceItemEx@@U?$less@PAVBNC_ReferenceItemEx@@@std@@V?$allocator@PAVBNC_ReferenceItemEx@@@3@$0A@@std@@@std@@IBEAAPAU?$_Tree_node@PAVBNC_ReferenceItemEx@@PAX@2@XZ 10142920 f i BNC_BaseRefItemControlEx.obj
 0002:0007f980       ?_Lrotate@?$_Tree@V?$_Tset_traits@PAVBNC_ReferenceItemEx@@U?$less@PAVBNC_ReferenceItemEx@@@std@@V?$allocator@PAVBNC_ReferenceItemEx@@@3@$0A@@std@@@std@@IAEXPAU?$_Tree_node@PAVBNC_ReferenceItemEx@@PAX@2@@Z 10142980 f i BNC_BaseRefItemControlEx.obj
 0002:0007fb30       ?_Max@?$_Tree_val@U?$_Tree_simple_types@PAVBNC_ReferenceItemEx@@@std@@@std@@SAPAU?$_Tree_node@PAVBNC_ReferenceItemEx@@PAX@2@PAU32@@Z 10142b30 f i BNC_BaseRefItemControlEx.obj
 0002:0007fbb0       ?_Min@?$_Tree_val@U?$_Tree_simple_types@PAVBNC_ReferenceItemEx@@@std@@@std@@SAPAU?$_Tree_node@PAVBNC_ReferenceItemEx@@PAX@2@PAU32@@Z 10142bb0 f i BNC_BaseRefItemControlEx.obj
 0002:0007fc30       ?_Mynode@?$_Tree_unchecked_const_iterator@V?$_Tree_val@U?$_Tree_simple_types@PAVBNC_ReferenceItemEx@@@std@@@std@@U_Iterator_base12@2@@std@@QBEPAU?$_Tree_node@PAVBNC_ReferenceItemEx@@PAX@2@XZ 10142c30 f i BNC_BaseRefItemControlEx.obj
 0002:0007fc70       ?_Myval@?$_Tree_val@U?$_Tree_simple_types@PAVBNC_ReferenceItemEx@@@std@@@std@@SAAAPAVBNC_ReferenceItemEx@@PAU?$_Tree_node@PAVBNC_ReferenceItemEx@@PAX@2@@Z 10142c70 f i BNC_BaseRefItemControlEx.obj
 0002:0007fcb0       ?_Orphan_ptr@?$_Tree@V?$_Tset_traits@PAVBNC_ReferenceItemEx@@U?$less@PAVBNC_ReferenceItemEx@@@std@@V?$allocator@PAVBNC_ReferenceItemEx@@@3@$0A@@std@@@std@@IBEXAAV12@PAU?$_Tree_node@PAVBNC_ReferenceItemEx@@PAX@2@@Z 10142cb0 f i BNC_BaseRefItemControlEx.obj
 0002:0007fe50       ?_Parent@?$_Tree_val@U?$_Tree_simple_types@PAVBNC_ReferenceItemEx@@@std@@@std@@SAAAPAU?$_Tree_node@PAVBNC_ReferenceItemEx@@PAX@2@PAU32@@Z 10142e50 f i BNC_BaseRefItemControlEx.obj
 0002:0007fe90       ?_Right@?$_Tree_val@U?$_Tree_simple_types@PAVBNC_ReferenceItemEx@@@std@@@std@@SAAAPAU?$_Tree_node@PAVBNC_ReferenceItemEx@@PAX@2@PAU32@@Z 10142e90 f i BNC_BaseRefItemControlEx.obj
 0002:0007fed0       ?_Rmost@?$_Tree@V?$_Tset_traits@PAVBNC_ReferenceItemEx@@U?$less@PAVBNC_ReferenceItemEx@@@std@@V?$allocator@PAVBNC_ReferenceItemEx@@@3@$0A@@std@@@std@@IBEAAPAU?$_Tree_node@PAVBNC_ReferenceItemEx@@PAX@2@XZ 10142ed0 f i BNC_BaseRefItemControlEx.obj
 0002:0007ff30       ?_Root@?$_Tree@V?$_Tset_traits@PAVBNC_ReferenceItemEx@@U?$less@PAVBNC_ReferenceItemEx@@@std@@V?$allocator@PAVBNC_ReferenceItemEx@@@3@$0A@@std@@@std@@IBEAAPAU?$_Tree_node@PAVBNC_ReferenceItemEx@@PAX@2@XZ 10142f30 f i BNC_BaseRefItemControlEx.obj
 0002:0007ff90       ?_Rrotate@?$_Tree@V?$_Tset_traits@PAVBNC_ReferenceItemEx@@U?$less@PAVBNC_ReferenceItemEx@@@std@@V?$allocator@PAVBNC_ReferenceItemEx@@@3@$0A@@std@@@std@@IAEXPAU?$_Tree_node@PAVBNC_ReferenceItemEx@@PAX@2@@Z 10142f90 f i BNC_BaseRefItemControlEx.obj
 0002:00080140       ?_Tidy@?$_Tree@V?$_Tset_traits@PAVBNC_ReferenceItemEx@@U?$less@PAVBNC_ReferenceItemEx@@@std@@V?$allocator@PAVBNC_ReferenceItemEx@@@3@$0A@@std@@@std@@IAEXXZ 10143140 f i BNC_BaseRefItemControlEx.obj
 0002:000801f0       ?__autoclassinit2@?$_Tree_const_iterator@V?$_Tree_val@U?$_Tree_simple_types@PAVBNC_ReferenceItemEx@@@std@@@std@@@std@@QAEXI@Z 101431f0 f i BNC_BaseRefItemControlEx.obj
 0002:00080250       ?allocate@?$_Wrap_alloc@V?$allocator@U?$_Tree_node@PAVBNC_ReferenceItemEx@@PAX@std@@@std@@@std@@QAEPAU?$_Tree_node@PAVBNC_ReferenceItemEx@@PAX@2@I@Z 10143250 f i BNC_BaseRefItemControlEx.obj
 0002:000802b0       ?allocate@?$allocator@U?$_Tree_node@PAVBNC_ReferenceItemEx@@PAX@std@@@std@@QAEPAU?$_Tree_node@PAVBNC_ReferenceItemEx@@PAX@2@I@Z 101432b0 f i BNC_BaseRefItemControlEx.obj
 0002:00080310       ?begin@?$_Tree@V?$_Tset_traits@PAVBNC_ReferenceItemEx@@U?$less@PAVBNC_ReferenceItemEx@@@std@@V?$allocator@PAVBNC_ReferenceItemEx@@@3@$0A@@std@@@std@@QAE?AV?$_Tree_const_iterator@V?$_Tree_val@U?$_Tree_simple_types@PAVBNC_ReferenceItemEx@@@std@@@std@@@2@XZ 10143310 f i BNC_BaseRefItemControlEx.obj
 0002:00080380       ?clear@?$_Tree@V?$_Tset_traits@PAVBNC_ReferenceItemEx@@U?$less@PAVBNC_ReferenceItemEx@@@std@@V?$allocator@PAVBNC_ReferenceItemEx@@@3@$0A@@std@@@std@@QAEXXZ 10143380 f i BNC_BaseRefItemControlEx.obj
 0002:00080440       ?deallocate@?$_Wrap_alloc@V?$allocator@U?$_Tree_node@PAVBNC_ReferenceItemEx@@PAX@std@@@std@@@std@@QAEXPAU?$_Tree_node@PAVBNC_ReferenceItemEx@@PAX@2@I@Z 10143440 f i BNC_BaseRefItemControlEx.obj
 0002:000804a0       ?deallocate@?$allocator@U?$_Tree_node@PAVBNC_ReferenceItemEx@@PAX@std@@@std@@QAEXPAU?$_Tree_node@PAVBNC_ReferenceItemEx@@PAX@2@I@Z 101434a0 f i BNC_BaseRefItemControlEx.obj
 0002:00080500       ?end@?$_Tree@V?$_Tset_traits@PAVBNC_ReferenceItemEx@@U?$less@PAVBNC_ReferenceItemEx@@@std@@V?$allocator@PAVBNC_ReferenceItemEx@@@3@$0A@@std@@@std@@QAE?AV?$_Tree_const_iterator@V?$_Tree_val@U?$_Tree_simple_types@PAVBNC_ReferenceItemEx@@@std@@@std@@@2@XZ 10143500 f i BNC_BaseRefItemControlEx.obj
 0002:00080570       ?erase@?$_Tree@V?$_Tset_traits@PAVBNC_ReferenceItemEx@@U?$less@PAVBNC_ReferenceItemEx@@@std@@V?$allocator@PAVBNC_ReferenceItemEx@@@3@$0A@@std@@@std@@QAE?AV?$_Tree_const_iterator@V?$_Tree_val@U?$_Tree_simple_types@PAVBNC_ReferenceItemEx@@@std@@@std@@@2@V32@0@Z 10143570 f i BNC_BaseRefItemControlEx.obj
 0002:00080890       ?erase@?$_Tree@V?$_Tset_traits@PAVBNC_ReferenceItemEx@@U?$less@PAVBNC_ReferenceItemEx@@@std@@V?$allocator@PAVBNC_ReferenceItemEx@@@3@$0A@@std@@@std@@QAE?AV?$_Tree_const_iterator@V?$_Tree_val@U?$_Tree_simple_types@PAVBNC_ReferenceItemEx@@@std@@@std@@@2@V32@@Z 10143890 f i BNC_BaseRefItemControlEx.obj
 0002:00081310       ?find@?$_Tree@V?$_Tset_traits@PAVBNC_ReferenceItemEx@@U?$less@PAVBNC_ReferenceItemEx@@@std@@V?$allocator@PAVBNC_ReferenceItemEx@@@3@$0A@@std@@@std@@QAE?AV?$_Tree_const_iterator@V?$_Tree_val@U?$_Tree_simple_types@PAVBNC_ReferenceItemEx@@@std@@@std@@@2@ABQAVBNC_ReferenceItemEx@@@Z 10144310 f i BNC_BaseRefItemControlEx.obj
 0002:00081640       ?insert@?$_Tree@V?$_Tset_traits@PAVBNC_ReferenceItemEx@@U?$less@PAVBNC_ReferenceItemEx@@@std@@V?$allocator@PAVBNC_ReferenceItemEx@@@3@$0A@@std@@@std@@QAE?AU?$pair@V?$_Tree_const_iterator@V?$_Tree_val@U?$_Tree_simple_types@PAVBNC_ReferenceItemEx@@@std@@@std@@@std@@_N@2@ABQAVBNC_ReferenceItemEx@@@Z 10144640 f i BNC_BaseRefItemControlEx.obj
 0002:000816d0       ?insert@?$set@PAVBNC_ReferenceItemEx@@U?$less@PAVBNC_ReferenceItemEx@@@std@@V?$allocator@PAVBNC_ReferenceItemEx@@@3@@std@@QAE?AU?$pair@V?$_Tree_const_iterator@V?$_Tree_val@U?$_Tree_simple_types@PAVBNC_ReferenceItemEx@@@std@@@std@@@std@@_N@2@ABQAVBNC_ReferenceItemEx@@@Z 101446d0 f i BNC_BaseRefItemControlEx.obj
 0002:00081750       ?key_comp@?$_Tree@V?$_Tset_traits@PAVBNC_ReferenceItemEx@@U?$less@PAVBNC_ReferenceItemEx@@@std@@V?$allocator@PAVBNC_ReferenceItemEx@@@3@$0A@@std@@@std@@QBE?AU?$less@PAVBNC_ReferenceItemEx@@@2@XZ 10144750 f i BNC_BaseRefItemControlEx.obj
 0002:000817b0       ?lower_bound@?$_Tree@V?$_Tset_traits@PAVBNC_ReferenceItemEx@@U?$less@PAVBNC_ReferenceItemEx@@@std@@V?$allocator@PAVBNC_ReferenceItemEx@@@3@$0A@@std@@@std@@QAE?AV?$_Tree_const_iterator@V?$_Tree_val@U?$_Tree_simple_types@PAVBNC_ReferenceItemEx@@@std@@@std@@@2@ABQAVBNC_ReferenceItemEx@@@Z 101447b0 f i BNC_BaseRefItemControlEx.obj
 0002:00081840       ?max_size@?$_Tree@V?$_Tset_traits@PAVBNC_ReferenceItemEx@@U?$less@PAVBNC_ReferenceItemEx@@@std@@V?$allocator@PAVBNC_ReferenceItemEx@@@3@$0A@@std@@@std@@QBEIXZ 10144840 f i BNC_BaseRefItemControlEx.obj
 0002:000818a0       ?max_size@?$_Wrap_alloc@V?$allocator@U?$_Tree_node@PAVBNC_ReferenceItemEx@@PAX@std@@@std@@@std@@QBEIXZ 101448a0 f i BNC_BaseRefItemControlEx.obj
 0002:00081900       ?max_size@?$allocator@U?$_Tree_node@PAVBNC_ReferenceItemEx@@PAX@std@@@std@@QBEIXZ 10144900 f i BNC_BaseRefItemControlEx.obj
 0002:00081940       ?max_size@?$allocator_traits@V?$allocator@U?$_Tree_node@PAVBNC_ReferenceItemEx@@PAX@std@@@std@@@std@@SAIABV?$allocator@U?$_Tree_node@PAVBNC_ReferenceItemEx@@PAX@std@@@2@@Z 10144940 f i BNC_BaseRefItemControlEx.obj
 0002:00081990       ?select_on_container_copy_construction@?$_Wrap_alloc@V?$allocator@U?$_Tree_node@PAVBNC_ReferenceItemEx@@PAX@std@@@std@@@std@@QBE?AU12@XZ 10144990 f i BNC_BaseRefItemControlEx.obj
 0002:00081a00       ?select_on_container_copy_construction@?$allocator@U?$_Tree_node@PAVBNC_ReferenceItemEx@@PAX@std@@@std@@QBE?AV12@XZ 10144a00 f i BNC_BaseRefItemControlEx.obj
 0002:00081a60       ?select_on_container_copy_construction@?$allocator_traits@V?$allocator@U?$_Tree_node@PAVBNC_ReferenceItemEx@@PAX@std@@@std@@@std@@SA?AV?$allocator@U?$_Tree_node@PAVBNC_ReferenceItemEx@@PAX@std@@@2@ABV32@@Z 10144a60 f i BNC_BaseRefItemControlEx.obj
 0002:00081ac0       ?size@?$_Tree@V?$_Tset_traits@PAVBNC_ReferenceItemEx@@U?$less@PAVBNC_ReferenceItemEx@@@std@@V?$allocator@PAVBNC_ReferenceItemEx@@@3@$0A@@std@@@std@@QBEIXZ 10144ac0 f i BNC_BaseRefItemControlEx.obj
 0002:00081b00       ?_GetBaseClass@BNC_BaseSliderCtrl@@KGPAUCRuntimeClass@@XZ 10144b00 f   BNC_BaseSliderCtrl.obj
 0002:00081b50       ?OnDestroy@BNC_BaseSliderCtrl@@QAEXXZ 10144b50 f   BNC_BaseSliderCtrl.obj
 0002:00081ba0       ?OnMouseMove@BNC_BaseSliderCtrl@@QAEXIVCPoint@@@Z 10144ba0 f   BNC_BaseSliderCtrl.obj
 0002:00081c50       ?OnCreate@BNC_BaseSliderCtrl@@QAEHPAUtagCREATESTRUCTW@@@Z 10144c50 f   BNC_BaseSliderCtrl.obj
 0002:00081d80       ?OnEnable@BNC_BaseSliderCtrl@@QAEXH@Z 10144d80 f   BNC_BaseSliderCtrl.obj
 0002:00081df0       ??0BNC_BaseSliderCtrl@@QAE@XZ 10144df0 f   BNC_BaseSliderCtrl.obj
 0002:00082140       ??1BNC_BaseSliderCtrl@@UAE@XZ 10145140 f   BNC_BaseSliderCtrl.obj
 0002:00082200       ??_EBNC_BaseSliderCtrl@@UAEPAXI@Z 10145200 f i BNC_BaseSliderCtrl.obj
 0002:000822c0       ??_GBNC_BaseSliderCtrl@@UAEPAXI@Z 101452c0 f i BNC_BaseSliderCtrl.obj
 0002:00082330       ?GetLength@BNC_BaseSliderCtrl@@QAEHXZ 10145330 f   BNC_BaseSliderCtrl.obj
 0002:000823a0       ?GetMessageMap@BNC_BaseSliderCtrl@@MBEPBUAFX_MSGMAP@@XZ 101453a0 f   BNC_BaseSliderCtrl.obj
 0002:000823f0       ?GetPos@BNC_BaseSliderCtrl@@QAEHXZ 101453f0 f   BNC_BaseSliderCtrl.obj
 0002:00082430       ?GetPosRatio@BNC_BaseSliderCtrl@@QAEMXZ 10145430 f   BNC_BaseSliderCtrl.obj
 0002:00082470       ?GetRuntimeClass@BNC_BaseSliderCtrl@@UBEPAUCRuntimeClass@@XZ 10145470 f   BNC_BaseSliderCtrl.obj
 0002:000824b0       ?GetThisClass@BNC_BaseSliderCtrl@@SGPAUCRuntimeClass@@XZ 101454b0 f   BNC_BaseSliderCtrl.obj
 0002:000824f0       ?GetThisMessageMap@BNC_BaseSliderCtrl@@KGPBUAFX_MSGMAP@@XZ 101454f0 f   BNC_BaseSliderCtrl.obj
 0002:00082530       ?Initialize@BNC_BaseSliderCtrl@@QAEX_N00VCRect@@@Z 10145530 f   BNC_BaseSliderCtrl.obj
 0002:000825c0       ?OnCreate@BNC_BaseSliderCtrl@@EAE_NXZ 101455c0 f   BNC_BaseSliderCtrl.obj
 0002:00082600       ?OnDraw@BNC_BaseSliderCtrl@@EAE_NPAVCDC@@0@Z 10145600 f   BNC_BaseSliderCtrl.obj
 0002:00082810       ?OnMouseControlUpdate@BNC_BaseSliderCtrl@@EAEXW4BNE_MOUSESTATE@@AAVCPoint@@@Z 10145810 f   BNC_BaseSliderCtrl.obj
 0002:00082900       ?OnUpdateSize@BNC_BaseSliderCtrl@@EAEXHH@Z 10145900 f   BNC_BaseSliderCtrl.obj
 0002:00082bd0       ?OnWindowPosChanging@BNC_BaseSliderCtrl@@QAEXPAUtagWINDOWPOS@@@Z 10145bd0 f   BNC_BaseSliderCtrl.obj
 0002:00082c30       ?SendNotify@BNC_BaseSliderCtrl@@AAEXXZ 10145c30 f   BNC_BaseSliderCtrl.obj
 0002:00082d00       ?SetPos@BNC_BaseSliderCtrl@@QAEXH_N@Z 10145d00 f   BNC_BaseSliderCtrl.obj
 0002:00082d70       ?SetPosRatio@BNC_BaseSliderCtrl@@QAE_NM_N@Z 10145d70 f   BNC_BaseSliderCtrl.obj
 0002:00082ec0       ?SetRange@BNC_BaseSliderCtrl@@QAEXHH_N@Z 10145ec0 f   BNC_BaseSliderCtrl.obj
 0002:00082f40       ?UpdateDrawArea@BNC_BaseSliderCtrl@@AAEXXZ 10145f40 f   BNC_BaseSliderCtrl.obj
 0002:00083270       ?UpdatePosRatio@BNC_BaseSliderCtrl@@AAEXAAVCPoint@@_N1@Z 10146270 f   BNC_BaseSliderCtrl.obj
 0002:00083390       ?UpdatePosRatio@BNC_BaseSliderCtrl@@AAEX_N@Z 10146390 f   BNC_BaseSliderCtrl.obj
 0002:000834e0       ?OnDestroy@BNC_DummyListView@@QAEXXZ 101464e0 f   BNC_DummyListView.obj
 0002:00083530       ?OnMouseWheel@BNC_DummyListView@@QAEHIFVCPoint@@@Z 10146530 f   BNC_DummyListView.obj
 0002:000835e0       ??0BNC_DummyListView@@QAE@XZ 101465e0 f   BNC_DummyListView.obj
 0002:00083730       ??1BNC_DummyListView@@UAE@XZ 10146730 f   BNC_DummyListView.obj
 0002:00083820       ??_EBNC_DummyListView@@UAEPAXI@Z 10146820 f i BNC_DummyListView.obj
 0002:000838e0       ??_GBNC_DummyListView@@UAEPAXI@Z 101468e0 f i BNC_DummyListView.obj
 0002:00083950       ?Clear@BNC_DummyListView@@QAEX_N@Z 10146950 f   BNC_DummyListView.obj
 0002:000839e0       ?GetDeferChildCount@BNC_DummyListView@@UAEIXZ 101469e0 f   BNC_DummyListView.obj
 0002:00083a20       ?GetItemTopPos@BNC_DummyListView@@QAEHH@Z 10146a20 f   BNC_DummyListView.obj
 0002:00083a80       ?GetListScroll@BNC_DummyListView@@QAEHXZ 10146a80 f   BNC_DummyListView.obj
 0002:00083ae0       ?GetMessageMap@BNC_DummyListView@@MBEPBUAFX_MSGMAP@@XZ 10146ae0 f   BNC_DummyListView.obj
 0002:00083b30       ?GetThisMessageMap@BNC_DummyListView@@KGPBUAFX_MSGMAP@@XZ 10146b30 f   BNC_DummyListView.obj
 0002:00083b70       ?OnCreate@BNC_DummyListView@@MAE_NXZ 10146b70 f   BNC_DummyListView.obj
 0002:00083cb0       ?OnDraw@BNC_DummyListView@@MAE_NPAVCDC@@0@Z 10146cb0 f   BNC_DummyListView.obj
 0002:00083cf0       ?OnDrawBackground@BNC_DummyListView@@UAEXPAVCDC@@0_N@Z 10146cf0 f   BNC_DummyListView.obj
 0002:00083e00       ?OnDrawNoData@BNC_DummyListView@@UAEXPAVCDC@@0@Z 10146e00 f   BNC_DummyListView.obj
 0002:00083f10       ?OnMessageList@BNC_DummyListView@@MAEJIJ@Z 10146f10 f   BNC_DummyListView.obj
 0002:00083f50       ?OnMessageScroll@BNC_DummyListView@@MAEJIJ@Z 10146f50 f   BNC_DummyListView.obj
 0002:00083fd0       ?OnNotifyKeyDown@BNC_DummyListView@@UAE_NI@Z 10146fd0 f   BNC_DummyListView.obj
 0002:00084050       ?OnNotifyMouseWheel@BNC_DummyListView@@UAEXIF@Z 10147050 f   BNC_DummyListView.obj
 0002:000840e0       ?OnRedraw@BNC_DummyListView@@UAEX_N@Z 101470e0 f   BNC_DummyListView.obj
 0002:00084140       ?OnUpdateClient@BNC_DummyListView@@MAEXHH@Z 10147140 f   BNC_DummyListView.obj
 0002:000841a0       ?Reset@BNC_DummyListView@@QAEXIIAAVBNC_ReferenceItem@@_N1@Z 101471a0 f   BNC_DummyListView.obj
 0002:00084220       ?SetListScroll@BNC_DummyListView@@QAEXH@Z 10147220 f   BNC_DummyListView.obj
 0002:000842e0       ?UpdateControl@BNC_DummyListView@@IAEXHH_N@Z 101472e0 f   BNC_DummyListView.obj
 0002:00084580       ?UpdateScroll@BNC_DummyListView@@QAEXXZ 10147580 f   BNC_DummyListView.obj
 0002:00084630       ?UpdateVisibleIndex@BNC_DummyListView@@QAEXXZ 10147630 f   BNC_DummyListView.obj
 0002:000846ab       ??_9BNC_EditboxEx@@$BBKM@AE 101476ab f i BNC_EditboxEx.obj
 0002:000846c0       ?OnDestroy@BNC_EditboxEx@@QAEXXZ 101476c0 f   BNC_EditboxEx.obj
 0002:00084710       ?OnEnable@BNC_EditboxEx@@QAEXH@Z 10147710 f   BNC_EditboxEx.obj
 0002:000847d0       ?OnWindowPosChanging@BNC_EditboxEx@@QAEXPAUtagWINDOWPOS@@@Z 101477d0 f   BNC_EditboxEx.obj
 0002:00084850       ?OnSetFocus@BNC_EditboxEx@@QAEXPAVCWnd@@@Z 10147850 f   BNC_EditboxEx.obj
 0002:000848f0       ?OnMouseWheel@BNC_EditboxEx@@QAEHIFVCPoint@@@Z 101478f0 f   BNC_EditboxEx.obj
 0002:00084ab0       ?OnSize@BNC_EditboxEx@@QAEXIHH@Z 10147ab0 f   BNC_EditboxEx.obj
 0002:00084d50       ??0BNC_EditboxEx@@QAE@XZ   10147d50 f   BNC_EditboxEx.obj
 0002:00085200       ??1BNC_EditboxEx@@UAE@XZ   10148200 f   BNC_EditboxEx.obj
 0002:000853b0       ??HATL@@YA?AV?$CStringT@_WV?$StrTraitMFC_DLL@_WV?$ChTraitsCRT@_W@ATL@@@@@0@ABV10@0@Z 101483b0 f i BNC_EditboxEx.obj
 0002:00085580       ??HATL@@YA?AV?$CStringT@_WV?$StrTraitMFC_DLL@_WV?$ChTraitsCRT@_W@ATL@@@@@0@ABV10@PB_W@Z 10148580 f i BNC_EditboxEx.obj
 0002:00085740       ??_EBNC_EditboxEx@@UAEPAXI@Z 10148740 f i BNC_EditboxEx.obj
 0002:00085800       ??_GBNC_EditboxEx@@UAEPAXI@Z 10148800 f i BNC_EditboxEx.obj
 0002:00085870       ?AddEOL@BNC_EditboxEx@@QAEXV?$CStringT@_WV?$StrTraitMFC_DLL@_WV?$ChTraitsCRT@_W@ATL@@@@@ATL@@_N1@Z 10148870 f   BNC_EditboxEx.obj
 0002:00085ae0       ?CreateClearButtonBm@BNC_EditboxEx@@QAE_NGVCPoint@@PAVCBitmap@@0VCSize@@@Z 10148ae0 f   BNC_EditboxEx.obj
 0002:00085c70       ?CreateClearButtonImg@BNC_EditboxEx@@QAE_NGVCPoint@@PAVImage@Gdiplus@@0VCSize@@K@Z 10148c70 f   BNC_EditboxEx.obj
 0002:00085e20       ?CreateEdit@BNC_EditboxEx@@QAE_NGVCRect@@V?$CStringT@_WV?$StrTraitMFC_DLL@_WV?$ChTraitsCRT@_W@ATL@@@@@ATL@@HK_N@Z 10148e20 f   BNC_EditboxEx.obj
 0002:000862a0       ?GetLastPressKey@BNC_EditboxEx@@QAEIXZ 101492a0 f   BNC_EditboxEx.obj
 0002:000862e0       ?GetMessageMap@BNC_EditboxEx@@MBEPBUAFX_MSGMAP@@XZ 101492e0 f   BNC_EditboxEx.obj
 0002:00086330       ?GetNumber@BNC_EditboxEx@@QAEHXZ 10149330 f   BNC_EditboxEx.obj
 0002:00086400       ?GetState@BNC_EditboxEx@@QAEXAAVBNC_EditState@@@Z 10149400 f   BNC_EditboxEx.obj
 0002:00086520       ?GetText@BNC_EditboxEx@@QAE?AV?$CStringT@_WV?$StrTraitMFC_DLL@_WV?$ChTraitsCRT@_W@ATL@@@@@ATL@@XZ 10149520 f   BNC_EditboxEx.obj
 0002:000865a0       ?GetTextLength@BNC_EditboxEx@@QAEHXZ 101495a0 f   BNC_EditboxEx.obj
 0002:00086600       ?GetThisMessageMap@BNC_EditboxEx@@KGPBUAFX_MSGMAP@@XZ 10149600 f   BNC_EditboxEx.obj
 0002:00086640       ?OnCreate@BNC_EditboxEx@@EAE_NXZ 10149640 f   BNC_EditboxEx.obj
 0002:00086680       ?OnDraw@BNC_EditboxEx@@EAE_NPAVCDC@@0@Z 10149680 f   BNC_EditboxEx.obj
 0002:00086bc0       ?OnMessageButton@BNC_EditboxEx@@EAEJIJ@Z 10149bc0 f   BNC_EditboxEx.obj
 0002:00086d10       ?OnMessageEdit@BNC_EditboxEx@@EAEJIJ@Z 10149d10 f   BNC_EditboxEx.obj
 0002:00086eb0       ?OnModifyPopupPtr@BNC_EditboxEx@@EAEXPAVBNC_BaseDialog@@@Z 10149eb0 f   BNC_EditboxEx.obj
 0002:00086ef0       ?OnUpdateSize@BNC_EditboxEx@@AAEXHH@Z 10149ef0 f   BNC_EditboxEx.obj
 0002:00086f30       ?PreTranslateMessage@BNC_EditboxEx@@UAEHPAUtagMSG@@@Z 10149f30 f   BNC_EditboxEx.obj
 0002:00086fe0       ?PtInRect@CRect@@QBEHUtagPOINT@@@Z 10149fe0 f i BNC_EditboxEx.obj
 0002:00087050       ?SetBkColor@BNC_EditboxEx@@QAEXKK_N@Z 1014a050 f   BNC_EditboxEx.obj
 0002:000870e0       ?SetClearBtnTooltip@BNC_EditboxEx@@QAEXV?$CStringT@_WV?$StrTraitMFC_DLL@_WV?$ChTraitsCRT@_W@ATL@@@@@ATL@@@Z 1014a0e0 f   BNC_EditboxEx.obj
 0002:000871c0       ?SetEdgeColor@BNC_EditboxEx@@QAEXKK_N@Z 1014a1c0 f   BNC_EditboxEx.obj
 0002:00087310       ?SetGuideBitmap@BNC_EditboxEx@@QAEXPAVCBitmap@@VCPoint@@1VCSize@@@Z 1014a310 f   BNC_EditboxEx.obj
 0002:00087430       ?SetGuideBitmapFocus@BNC_EditboxEx@@QAEXPAVCBitmap@@VCPoint@@1VCSize@@@Z 1014a430 f   BNC_EditboxEx.obj
 0002:000874e0       ?SetGuideImage@BNC_EditboxEx@@QAEXPAVImage@Gdiplus@@VCPoint@@1VCSize@@@Z 1014a4e0 f   BNC_EditboxEx.obj
 0002:00087600       ?SetGuideImageFocus@BNC_EditboxEx@@QAEXPAVImage@Gdiplus@@VCPoint@@1VCSize@@@Z 1014a600 f   BNC_EditboxEx.obj
 0002:000876b0       ?SetGuideText@BNC_EditboxEx@@QAEXV?$CStringT@_WV?$StrTraitMFC_DLL@_WV?$ChTraitsCRT@_W@ATL@@@@@ATL@@@Z 1014a6b0 f   BNC_EditboxEx.obj
 0002:00087790       ?SetGuideText@BNC_EditboxEx@@QAEXV?$CStringT@_WV?$StrTraitMFC_DLL@_WV?$ChTraitsCRT@_W@ATL@@@@@ATL@@KPAVCFont@@@Z 1014a790 f   BNC_EditboxEx.obj
 0002:00087880       ?SetGuideTextAdd@BNC_EditboxEx@@QAEXV?$CStringT@_WV?$StrTraitMFC_DLL@_WV?$ChTraitsCRT@_W@ATL@@@@@ATL@@K@Z 1014a880 f   BNC_EditboxEx.obj
 0002:00087970       ?SetLimitText@BNC_EditboxEx@@QAEXI@Z 1014a970 f   BNC_EditboxEx.obj
 0002:000879f0       ?SetState@BNC_EditboxEx@@QAEXAAVBNC_EditState@@_N11@Z 1014a9f0 f   BNC_EditboxEx.obj
 0002:00087b00       ?SetText@BNC_EditboxEx@@QAEXV?$CStringT@_WV?$StrTraitMFC_DLL@_WV?$ChTraitsCRT@_W@ATL@@@@@ATL@@_N1@Z 1014ab00 f   BNC_EditboxEx.obj
 0002:00087c20       ?SetTextColor@BNC_EditboxEx@@QAEXKK_N@Z 1014ac20 f   BNC_EditboxEx.obj
 0002:00087cb0       ?ShowClearButton@BNC_EditboxEx@@QAEX_N@Z 1014acb0 f   BNC_EditboxEx.obj
 0002:00087da0       ?UpdateDeleteButton@BNC_EditboxEx@@AAEXXZ 1014ada0 f   BNC_EditboxEx.obj
 0002:00087ea0       ?UpdateTextExtent@BNC_EditboxEx@@AAEXQAUHDC__@@ABV?$CStringT@_WV?$StrTraitMFC_DLL@_WV?$ChTraitsCRT@_W@ATL@@@@@ATL@@AAV34@H@Z 1014aea0 f   BNC_EditboxEx.obj
 0002:00088310       ?OnDestroy@BNC_HtmlBrowser@@IAEXXZ 1014b310 f   BNC_HtmlBrowser.obj
 0002:000883d0       ??0BNC_HtmlBrowser@@QAE@XZ 1014b3d0 f   BNC_HtmlBrowser.obj
 0002:00088510       ??1BNC_HtmlBrowser@@UAE@XZ 1014b510 f   BNC_HtmlBrowser.obj
 0002:000885d0       ??_EBNC_HtmlBrowser@@UAEPAXI@Z 1014b5d0 f i BNC_HtmlBrowser.obj
 0002:00088690       ??_GBNC_HtmlBrowser@@UAEPAXI@Z 1014b690 f i BNC_HtmlBrowser.obj
 0002:00088700       ?GetMessageMap@BNC_HtmlBrowser@@MBEPBUAFX_MSGMAP@@XZ 1014b700 f   BNC_HtmlBrowser.obj
 0002:00088750       ?GetThisMessageMap@BNC_HtmlBrowser@@KGPBUAFX_MSGMAP@@XZ 1014b750 f   BNC_HtmlBrowser.obj
 0002:00088790       ?GetTitle@BNC_HtmlBrowser@@QAE?AV?$CStringT@_WV?$StrTraitMFC_DLL@_WV?$ChTraitsCRT@_W@ATL@@@@@ATL@@XZ 1014b790 f   BNC_HtmlBrowser.obj
 0002:00088890       ?GetURL@BNC_HtmlBrowser@@QAE?AV?$CStringT@_WV?$StrTraitMFC_DLL@_WV?$ChTraitsCRT@_W@ATL@@@@@ATL@@XZ 1014b890 f   BNC_HtmlBrowser.obj
 0002:00088990       ?Navigation@BNC_HtmlBrowser@@QAE_NV?$CStringT@_WV?$StrTraitMFC_DLL@_WV?$ChTraitsCRT@_W@ATL@@@@@ATL@@@Z 1014b990 f   BNC_HtmlBrowser.obj
 0002:00088b70       ?OnCreate@BNC_HtmlBrowser@@EAE_NXZ 1014bb70 f   BNC_HtmlBrowser.obj
 0002:00088c70       ?OnDraw@BNC_HtmlBrowser@@EAE_NPAVCDC@@0@Z 1014bc70 f   BNC_HtmlBrowser.obj
 0002:00088d30       ?OnMessageHtmlWebEvent@BNC_HtmlBrowser@@EAEJIJ@Z 1014bd30 f   BNC_HtmlBrowser.obj
 0002:00089000       ?OnModifyPopupPtr@BNC_HtmlBrowser@@EAEXPAVBNC_BaseDialog@@@Z 1014c000 f   BNC_HtmlBrowser.obj
 0002:00089040       ?OnUpdateClient@BNC_HtmlBrowser@@EAEXHH@Z 1014c040 f   BNC_HtmlBrowser.obj
 0002:000890f0       ?OnUpdatePopupStatus@BNC_HtmlBrowser@@EAEXW4BNE_POPUP_STATUS@@@Z 1014c0f0 f   BNC_HtmlBrowser.obj
 0002:00089130       ?ReleaseThread@BNC_HtmlBrowser@@AAE_NXZ 1014c130 f   BNC_HtmlBrowser.obj
 0002:000892f0       ?_GetBaseClass@BNC_HtmlBrowserClient@@KGPAUCRuntimeClass@@XZ 1014c2f0 f   BNC_HtmlBrowserClient.obj
 0002:00089340       ?CreateObject@BNC_HtmlBrowserClient@@SGPAVCObject@@XZ 1014c340 f   BNC_HtmlBrowserClient.obj
 0002:00089440       ?OnNewWindow3@BNC_HtmlBrowserClient@@AAEJIJ@Z 1014c440 f   BNC_HtmlBrowserClient.obj
 0002:00089700       ?OnDestroy@BNC_HtmlBrowserClient@@QAEXXZ 1014c700 f   BNC_HtmlBrowserClient.obj
 0002:00089790       ?OnEraseBkgnd@BNC_HtmlBrowserClient@@QAEHPAVCDC@@@Z 1014c790 f   BNC_HtmlBrowserClient.obj
 0002:000897d0       ??$?0V<lambda_a5b0efdf5ad7d873a596f4e45feb52e1>@@$$$V@?$_Bind@$0A@XV<lambda_a5b0efdf5ad7d873a596f4e45feb52e1>@@$$$V@std@@QAE@$$QAV<lambda_a5b0efdf5ad7d873a596f4e45feb52e1>@@@Z 1014c7d0 f i BNC_HtmlBrowserClient.obj
 0002:00089850       ??$?0V<lambda_a5b0efdf5ad7d873a596f4e45feb52e1>@@$$$V@thread@std@@QAE@$$QAV<lambda_a5b0efdf5ad7d873a596f4e45feb52e1>@@@Z 1014c850 f i BNC_HtmlBrowserClient.obj
 0002:000898f0       ??$?0V?$_Bind@$0A@XV<lambda_a5b0efdf5ad7d873a596f4e45feb52e1>@@$$$V@std@@@?$_LaunchPad@V?$_Bind@$0A@XV<lambda_a5b0efdf5ad7d873a596f4e45feb52e1>@@$$$V@std@@@std@@QAE@$$QAV?$_Bind@$0A@XV<lambda_a5b0efdf5ad7d873a596f4e45feb52e1>@@$$$V@1@@Z 1014c8f0 f i BNC_HtmlBrowserClient.obj
 0002:000899c0       ??$?R$$$V@?$_Bind@$0A@XV<lambda_a5b0efdf5ad7d873a596f4e45feb52e1>@@$$$V@std@@QAEXXZ 1014c9c0 f i BNC_HtmlBrowserClient.obj
 0002:00089a30       ??$_Decay_copy@V<lambda_a5b0efdf5ad7d873a596f4e45feb52e1>@@@std@@YA?AV<lambda_a5b0efdf5ad7d873a596f4e45feb52e1>@@$$QAV1@@Z 1014ca30 f i BNC_HtmlBrowserClient.obj
 0002:00089aa0       ??$_Do_call@$$$V$S@?$_Bind@$0A@XV<lambda_a5b0efdf5ad7d873a596f4e45feb52e1>@@$$$V@std@@QAEXV?$tuple@$$$V@1@U?$_Arg_idx@$S@1@@Z 1014caa0 f i BNC_HtmlBrowserClient.obj
 0002:00089b00       ??$_Launch@V?$_Bind@$0A@XV<lambda_a5b0efdf5ad7d873a596f4e45feb52e1>@@$$$V@std@@@std@@YAXPAU_Thrd_imp_t@@$$QAV?$_Bind@$0A@XV<lambda_a5b0efdf5ad7d873a596f4e45feb52e1>@@$$$V@0@@Z 1014cb00 f i BNC_HtmlBrowserClient.obj
 0002:00089c20       ??$bind@V<lambda_a5b0efdf5ad7d873a596f4e45feb52e1>@@$$$V@std@@YA?AV?$_Bind@$0A@XV<lambda_a5b0efdf5ad7d873a596f4e45feb52e1>@@$$$V@0@$$QAV<lambda_a5b0efdf5ad7d873a596f4e45feb52e1>@@@Z 1014cc20 f i BNC_HtmlBrowserClient.obj
 0002:00089c80       ??$forward@V<lambda_a5b0efdf5ad7d873a596f4e45feb52e1>@@@std@@YA$$QAV<lambda_a5b0efdf5ad7d873a596f4e45feb52e1>@@AAV1@@Z 1014cc80 f i BNC_HtmlBrowserClient.obj
 0002:00089cc0       ??$forward@V?$_Bind@$0A@XV<lambda_a5b0efdf5ad7d873a596f4e45feb52e1>@@$$$V@std@@@std@@YA$$QAV?$_Bind@$0A@XV<lambda_a5b0efdf5ad7d873a596f4e45feb52e1>@@$$$V@0@AAV10@@Z 1014ccc0 f i BNC_HtmlBrowserClient.obj
 0002:00089d00       ??$forward@V?$tuple@$$$V@std@@@std@@YA$$QAV?$tuple@$$$V@0@AAV10@@Z 1014cd00 f i BNC_HtmlBrowserClient.obj
 0002:00089d40       ??$tie@$$$V@std@@YA?AV?$tuple@$$$V@0@XZ 1014cd40 f i BNC_HtmlBrowserClient.obj
 0002:00089df0       ??0?$_Bind@$0A@XV<lambda_a5b0efdf5ad7d873a596f4e45feb52e1>@@$$$V@std@@QAE@$$QAV01@@Z 1014cdf0 f i BNC_HtmlBrowserClient.obj
 0002:00089e80       ??0?$tuple@$$$V@std@@QAE@ABV01@@Z 1014ce80 f i BNC_HtmlBrowserClient.obj
 0002:00089ec0       ??0?$tuple@$$$V@std@@QAE@XZ 1014cec0 f i BNC_HtmlBrowserClient.obj
 0002:00089f00       ??0BNC_HtmlBrowserClient@@IAE@XZ 1014cf00 f   BNC_HtmlBrowserClient.obj
 0002:0008a060       ??0BNS_HtmlLinkMove@@QAE@XZ 1014d060 f i BNC_HtmlBrowserClient.obj
 0002:0008a110       ??1?$_LaunchPad@V?$_Bind@$0A@XV<lambda_a5b0efdf5ad7d873a596f4e45feb52e1>@@$$$V@std@@@std@@QAE@XZ 1014d110 f i BNC_HtmlBrowserClient.obj
 0002:0008a170       ??1BNC_HtmlBrowserClient@@MAE@XZ 1014d170 f   BNC_HtmlBrowserClient.obj
 0002:0008a280       ??1thread@std@@QAE@XZ      1014d280 f i BNC_HtmlBrowserClient.obj
 0002:0008a2f0       ??9ATL@@YA_NABV?$CStringT@_WV?$StrTraitMFC_DLL@_WV?$ChTraitsCRT@_W@ATL@@@@@0@0@Z 1014d2f0 f i BNC_HtmlBrowserClient.obj
 0002:0008a520       ??_EBNC_HtmlBrowserClient@@MAEPAXI@Z 1014d520 f i BNC_HtmlBrowserClient.obj
 0002:0008a5e0       ??_GBNC_HtmlBrowserClient@@MAEPAXI@Z 1014d5e0 f i BNC_HtmlBrowserClient.obj
 0002:0008a650       ?AssertValid@BNC_HtmlBrowserClient@@UBEXXZ 1014d650 f   BNC_HtmlBrowserClient.obj
 0002:0008a6a0       ?DoDataExchange@BNC_HtmlBrowserClient@@MAEXPAVCDataExchange@@@Z 1014d6a0 f   BNC_HtmlBrowserClient.obj
 0002:0008a700       ?Dump@BNC_HtmlBrowserClient@@UBEXAAVCDumpContext@@@Z 1014d700 f   BNC_HtmlBrowserClient.obj
 0002:0008a760       ?GetMessageMap@BNC_HtmlBrowserClient@@MBEPBUAFX_MSGMAP@@XZ 1014d760 f   BNC_HtmlBrowserClient.obj
 0002:0008a7b0       ?GetRefererURL@BNC_HtmlBrowserClient@@SA?AV?$CStringT@_WV?$StrTraitMFC_DLL@_WV?$ChTraitsCRT@_W@ATL@@@@@ATL@@V23@@Z 1014d7b0 f   BNC_HtmlBrowserClient.obj
 0002:0008abb0       ?GetRuntimeClass@BNC_HtmlBrowserClient@@UBEPAUCRuntimeClass@@XZ 1014dbb0 f   BNC_HtmlBrowserClient.obj
 0002:0008abf0       ?GetThisClass@BNC_HtmlBrowserClient@@SGPAUCRuntimeClass@@XZ 1014dbf0 f   BNC_HtmlBrowserClient.obj
 0002:0008ac30       ?GetThisMessageMap@BNC_HtmlBrowserClient@@KGPBUAFX_MSGMAP@@XZ 1014dc30 f   BNC_HtmlBrowserClient.obj
 0002:0008ac70       ?GetTitle@BNC_HtmlBrowserClient@@QAE?AV?$CStringT@_WV?$StrTraitMFC_DLL@_WV?$ChTraitsCRT@_W@ATL@@@@@ATL@@XZ 1014dc70 f   BNC_HtmlBrowserClient.obj
 0002:0008ad50       ?GetURL@BNC_HtmlBrowserClient@@QAE?AV?$CStringT@_WV?$StrTraitMFC_DLL@_WV?$ChTraitsCRT@_W@ATL@@@@@ATL@@XZ 1014dd50 f   BNC_HtmlBrowserClient.obj
 0002:0008ade0       ?Navigation@BNC_HtmlBrowserClient@@QAEXIV?$CStringT@_WV?$StrTraitMFC_DLL@_WV?$ChTraitsCRT@_W@ATL@@@@@ATL@@@Z 1014dde0 f   BNC_HtmlBrowserClient.obj
 0002:0008af90       ?OnAmbientProperty@BNC_HtmlBrowserClient@@UAEHPAVCOleControlSite@@JPAUtagVARIANT@@@Z 1014df90 f   BNC_HtmlBrowserClient.obj
 0002:0008b030       ?OnBeforeNavigate2@BNC_HtmlBrowserClient@@UAEXPB_WK0AAVCByteArray@@0PAH@Z 1014e030 f   BNC_HtmlBrowserClient.obj
 0002:0008b340       ?OnCommandStateChange@BNC_HtmlBrowserClient@@UAEXJH@Z 1014e340 f   BNC_HtmlBrowserClient.obj
 0002:0008b3a0       ?OnDocumentComplete@BNC_HtmlBrowserClient@@UAEXPB_W@Z 1014e3a0 f   BNC_HtmlBrowserClient.obj
 0002:0008b440       ?OnDownloadBegin@BNC_HtmlBrowserClient@@UAEXXZ 1014e440 f   BNC_HtmlBrowserClient.obj
 0002:0008b490       ?OnDownloadComplete@BNC_HtmlBrowserClient@@UAEXXZ 1014e490 f   BNC_HtmlBrowserClient.obj
 0002:0008b4e0       ?OnFullScreen@BNC_HtmlBrowserClient@@UAEXH@Z 1014e4e0 f   BNC_HtmlBrowserClient.obj
 0002:0008b540       ?OnMenuBar@BNC_HtmlBrowserClient@@UAEXH@Z 1014e540 f   BNC_HtmlBrowserClient.obj
 0002:0008b5a0       ?OnNavigateComplete2@BNC_HtmlBrowserClient@@UAEXPB_W@Z 1014e5a0 f   BNC_HtmlBrowserClient.obj
 0002:0008b810       ?OnNavigateError@BNC_HtmlBrowserClient@@UAEXPB_W0KPAH@Z 1014e810 f   BNC_HtmlBrowserClient.obj
 0002:0008ba00       ?OnNewWindow2@BNC_HtmlBrowserClient@@UAEXPAPAUIDispatch@@PAH@Z 1014ea00 f   BNC_HtmlBrowserClient.obj
 0002:0008bc20       ?OnProgressChange@BNC_HtmlBrowserClient@@UAEXJJ@Z 1014ec20 f   BNC_HtmlBrowserClient.obj
 0002:0008bc80       ?OnPropertyChange@BNC_HtmlBrowserClient@@UAEXPB_W@Z 1014ec80 f   BNC_HtmlBrowserClient.obj
 0002:0008bce0       ?OnQuit@BNC_HtmlBrowserClient@@UAEXXZ 1014ece0 f   BNC_HtmlBrowserClient.obj
 0002:0008bd70       ?OnStatusBar@BNC_HtmlBrowserClient@@UAEXH@Z 1014ed70 f   BNC_HtmlBrowserClient.obj
 0002:0008bdd0       ?OnStatusTextChange@BNC_HtmlBrowserClient@@UAEXPB_W@Z 1014edd0 f   BNC_HtmlBrowserClient.obj
 0002:0008be30       ?OnTheaterMode@BNC_HtmlBrowserClient@@UAEXH@Z 1014ee30 f   BNC_HtmlBrowserClient.obj
 0002:0008be90       ?OnTitleChange@BNC_HtmlBrowserClient@@UAEXPB_W@Z 1014ee90 f   BNC_HtmlBrowserClient.obj
 0002:0008c090       ?OnToolBar@BNC_HtmlBrowserClient@@UAEXH@Z 1014f090 f   BNC_HtmlBrowserClient.obj
 0002:0008c0f0       ?OnVisible@BNC_HtmlBrowserClient@@UAEXH@Z 1014f0f0 f   BNC_HtmlBrowserClient.obj
 0002:0008c190       ?PostNcDestroy@BNC_HtmlBrowserClient@@UAEXXZ 1014f190 f   BNC_HtmlBrowserClient.obj
 0002:0008c220       ?PreTranslateMessage@BNC_HtmlBrowserClient@@UAEHPAUtagMSG@@@Z 1014f220 f   BNC_HtmlBrowserClient.obj
 0002:0008c2b0       ?SetNotify@BNC_HtmlBrowserClient@@QAEXPAUHWND__@@@Z 1014f2b0 f   BNC_HtmlBrowserClient.obj
 0002:0008c300       ?_Go@?$_LaunchPad@V?$_Bind@$0A@XV<lambda_a5b0efdf5ad7d873a596f4e45feb52e1>@@$$$V@std@@@std@@UAEIXZ 1014f300 f i BNC_HtmlBrowserClient.obj
 0002:0008c360       ?_Run@?$_LaunchPad@V?$_Bind@$0A@XV<lambda_a5b0efdf5ad7d873a596f4e45feb52e1>@@$$$V@std@@@std@@CAIPAV12@@Z 1014f360 f i BNC_HtmlBrowserClient.obj
 0002:0008c440       ?_Thrd_detachX@std@@YAHU_Thrd_imp_t@@@Z 1014f440 f i BNC_HtmlBrowserClient.obj
 0002:0008c4b0       ?__autoclassinit2@?$_Bind@$0A@XV<lambda_a5b0efdf5ad7d873a596f4e45feb52e1>@@$$$V@std@@QAEXI@Z 1014f4b0 f i BNC_HtmlBrowserClient.obj
 0002:0008c510       ?__autoclassinit2@?$_LaunchPad@V?$_Bind@$0A@XV<lambda_a5b0efdf5ad7d873a596f4e45feb52e1>@@$$$V@std@@@std@@QAEXI@Z 1014f510 f i BNC_HtmlBrowserClient.obj
 0002:0008c570       ?accHitTest@CFormView@@UAEJJJPAUtagVARIANT@@@Z 1014f570 f i BNC_HtmlBrowserClient.obj
 0002:0008c5d0       ?accLocation@CFormView@@UAEJPAJ000UtagVARIANT@@@Z 1014f5d0 f i BNC_HtmlBrowserClient.obj
 0002:0008c660       ?detach@thread@std@@QAEXXZ 1014f660 f i BNC_HtmlBrowserClient.obj
 0002:0008c700       ?get_accChild@CFormView@@UAEJUtagVARIANT@@PAPAUIDispatch@@@Z 1014f700 f i BNC_HtmlBrowserClient.obj
 0002:0008c780       ?get_accChildCount@CFormView@@UAEJPAJ@Z 1014f780 f i BNC_HtmlBrowserClient.obj
 0002:0008c7e0       ?get_accName@CFormView@@UAEJUtagVARIANT@@PAPA_W@Z 1014f7e0 f i BNC_HtmlBrowserClient.obj
 0002:0008c860       ?joinable@thread@std@@QBE_NXZ 1014f860 f i BNC_HtmlBrowserClient.obj
 0002:0008c8d0       ?_GetBaseClass@BNC_HtmlBrowserFrame@@KGPAUCRuntimeClass@@XZ 1014f8d0 f   BNC_HtmlBrowserFrame.obj
 0002:0008c920       ?CreateObject@BNC_HtmlBrowserFrame@@SGPAVCObject@@XZ 1014f920 f   BNC_HtmlBrowserFrame.obj
 0002:0008ca20       ??0BNC_HtmlBrowserFrame@@IAE@XZ 1014fa20 f   BNC_HtmlBrowserFrame.obj
 0002:0008caf0       ??1BNC_HtmlBrowserFrame@@MAE@XZ 1014faf0 f   BNC_HtmlBrowserFrame.obj
 0002:0008cbb0       ??_EBNC_HtmlBrowserFrame@@MAEPAXI@Z 1014fbb0 f i BNC_HtmlBrowserFrame.obj
 0002:0008cc70       ??_GBNC_HtmlBrowserFrame@@MAEPAXI@Z 1014fc70 f i BNC_HtmlBrowserFrame.obj
 0002:0008cce0       ?GetMessageMap@BNC_HtmlBrowserFrame@@MBEPBUAFX_MSGMAP@@XZ 1014fce0 f   BNC_HtmlBrowserFrame.obj
 0002:0008cd30       ?GetRuntimeClass@BNC_HtmlBrowserFrame@@UBEPAUCRuntimeClass@@XZ 1014fd30 f   BNC_HtmlBrowserFrame.obj
 0002:0008cd70       ?GetThisClass@BNC_HtmlBrowserFrame@@SGPAUCRuntimeClass@@XZ 1014fd70 f   BNC_HtmlBrowserFrame.obj
 0002:0008cdb0       ?GetThisMessageMap@BNC_HtmlBrowserFrame@@KGPBUAFX_MSGMAP@@XZ 1014fdb0 f   BNC_HtmlBrowserFrame.obj
 0002:0008cdf0       ?GetTrackingID@CFrameWnd@@UAEIXZ 1014fdf0 f i BNC_HtmlBrowserFrame.obj
 0002:0008ce30       ?__autoclassinit2@BNC_HtmlBrowserFrame@@QAEXI@Z 1014fe30 f i BNC_HtmlBrowserFrame.obj
 0002:0008ce90       ?_GetBaseClass@BNC_HtmlBrowserThread@@KGPAUCRuntimeClass@@XZ 1014fe90 f   BNC_HtmlBrowserThread.obj
 0002:0008cee0       ?CreateObject@BNC_HtmlBrowserThread@@SGPAVCObject@@XZ 1014fee0 f   BNC_HtmlBrowserThread.obj
 0002:0008cfd0       ?OnMsgInitialize@BNC_HtmlBrowserThread@@AAEXIJ@Z 1014ffd0 f   BNC_HtmlBrowserThread.obj
 0002:0008d1d0       ?OnMsgRelease@BNC_HtmlBrowserThread@@AAEXIJ@Z 101501d0 f   BNC_HtmlBrowserThread.obj
 0002:0008d370       ?OnMsgNavigation@BNC_HtmlBrowserThread@@AAEXIJ@Z 10150370 f   BNC_HtmlBrowserThread.obj
 0002:0008d5c0       ?OnMsgNavigationEnd@BNC_HtmlBrowserThread@@AAEXIJ@Z 101505c0 f   BNC_HtmlBrowserThread.obj
 0002:0008d640       ?OnMsgUpdateView@BNC_HtmlBrowserThread@@AAEXIJ@Z 10150640 f   BNC_HtmlBrowserThread.obj
 0002:0008d8f0       ??0BNC_HtmlBrowserThread@@IAE@XZ 101508f0 f   BNC_HtmlBrowserThread.obj
 0002:0008d9f0       ??1AFX_EXCEPTION_LINK@@QAE@XZ 101509f0 f i BNC_HtmlBrowserThread.obj
 0002:0008da40       ??1BNC_HtmlBrowserThread@@MAE@XZ 10150a40 f   BNC_HtmlBrowserThread.obj
 0002:0008db20       ??_EBNC_HtmlBrowserThread@@MAEPAXI@Z 10150b20 f i BNC_HtmlBrowserThread.obj
 0002:0008dbe0       ??_GBNC_HtmlBrowserThread@@MAEPAXI@Z 10150be0 f i BNC_HtmlBrowserThread.obj
 0002:0008dc50       ?DestroyView@BNC_HtmlBrowserThread@@AAEXXZ 10150c50 f   BNC_HtmlBrowserThread.obj
 0002:0008dd40       ?ExitInstance@BNC_HtmlBrowserThread@@UAEHXZ 10150d40 f   BNC_HtmlBrowserThread.obj
 0002:0008dda0       ?GetMessageMap@BNC_HtmlBrowserThread@@MBEPBUAFX_MSGMAP@@XZ 10150da0 f   BNC_HtmlBrowserThread.obj
 0002:0008ddf0       ?GetRuntimeClass@BNC_HtmlBrowserThread@@UBEPAUCRuntimeClass@@XZ 10150df0 f   BNC_HtmlBrowserThread.obj
 0002:0008de30       ?GetThisClass@BNC_HtmlBrowserThread@@SGPAUCRuntimeClass@@XZ 10150e30 f   BNC_HtmlBrowserThread.obj
 0002:0008de70       ?GetThisMessageMap@BNC_HtmlBrowserThread@@KGPBUAFX_MSGMAP@@XZ 10150e70 f   BNC_HtmlBrowserThread.obj
 0002:0008deb0       ?GetTitle@BNC_HtmlBrowserThread@@QAE?AV?$CStringT@_WV?$StrTraitMFC_DLL@_WV?$ChTraitsCRT@_W@ATL@@@@@ATL@@XZ 10150eb0 f   BNC_HtmlBrowserThread.obj
 0002:0008df70       ?GetURL@BNC_HtmlBrowserThread@@QAE?AV?$CStringT@_WV?$StrTraitMFC_DLL@_WV?$ChTraitsCRT@_W@ATL@@@@@ATL@@XZ 10150f70 f   BNC_HtmlBrowserThread.obj
 0002:0008e030       ?InitInstance@BNC_HtmlBrowserThread@@UAEHXZ 10151030 f   BNC_HtmlBrowserThread.obj
 0002:0008e070       ?OnIdle@BNC_HtmlBrowserThread@@UAEHJ@Z 10151070 f   BNC_HtmlBrowserThread.obj
 0002:0008e0b0       ?PreDestroyView@BNC_HtmlBrowserThread@@QAEXXZ 101510b0 f   BNC_HtmlBrowserThread.obj
 0002:0008e140       ?OnDestroy@BNC_RefListView@@QAEXXZ 10151140 f   BNC_RefListView.obj
 0002:0008e190       ?OnMouseWheel@BNC_RefListView@@QAEHIFVCPoint@@@Z 10151190 f   BNC_RefListView.obj
 0002:0008e240       ??0BNC_RefListView@@QAE@XZ 10151240 f   BNC_RefListView.obj
 0002:0008e3b0       ??1BNC_RefListView@@UAE@XZ 101513b0 f   BNC_RefListView.obj
 0002:0008e4a0       ??_EBNC_RefListView@@UAEPAXI@Z 101514a0 f i BNC_RefListView.obj
 0002:0008e560       ??_GBNC_RefListView@@UAEPAXI@Z 10151560 f i BNC_RefListView.obj
 0002:0008e5d0       ?ClearItem@BNC_RefListView@@QAEX_N@Z 101515d0 f   BNC_RefListView.obj
 0002:0008e640       ?DeleteItemFromIndex@BNC_RefListView@@QAEHI_N@Z 10151640 f   BNC_RefListView.obj
 0002:0008e6d0       ?DeleteItemFromKey@BNC_RefListView@@QAEHV?$CStringT@_WV?$StrTraitMFC_DLL@_WV?$ChTraitsCRT@_W@ATL@@@@@ATL@@I_N1@Z 101516d0 f   BNC_RefListView.obj
 0002:0008e810       ?DeleteItemFromPtr@BNC_RefListView@@QAEHPBVBNC_ReferenceItem@@I_N@Z 10151810 f   BNC_RefListView.obj
 0002:0008e8a0       ?DeleteItemFromSequnece@BNC_RefListView@@QAEHII_N@Z 101518a0 f   BNC_RefListView.obj
 0002:0008e930       ?EnableItemIdx@BNC_RefListView@@QAEXI_N0@Z 10151930 f   BNC_RefListView.obj
 0002:0008e9a0       ?EnableItemPtr@BNC_RefListView@@QAEXPAVBNC_ReferenceItem@@_N1@Z 101519a0 f   BNC_RefListView.obj
 0002:0008ea10       ?GetDeferChildCount@BNC_RefListView@@UAEIXZ 10151a10 f   BNC_RefListView.obj
 0002:0008ea70       ?GetItemCount@BNC_RefListView@@QAEHXZ 10151a70 f   BNC_RefListView.obj
 0002:0008ead0       ?GetItemList@BNC_RefListView@@QAE_NAAV?$vector@PAVBNC_ReferenceItem@@V?$allocator@PAVBNC_ReferenceItem@@@std@@@std@@@Z 10151ad0 f   BNC_RefListView.obj
 0002:0008eb30       ?GetItemPtr@BNC_RefListView@@QAEPAVBNC_ReferenceItem@@I@Z 10151b30 f   BNC_RefListView.obj
 0002:0008eb90       ?GetItemPtr@BNC_RefListView@@QAEPAVBNC_ReferenceItem@@V?$CStringT@_WV?$StrTraitMFC_DLL@_WV?$ChTraitsCRT@_W@ATL@@@@@ATL@@@Z 10151b90 f   BNC_RefListView.obj
 0002:0008ec60       ?GetMessageMap@BNC_RefListView@@MBEPBUAFX_MSGMAP@@XZ 10151c60 f   BNC_RefListView.obj
 0002:0008ecb0       ?GetSelectItem@BNC_RefListView@@QAEPAVBNC_ReferenceItem@@XZ 10151cb0 f   BNC_RefListView.obj
 0002:0008ed10       ?GetThisMessageMap@BNC_RefListView@@KGPBUAFX_MSGMAP@@XZ 10151d10 f   BNC_RefListView.obj
 0002:0008ed50       ?GetVerticalScrollCtl@BNC_RefListView@@QAEPBVBNC_SimpleVScrollbar@@XZ 10151d50 f   BNC_RefListView.obj
 0002:0008ed90       ?Insert@BNC_RefListView@@QAEHV?$CStringT@_WV?$StrTraitMFC_DLL@_WV?$ChTraitsCRT@_W@ATL@@@@@ATL@@PBXAAVBNC_ReferenceItem@@_N@Z 10151d90 f   BNC_RefListView.obj
 0002:0008ee90       ?IsItemIdxEnable@BNC_RefListView@@QAE_NI@Z 10151e90 f   BNC_RefListView.obj
 0002:0008eef0       ?IsItemPtrEnable@BNC_RefListView@@QAE_NPAVBNC_ReferenceItem@@@Z 10151ef0 f   BNC_RefListView.obj
 0002:0008ef50       ?ModifySortString@BNC_RefListView@@QAE_NPB_WI0@Z 10151f50 f   BNC_RefListView.obj
 0002:0008efc0       ?OnCreate@BNC_RefListView@@MAE_NXZ 10151fc0 f   BNC_RefListView.obj
 0002:0008f110       ?OnDraw@BNC_RefListView@@MAE_NPAVCDC@@0@Z 10152110 f   BNC_RefListView.obj
 0002:0008f150       ?OnDrawNoData@BNC_RefListView@@UAEXPAVCDC@@0@Z 10152150 f   BNC_RefListView.obj
 0002:0008f2d0       ?OnMessageList@BNC_RefListView@@MAEJIJ@Z 101522d0 f   BNC_RefListView.obj
 0002:0008f310       ?OnMessageScroll@BNC_RefListView@@MAEJIJ@Z 10152310 f   BNC_RefListView.obj
 0002:0008f390       ?OnNotifyKeyDown@BNC_RefListView@@UAE_NI@Z 10152390 f   BNC_RefListView.obj
 0002:0008f410       ?OnNotifyMouseWheel@BNC_RefListView@@UAEXIF@Z 10152410 f   BNC_RefListView.obj
 0002:0008f4a0       ?OnRedraw@BNC_RefListView@@UAEX_N@Z 101524a0 f   BNC_RefListView.obj
 0002:0008f510       ?OnUpdateClient@BNC_RefListView@@MAEXHH@Z 10152510 f   BNC_RefListView.obj
 0002:0008f590       ?RedrawItem@BNC_RefListView@@QAEXPAVBNC_ReferenceItem@@@Z 10152590 f   BNC_RefListView.obj
 0002:0008f600       ?RedrawItem@BNC_RefListView@@QAEXV?$CStringT@_WV?$StrTraitMFC_DLL@_WV?$ChTraitsCRT@_W@ATL@@@@@ATL@@@Z 10152600 f   BNC_RefListView.obj
 0002:0008f710       ?ResetMouseRectIndex@BNC_RefListView@@QAEXPAVBNC_ReferenceItem@@_N@Z 10152710 f   BNC_RefListView.obj
 0002:0008f780       ?SetListScroll@BNC_RefListView@@QAEXH@Z 10152780 f   BNC_RefListView.obj
 0002:0008f860       ?SetSelectItem@BNC_RefListView@@QAEHV?$CStringT@_WV?$StrTraitMFC_DLL@_WV?$ChTraitsCRT@_W@ATL@@@@@ATL@@_N@Z 10152860 f   BNC_RefListView.obj
 0002:0008fa80       ?SetSyncRectWindow@BNC_RefListView@@QAEXPAVBNC_BaseClient@@PAVBNC_ReferenceItem@@I@Z 10152a80 f   BNC_RefListView.obj
 0002:0008fb60       ?SetUseStaySelect@BNC_RefListView@@QAEX_N@Z 10152b60 f   BNC_RefListView.obj
 0002:0008fbb0       ?SortSequence@BNC_RefListView@@QAEX_N@Z 10152bb0 f   BNC_RefListView.obj
 0002:0008fc20       ?SortString@BNC_RefListView@@QAEXI_NH0@Z 10152c20 f   BNC_RefListView.obj
 0002:0008fca0       ?UpdateAfterInsert@BNC_RefListView@@QAEXH_N0@Z 10152ca0 f   BNC_RefListView.obj
 0002:0008fd30       ?UpdateControl@BNC_RefListView@@UAEXHH_N@Z 10152d30 f   BNC_RefListView.obj
 0002:000901d0       ?UpdateOnlyVisibleIndex@BNC_RefListView@@QAEXXZ 101531d0 f   BNC_RefListView.obj
 0002:00090270       ?UpdateScroll@BNC_RefListView@@QAEXXZ 10153270 f   BNC_RefListView.obj
 0002:00090330       ?OnDestroy@BNC_RefListViewEx@@QAEXXZ 10153330 f   BNC_RefListViewEx.obj
 0002:00090380       ?OnMouseWheel@BNC_RefListViewEx@@QAEHIFVCPoint@@@Z 10153380 f   BNC_RefListViewEx.obj
 0002:00090430       ?OnSetFocus@BNC_RefListViewEx@@QAEXPAVCWnd@@@Z 10153430 f   BNC_RefListViewEx.obj
 0002:000904a0       ??0BNC_RefListViewEx@@QAE@XZ 101534a0 f   BNC_RefListViewEx.obj
 0002:00090660       ??1BNC_RefListViewEx@@UAE@XZ 10153660 f   BNC_RefListViewEx.obj
 0002:00090750       ??_EBNC_RefListViewEx@@UAEPAXI@Z 10153750 f i BNC_RefListViewEx.obj
 0002:00090810       ??_GBNC_RefListViewEx@@UAEPAXI@Z 10153810 f i BNC_RefListViewEx.obj
 0002:00090880       ?ClearItem@BNC_RefListViewEx@@QAEX_N@Z 10153880 f   BNC_RefListViewEx.obj
 0002:000908f0       ?DeleteItemFromIndex@BNC_RefListViewEx@@QAEHI_N@Z 101538f0 f   BNC_RefListViewEx.obj
 0002:00090980       ?DeleteItemFromKey@BNC_RefListViewEx@@QAEHV?$CStringT@_WV?$StrTraitMFC_DLL@_WV?$ChTraitsCRT@_W@ATL@@@@@ATL@@I_N1@Z 10153980 f   BNC_RefListViewEx.obj
 0002:00090ac0       ?DeleteItemFromPtr@BNC_RefListViewEx@@QAEHPBVBNC_ReferenceItemEx@@I_N@Z 10153ac0 f   BNC_RefListViewEx.obj
 0002:00090b50       ?DeleteItemFromSequnece@BNC_RefListViewEx@@QAEHII_N@Z 10153b50 f   BNC_RefListViewEx.obj
 0002:00090be0       ?GetDeferChildCount@BNC_RefListViewEx@@UAEIXZ 10153be0 f   BNC_RefListViewEx.obj
 0002:00090c40       ?GetEndScroll@BNC_RefListViewEx@@QAEIXZ 10153c40 f   BNC_RefListViewEx.obj
 0002:00090ca0       ?GetItemPtr@BNC_RefListViewEx@@IAEPBVBNC_ReferenceItemEx@@I@Z 10153ca0 f   BNC_RefListViewEx.obj
 0002:00090d00       ?GetItemPtr@BNC_RefListViewEx@@IAEPBVBNC_ReferenceItemEx@@V?$CStringT@_WV?$StrTraitMFC_DLL@_WV?$ChTraitsCRT@_W@ATL@@@@@ATL@@@Z 10153d00 f   BNC_RefListViewEx.obj
 0002:00090dd0       ?GetListScroll@BNC_RefListViewEx@@QAEIXZ 10153dd0 f   BNC_RefListViewEx.obj
 0002:00090e30       ?GetMessageMap@BNC_RefListViewEx@@MBEPBUAFX_MSGMAP@@XZ 10153e30 f   BNC_RefListViewEx.obj
 0002:00090e80       ?GetThisMessageMap@BNC_RefListViewEx@@KGPBUAFX_MSGMAP@@XZ 10153e80 f   BNC_RefListViewEx.obj
 0002:00090ec0       ?Insert@BNC_RefListViewEx@@QAEHAAV?$CStringT@_WV?$StrTraitMFC_DLL@_WV?$ChTraitsCRT@_W@ATL@@@@@ATL@@PAXAAVBNC_ReferenceItemEx@@_N3@Z 10153ec0 f   BNC_RefListViewEx.obj
 0002:00090f60       ?IsEndScroll@BNC_RefListViewEx@@QAE_NXZ 10153f60 f   BNC_RefListViewEx.obj
 0002:00090fc0       ?OnCreate@BNC_RefListViewEx@@MAE_NXZ 10153fc0 f   BNC_RefListViewEx.obj
 0002:00091110       ?OnDraw@BNC_RefListViewEx@@MAE_NPAVCDC@@0@Z 10154110 f   BNC_RefListViewEx.obj
 0002:00091150       ?OnDrawNoData@BNC_RefListViewEx@@UAEXPAVCDC@@0@Z 10154150 f   BNC_RefListViewEx.obj
 0002:00091260       ?OnDrawTextInfo@@YA_NPAVCFont@@KKKKK@Z 10154260 f   BNC_RefListViewEx.obj
 0002:00091290       ?OnMessageList@BNC_RefListViewEx@@MAEJIJ@Z 10154290 f   BNC_RefListViewEx.obj
 0002:00091320       ?OnMessageScroll@BNC_RefListViewEx@@MAEJIJ@Z 10154320 f   BNC_RefListViewEx.obj
 0002:000913a0       ?OnNotifyKeyDown@BNC_RefListViewEx@@UAE_NI@Z 101543a0 f   BNC_RefListViewEx.obj
 0002:00091420       ?OnNotifyMouseWheel@BNC_RefListViewEx@@UAEXIF@Z 10154420 f   BNC_RefListViewEx.obj
 0002:000914b0       ?OnRedraw@BNC_RefListViewEx@@UAEX_N@Z 101544b0 f   BNC_RefListViewEx.obj
 0002:00091520       ?OnUpdateClient@BNC_RefListViewEx@@MAEXHH@Z 10154520 f   BNC_RefListViewEx.obj
 0002:000915a0       ?OnUpdatePopupStatus@BNC_RefListViewEx@@MAEXW4BNE_POPUP_STATUS@@@Z 101545a0 f   BNC_RefListViewEx.obj
 0002:00091690       ?PreTranslateMessage@BNC_RefListViewEx@@UAEHPAUtagMSG@@@Z 10154690 f   BNC_RefListViewEx.obj
 0002:000917c0       ?RedrawItem@BNC_RefListViewEx@@QAE_NV?$CStringT@_WV?$StrTraitMFC_DLL@_WV?$ChTraitsCRT@_W@ATL@@@@@ATL@@@Z 101547c0 f   BNC_RefListViewEx.obj
 0002:00091900       ?SetListScroll@BNC_RefListViewEx@@QAEXH@Z 10154900 f   BNC_RefListViewEx.obj
 0002:000919e0       ?SetSyncRectWindow@BNC_RefListViewEx@@QAEXPAVBNC_BaseClient@@PAVBNC_ReferenceItemEx@@I@Z 101549e0 f   BNC_RefListViewEx.obj
 0002:00091ac0       ?SortSequence@BNC_RefListViewEx@@QAEX_N@Z 10154ac0 f   BNC_RefListViewEx.obj
 0002:00091b30       ?SortString@BNC_RefListViewEx@@QAEXI_NH0@Z 10154b30 f   BNC_RefListViewEx.obj
 0002:00091bb0       ?UpdateAfterInsert@BNC_RefListViewEx@@QAEXH_N0@Z 10154bb0 f   BNC_RefListViewEx.obj
 0002:00091c60       ?UpdateControl@BNC_RefListViewEx@@MAEXHH_N@Z 10154c60 f   BNC_RefListViewEx.obj
 0002:00092200       ?UpdateScroll@BNC_RefListViewEx@@QAEXXZ 10155200 f   BNC_RefListViewEx.obj
 0002:000922c0       ?OnDestroy@BNC_RefTreeView@@QAEXXZ 101552c0 f   BNC_RefTreeView.obj
 0002:00092310       ?OnMouseWheel@BNC_RefTreeView@@QAEHIFVCPoint@@@Z 10155310 f   BNC_RefTreeView.obj
 0002:000923b0       ??0BNC_RefTreeView@@QAE@XZ 101553b0 f   BNC_RefTreeView.obj
 0002:00092560       ??1BNC_RefTreeView@@UAE@XZ 10155560 f   BNC_RefTreeView.obj
 0002:00092670       ??_EBNC_RefTreeView@@UAEPAXI@Z 10155670 f i BNC_RefTreeView.obj
 0002:00092730       ??_GBNC_RefTreeView@@UAEPAXI@Z 10155730 f i BNC_RefTreeView.obj
 0002:000927a0       ?ClearItem@BNC_RefTreeView@@QAEX_N@Z 101557a0 f   BNC_RefTreeView.obj
 0002:00092810       ?Delete@BNC_RefTreeView@@QAE_NV?$CStringT@_WV?$StrTraitMFC_DLL@_WV?$ChTraitsCRT@_W@ATL@@@@@ATL@@_N@Z 10155810 f   BNC_RefTreeView.obj
 0002:00092940       ?ExtendItem@BNC_RefTreeView@@QAE_NPAVBNC_ReferenceItem@@_N1@Z 10155940 f   BNC_RefTreeView.obj
 0002:000929c0       ?ExtendItem@BNC_RefTreeView@@QAE_NV?$CStringT@_WV?$StrTraitMFC_DLL@_WV?$ChTraitsCRT@_W@ATL@@@@@ATL@@_N1@Z 101559c0 f   BNC_RefTreeView.obj
 0002:00092ad0       ?GetDeferChildCount@BNC_RefTreeView@@UAEIXZ 10155ad0 f   BNC_RefTreeView.obj
 0002:00092b90       ?GetFileCount@BNC_RefTreeView@@QAEIXZ 10155b90 f   BNC_RefTreeView.obj
 0002:00092bf0       ?GetFolderCount@BNC_RefTreeView@@QAEIXZ 10155bf0 f   BNC_RefTreeView.obj
 0002:00092c50       ?GetItemPtr@BNC_RefTreeView@@IAEPAVBNC_ReferenceItem@@V?$CStringT@_WV?$StrTraitMFC_DLL@_WV?$ChTraitsCRT@_W@ATL@@@@@ATL@@@Z 10155c50 f   BNC_RefTreeView.obj
 0002:00092d20       ?GetMessageMap@BNC_RefTreeView@@MBEPBUAFX_MSGMAP@@XZ 10155d20 f   BNC_RefTreeView.obj
 0002:00092d70       ?GetRealTopPos@BNC_RefTreeView@@IAEHPBVBNC_ReferenceItem@@@Z 10155d70 f   BNC_RefTreeView.obj
 0002:00092dd0       ?GetThisMessageMap@BNC_RefTreeView@@KGPBUAFX_MSGMAP@@XZ 10155dd0 f   BNC_RefTreeView.obj
 0002:00092e10       ?Insert@BNC_RefTreeView@@QAE_N_NV?$CStringT@_WV?$StrTraitMFC_DLL@_WV?$ChTraitsCRT@_W@ATL@@@@@ATL@@1PAXAAVBNC_ReferenceItem@@00I@Z 10155e10 f   BNC_RefTreeView.obj
 0002:00092f50       ?IsEndScroll@BNC_RefTreeView@@QAE_NXZ 10155f50 f   BNC_RefTreeView.obj
 0002:00092fb0       ?OnCreate@BNC_RefTreeView@@MAE_NXZ 10155fb0 f   BNC_RefTreeView.obj
 0002:00093180       ?OnDraw@BNC_RefTreeView@@MAE_NPAVCDC@@0@Z 10156180 f   BNC_RefTreeView.obj
 0002:000931c0       ?OnDrawNoData@BNC_RefTreeView@@UAEXPAVCDC@@0@Z 101561c0 f   BNC_RefTreeView.obj
 0002:00093300       ?OnMessageScroll@BNC_RefTreeView@@MAEJIJ@Z 10156300 f   BNC_RefTreeView.obj
 0002:000933c0       ?OnMessageTree@BNC_RefTreeView@@MAEJIJ@Z 101563c0 f   BNC_RefTreeView.obj
 0002:00093400       ?OnNotifyKeyDown@BNC_RefTreeView@@UAE_NI@Z 10156400 f   BNC_RefTreeView.obj
 0002:00093480       ?OnNotifyMouseWheel@BNC_RefTreeView@@UAEXIF@Z 10156480 f   BNC_RefTreeView.obj
 0002:00093520       ?OnRedraw@BNC_RefTreeView@@UAEX_N@Z 10156520 f   BNC_RefTreeView.obj
 0002:00093590       ?OnUpdateClient@BNC_RefTreeView@@MAEXHH@Z 10156590 f   BNC_RefTreeView.obj
 0002:00093650       ?RedrawItem@BNC_RefTreeView@@QAEXV?$CStringT@_WV?$StrTraitMFC_DLL@_WV?$ChTraitsCRT@_W@ATL@@@@@ATL@@@Z 10156650 f   BNC_RefTreeView.obj
 0002:00093760       ?SetSelectItem@BNC_RefTreeView@@QAEHV?$CStringT@_WV?$StrTraitMFC_DLL@_WV?$ChTraitsCRT@_W@ATL@@@@@ATL@@_N@Z 10156760 f   BNC_RefTreeView.obj
 0002:00093990       ?SetSyncRectWindow@BNC_RefTreeView@@QAEXPAVBNC_BaseClient@@PAVBNC_ReferenceItem@@I@Z 10156990 f   BNC_RefTreeView.obj
 0002:00093a70       ?SetTreeScroll@BNC_RefTreeView@@QAEXH@Z 10156a70 f   BNC_RefTreeView.obj
 0002:00093ba0       ?SetUseStaySelect@BNC_RefTreeView@@QAEX_N@Z 10156ba0 f   BNC_RefTreeView.obj
 0002:00093bf0       ?SortString@BNC_RefTreeView@@QAEXPAVBNC_ReferenceItem@@I_N1H1@Z 10156bf0 f   BNC_RefTreeView.obj
 0002:00093c70       ?UpdateAfterInsert@BNC_RefTreeView@@QAEXPAVBNC_ReferenceItem@@_N1@Z 10156c70 f   BNC_RefTreeView.obj
 0002:00093cf0       ?UpdateControl@BNC_RefTreeView@@MAEXHH_N@Z 10156cf0 f   BNC_RefTreeView.obj
 0002:00094180       ?UpdateControlEx@BNC_RefTreeView@@IAEXHH_N@Z 10157180 f   BNC_RefTreeView.obj
 0002:000945e0       ?UpdateScroll@BNC_RefTreeView@@QAEXXZ 101575e0 f   BNC_RefTreeView.obj
 0002:00094740       ??0?$CAtlArray@V?$CAutoPtr@D@ATL@@V?$CAutoPtrElementTraits@D@2@@ATL@@QAE@XZ 10157740 f i BNC_Base64Low.obj
 0002:000947b0       ??0?$CAtlArray@V?$CAutoPtr@_W@ATL@@V?$CAutoPtrElementTraits@_W@2@@ATL@@QAE@XZ 101577b0 f i BNC_Base64Low.obj
 0002:00094820       ??0?$CAutoPtrArray@D@ATL@@QAE@XZ 10157820 f i BNC_Base64Low.obj
 0002:00094880       ??0?$CAutoPtrArray@_W@ATL@@QAE@XZ 10157880 f i BNC_Base64Low.obj
 0002:000948e0       ??1?$CAtlArray@V?$CAutoPtr@D@ATL@@V?$CAutoPtrElementTraits@D@2@@ATL@@QAE@XZ 101578e0 f i BNC_Base64Low.obj
 0002:00094970       ??1?$CAtlArray@V?$CAutoPtr@_W@ATL@@V?$CAutoPtrElementTraits@_W@2@@ATL@@QAE@XZ 10157970 f i BNC_Base64Low.obj
 0002:00094a00       ??1?$CAutoPtr@D@ATL@@QAE@XZ 10157a00 f i BNC_Base64Low.obj
 0002:00094a50       ??1?$CAutoPtr@_W@ATL@@QAE@XZ 10157a50 f i BNC_Base64Low.obj
 0002:00094aa0       ??1?$CAutoPtrArray@D@ATL@@QAE@XZ 10157aa0 f i BNC_Base64Low.obj
 0002:00094af0       ??1?$CAutoPtrArray@_W@ATL@@QAE@XZ 10157af0 f i BNC_Base64Low.obj
 0002:00094b40       ??_G?$CAutoPtr@D@ATL@@QAEPAXI@Z 10157b40 f i BNC_Base64Low.obj
 0002:00094bb0       ??_G?$CAutoPtr@_W@ATL@@QAEPAXI@Z 10157bb0 f i BNC_Base64Low.obj
 0002:00094c20       ?CallDestructors@?$CAtlArray@V?$CAutoPtr@D@ATL@@V?$CAutoPtrElementTraits@D@2@@ATL@@CAXPAV?$CAutoPtr@D@2@I@Z 10157c20 f i BNC_Base64Low.obj
 0002:00094ca0       ?CallDestructors@?$CAtlArray@V?$CAutoPtr@_W@ATL@@V?$CAutoPtrElementTraits@_W@2@@ATL@@CAXPAV?$CAutoPtr@_W@2@I@Z 10157ca0 f i BNC_Base64Low.obj
 0002:00094d20       ?Decode@BNC_Base64Low@@SA_NAAV?$CStringT@_WV?$StrTraitMFC_DLL@_WV?$ChTraitsCRT@_W@ATL@@@@@ATL@@0@Z 10157d20 f   BNC_Base64Low.obj
 0002:000951d0       ?Encode@BNC_Base64Low@@SA_NAAV?$CStringT@_WV?$StrTraitMFC_DLL@_WV?$ChTraitsCRT@_W@ATL@@@@@ATL@@0@Z 101581d0 f   BNC_Base64Low.obj
 0002:00095660       ?Free@?$CAutoPtr@D@ATL@@QAEXXZ 10158660 f i BNC_Base64Low.obj
 0002:000956d0       ?Free@?$CAutoPtr@_W@ATL@@QAEXXZ 101586d0 f i BNC_Base64Low.obj
 0002:00095740       ?GetBase64Key@BNC_Base64Low@@CAHPADD@Z 10158740 f   BNC_Base64Low.obj
 0002:000957b0       ?__autoclassinit2@?$CAutoPtrArray@D@ATL@@QAEXI@Z 101587b0 f i BNC_Base64Low.obj
 0002:00095810       ?__autoclassinit2@?$CAutoPtrArray@_W@ATL@@QAEXI@Z 10158810 f i BNC_Base64Low.obj
 0002:00095870       ?base64_decode@BNC_Base64Low@@CAHPADPAEH@Z 10158870 f   BNC_Base64Low.obj
 0002:00095a50       ?base64_encode@BNC_Base64Low@@CAHPADHPAPAD@Z 10158a50 f   BNC_Base64Low.obj
 0002:00095e40       ??0BNC_BorderessProc@@QAE@XZ 10158e40 f   BNC_BorderessProc.obj
 0002:00095fb0       ??0CRect@@QAE@ABUtagRECT@@@Z 10158fb0 f i BNC_BorderessProc.obj
 0002:00096020       ??0CSize@@QAE@UtagPOINT@@@Z 10159020 f i BNC_BorderessProc.obj
 0002:00096070       ??1BNC_BorderessProc@@QAE@XZ 10159070 f   BNC_BorderessProc.obj
 0002:00096140       ??4CRect@@QAEXABUtagRECT@@@Z 10159140 f i BNC_BorderessProc.obj
 0002:000961b0       ??9CSize@@QBEHUtagSIZE@@@Z 101591b0 f i BNC_BorderessProc.obj
 0002:00096230       ??A?$vector@VCRect@@V?$allocator@VCRect@@@std@@@std@@QAEAAVCRect@@I@Z 10159230 f i BNC_BorderessProc.obj
 0002:00096350       ??BCRect@@QAEPAUtagRECT@@XZ 10159350 f i BNC_BorderessProc.obj
 0002:00096390       ?AssertValid@BNC_BorderessProc@@CA_NPAV1@PAUHWND__@@@Z 10159390 f   BNC_BorderessProc.obj
 0002:00096550       ?CheckState@BNC_BorderessProc@@QBE_NK@Z 10159550 f i BNC_BorderessProc.obj
 0002:000965c0       ?Clear@BNC_BorderessProc@@QAEXXZ 101595c0 f   BNC_BorderessProc.obj
 0002:00096900       ?DefWindowProcW@BNC_BorderessProc@@AAEJPAUHWND__@@IIJ@Z 10159900 f   BNC_BorderessProc.obj
 0002:000970a0       ?DrawTransparent@BNC_BorderessProc@@QAE_NPAVCDC@@PAVCRect@@@Z 1015a0a0 f   BNC_BorderessProc.obj
 0002:000970e0       ?GetAttribute@BNC_BorderessProc@@QAEPBUBNS_BorderessProcAttribute@@XZ 1015a0e0 f   BNC_BorderessProc.obj
 0002:00097120       ?GetHiddenFrameSize@BNC_BorderessProc@@QBEHXZ 1015a120 f   BNC_BorderessProc.obj
 0002:00097160       ?GetHitTest@BNC_BorderessProc@@AAEIABVCPoint@@@Z 1015a160 f   BNC_BorderessProc.obj
 0002:000972a0       ?GetHitTest@BNC_BorderessProc@@QAEIABVCPoint@@ABVCSize@@@Z 1015a2a0 f   BNC_BorderessProc.obj
 0002:00097300       ?GetHitTest@BNC_BorderessProc@@QAEIXZ 1015a300 f   BNC_BorderessProc.obj
 0002:00097340       ?Initialize@BNC_BorderessProc@@QAE_NPAUHWND__@@0PAUBNS_BorderessProcAttribute@@@Z 1015a340 f   BNC_BorderessProc.obj
 0002:000976e0       ?IsAutoHideBar@BNC_BorderessProc@@AAE_NIVCRect@@@Z 1015a6e0 f   BNC_BorderessProc.obj
 0002:00097840       ?IsEnable@BNC_BorderessProc@@QBE_NXZ 1015a840 f   BNC_BorderessProc.obj
 0002:000978a0       ?IsWindows8Point1OrGreater@@YA_NXZ 1015a8a0 f i BNC_BorderessProc.obj
 0002:000978f0       ?IsWindowsVersionOrGreater@@YA_NGGG@Z 1015a8f0 f i BNC_BorderessProc.obj
 0002:00097ae0       ?KeyboardProc@BNC_BorderessProc@@CGJHIJ@Z 1015aae0 f   BNC_BorderessProc.obj
 0002:00097be0       ?KeydownProcess@BNC_BorderessProc@@AAE_NK@Z 1015abe0 f   BNC_BorderessProc.obj
 0002:00097eb0       ?MouseProc@BNC_BorderessProc@@CGJHIJ@Z 1015aeb0 f   BNC_BorderessProc.obj
 0002:00098000       ?MouseProcess@BNC_BorderessProc@@AAE_NXZ 1015b000 f   BNC_BorderessProc.obj
 0002:00098040       ?OldWndProc@BNC_BorderessProc@@AAEJPAUHWND__@@IIJ@Z 1015b040 f   BNC_BorderessProc.obj
 0002:000980b0       ?OnCaptureChanged@BNC_BorderessProc@@AAEJPAUHWND__@@IIJ@Z 1015b0b0 f   BNC_BorderessProc.obj
 0002:00098150       ?OnDestroy@BNC_BorderessProc@@AAEJPAUHWND__@@IIJ@Z 1015b150 f   BNC_BorderessProc.obj
 0002:00098200       ?OnDwmColorizationColorChanged@BNC_BorderessProc@@AAEJPAUHWND__@@IIJ_N@Z 1015b200 f   BNC_BorderessProc.obj
 0002:00098340       ?OnDwmCompositionChanged@BNC_BorderessProc@@AAEJPAUHWND__@@IIJ_N1@Z 1015b340 f   BNC_BorderessProc.obj
 0002:000985f0       ?OnEraseBkgnd@BNC_BorderessProc@@AAEJPAUHWND__@@IIJ@Z 1015b5f0 f   BNC_BorderessProc.obj
 0002:00098970       ?OnGetMinMaxInfo@BNC_BorderessProc@@AAEJPAUHWND__@@IIJ@Z 1015b970 f   BNC_BorderessProc.obj
 0002:00098a20       ?OnLBtnDown@BNC_BorderessProc@@AAEJPAUHWND__@@IIJ@Z 1015ba20 f   BNC_BorderessProc.obj
 0002:00098de0       ?OnLBtnUp@BNC_BorderessProc@@AAEJPAUHWND__@@IIJ@Z 1015bde0 f   BNC_BorderessProc.obj
 0002:00098e90       ?OnLButtonDblClk@BNC_BorderessProc@@AAEJPAUHWND__@@IIJ@Z 1015be90 f   BNC_BorderessProc.obj
 0002:00098ff0       ?OnMouseMove@BNC_BorderessProc@@AAEJPAUHWND__@@IIJ@Z 1015bff0 f   BNC_BorderessProc.obj
 0002:000995a0       ?OnNcActivate@BNC_BorderessProc@@AAEJPAUHWND__@@IIJ@Z 1015c5a0 f   BNC_BorderessProc.obj
 0002:00099610       ?OnNcCalcSize@BNC_BorderessProc@@AAEJPAUHWND__@@IIJ@Z 1015c610 f   BNC_BorderessProc.obj
 0002:00099a00       ?OnNcHitTest@BNC_BorderessProc@@AAEJPAUHWND__@@IIJ@Z 1015ca00 f   BNC_BorderessProc.obj
 0002:00099b10       ?OnNcLBtnDown@BNC_BorderessProc@@AAEJPAUHWND__@@IIJ@Z 1015cb10 f   BNC_BorderessProc.obj
 0002:00099ba0       ?OnNcMouseMove@BNC_BorderessProc@@AAEJPAUHWND__@@IIJ@Z 1015cba0 f   BNC_BorderessProc.obj
 0002:00099c20       ?OnNcPaint@BNC_BorderessProc@@AAEJPAUHWND__@@IIJ@Z 1015cc20 f   BNC_BorderessProc.obj
 0002:00099cb0       ?OnPaint@BNC_BorderessProc@@AAEJPAUHWND__@@IIJ@Z 1015ccb0 f   BNC_BorderessProc.obj
 0002:00099da0       ?OnSetIcon@BNC_BorderessProc@@AAEJPAUHWND__@@IIJ@Z 1015cda0 f   BNC_BorderessProc.obj
 0002:00099eb0       ?OnSetText@BNC_BorderessProc@@AAEJPAUHWND__@@IIJ@Z 1015ceb0 f   BNC_BorderessProc.obj
 0002:00099f20       ?OnSizing@BNC_BorderessProc@@AAEJPAUHWND__@@IIJ@Z 1015cf20 f   BNC_BorderessProc.obj
 0002:00099f90       ?OnThemeChanged@BNC_BorderessProc@@AAEJPAUHWND__@@IIJ_N@Z 1015cf90 f   BNC_BorderessProc.obj
 0002:0009a050       ?OnWindowPosChanged@BNC_BorderessProc@@AAEJPAUHWND__@@IIJ@Z 1015d050 f   BNC_BorderessProc.obj
 0002:0009a2b0       ?OnWindowPosChanging@BNC_BorderessProc@@AAEJPAUHWND__@@IIJ@Z 1015d2b0 f   BNC_BorderessProc.obj
 0002:0009a3c0       ?PtOutMonitor@BNC_BorderessProc@@AAEHAAVCPoint@@H@Z 1015d3c0 f   BNC_BorderessProc.obj
 0002:0009a860       ?TransformNcCustomToDefault@BNC_BorderessProc@@AAE_NPAUHWND__@@AAVCPoint@@1@Z 1015d860 f   BNC_BorderessProc.obj
 0002:0009ab60       ?TransformNcDefaultToCustom@BNC_BorderessProc@@AAE_NPAUHWND__@@IIJ@Z 1015db60 f   BNC_BorderessProc.obj
 0002:0009af40       ?UpdateCursor@BNC_BorderessProc@@AAEXI@Z 1015df40 f   BNC_BorderessProc.obj
 0002:0009b1c0       ?UpdateHook@BNC_BorderessProc@@AAEX_N@Z 1015e1c0 f   BNC_BorderessProc.obj
 0002:0009b3a0       ?UpdateLayered@BNC_BorderessProc@@QAE_NE@Z 1015e3a0 f   BNC_BorderessProc.obj
 0002:0009b570       ?UpdateMouseCaption@BNC_BorderessProc@@QAEX_NH@Z 1015e570 f   BNC_BorderessProc.obj
 0002:0009b5c0       ?UpdateNonClientClick@BNC_BorderessProc@@AAEX_N@Z 1015e5c0 f   BNC_BorderessProc.obj
 0002:0009b880       ?UpdateRegion@BNC_BorderessProc@@AAEXXZ 1015e880 f   BNC_BorderessProc.obj
 0002:0009bb60       ?UpdateResizing@BNC_BorderessProc@@AAE_NVCPoint@@@Z 1015eb60 f   BNC_BorderessProc.obj
 0002:0009c320       ?UpdateState@BNC_BorderessProc@@AAEXHK@Z 1015f320 f i BNC_BorderessProc.obj
 0002:0009c390       ?WndProc@BNC_BorderessProc@@CGJPAUHWND__@@IIJ@Z 1015f390 f   BNC_BorderessProc.obj
 0002:0009c460       ?size@?$vector@VCRect@@V?$allocator@VCRect@@@std@@@std@@QBEIXZ 1015f460 f i BNC_BorderessProc.obj
 0002:0009c4b0       ??0BNC_CaptureKeyboardMouse@@QAE@XZ 1015f4b0 f   BNC_CaptureKeyboardMouse.obj
 0002:0009c590       ??1BNC_CaptureKeyboardMouse@@QAE@XZ 1015f590 f   BNC_CaptureKeyboardMouse.obj
 0002:0009c660       ?GetWheelValue@BNC_CaptureKeyboardMouse@@SAFF@Z 1015f660 f   BNC_CaptureKeyboardMouse.obj
 0002:0009c760       ?IsAvailable@BNC_CaptureKeyboardMouse@@QAE_NXZ 1015f760 f   BNC_CaptureKeyboardMouse.obj
 0002:0009c810       ?SendKeyDown@BNC_CaptureKeyboardMouse@@QAE_NIPAVBNC_BaseClient@@@Z 1015f810 f   BNC_CaptureKeyboardMouse.obj
 0002:0009c850       ?SendMouseWheel@BNC_CaptureKeyboardMouse@@QAE_NIFAAVCPoint@@PAVBNC_BaseClient@@@Z 1015f850 f   BNC_CaptureKeyboardMouse.obj
 0002:0009c890       ?SetCaptureClient@BNC_CaptureKeyboardMouse@@QAEXPAVBNC_BaseClient@@@Z 1015f890 f   BNC_CaptureKeyboardMouse.obj
 0002:0009c8e0       ??$AtlAddThrow@K@ATL@@YAKKK@Z 1015f8e0 f i BNC_ClipboardImage.obj
 0002:0009c9b0       ??0?$CAtlSafeAllocBufferManager@VCCRTAllocator@ATL@@@_ATL_SAFE_ALLOCA_IMPL@ATL@@QAE@XZ 1015f9b0 f i BNC_ClipboardImage.obj
 0002:0009ca00       ??0?$auto_ptr@VBitmap@Gdiplus@@@std@@QAE@PAVBitmap@Gdiplus@@@Z 1015fa00 f i BNC_ClipboardImage.obj
 0002:0009ca50       ??0BNC_ClipboardImage@@QAE@XZ 1015fa50 f   BNC_ClipboardImage.obj
 0002:0009cad0       ??0Bitmap@Gdiplus@@QAE@HHH@Z 1015fad0 f i BNC_ClipboardImage.obj
 0002:0009cc00       ??0Bitmap@Gdiplus@@QAE@HHHHPAE@Z 1015fc00 f i BNC_ClipboardImage.obj
 0002:0009cd40       ??0Bitmap@Gdiplus@@QAE@PAUHBITMAP__@@PAUHPALETTE__@@@Z 1015fd40 f i BNC_ClipboardImage.obj
 0002:0009ce70       ??0Bitmap@Gdiplus@@QAE@PBUtagBITMAPINFO@@PAX@Z 1015fe70 f i BNC_ClipboardImage.obj
 0002:0009cfa0       ??0CImage@ATL@@QAE@XZ      1015ffa0 f i BNC_ClipboardImage.obj
 0002:0009d0a0       ??0GdiplusStartupInput@Gdiplus@@QAE@P6GXW4DebugEventLevel@1@PAD@ZHH@Z 101600a0 f i BNC_ClipboardImage.obj
 0002:0009d110       ??0Image@Gdiplus@@IAE@PAVGpImage@1@W4Status@1@@Z 10160110 f i BNC_ClipboardImage.obj
 0002:0009d180       ??0Image@Gdiplus@@IAE@XZ   10160180 f i BNC_ClipboardImage.obj
 0002:0009d1d0       ??0Image@Gdiplus@@QAE@PAUIStream@@H@Z 101601d0 f i BNC_ClipboardImage.obj
 0002:0009d280       ??0Rect@Gdiplus@@QAE@HHHH@Z 10160280 f i BNC_ClipboardImage.obj
 0002:0009d2f0       ??1?$CAtlSafeAllocBufferManager@VCCRTAllocator@ATL@@@_ATL_SAFE_ALLOCA_IMPL@ATL@@QAE@XZ 101602f0 f i BNC_ClipboardImage.obj
 0002:0009d370       ??1?$auto_ptr@VBitmap@Gdiplus@@@std@@QAE@XZ 10160370 f i BNC_ClipboardImage.obj
 0002:0009d420       ??1BNC_ClipboardImage@@QAE@XZ 10160420 f   BNC_ClipboardImage.obj
 0002:0009d500       ??1Bitmap@Gdiplus@@UAE@XZ  10160500 f i BNC_ClipboardImage.obj
 0002:0009d550       ??1CImage@ATL@@UAE@XZ      10160550 f i BNC_ClipboardImage.obj
 0002:0009d5c0       ??1Image@Gdiplus@@UAE@XZ   101605c0 f i BNC_ClipboardImage.obj
 0002:0009d620       ??2GdiplusBase@Gdiplus@@SAPAXI@Z 10160620 f i BNC_ClipboardImage.obj
 0002:0009d670       ??3GdiplusBase@Gdiplus@@SAXPAX@Z 10160670 f i BNC_ClipboardImage.obj
 0002:0009d6c0       ??B?$CTraceCategoryEx@$0CAAA@$0A@@ATL@@QAEIXZ 101606c0 f i BNC_ClipboardImage.obj
 0002:0009d700       ??C?$auto_ptr@VBitmap@Gdiplus@@@std@@QBEPAVBitmap@Gdiplus@@XZ 10160700 f i BNC_ClipboardImage.obj
 0002:0009d790       ??_EBitmap@Gdiplus@@UAEPAXI@Z 10160790 f i BNC_ClipboardImage.obj
 0002:0009d790       ??_GBitmap@Gdiplus@@UAEPAXI@Z 10160790 f i BNC_ClipboardImage.obj
 0002:0009d800       ??_ECImage@ATL@@UAEPAXI@Z  10160800 f i BNC_ClipboardImage.obj
 0002:0009d800       ??_GCImage@ATL@@UAEPAXI@Z  10160800 f i BNC_ClipboardImage.obj
 0002:0009d870       ??_EImage@Gdiplus@@UAEPAXI@Z 10160870 f i BNC_ClipboardImage.obj
 0002:0009d870       ??_GImage@Gdiplus@@UAEPAXI@Z 10160870 f i BNC_ClipboardImage.obj
 0002:0009d8e0       ?Allocate@?$CAtlSafeAllocBufferManager@VCCRTAllocator@ATL@@@_ATL_SAFE_ALLOCA_IMPL@ATL@@QAEPAXK@Z 101608e0 f i BNC_ClipboardImage.obj
 0002:0009d980       ?AtlThrowImpl@ATL@@YGXJ@Z  10160980 f i BNC_ClipboardImage.obj
 0002:0009da30       ?Attach@CImage@ATL@@QAEXPAUHBITMAP__@@W4DIBOrientation@12@@Z 10160a30 f i BNC_ClipboardImage.obj
 0002:0009db30       ?Clone@BNC_ClipboardImage@@QAE_NPAPAVImage@Gdiplus@@_N@Z 10160b30 f   BNC_ClipboardImage.obj
 0002:0009dca0       ?Clone@Image@Gdiplus@@UAEPAV12@XZ 10160ca0 f i BNC_ClipboardImage.obj
 0002:0009de20       ?ComputePitch@CImage@ATL@@CAHHH@Z 10160e20 f i BNC_ClipboardImage.obj
 0002:0009de70       ?CreateBitmapFromClipboard@BNC_ClipboardImage@@AAE_NAAVCBitmap@@@Z 10160e70 f   BNC_ClipboardImage.obj
 0002:0009e1d0       ?CreateBitmapFromClipboard@BNC_ClipboardImage@@AAE_NPAPAVBitmap@Gdiplus@@@Z 101611d0 f   BNC_ClipboardImage.obj
 0002:0009e4b0       ?CreateImageFromClipboard@BNC_ClipboardImage@@AAE_NPAPAVImage@Gdiplus@@@Z 101614b0 f   BNC_ClipboardImage.obj
 0002:0009e8a0       ?DecreaseCImageCount@CInitGDIPlus@CImage@ATL@@QAEXXZ 101618a0 f i BNC_ClipboardImage.obj
 0002:0009e960       ?Destroy@CImage@ATL@@QAEXXZ 10161960 f i BNC_ClipboardImage.obj
 0002:0009e9e0       ?Detach@CImage@ATL@@QAEPAUHBITMAP__@@XZ 101619e0 f i BNC_ClipboardImage.obj
 0002:0009eb50       ?FindCodecForFileType@CImage@ATL@@CA?AU_GUID@@ABU3@PBVImageCodecInfo@Gdiplus@@I@Z 10161b50 f i BNC_ClipboardImage.obj
 0002:0009ec40       ?FromBITMAPINFO@Bitmap@Gdiplus@@SAPAV12@PBUtagBITMAPINFO@@PAX@Z 10161c40 f i BNC_ClipboardImage.obj
 0002:0009ed40       ?GetBPP@CImage@ATL@@QBEHXZ 10161d40 f i BNC_ClipboardImage.obj
 0002:0009ede0       ?GetData@CAtlSafeAllocBufferNode@?$CAtlSafeAllocBufferManager@VCCRTAllocator@ATL@@@_ATL_SAFE_ALLOCA_IMPL@ATL@@QAEPAXXZ 10161de0 f i BNC_ClipboardImage.obj
 0002:0009ee20       ?GetEncoderCLSID@BNC_ClipboardImage@@IAEHQB_WAAU_GUID@@@Z 10161e20 f   BNC_ClipboardImage.obj
 0002:0009f010       ?GetHeight@CImage@ATL@@QBEHXZ 10162010 f i BNC_ClipboardImage.obj
 0002:0009f0b0       ?GetImageEncoders@Gdiplus@@YA?AW4Status@1@IIPAVImageCodecInfo@1@@Z 101620b0 f i BNC_ClipboardImage.obj
 0002:0009f110       ?GetImageEncodersSize@Gdiplus@@YA?AW4Status@1@PAI0@Z 10162110 f i BNC_ClipboardImage.obj
 0002:0009f160       ?GetLastStatus@Image@Gdiplus@@QBE?AW4Status@2@XZ 10162160 f i BNC_ClipboardImage.obj
 0002:0009f1b0       ?GetPixelAddress@CImage@ATL@@QAEPAXHH@Z 101621b0 f i BNC_ClipboardImage.obj
 0002:0009f390       ?GetWidth@CImage@ATL@@QBEHXZ 10162390 f i BNC_ClipboardImage.obj
 0002:0009f430       ?HBitmapToBitmap@BNC_ClipboardImage@@IAE?AW4Status@Gdiplus@@PAUHBITMAP__@@HPAPAVBitmap@3@@Z 10162430 f   BNC_ClipboardImage.obj
 0002:0009f910       ?IncreaseCImageCount@CInitGDIPlus@CImage@ATL@@QAEXXZ 10162910 f i BNC_ClipboardImage.obj
 0002:0009f9a0       ?Init@CInitGDIPlus@CImage@ATL@@QAE_NXZ 101629a0 f i BNC_ClipboardImage.obj
 0002:0009fae0       ?InitGDIPlus@CImage@ATL@@CA_NXZ 10162ae0 f i BNC_ClipboardImage.obj
 0002:0009fb40       ?IsAvailable@BNC_ClipboardImage@@QAE_NXZ 10162b40 f   BNC_ClipboardImage.obj
 0002:0009fc40       ?IsDIBSection@CImage@ATL@@QBE_NXZ 10162c40 f i BNC_ClipboardImage.obj
 0002:0009fc80       ?IsLoad@BNC_ClipboardImage@@QAE_NXZ 10162c80 f   BNC_ClipboardImage.obj
 0002:0009fce0       ?Load@BNC_ClipboardImage@@QAE_NXZ 10162ce0 f   BNC_ClipboardImage.obj
 0002:000a0070       ?LoadBitmapW@BNC_ClipboardImage@@IAE_NXZ 10163070 f   BNC_ClipboardImage.obj
 0002:000a0160       ?LoadImageW@BNC_ClipboardImage@@IAE_NXZ 10163160 f   BNC_ClipboardImage.obj
 0002:000a0590       ?LockBits@Bitmap@Gdiplus@@QAE?AW4Status@2@PBVRect@2@IHPAVBitmapData@2@@Z 10163590 f i BNC_ClipboardImage.obj
 0002:000a0610       ?Save@CImage@ATL@@QBEJPAUIStream@@ABU_GUID@@@Z 10163610 f i BNC_ClipboardImage.obj
 0002:000a0b40       ?Save@Image@Gdiplus@@QAE?AW4Status@2@PAUIStream@@PBU_GUID@@PBVEncoderParameters@2@@Z 10163b40 f i BNC_ClipboardImage.obj
 0002:000a0bb0       ?SetHasAlphaChannel@CImage@ATL@@QAEX_N@Z 10163bb0 f i BNC_ClipboardImage.obj
 0002:000a0c00       ?SetNativeImage@Image@Gdiplus@@IAEXPAVGpImage@2@@Z 10163c00 f i BNC_ClipboardImage.obj
 0002:000a0c50       ?UnlockBits@Bitmap@Gdiplus@@QAE?AW4Status@2@PAVBitmapData@2@@Z 10163c50 f i BNC_ClipboardImage.obj
 0002:000a0cc0       ?Update2@BNC_ClipboardImage@@IAE_NPAUHBITMAP__@@@Z 10163cc0 f   BNC_ClipboardImage.obj
 0002:000a10c0       ?Update@BNC_ClipboardImage@@IAE_NPAUHBITMAP__@@@Z 101640c0 f   BNC_ClipboardImage.obj
 0002:000a1700       ?UpdateBitmapInfo@CImage@ATL@@AAEXW4DIBOrientation@12@@Z 10164700 f i BNC_ClipboardImage.obj
 0002:000a1950       ?_AtlVerifyStackAvailable@_ATL_SAFE_ALLOCA_IMPL@ATL@@YA_NK@Z 10164950 f i BNC_ClipboardImage.obj
 0002:000a1bc0       ?__autoclassinit2@?$CAtlSafeAllocBufferManager@VCCRTAllocator@ATL@@@_ATL_SAFE_ALLOCA_IMPL@ATL@@QAEXI@Z 10164bc0 f i BNC_ClipboardImage.obj
 0002:000a1c20       ?__autoclassinit2@?$auto_ptr@VBitmap@Gdiplus@@@std@@QAEXI@Z 10164c20 f i BNC_ClipboardImage.obj
 0002:000a1c80       ?__autoclassinit2@Bitmap@Gdiplus@@QAEXI@Z 10164c80 f i BNC_ClipboardImage.obj
 0002:000a1ce0       ?__autoclassinit2@CImage@ATL@@QAEXI@Z 10164ce0 f i BNC_ClipboardImage.obj
 0002:000a1d40       ?__autoclassinit2@Image@Gdiplus@@QAEXI@Z 10164d40 f i BNC_ClipboardImage.obj
 0002:000a1da0       ?get@?$auto_ptr@VBitmap@Gdiplus@@@std@@QBEPAVBitmap@Gdiplus@@XZ 10164da0 f i BNC_ClipboardImage.obj
 0002:000a1de0       ?release@?$auto_ptr@VBitmap@Gdiplus@@@std@@QAEPAVBitmap@Gdiplus@@XZ 10164de0 f i BNC_ClipboardImage.obj
 0002:000a1e30       ??$AtlAlignUp@I@ATL@@YGIIK@Z 10164e30 f i BNC_ClipboardImageOLE.obj
 0002:000a1e80       ??$AtlConvAllocMemory@_W@ATL@@YAXPAPA_WHPA_WH@Z 10164e80 f i BNC_ClipboardImageOLE.obj
 0002:000a2140       ??$AtlConvFreeMemory@_W@ATL@@YAXPA_W0H@Z 10165140 f i BNC_ClipboardImageOLE.obj
 0002:000a21d0       ??0?$CW2WEX@$0IA@@ATL@@QAE@PB_W@Z 101651d0 f i BNC_ClipboardImageOLE.obj
 0002:000a2240       ??0BNC_ClipboardImageOLE@@QAE@XZ 10165240 f   BNC_ClipboardImageOLE.obj
 0002:000a22b0       ??0Bitmap@Gdiplus@@QAE@PAUIStream@@H@Z 101652b0 f i BNC_ClipboardImageOLE.obj
 0002:000a23f0       ??0Bitmap@Gdiplus@@QAE@PB_WH@Z 101653f0 f i BNC_ClipboardImageOLE.obj
 0002:000a2530       ??0Graphics@Gdiplus@@QAE@PAVImage@1@@Z 10165530 f i BNC_ClipboardImageOLE.obj
 0002:000a2610       ??1?$CW2WEX@$0IA@@ATL@@QAE@XZ 10165610 f i BNC_ClipboardImageOLE.obj
 0002:000a2680       ??1BNC_ClipboardImageOLE@@QAE@XZ 10165680 f   BNC_ClipboardImageOLE.obj
 0002:000a26f0       ??B?$CW2WEX@$0IA@@ATL@@QBEPA_WXZ 101656f0 f i BNC_ClipboardImageOLE.obj
 0002:000a2730       ?AfxCrtErrorCheck@@YAHH@Z  10165730 f i BNC_ClipboardImageOLE.obj
 0002:000a2840       ?Create@CImage@ATL@@QAEHHHHK@Z 10165840 f i BNC_ClipboardImageOLE.obj
 0002:000a28b0       ?CreateEx@CImage@ATL@@QAEHHHHKPBKK@Z 101658b0 f i BNC_ClipboardImageOLE.obj
 0002:000a2cf0       ?CreateFromGdiplusBitmap@CImage@ATL@@AAEJAAVBitmap@Gdiplus@@@Z 10165cf0 f i BNC_ClipboardImageOLE.obj
 0002:000a3420       ?DrawImage@Graphics@Gdiplus@@QAE?AW4Status@2@PAVImage@2@HH@Z 10166420 f i BNC_ClipboardImageOLE.obj
 0002:000a34c0       ?GetBitmap@BNC_ClipboardImageOLE@@QBEPAUHBITMAP__@@XZ 101664c0 f   BNC_ClipboardImageOLE.obj
 0002:000a3630       ?GetBitmapFromDDB@BNC_ClipboardImageOLE@@ABEPAUHBITMAP__@@PAVCOleDataObject@@@Z 10166630 f   BNC_ClipboardImageOLE.obj
 0002:000a37c0       ?GetBitmapFromDIB@BNC_ClipboardImageOLE@@ABEPAUHBITMAP__@@PAVCOleDataObject@@@Z 101667c0 f   BNC_ClipboardImageOLE.obj
 0002:000a3b40       ?GetBitmapFromImage@BNC_ClipboardImageOLE@@ABEPAUHBITMAP__@@PAVCOleDataObject@@@Z 10166b40 f   BNC_ClipboardImageOLE.obj
 0002:000a3d70       ?GetBitmapFromImage@BNC_ClipboardImageOLE@@ABEPAUHBITMAP__@@PAVCOleDataObject@@G@Z 10166d70 f   BNC_ClipboardImageOLE.obj
 0002:000a4080       ?GetBits@CImage@ATL@@QAEPAXXZ 10167080 f i BNC_ClipboardImageOLE.obj
 0002:000a4180       ?GetDC@CDCCache@CImage@ATL@@QAEPAUHDC__@@XZ 10167180 f i BNC_ClipboardImageOLE.obj
 0002:000a4230       ?GetDC@CImage@ATL@@QBEPAUHDC__@@XZ 10167230 f i BNC_ClipboardImageOLE.obj
 0002:000a4330       ?GetData@BNC_ClipboardImageOLE@@ABEPAXPAVCOleDataObject@@GAAIPAUtagFORMATETC@@@Z 10167330 f   BNC_ClipboardImageOLE.obj
 0002:000a45c0       ?GetPalette@Image@Gdiplus@@QAE?AW4Status@2@PAUColorPalette@2@H@Z 101675c0 f i BNC_ClipboardImageOLE.obj
 0002:000a4630       ?GetPaletteSize@Image@Gdiplus@@QAEHXZ 10167630 f i BNC_ClipboardImageOLE.obj
 0002:000a46f0       ?GetPitch@CImage@ATL@@QBEHXZ 101676f0 f i BNC_ClipboardImageOLE.obj
 0002:000a47f0       ?GetPixelFormat@Image@Gdiplus@@QAEHXZ 101677f0 f i BNC_ClipboardImageOLE.obj
 0002:000a48b0       ?GetPixelFormatSize@Gdiplus@@YAIH@Z 101678b0 f i BNC_ClipboardImageOLE.obj
 0002:000a48f0       ?Init@?$CW2WEX@$0IA@@ATL@@AAEXPB_W@Z 101678f0 f i BNC_ClipboardImageOLE.obj
 0002:000a4a10       ?InterlockedExchangePointer@@YGPAXPAPAXPAX@Z 10167a10 f i BNC_ClipboardImageOLE.obj
 0002:000a4a50       ?IsAlphaPixelFormat@Gdiplus@@YAHH@Z 10167a50 f i BNC_ClipboardImageOLE.obj
 0002:000a4ab0       ?IsIndexed@CImage@ATL@@QBE_NXZ 10167ab0 f i BNC_ClipboardImageOLE.obj
 0002:000a4bd0       ?IsIndexedPixelFormat@Gdiplus@@YAHH@Z 10167bd0 f i BNC_ClipboardImageOLE.obj
 0002:000a4c30       ?IsNull@CImage@ATL@@QBE_NXZ 10167c30 f i BNC_ClipboardImageOLE.obj
 0002:000a4ca0       ?Load@CImage@ATL@@QAEJPAUIStream@@@Z 10167ca0 f i BNC_ClipboardImageOLE.obj
 0002:000a4dd0       ?Load@CImage@ATL@@QAEJPB_W@Z 10167dd0 f i BNC_ClipboardImageOLE.obj
 0002:000a4f20       ?ReleaseDC@CDCCache@CImage@ATL@@QAEXPAUHDC__@@@Z 10167f20 f i BNC_ClipboardImageOLE.obj
 0002:000a4fe0       ?ReleaseDC@CImage@ATL@@QBEXXZ 10167fe0 f i BNC_ClipboardImageOLE.obj
 0002:000a5140       ?SetColorTable@CImage@ATL@@QAEXIIPBUtagRGBQUAD@@@Z 10168140 f i BNC_ClipboardImageOLE.obj
 0002:000a52d0       ?__autoclassinit2@COleDataObject@@QAEXI@Z 101682d0 f i BNC_ClipboardImageOLE.obj
 0002:000a5330       ?memcpy_s@Checked@ATL@@YAXPAXIPBXI@Z 10168330 f i BNC_ClipboardImageOLE.obj
 0002:000a53b0       ??$_Allocate@PAVCBitmap@@@std@@YAPAPAVCBitmap@@IPAPAV1@@Z 101683b0 f i BNC_DrawObject.obj
 0002:000a5450       ??$_Allocate@PAVCImage@ATL@@@std@@YAPAPAVCImage@ATL@@IPAPAV12@@Z 10168450 f i BNC_DrawObject.obj
 0002:000a54f0       ??$_Allocate@PAVImage@Gdiplus@@@std@@YAPAPAVImage@Gdiplus@@IPAPAV12@@Z 101684f0 f i BNC_DrawObject.obj
 0002:000a5590       ??$_Allocate@VCSize@@@std@@YAPAVCSize@@IPAV1@@Z 10168590 f i BNC_DrawObject.obj
 0002:000a5630       ??$_Debug_pointer@PAVCBitmap@@@std@@YAXPAPAVCBitmap@@PB_WI@Z 10168630 f i BNC_DrawObject.obj
 0002:000a56a0       ??$_Debug_pointer@PAVCImage@ATL@@@std@@YAXPAPAVCImage@ATL@@PB_WI@Z 101686a0 f i BNC_DrawObject.obj
 0002:000a5710       ??$_Debug_pointer@PAVImage@Gdiplus@@@std@@YAXPAPAVImage@Gdiplus@@PB_WI@Z 10168710 f i BNC_DrawObject.obj
 0002:000a5780       ??$_Debug_pointer@VCSize@@@std@@YAXPAVCSize@@PB_WI@Z 10168780 f i BNC_DrawObject.obj
 0002:000a57f0       ??$_Debug_range2@PAPAVCBitmap@@@std@@YAXPAPAVCBitmap@@0PB_WIUrandom_access_iterator_tag@0@@Z 101687f0 f i BNC_DrawObject.obj
 0002:000a58a0       ??$_Debug_range2@PAPAVCImage@ATL@@@std@@YAXPAPAVCImage@ATL@@0PB_WIUrandom_access_iterator_tag@0@@Z 101688a0 f i BNC_DrawObject.obj
 0002:000a5950       ??$_Debug_range2@PAPAVImage@Gdiplus@@@std@@YAXPAPAVImage@Gdiplus@@0PB_WIUrandom_access_iterator_tag@0@@Z 10168950 f i BNC_DrawObject.obj
 0002:000a5a00       ??$_Debug_range2@PAVCSize@@@std@@YAXPAVCSize@@0PB_WIUrandom_access_iterator_tag@0@@Z 10168a00 f i BNC_DrawObject.obj
 0002:000a5ab0       ??$_Debug_range@PAPAVCBitmap@@@std@@YAXPAPAVCBitmap@@0PB_WI@Z 10168ab0 f i BNC_DrawObject.obj
 0002:000a5b30       ??$_Debug_range@PAPAVCImage@ATL@@@std@@YAXPAPAVCImage@ATL@@0PB_WI@Z 10168b30 f i BNC_DrawObject.obj
 0002:000a5bb0       ??$_Debug_range@PAPAVImage@Gdiplus@@@std@@YAXPAPAVImage@Gdiplus@@0PB_WI@Z 10168bb0 f i BNC_DrawObject.obj
 0002:000a5c30       ??$_Debug_range@PAVCSize@@@std@@YAXPAVCSize@@0PB_WI@Z 10168c30 f i BNC_DrawObject.obj
 0002:000a5cb0       ??$_Destroy_range@U?$_Wrap_alloc@V?$allocator@PAVCBitmap@@@std@@@std@@@std@@YAXPAPAVCBitmap@@0AAU?$_Wrap_alloc@V?$allocator@PAVCBitmap@@@std@@@0@@Z 10168cb0 f i BNC_DrawObject.obj
 0002:000a5d30       ??$_Destroy_range@U?$_Wrap_alloc@V?$allocator@PAVCBitmap@@@std@@@std@@@std@@YAXPAPAVCBitmap@@0AAU?$_Wrap_alloc@V?$allocator@PAVCBitmap@@@std@@@0@U_Scalar_ptr_iterator_tag@0@@Z 10168d30 f i BNC_DrawObject.obj
 0002:000a5d60       ??$_Destroy_range@U?$_Wrap_alloc@V?$allocator@PAVCImage@ATL@@@std@@@std@@@std@@YAXPAPAVCImage@ATL@@0AAU?$_Wrap_alloc@V?$allocator@PAVCImage@ATL@@@std@@@0@@Z 10168d60 f i BNC_DrawObject.obj
 0002:000a5de0       ??$_Destroy_range@U?$_Wrap_alloc@V?$allocator@PAVCImage@ATL@@@std@@@std@@@std@@YAXPAPAVCImage@ATL@@0AAU?$_Wrap_alloc@V?$allocator@PAVCImage@ATL@@@std@@@0@U_Scalar_ptr_iterator_tag@0@@Z 10168de0 f i BNC_DrawObject.obj
 0002:000a5e10       ??$_Destroy_range@U?$_Wrap_alloc@V?$allocator@PAVImage@Gdiplus@@@std@@@std@@@std@@YAXPAPAVImage@Gdiplus@@0AAU?$_Wrap_alloc@V?$allocator@PAVImage@Gdiplus@@@std@@@0@@Z 10168e10 f i BNC_DrawObject.obj
 0002:000a5e90       ??$_Destroy_range@U?$_Wrap_alloc@V?$allocator@PAVImage@Gdiplus@@@std@@@std@@@std@@YAXPAPAVImage@Gdiplus@@0AAU?$_Wrap_alloc@V?$allocator@PAVImage@Gdiplus@@@std@@@0@U_Scalar_ptr_iterator_tag@0@@Z 10168e90 f i BNC_DrawObject.obj
 0002:000a5ec0       ??$_Destroy_range@U?$_Wrap_alloc@V?$allocator@VCSize@@@std@@@std@@@std@@YAXPAVCSize@@0AAU?$_Wrap_alloc@V?$allocator@VCSize@@@std@@@0@@Z 10168ec0 f i BNC_DrawObject.obj
 0002:000a5f40       ??$_Destroy_range@U?$_Wrap_alloc@V?$allocator@VCSize@@@std@@@std@@@std@@YAXPAVCSize@@0AAU?$_Wrap_alloc@V?$allocator@VCSize@@@std@@@0@U_Nonscalar_ptr_iterator_tag@0@@Z 10168f40 f i BNC_DrawObject.obj
 0002:000a5fb0       ??$_Iter_cat@PAPAVCBitmap@@@std@@YA?AUrandom_access_iterator_tag@0@ABQAPAVCBitmap@@@Z 10168fb0 f i BNC_DrawObject.obj
 0002:000a6030       ??$_Iter_cat@PAPAVCImage@ATL@@@std@@YA?AUrandom_access_iterator_tag@0@ABQAPAVCImage@ATL@@@Z 10169030 f i BNC_DrawObject.obj
 0002:000a60b0       ??$_Iter_cat@PAPAVImage@Gdiplus@@@std@@YA?AUrandom_access_iterator_tag@0@ABQAPAVImage@Gdiplus@@@Z 101690b0 f i BNC_DrawObject.obj
 0002:000a6130       ??$_Iter_cat@PAVCSize@@@std@@YA?AUrandom_access_iterator_tag@0@ABQAVCSize@@@Z 10169130 f i BNC_DrawObject.obj
 0002:000a61b0       ??$_Ptr_cat@PAVCBitmap@@PAV1@@std@@YA?AU_Scalar_ptr_iterator_tag@0@PAPAVCBitmap@@0@Z 101691b0 f i BNC_DrawObject.obj
 0002:000a6220       ??$_Ptr_cat@PAVCImage@ATL@@PAV12@@std@@YA?AU_Scalar_ptr_iterator_tag@0@PAPAVCImage@ATL@@0@Z 10169220 f i BNC_DrawObject.obj
 0002:000a6290       ??$_Ptr_cat@PAVImage@Gdiplus@@PAV12@@std@@YA?AU_Scalar_ptr_iterator_tag@0@PAPAVImage@Gdiplus@@0@Z 10169290 f i BNC_DrawObject.obj
 0002:000a6300       ??$_Ptr_cat@VCSize@@V1@@std@@YA?AU_Nonscalar_ptr_iterator_tag@0@PAVCSize@@0@Z 10169300 f i BNC_DrawObject.obj
 0002:000a6370       ??$_Rechecked@PAPAVCBitmap@@PAPAV1@@std@@YAAAPAPAVCBitmap@@AAPAPAV1@PAPAV1@@Z 10169370 f i BNC_DrawObject.obj
 0002:000a63b0       ??$_Rechecked@PAPAVCImage@ATL@@PAPAV12@@std@@YAAAPAPAVCImage@ATL@@AAPAPAV12@PAPAV12@@Z 101693b0 f i BNC_DrawObject.obj
 0002:000a63f0       ??$_Rechecked@PAPAVImage@Gdiplus@@PAPAV12@@std@@YAAAPAPAVImage@Gdiplus@@AAPAPAV12@PAPAV12@@Z 101693f0 f i BNC_DrawObject.obj
 0002:000a6430       ??$_Rechecked@PAVCSize@@PAV1@@std@@YAAAPAVCSize@@AAPAV1@PAV1@@Z 10169430 f i BNC_DrawObject.obj
 0002:000a6470       ??$_Umove@PAPAVCBitmap@@@?$vector@PAVCBitmap@@V?$allocator@PAVCBitmap@@@std@@@std@@IAEPAPAVCBitmap@@PAPAV2@00@Z 10169470 f i BNC_DrawObject.obj
 0002:000a6540       ??$_Umove@PAPAVCImage@ATL@@@?$vector@PAVCImage@ATL@@V?$allocator@PAVCImage@ATL@@@std@@@std@@IAEPAPAVCImage@ATL@@PAPAV23@00@Z 10169540 f i BNC_DrawObject.obj
 0002:000a6610       ??$_Umove@PAPAVImage@Gdiplus@@@?$vector@PAVImage@Gdiplus@@V?$allocator@PAVImage@Gdiplus@@@std@@@std@@IAEPAPAVImage@Gdiplus@@PAPAV23@00@Z 10169610 f i BNC_DrawObject.obj
 0002:000a66e0       ??$_Umove@PAVCSize@@@?$vector@VCSize@@V?$allocator@VCSize@@@std@@@std@@IAEPAVCSize@@PAV2@00@Z 101696e0 f i BNC_DrawObject.obj
 0002:000a67b0       ??$_Unchecked@PAPAVCBitmap@@@std@@YAPAPAVCBitmap@@PAPAV1@@Z 101697b0 f i BNC_DrawObject.obj
 0002:000a67f0       ??$_Unchecked@PAPAVCImage@ATL@@@std@@YAPAPAVCImage@ATL@@PAPAV12@@Z 101697f0 f i BNC_DrawObject.obj
 0002:000a6830       ??$_Unchecked@PAPAVImage@Gdiplus@@@std@@YAPAPAVImage@Gdiplus@@PAPAV12@@Z 10169830 f i BNC_DrawObject.obj
 0002:000a6870       ??$_Unchecked@PAVCSize@@@std@@YAPAVCSize@@PAV1@@Z 10169870 f i BNC_DrawObject.obj
 0002:000a68b0       ??$_Uninit_move@PAPAVCBitmap@@PAPAV1@U?$_Wrap_alloc@V?$allocator@PAVCBitmap@@@std@@@std@@@std@@YAPAPAVCBitmap@@PAPAV1@00AAU?$_Wrap_alloc@V?$allocator@PAVCBitmap@@@std@@@0@@Z 101698b0 f i BNC_DrawObject.obj
 0002:000a6950       ??$_Uninit_move@PAPAVCImage@ATL@@PAPAV12@U?$_Wrap_alloc@V?$allocator@PAVCImage@ATL@@@std@@@std@@@std@@YAPAPAVCImage@ATL@@PAPAV12@00AAU?$_Wrap_alloc@V?$allocator@PAVCImage@ATL@@@std@@@0@@Z 10169950 f i BNC_DrawObject.obj
 0002:000a69f0       ??$_Uninit_move@PAPAVImage@Gdiplus@@PAPAV12@U?$_Wrap_alloc@V?$allocator@PAVImage@Gdiplus@@@std@@@std@@@std@@YAPAPAVImage@Gdiplus@@PAPAV12@00AAU?$_Wrap_alloc@V?$allocator@PAVImage@Gdiplus@@@std@@@0@@Z 101699f0 f i BNC_DrawObject.obj
 0002:000a6a90       ??$_Uninit_move@PAVCBitmap@@PAV1@PAV1@@std@@YAPAPAVCBitmap@@PAPAV1@00AAU?$_Wrap_alloc@V?$allocator@PAVCBitmap@@@std@@@0@0U_Scalar_ptr_iterator_tag@0@@Z 10169a90 f i BNC_DrawObject.obj
 0002:000a6b50       ??$_Uninit_move@PAVCImage@ATL@@PAV12@PAV12@@std@@YAPAPAVCImage@ATL@@PAPAV12@00AAU?$_Wrap_alloc@V?$allocator@PAVCImage@ATL@@@std@@@0@0U_Scalar_ptr_iterator_tag@0@@Z 10169b50 f i BNC_DrawObject.obj
 0002:000a6c10       ??$_Uninit_move@PAVCSize@@PAV1@U?$_Wrap_alloc@V?$allocator@VCSize@@@std@@@std@@@std@@YAPAVCSize@@PAV1@00AAU?$_Wrap_alloc@V?$allocator@VCSize@@@std@@@0@@Z 10169c10 f i BNC_DrawObject.obj
 0002:000a6cb0       ??$_Uninit_move@PAVCSize@@PAV1@V?$allocator@VCSize@@@std@@V1@@std@@YAPAVCSize@@PAV1@00AAU?$_Wrap_alloc@V?$allocator@VCSize@@@std@@@0@0U_Nonscalar_ptr_iterator_tag@0@@Z 10169cb0 f i BNC_DrawObject.obj
 0002:000a6e10       ??$_Uninit_move@PAVImage@Gdiplus@@PAV12@PAV12@@std@@YAPAPAVImage@Gdiplus@@PAPAV12@00AAU?$_Wrap_alloc@V?$allocator@PAVImage@Gdiplus@@@std@@@0@0U_Scalar_ptr_iterator_tag@0@@Z 10169e10 f i BNC_DrawObject.obj
 0002:000a6ed0       ??$_Uninitialized_move@PAPAVCBitmap@@PAPAV1@U?$_Wrap_alloc@V?$allocator@PAVCBitmap@@@std@@@std@@@std@@YAPAPAVCBitmap@@PAPAV1@00AAU?$_Wrap_alloc@V?$allocator@PAVCBitmap@@@std@@@0@@Z 10169ed0 f i BNC_DrawObject.obj
 0002:000a6f70       ??$_Uninitialized_move@PAPAVCImage@ATL@@PAPAV12@U?$_Wrap_alloc@V?$allocator@PAVCImage@ATL@@@std@@@std@@@std@@YAPAPAVCImage@ATL@@PAPAV12@00AAU?$_Wrap_alloc@V?$allocator@PAVCImage@ATL@@@std@@@0@@Z 10169f70 f i BNC_DrawObject.obj
 0002:000a7010       ??$_Uninitialized_move@PAPAVImage@Gdiplus@@PAPAV12@U?$_Wrap_alloc@V?$allocator@PAVImage@Gdiplus@@@std@@@std@@@std@@YAPAPAVImage@Gdiplus@@PAPAV12@00AAU?$_Wrap_alloc@V?$allocator@PAVImage@Gdiplus@@@std@@@0@@Z 1016a010 f i BNC_DrawObject.obj
 0002:000a70b0       ??$_Uninitialized_move@PAVCSize@@PAV1@U?$_Wrap_alloc@V?$allocator@VCSize@@@std@@@std@@@std@@YAPAVCSize@@PAV1@00AAU?$_Wrap_alloc@V?$allocator@VCSize@@@std@@@0@@Z 1016a0b0 f i BNC_DrawObject.obj
 0002:000a7150       ??$_Val_type@PAPAVCBitmap@@@std@@YAPAPAVCBitmap@@PAPAV1@@Z 1016a150 f i BNC_DrawObject.obj
 0002:000a7180       ??$_Val_type@PAPAVCImage@ATL@@@std@@YAPAPAVCImage@ATL@@PAPAV12@@Z 1016a180 f i BNC_DrawObject.obj
 0002:000a71b0       ??$_Val_type@PAPAVImage@Gdiplus@@@std@@YAPAPAVImage@Gdiplus@@PAPAV12@@Z 1016a1b0 f i BNC_DrawObject.obj
 0002:000a71e0       ??$_Val_type@PAVCSize@@@std@@YAPAVCSize@@PAV1@@Z 1016a1e0 f i BNC_DrawObject.obj
 0002:000a7210       ??$addressof@PAVCBitmap@@@std@@YAPAPAVCBitmap@@AAPAV1@@Z 1016a210 f i BNC_DrawObject.obj
 0002:000a7250       ??$addressof@QAVCBitmap@@@std@@YAPBQAVCBitmap@@ABQAV1@@Z 1016a250 f i BNC_DrawObject.obj
 0002:000a7290       ??$addressof@QAVCImage@ATL@@@std@@YAPBQAVCImage@ATL@@ABQAV12@@Z 1016a290 f i BNC_DrawObject.obj
 0002:000a72d0       ??$addressof@QAVImage@Gdiplus@@@std@@YAPBQAVImage@Gdiplus@@ABQAV12@@Z 1016a2d0 f i BNC_DrawObject.obj
 0002:000a7310       ??$addressof@VCSize@@@std@@YAPAVCSize@@AAV1@@Z 1016a310 f i BNC_DrawObject.obj
 0002:000a7350       ??$construct@PAVCBitmap@@AAPAV1@@?$_Wrap_alloc@V?$allocator@PAVCBitmap@@@std@@@std@@QAEXPAPAVCBitmap@@AAPAV2@@Z 1016a350 f i BNC_DrawObject.obj
 0002:000a73c0       ??$construct@PAVCBitmap@@AAPAV1@@?$allocator@PAVCBitmap@@@std@@QAEXPAPAVCBitmap@@AAPAV2@@Z 1016a3c0 f i BNC_DrawObject.obj
 0002:000a74c0       ??$construct@PAVCBitmap@@AAPAV1@@?$allocator_traits@V?$allocator@PAVCBitmap@@@std@@@std@@SAXAAV?$allocator@PAVCBitmap@@@1@PAPAVCBitmap@@AAPAV3@@Z 1016a4c0 f i BNC_DrawObject.obj
 0002:000a7520       ??$construct@PAVCBitmap@@ABQAV1@@?$_Wrap_alloc@V?$allocator@PAVCBitmap@@@std@@@std@@QAEXPAPAVCBitmap@@ABQAV2@@Z 1016a520 f i BNC_DrawObject.obj
 0002:000a7590       ??$construct@PAVCBitmap@@ABQAV1@@?$allocator_traits@V?$allocator@PAVCBitmap@@@std@@@std@@SAXAAV?$allocator@PAVCBitmap@@@1@PAPAVCBitmap@@ABQAV3@@Z 1016a590 f i BNC_DrawObject.obj
 0002:000a75f0       ??$construct@PAVCBitmap@@PAV1@@?$_Wrap_alloc@V?$allocator@PAVCBitmap@@@std@@@std@@QAEXPAPAVCBitmap@@$$QAPAV2@@Z 1016a5f0 f i BNC_DrawObject.obj
 0002:000a7660       ??$construct@PAVCBitmap@@PAV1@@?$allocator@PAVCBitmap@@@std@@QAEXPAPAVCBitmap@@$$QAPAV2@@Z 1016a660 f i BNC_DrawObject.obj
 0002:000a7760       ??$construct@PAVCBitmap@@PAV1@@?$allocator_traits@V?$allocator@PAVCBitmap@@@std@@@std@@SAXAAV?$allocator@PAVCBitmap@@@1@PAPAVCBitmap@@$$QAPAV3@@Z 1016a760 f i BNC_DrawObject.obj
 0002:000a77c0       ??$construct@PAVCImage@ATL@@AAPAV12@@?$_Wrap_alloc@V?$allocator@PAVCImage@ATL@@@std@@@std@@QAEXPAPAVCImage@ATL@@AAPAV23@@Z 1016a7c0 f i BNC_DrawObject.obj
 0002:000a7830       ??$construct@PAVCImage@ATL@@AAPAV12@@?$allocator@PAVCImage@ATL@@@std@@QAEXPAPAVCImage@ATL@@AAPAV23@@Z 1016a830 f i BNC_DrawObject.obj
 0002:000a7930       ??$construct@PAVCImage@ATL@@AAPAV12@@?$allocator_traits@V?$allocator@PAVCImage@ATL@@@std@@@std@@SAXAAV?$allocator@PAVCImage@ATL@@@1@PAPAVCImage@ATL@@AAPAV34@@Z 1016a930 f i BNC_DrawObject.obj
 0002:000a7990       ??$construct@PAVCImage@ATL@@ABQAV12@@?$_Wrap_alloc@V?$allocator@PAVCImage@ATL@@@std@@@std@@QAEXPAPAVCImage@ATL@@ABQAV23@@Z 1016a990 f i BNC_DrawObject.obj
 0002:000a7a00       ??$construct@PAVCImage@ATL@@ABQAV12@@?$allocator_traits@V?$allocator@PAVCImage@ATL@@@std@@@std@@SAXAAV?$allocator@PAVCImage@ATL@@@1@PAPAVCImage@ATL@@ABQAV34@@Z 1016aa00 f i BNC_DrawObject.obj
 0002:000a7a60       ??$construct@PAVImage@Gdiplus@@AAPAV12@@?$_Wrap_alloc@V?$allocator@PAVImage@Gdiplus@@@std@@@std@@QAEXPAPAVImage@Gdiplus@@AAPAV23@@Z 1016aa60 f i BNC_DrawObject.obj
 0002:000a7ad0       ??$construct@PAVImage@Gdiplus@@AAPAV12@@?$allocator@PAVImage@Gdiplus@@@std@@QAEXPAPAVImage@Gdiplus@@AAPAV23@@Z 1016aad0 f i BNC_DrawObject.obj
 0002:000a7bd0       ??$construct@PAVImage@Gdiplus@@AAPAV12@@?$allocator_traits@V?$allocator@PAVImage@Gdiplus@@@std@@@std@@SAXAAV?$allocator@PAVImage@Gdiplus@@@1@PAPAVImage@Gdiplus@@AAPAV34@@Z 1016abd0 f i BNC_DrawObject.obj
 0002:000a7c30       ??$construct@PAVImage@Gdiplus@@ABQAV12@@?$_Wrap_alloc@V?$allocator@PAVImage@Gdiplus@@@std@@@std@@QAEXPAPAVImage@Gdiplus@@ABQAV23@@Z 1016ac30 f i BNC_DrawObject.obj
 0002:000a7ca0       ??$construct@PAVImage@Gdiplus@@ABQAV12@@?$allocator_traits@V?$allocator@PAVImage@Gdiplus@@@std@@@std@@SAXAAV?$allocator@PAVImage@Gdiplus@@@1@PAPAVImage@Gdiplus@@ABQAV34@@Z 1016aca0 f i BNC_DrawObject.obj
 0002:000a7d00       ??$construct@VCSize@@V1@@?$_Wrap_alloc@V?$allocator@VCSize@@@std@@@std@@QAEXPAVCSize@@$$QAV2@@Z 1016ad00 f i BNC_DrawObject.obj
 0002:000a7d70       ??$construct@VCSize@@V1@@?$allocator@VCSize@@@std@@QAEXPAVCSize@@$$QAV2@@Z 1016ad70 f i BNC_DrawObject.obj
 0002:000a7e80       ??$construct@VCSize@@V1@@?$allocator_traits@V?$allocator@VCSize@@@std@@@std@@SAXAAV?$allocator@VCSize@@@1@PAVCSize@@$$QAV3@@Z 1016ae80 f i BNC_DrawObject.obj
 0002:000a7ee0       ??$destroy@VCSize@@@?$_Wrap_alloc@V?$allocator@VCSize@@@std@@@std@@QAEXPAVCSize@@@Z 1016aee0 f i BNC_DrawObject.obj
 0002:000a7f40       ??$destroy@VCSize@@@?$allocator@VCSize@@@std@@QAEXPAVCSize@@@Z 1016af40 f i BNC_DrawObject.obj
 0002:000a7f80       ??$destroy@VCSize@@@?$allocator_traits@V?$allocator@VCSize@@@std@@@std@@SAXAAV?$allocator@VCSize@@@1@PAVCSize@@@Z 1016af80 f i BNC_DrawObject.obj
 0002:000a7fd0       ??$forward@AAPAVCBitmap@@@std@@YAAAPAVCBitmap@@AAPAV1@@Z 1016afd0 f i BNC_DrawObject.obj
 0002:000a8010       ??$forward@AAPAVCImage@ATL@@@std@@YAAAPAVCImage@ATL@@AAPAV12@@Z 1016b010 f i BNC_DrawObject.obj
 0002:000a8050       ??$forward@AAPAVImage@Gdiplus@@@std@@YAAAPAVImage@Gdiplus@@AAPAV12@@Z 1016b050 f i BNC_DrawObject.obj
 0002:000a8090       ??$forward@ABQAVCBitmap@@@std@@YAABQAVCBitmap@@ABQAV1@@Z 1016b090 f i BNC_DrawObject.obj
 0002:000a80d0       ??$forward@ABQAVCImage@ATL@@@std@@YAABQAVCImage@ATL@@ABQAV12@@Z 1016b0d0 f i BNC_DrawObject.obj
 0002:000a8110       ??$forward@ABQAVImage@Gdiplus@@@std@@YAABQAVImage@Gdiplus@@ABQAV12@@Z 1016b110 f i BNC_DrawObject.obj
 0002:000a8150       ??$forward@PAVCBitmap@@@std@@YA$$QAPAVCBitmap@@AAPAV1@@Z 1016b150 f i BNC_DrawObject.obj
 0002:000a8190       ??$forward@VCSize@@@std@@YA$$QAVCSize@@AAV1@@Z 1016b190 f i BNC_DrawObject.obj
 0002:000a81d0       ??0?$_Vector_alloc@$0A@U?$_Vec_base_types@PAVCBitmap@@V?$allocator@PAVCBitmap@@@std@@@std@@@std@@QAE@ABV?$allocator@PAVCBitmap@@@1@@Z 1016b1d0 f i BNC_DrawObject.obj
 0002:000a8280       ??0?$_Vector_alloc@$0A@U?$_Vec_base_types@PAVCImage@ATL@@V?$allocator@PAVCImage@ATL@@@std@@@std@@@std@@QAE@ABV?$allocator@PAVCImage@ATL@@@1@@Z 1016b280 f i BNC_DrawObject.obj
 0002:000a8330       ??0?$_Vector_alloc@$0A@U?$_Vec_base_types@PAVImage@Gdiplus@@V?$allocator@PAVImage@Gdiplus@@@std@@@std@@@std@@QAE@ABV?$allocator@PAVImage@Gdiplus@@@1@@Z 1016b330 f i BNC_DrawObject.obj
 0002:000a83e0       ??0?$_Vector_alloc@$0A@U?$_Vec_base_types@VCSize@@V?$allocator@VCSize@@@std@@@std@@@std@@QAE@ABV?$allocator@VCSize@@@1@@Z 1016b3e0 f i BNC_DrawObject.obj
 0002:000a8490       ??0?$_Vector_val@U?$_Simple_types@PAVCBitmap@@@std@@@std@@QAE@XZ 1016b490 f i BNC_DrawObject.obj
 0002:000a8520       ??0?$_Vector_val@U?$_Simple_types@PAVCImage@ATL@@@std@@@std@@QAE@XZ 1016b520 f i BNC_DrawObject.obj
 0002:000a85b0       ??0?$_Vector_val@U?$_Simple_types@PAVImage@Gdiplus@@@std@@@std@@QAE@XZ 1016b5b0 f i BNC_DrawObject.obj
 0002:000a8640       ??0?$_Vector_val@U?$_Simple_types@VCSize@@@std@@@std@@QAE@XZ 1016b640 f i BNC_DrawObject.obj
 0002:000a86d0       ??0?$_Wrap_alloc@V?$allocator@PAVCBitmap@@@std@@@std@@QAE@XZ 1016b6d0 f i BNC_DrawObject.obj
 0002:000a8730       ??0?$_Wrap_alloc@V?$allocator@PAVCImage@ATL@@@std@@@std@@QAE@XZ 1016b730 f i BNC_DrawObject.obj
 0002:000a8790       ??0?$_Wrap_alloc@V?$allocator@PAVImage@Gdiplus@@@std@@@std@@QAE@XZ 1016b790 f i BNC_DrawObject.obj
 0002:000a87f0       ??0?$_Wrap_alloc@V?$allocator@VCSize@@@std@@@std@@QAE@XZ 1016b7f0 f i BNC_DrawObject.obj
 0002:000a8850       ??0?$allocator@PAVCBitmap@@@std@@QAE@XZ 1016b850 f i BNC_DrawObject.obj
 0002:000a8890       ??0?$allocator@PAVCImage@ATL@@@std@@QAE@XZ 1016b890 f i BNC_DrawObject.obj
 0002:000a88d0       ??0?$allocator@PAVImage@Gdiplus@@@std@@QAE@XZ 1016b8d0 f i BNC_DrawObject.obj
 0002:000a8910       ??0?$allocator@VCSize@@@std@@QAE@XZ 1016b910 f i BNC_DrawObject.obj
 0002:000a8950       ??0?$vector@PAVCBitmap@@V?$allocator@PAVCBitmap@@@std@@@std@@QAE@XZ 1016b950 f i BNC_DrawObject.obj
 0002:000a89c0       ??0?$vector@PAVCImage@ATL@@V?$allocator@PAVCImage@ATL@@@std@@@std@@QAE@XZ 1016b9c0 f i BNC_DrawObject.obj
 0002:000a8a30       ??0?$vector@PAVImage@Gdiplus@@V?$allocator@PAVImage@Gdiplus@@@std@@@std@@QAE@XZ 1016ba30 f i BNC_DrawObject.obj
 0002:000a8aa0       ??0?$vector@VCSize@@V?$allocator@VCSize@@@std@@@std@@QAE@XZ 1016baa0 f i BNC_DrawObject.obj
 0002:000a8b10       ??0BNC_DrawObject@@QAE@XZ  1016bb10 f   BNC_DrawObject.obj
 0002:000a8f10       ??0Image@Gdiplus@@QAE@PB_WH@Z 1016bf10 f i BNC_DrawObject.obj
 0002:000a8fc0       ??1?$_Vector_alloc@$0A@U?$_Vec_base_types@PAVCBitmap@@V?$allocator@PAVCBitmap@@@std@@@std@@@std@@QAE@XZ 1016bfc0 f i BNC_DrawObject.obj
 0002:000a9020       ??1?$_Vector_alloc@$0A@U?$_Vec_base_types@PAVCImage@ATL@@V?$allocator@PAVCImage@ATL@@@std@@@std@@@std@@QAE@XZ 1016c020 f i BNC_DrawObject.obj
 0002:000a9080       ??1?$_Vector_alloc@$0A@U?$_Vec_base_types@PAVImage@Gdiplus@@V?$allocator@PAVImage@Gdiplus@@@std@@@std@@@std@@QAE@XZ 1016c080 f i BNC_DrawObject.obj
 0002:000a90e0       ??1?$_Vector_alloc@$0A@U?$_Vec_base_types@VCSize@@V?$allocator@VCSize@@@std@@@std@@@std@@QAE@XZ 1016c0e0 f i BNC_DrawObject.obj
 0002:000a9140       ??1?$_Vector_val@U?$_Simple_types@PAVCBitmap@@@std@@@std@@QAE@XZ 1016c140 f i BNC_DrawObject.obj
 0002:000a91a0       ??1?$_Vector_val@U?$_Simple_types@PAVCImage@ATL@@@std@@@std@@QAE@XZ 1016c1a0 f i BNC_DrawObject.obj
 0002:000a9200       ??1?$_Vector_val@U?$_Simple_types@PAVImage@Gdiplus@@@std@@@std@@QAE@XZ 1016c200 f i BNC_DrawObject.obj
 0002:000a9260       ??1?$_Vector_val@U?$_Simple_types@VCSize@@@std@@@std@@QAE@XZ 1016c260 f i BNC_DrawObject.obj
 0002:000a92c0       ??1?$vector@PAVCBitmap@@V?$allocator@PAVCBitmap@@@std@@@std@@QAE@XZ 1016c2c0 f i BNC_DrawObject.obj
 0002:000a9320       ??1?$vector@PAVCImage@ATL@@V?$allocator@PAVCImage@ATL@@@std@@@std@@QAE@XZ 1016c320 f i BNC_DrawObject.obj
 0002:000a9380       ??1?$vector@PAVImage@Gdiplus@@V?$allocator@PAVImage@Gdiplus@@@std@@@std@@QAE@XZ 1016c380 f i BNC_DrawObject.obj
 0002:000a93e0       ??1?$vector@VCSize@@V?$allocator@VCSize@@@std@@@std@@QAE@XZ 1016c3e0 f i BNC_DrawObject.obj
 0002:000a9440       ??1BNC_DrawObject@@UAE@XZ  1016c440 f   BNC_DrawObject.obj
 0002:000a9ae0       ??A?$vector@PAVCBitmap@@V?$allocator@PAVCBitmap@@@std@@@std@@QAEAAPAVCBitmap@@I@Z 1016cae0 f i BNC_DrawObject.obj
 0002:000a9c00       ??A?$vector@PAVCImage@ATL@@V?$allocator@PAVCImage@ATL@@@std@@@std@@QAEAAPAVCImage@ATL@@I@Z 1016cc00 f i BNC_DrawObject.obj
 0002:000a9d20       ??A?$vector@PAVImage@Gdiplus@@V?$allocator@PAVImage@Gdiplus@@@std@@@std@@QAEAAPAVImage@Gdiplus@@I@Z 1016cd20 f i BNC_DrawObject.obj
 0002:000a9e40       ??A?$vector@VCSize@@V?$allocator@VCSize@@@std@@@std@@QAEAAVCSize@@I@Z 1016ce40 f i BNC_DrawObject.obj
 0002:000a9f60       ??_EBNC_DrawObject@@UAEPAXI@Z 1016cf60 f i BNC_DrawObject.obj
 0002:000aa020       ??_GBNC_DrawObject@@UAEPAXI@Z 1016d020 f i BNC_DrawObject.obj
 0002:000aa090       ?AddCdcImage@BNC_DrawObject@@QAEHI@Z 1016d090 f   BNC_DrawObject.obj
 0002:000aa2d0       ?AddCdcImage@BNC_DrawObject@@QAEHPAVCImage@ATL@@@Z 1016d2d0 f   BNC_DrawObject.obj
 0002:000aa3d0       ?AddGdiImage@BNC_DrawObject@@QAEHI@Z 1016d3d0 f   BNC_DrawObject.obj
 0002:000aa500       ?AddGdiImage@BNC_DrawObject@@QAEHPAVImage@Gdiplus@@@Z 1016d500 f   BNC_DrawObject.obj
 0002:000aa5d0       ?ClearCdcImage@BNC_DrawObject@@QAEXXZ 1016d5d0 f   BNC_DrawObject.obj
 0002:000aa740       ?ClearGdiImage@BNC_DrawObject@@QAEXXZ 1016d740 f   BNC_DrawObject.obj
 0002:000aa880       ?Create@BNC_DrawObject@@QAEXPB_W@Z 1016d880 f   BNC_DrawObject.obj
 0002:000aab10       ?CreateBitmapFromImage@BNC_DrawObject@@SAXPAVCDC@@KPAVImage@Gdiplus@@PAPAVCBitmap@@@Z 1016db10 f   BNC_DrawObject.obj
 0002:000aae60       ?CreateClipBitmapFromImage@BNC_DrawObject@@SAXPAVCDC@@KVCSize@@PAVImage@Gdiplus@@PAPAVCBitmap@@@Z 1016de60 f   BNC_DrawObject.obj
 0002:000ab420       ?CreateFontW@BNC_DrawObject@@SAXAAVCFont@@PB_WII_NH@Z 1016e420 f   BNC_DrawObject.obj
 0002:000ab5c0       ?CreateStretchBitmapFromImage@BNC_DrawObject@@SAXPAVCDC@@KVCSize@@_NPAVImage@Gdiplus@@PAPAVCBitmap@@@Z 1016e5c0 f   BNC_DrawObject.obj
 0002:000abbf0       ?FromFile@Image@Gdiplus@@SAPAV12@PB_WH@Z 1016ebf0 f i BNC_DrawObject.obj
 0002:000abcf0       ?GetAlphaMatrix@BNC_DrawObject@@SAXEAAUColorMatrix@Gdiplus@@@Z 1016ecf0 f   BNC_DrawObject.obj
 0002:000abd70       ?GetCdcBitmap@BNC_DrawObject@@QAEPAVCBitmap@@I@Z 1016ed70 f   BNC_DrawObject.obj
 0002:000abdf0       ?GetCdcBitmapSize@BNC_DrawObject@@QAE?AVCSize@@I@Z 1016edf0 f   BNC_DrawObject.obj
 0002:000abe90       ?GetFitStringAddDot@BNC_DrawObject@@SA?AV?$CStringT@_WV?$StrTraitMFC_DLL@_WV?$ChTraitsCRT@_W@ATL@@@@@ATL@@PAUHDC__@@PB_WHAAVCSize@@@Z 1016ee90 f   BNC_DrawObject.obj
 0002:000ac330       ?GetFitStringAddDotEx@BNC_DrawObject@@SA?AV?$CStringT@_WV?$StrTraitMFC_DLL@_WV?$ChTraitsCRT@_W@ATL@@@@@ATL@@PAUHDC__@@PB_W1HAAVCSize@@@Z 1016f330 f   BNC_DrawObject.obj
 0002:000ac980       ?GetGdiImage@BNC_DrawObject@@QAEPAVImage@Gdiplus@@I@Z 1016f980 f   BNC_DrawObject.obj
 0002:000aca00       ?GetGdiImageSize@BNC_DrawObject@@QAE?AVCSize@@I@Z 1016fa00 f   BNC_DrawObject.obj
 0002:000acaa0       ?LoadFromFile@BNC_DrawObject@@SA_NPAPAVImage@Gdiplus@@PB_W@Z 1016faa0 f   BNC_DrawObject.obj
 0002:000acb20       ?LoadFromResource@BNC_DrawObject@@SA_NAAVCImage@ATL@@IPB_WPAUHINSTANCE__@@@Z 1016fb20 f   BNC_DrawObject.obj
 0002:000acda0       ?LoadFromResource@BNC_DrawObject@@SA_NIPAPAVCImage@ATL@@PAPAVCBitmap@@AAVCSize@@PB_WPAUHINSTANCE__@@@Z 1016fda0 f   BNC_DrawObject.obj
 0002:000acf50       ?LoadFromResource@BNC_DrawObject@@SA_NPAPAVImage@Gdiplus@@IPB_WPAUHINSTANCE__@@@Z 1016ff50 f   BNC_DrawObject.obj
 0002:000ad2b0       ?OnCreate@BNC_DrawObject@@MAEXPB_W@Z 101702b0 f   BNC_DrawObject.obj
 0002:000ad2f0       ?ReplaceCdcImage@BNC_DrawObject@@QAEXIPAVCImage@ATL@@@Z 101702f0 f   BNC_DrawObject.obj
 0002:000ad490       ?ReplaceGdiImage@BNC_DrawObject@@QAEXIPAVImage@Gdiplus@@@Z 10170490 f   BNC_DrawObject.obj
 0002:000ad5c0       ?_Alloc_proxy@?$_Vector_alloc@$0A@U?$_Vec_base_types@PAVCBitmap@@V?$allocator@PAVCBitmap@@@std@@@std@@@std@@QAEXXZ 101705c0 f i BNC_DrawObject.obj
 0002:000ad6b0       ?_Alloc_proxy@?$_Vector_alloc@$0A@U?$_Vec_base_types@PAVCImage@ATL@@V?$allocator@PAVCImage@ATL@@@std@@@std@@@std@@QAEXXZ 101706b0 f i BNC_DrawObject.obj
 0002:000ad7a0       ?_Alloc_proxy@?$_Vector_alloc@$0A@U?$_Vec_base_types@PAVImage@Gdiplus@@V?$allocator@PAVImage@Gdiplus@@@std@@@std@@@std@@QAEXXZ 101707a0 f i BNC_DrawObject.obj
 0002:000ad890       ?_Alloc_proxy@?$_Vector_alloc@$0A@U?$_Vec_base_types@VCSize@@V?$allocator@VCSize@@@std@@@std@@@std@@QAEXXZ 10170890 f i BNC_DrawObject.obj
 0002:000ad980       ?_Destroy@?$vector@PAVCBitmap@@V?$allocator@PAVCBitmap@@@std@@@std@@IAEXPAPAVCBitmap@@0@Z 10170980 f i BNC_DrawObject.obj
 0002:000ada50       ?_Destroy@?$vector@PAVCImage@ATL@@V?$allocator@PAVCImage@ATL@@@std@@@std@@IAEXPAPAVCImage@ATL@@0@Z 10170a50 f i BNC_DrawObject.obj
 0002:000adb20       ?_Destroy@?$vector@PAVImage@Gdiplus@@V?$allocator@PAVImage@Gdiplus@@@std@@@std@@IAEXPAPAVImage@Gdiplus@@0@Z 10170b20 f i BNC_DrawObject.obj
 0002:000adbf0       ?_Destroy@?$vector@VCSize@@V?$allocator@VCSize@@@std@@@std@@IAEXPAVCSize@@0@Z 10170bf0 f i BNC_DrawObject.obj
 0002:000adcc0       ?_Free_proxy@?$_Vector_alloc@$0A@U?$_Vec_base_types@PAVCBitmap@@V?$allocator@PAVCBitmap@@@std@@@std@@@std@@QAEXXZ 10170cc0 f i BNC_DrawObject.obj
 0002:000addb0       ?_Free_proxy@?$_Vector_alloc@$0A@U?$_Vec_base_types@PAVCImage@ATL@@V?$allocator@PAVCImage@ATL@@@std@@@std@@@std@@QAEXXZ 10170db0 f i BNC_DrawObject.obj
 0002:000adea0       ?_Free_proxy@?$_Vector_alloc@$0A@U?$_Vec_base_types@PAVImage@Gdiplus@@V?$allocator@PAVImage@Gdiplus@@@std@@@std@@@std@@QAEXXZ 10170ea0 f i BNC_DrawObject.obj
 0002:000adf90       ?_Free_proxy@?$_Vector_alloc@$0A@U?$_Vec_base_types@VCSize@@V?$allocator@VCSize@@@std@@@std@@@std@@QAEXXZ 10170f90 f i BNC_DrawObject.obj
 0002:000ae080       ?_Getal@?$_Vector_alloc@$0A@U?$_Vec_base_types@PAVCBitmap@@V?$allocator@PAVCBitmap@@@std@@@std@@@std@@QBE?AU?$_Wrap_alloc@V?$allocator@PAVCBitmap@@@std@@@2@XZ 10171080 f i BNC_DrawObject.obj
 0002:000ae0e0       ?_Getal@?$_Vector_alloc@$0A@U?$_Vec_base_types@PAVCImage@ATL@@V?$allocator@PAVCImage@ATL@@@std@@@std@@@std@@QBE?AU?$_Wrap_alloc@V?$allocator@PAVCImage@ATL@@@std@@@2@XZ 101710e0 f i BNC_DrawObject.obj
 0002:000ae140       ?_Getal@?$_Vector_alloc@$0A@U?$_Vec_base_types@PAVImage@Gdiplus@@V?$allocator@PAVImage@Gdiplus@@@std@@@std@@@std@@QBE?AU?$_Wrap_alloc@V?$allocator@PAVImage@Gdiplus@@@std@@@2@XZ 10171140 f i BNC_DrawObject.obj
 0002:000ae1a0       ?_Getal@?$_Vector_alloc@$0A@U?$_Vec_base_types@VCSize@@V?$allocator@VCSize@@@std@@@std@@@std@@QBE?AU?$_Wrap_alloc@V?$allocator@VCSize@@@std@@@2@XZ 101711a0 f i BNC_DrawObject.obj
 0002:000ae200       ?_Grow_to@?$vector@PAVCBitmap@@V?$allocator@PAVCBitmap@@@std@@@std@@IBEII@Z 10171200 f i BNC_DrawObject.obj
 0002:000ae2b0       ?_Grow_to@?$vector@PAVCImage@ATL@@V?$allocator@PAVCImage@ATL@@@std@@@std@@IBEII@Z 101712b0 f i BNC_DrawObject.obj
 0002:000ae360       ?_Grow_to@?$vector@PAVImage@Gdiplus@@V?$allocator@PAVImage@Gdiplus@@@std@@@std@@IBEII@Z 10171360 f i BNC_DrawObject.obj
 0002:000ae410       ?_Grow_to@?$vector@VCSize@@V?$allocator@VCSize@@@std@@@std@@IBEII@Z 10171410 f i BNC_DrawObject.obj
 0002:000ae4c0       ?_Inside@?$vector@PAVCBitmap@@V?$allocator@PAVCBitmap@@@std@@@std@@IBE_NPBQAVCBitmap@@@Z 101714c0 f i BNC_DrawObject.obj
 0002:000ae540       ?_Inside@?$vector@PAVCImage@ATL@@V?$allocator@PAVCImage@ATL@@@std@@@std@@IBE_NPBQAVCImage@ATL@@@Z 10171540 f i BNC_DrawObject.obj
 0002:000ae5c0       ?_Inside@?$vector@PAVImage@Gdiplus@@V?$allocator@PAVImage@Gdiplus@@@std@@@std@@IBE_NPBQAVImage@Gdiplus@@@Z 101715c0 f i BNC_DrawObject.obj
 0002:000ae640       ?_Inside@?$vector@VCSize@@V?$allocator@VCSize@@@std@@@std@@IBE_NPBVCSize@@@Z 10171640 f i BNC_DrawObject.obj
 0002:000ae6c0       ?_Orphan_range@?$vector@PAVCBitmap@@V?$allocator@PAVCBitmap@@@std@@@std@@IBEXPAPAVCBitmap@@0@Z 101716c0 f i BNC_DrawObject.obj
 0002:000ae850       ?_Orphan_range@?$vector@PAVCImage@ATL@@V?$allocator@PAVCImage@ATL@@@std@@@std@@IBEXPAPAVCImage@ATL@@0@Z 10171850 f i BNC_DrawObject.obj
 0002:000ae9e0       ?_Orphan_range@?$vector@PAVImage@Gdiplus@@V?$allocator@PAVImage@Gdiplus@@@std@@@std@@IBEXPAPAVImage@Gdiplus@@0@Z 101719e0 f i BNC_DrawObject.obj
 0002:000aeb70       ?_Orphan_range@?$vector@VCSize@@V?$allocator@VCSize@@@std@@@std@@IBEXPAVCSize@@0@Z 10171b70 f i BNC_DrawObject.obj
 0002:000aed00       ?_Reallocate@?$vector@PAVCBitmap@@V?$allocator@PAVCBitmap@@@std@@@std@@IAEXI@Z 10171d00 f i BNC_DrawObject.obj
 0002:000aeee0       ?_Reallocate@?$vector@PAVCImage@ATL@@V?$allocator@PAVCImage@ATL@@@std@@@std@@IAEXI@Z 10171ee0 f i BNC_DrawObject.obj
 0002:000af0c0       ?_Reallocate@?$vector@PAVImage@Gdiplus@@V?$allocator@PAVImage@Gdiplus@@@std@@@std@@IAEXI@Z 101720c0 f i BNC_DrawObject.obj
 0002:000af2a0       ?_Reallocate@?$vector@VCSize@@V?$allocator@VCSize@@@std@@@std@@IAEXI@Z 101722a0 f i BNC_DrawObject.obj
 0002:000af480       ?_Reserve@?$vector@PAVCBitmap@@V?$allocator@PAVCBitmap@@@std@@@std@@IAEXI@Z 10172480 f i BNC_DrawObject.obj
 0002:000af530       ?_Reserve@?$vector@PAVCImage@ATL@@V?$allocator@PAVCImage@ATL@@@std@@@std@@IAEXI@Z 10172530 f i BNC_DrawObject.obj
 0002:000af5e0       ?_Reserve@?$vector@PAVImage@Gdiplus@@V?$allocator@PAVImage@Gdiplus@@@std@@@std@@IAEXI@Z 101725e0 f i BNC_DrawObject.obj
 0002:000af690       ?_Reserve@?$vector@VCSize@@V?$allocator@VCSize@@@std@@@std@@IAEXI@Z 10172690 f i BNC_DrawObject.obj
 0002:000af740       ?_Tidy@?$vector@PAVCBitmap@@V?$allocator@PAVCBitmap@@@std@@@std@@IAEXXZ 10172740 f i BNC_DrawObject.obj
 0002:000af820       ?_Tidy@?$vector@PAVCImage@ATL@@V?$allocator@PAVCImage@ATL@@@std@@@std@@IAEXXZ 10172820 f i BNC_DrawObject.obj
 0002:000af900       ?_Tidy@?$vector@PAVImage@Gdiplus@@V?$allocator@PAVImage@Gdiplus@@@std@@@std@@IAEXXZ 10172900 f i BNC_DrawObject.obj
 0002:000af9e0       ?_Tidy@?$vector@VCSize@@V?$allocator@VCSize@@@std@@@std@@IAEXXZ 101729e0 f i BNC_DrawObject.obj
 0002:000afac0       ?_Unused_capacity@?$vector@PAVCBitmap@@V?$allocator@PAVCBitmap@@@std@@@std@@QBEIXZ 10172ac0 f i BNC_DrawObject.obj
 0002:000afb10       ?_Unused_capacity@?$vector@PAVCImage@ATL@@V?$allocator@PAVCImage@ATL@@@std@@@std@@QBEIXZ 10172b10 f i BNC_DrawObject.obj
 0002:000afb60       ?_Unused_capacity@?$vector@PAVImage@Gdiplus@@V?$allocator@PAVImage@Gdiplus@@@std@@@std@@QBEIXZ 10172b60 f i BNC_DrawObject.obj
 0002:000afbb0       ?_Unused_capacity@?$vector@VCSize@@V?$allocator@VCSize@@@std@@@std@@QBEIXZ 10172bb0 f i BNC_DrawObject.obj
 0002:000afc00       ?_Xlen@?$vector@PAVCBitmap@@V?$allocator@PAVCBitmap@@@std@@@std@@IBEXXZ 10172c00 f i BNC_DrawObject.obj
 0002:000afc60       ?_Xlen@?$vector@PAVCImage@ATL@@V?$allocator@PAVCImage@ATL@@@std@@@std@@IBEXXZ 10172c60 f i BNC_DrawObject.obj
 0002:000afcc0       ?_Xlen@?$vector@PAVImage@Gdiplus@@V?$allocator@PAVImage@Gdiplus@@@std@@@std@@IBEXXZ 10172cc0 f i BNC_DrawObject.obj
 0002:000afd20       ?_Xlen@?$vector@VCSize@@V?$allocator@VCSize@@@std@@@std@@IBEXXZ 10172d20 f i BNC_DrawObject.obj
 0002:000afd80       ?allocate@?$_Wrap_alloc@V?$allocator@PAVCBitmap@@@std@@@std@@QAEPAPAVCBitmap@@I@Z 10172d80 f i BNC_DrawObject.obj
 0002:000afde0       ?allocate@?$_Wrap_alloc@V?$allocator@PAVCImage@ATL@@@std@@@std@@QAEPAPAVCImage@ATL@@I@Z 10172de0 f i BNC_DrawObject.obj
 0002:000afe40       ?allocate@?$_Wrap_alloc@V?$allocator@PAVImage@Gdiplus@@@std@@@std@@QAEPAPAVImage@Gdiplus@@I@Z 10172e40 f i BNC_DrawObject.obj
 0002:000afea0       ?allocate@?$_Wrap_alloc@V?$allocator@VCSize@@@std@@@std@@QAEPAVCSize@@I@Z 10172ea0 f i BNC_DrawObject.obj
 0002:000aff00       ?allocate@?$allocator@PAVCBitmap@@@std@@QAEPAPAVCBitmap@@I@Z 10172f00 f i BNC_DrawObject.obj
 0002:000aff60       ?allocate@?$allocator@PAVCImage@ATL@@@std@@QAEPAPAVCImage@ATL@@I@Z 10172f60 f i BNC_DrawObject.obj
 0002:000affc0       ?allocate@?$allocator@PAVImage@Gdiplus@@@std@@QAEPAPAVImage@Gdiplus@@I@Z 10172fc0 f i BNC_DrawObject.obj
 0002:000b0020       ?allocate@?$allocator@VCSize@@@std@@QAEPAVCSize@@I@Z 10173020 f i BNC_DrawObject.obj
 0002:000b0080       ?capacity@?$vector@PAVCBitmap@@V?$allocator@PAVCBitmap@@@std@@@std@@QBEIXZ 10173080 f i BNC_DrawObject.obj
 0002:000b00d0       ?capacity@?$vector@PAVCImage@ATL@@V?$allocator@PAVCImage@ATL@@@std@@@std@@QBEIXZ 101730d0 f i BNC_DrawObject.obj
 0002:000b0120       ?capacity@?$vector@PAVImage@Gdiplus@@V?$allocator@PAVImage@Gdiplus@@@std@@@std@@QBEIXZ 10173120 f i BNC_DrawObject.obj
 0002:000b0170       ?capacity@?$vector@VCSize@@V?$allocator@VCSize@@@std@@@std@@QBEIXZ 10173170 f i BNC_DrawObject.obj
 0002:000b01c0       ?clear@?$vector@PAVCBitmap@@V?$allocator@PAVCBitmap@@@std@@@std@@QAEXXZ 101731c0 f i BNC_DrawObject.obj
 0002:000b0250       ?clear@?$vector@PAVCImage@ATL@@V?$allocator@PAVCImage@ATL@@@std@@@std@@QAEXXZ 10173250 f i BNC_DrawObject.obj
 0002:000b02e0       ?clear@?$vector@PAVImage@Gdiplus@@V?$allocator@PAVImage@Gdiplus@@@std@@@std@@QAEXXZ 101732e0 f i BNC_DrawObject.obj
 0002:000b0370       ?clear@?$vector@VCSize@@V?$allocator@VCSize@@@std@@@std@@QAEXXZ 10173370 f i BNC_DrawObject.obj
 0002:000b0400       ?construct@?$allocator@PAVCBitmap@@@std@@QAEXPAPAVCBitmap@@ABQAV3@@Z 10173400 f i BNC_DrawObject.obj
 0002:000b04a0       ?construct@?$allocator@PAVCImage@ATL@@@std@@QAEXPAPAVCImage@ATL@@ABQAV34@@Z 101734a0 f i BNC_DrawObject.obj
 0002:000b0540       ?construct@?$allocator@PAVImage@Gdiplus@@@std@@QAEXPAPAVImage@Gdiplus@@ABQAV34@@Z 10173540 f i BNC_DrawObject.obj
 0002:000b05e0       ?deallocate@?$_Wrap_alloc@V?$allocator@PAVCBitmap@@@std@@@std@@QAEXPAPAVCBitmap@@I@Z 101735e0 f i BNC_DrawObject.obj
 0002:000b0640       ?deallocate@?$_Wrap_alloc@V?$allocator@PAVCImage@ATL@@@std@@@std@@QAEXPAPAVCImage@ATL@@I@Z 10173640 f i BNC_DrawObject.obj
 0002:000b06a0       ?deallocate@?$_Wrap_alloc@V?$allocator@PAVImage@Gdiplus@@@std@@@std@@QAEXPAPAVImage@Gdiplus@@I@Z 101736a0 f i BNC_DrawObject.obj
 0002:000b0700       ?deallocate@?$_Wrap_alloc@V?$allocator@VCSize@@@std@@@std@@QAEXPAVCSize@@I@Z 10173700 f i BNC_DrawObject.obj
 0002:000b0760       ?deallocate@?$allocator@PAVCBitmap@@@std@@QAEXPAPAVCBitmap@@I@Z 10173760 f i BNC_DrawObject.obj
 0002:000b07c0       ?deallocate@?$allocator@PAVCImage@ATL@@@std@@QAEXPAPAVCImage@ATL@@I@Z 101737c0 f i BNC_DrawObject.obj
 0002:000b0820       ?deallocate@?$allocator@PAVImage@Gdiplus@@@std@@QAEXPAPAVImage@Gdiplus@@I@Z 10173820 f i BNC_DrawObject.obj
 0002:000b0880       ?deallocate@?$allocator@VCSize@@@std@@QAEXPAVCSize@@I@Z 10173880 f i BNC_DrawObject.obj
 0002:000b08e0       ?max_size@?$_Wrap_alloc@V?$allocator@PAVCBitmap@@@std@@@std@@QBEIXZ 101738e0 f i BNC_DrawObject.obj
 0002:000b0940       ?max_size@?$_Wrap_alloc@V?$allocator@PAVCImage@ATL@@@std@@@std@@QBEIXZ 10173940 f i BNC_DrawObject.obj
 0002:000b09a0       ?max_size@?$_Wrap_alloc@V?$allocator@PAVImage@Gdiplus@@@std@@@std@@QBEIXZ 101739a0 f i BNC_DrawObject.obj
 0002:000b0a00       ?max_size@?$_Wrap_alloc@V?$allocator@VCSize@@@std@@@std@@QBEIXZ 10173a00 f i BNC_DrawObject.obj
 0002:000b0a60       ?max_size@?$allocator@PAVCBitmap@@@std@@QBEIXZ 10173a60 f i BNC_DrawObject.obj
 0002:000b0aa0       ?max_size@?$allocator@PAVCImage@ATL@@@std@@QBEIXZ 10173aa0 f i BNC_DrawObject.obj
 0002:000b0ae0       ?max_size@?$allocator@PAVImage@Gdiplus@@@std@@QBEIXZ 10173ae0 f i BNC_DrawObject.obj
 0002:000b0b20       ?max_size@?$allocator@VCSize@@@std@@QBEIXZ 10173b20 f i BNC_DrawObject.obj
 0002:000b0b60       ?max_size@?$allocator_traits@V?$allocator@PAVCBitmap@@@std@@@std@@SAIABV?$allocator@PAVCBitmap@@@2@@Z 10173b60 f i BNC_DrawObject.obj
 0002:000b0bb0       ?max_size@?$allocator_traits@V?$allocator@PAVCImage@ATL@@@std@@@std@@SAIABV?$allocator@PAVCImage@ATL@@@2@@Z 10173bb0 f i BNC_DrawObject.obj
 0002:000b0c00       ?max_size@?$allocator_traits@V?$allocator@PAVImage@Gdiplus@@@std@@@std@@SAIABV?$allocator@PAVImage@Gdiplus@@@2@@Z 10173c00 f i BNC_DrawObject.obj
 0002:000b0c50       ?max_size@?$allocator_traits@V?$allocator@VCSize@@@std@@@std@@SAIABV?$allocator@VCSize@@@2@@Z 10173c50 f i BNC_DrawObject.obj
 0002:000b0ca0       ?max_size@?$vector@PAVCBitmap@@V?$allocator@PAVCBitmap@@@std@@@std@@QBEIXZ 10173ca0 f i BNC_DrawObject.obj
 0002:000b0d00       ?max_size@?$vector@PAVCImage@ATL@@V?$allocator@PAVCImage@ATL@@@std@@@std@@QBEIXZ 10173d00 f i BNC_DrawObject.obj
 0002:000b0d60       ?max_size@?$vector@PAVImage@Gdiplus@@V?$allocator@PAVImage@Gdiplus@@@std@@@std@@QBEIXZ 10173d60 f i BNC_DrawObject.obj
 0002:000b0dc0       ?max_size@?$vector@VCSize@@V?$allocator@VCSize@@@std@@@std@@QBEIXZ 10173dc0 f i BNC_DrawObject.obj
 0002:000b0e20       ?push_back@?$vector@PAVCBitmap@@V?$allocator@PAVCBitmap@@@std@@@std@@QAEX$$QAPAVCBitmap@@@Z 10173e20 f i BNC_DrawObject.obj
 0002:000b0fc0       ?push_back@?$vector@PAVCBitmap@@V?$allocator@PAVCBitmap@@@std@@@std@@QAEXABQAVCBitmap@@@Z 10173fc0 f i BNC_DrawObject.obj
 0002:000b1150       ?push_back@?$vector@PAVCImage@ATL@@V?$allocator@PAVCImage@ATL@@@std@@@std@@QAEXABQAVCImage@ATL@@@Z 10174150 f i BNC_DrawObject.obj
 0002:000b12e0       ?push_back@?$vector@PAVImage@Gdiplus@@V?$allocator@PAVImage@Gdiplus@@@std@@@std@@QAEXABQAVImage@Gdiplus@@@Z 101742e0 f i BNC_DrawObject.obj
 0002:000b1470       ?push_back@?$vector@VCSize@@V?$allocator@VCSize@@@std@@@std@@QAEX$$QAVCSize@@@Z 10174470 f i BNC_DrawObject.obj
 0002:000b1610       ?size@?$vector@PAVCBitmap@@V?$allocator@PAVCBitmap@@@std@@@std@@QBEIXZ 10174610 f i BNC_DrawObject.obj
 0002:000b1660       ?size@?$vector@PAVCImage@ATL@@V?$allocator@PAVCImage@ATL@@@std@@@std@@QBEIXZ 10174660 f i BNC_DrawObject.obj
 0002:000b16b0       ?size@?$vector@PAVImage@Gdiplus@@V?$allocator@PAVImage@Gdiplus@@@std@@@std@@QBEIXZ 101746b0 f i BNC_DrawObject.obj
 0002:000b1700       ?size@?$vector@VCSize@@V?$allocator@VCSize@@@std@@@std@@QBEIXZ 10174700 f i BNC_DrawObject.obj
 0002:000b1750       ??0BNC_DrawString@@QAE@PB_W@Z 10174750 f   BNC_DrawString.obj
 0002:000b1840       ??0BNC_DrawString@@QAE@XZ  10174840 f   BNC_DrawString.obj
 0002:000b1910       ??1BNC_DrawString@@QAE@XZ  10174910 f   BNC_DrawString.obj
 0002:000b19d0       ?Default@BNC_DrawString@@QAEXXZ 101749d0 f   BNC_DrawString.obj
 0002:000b1a50       ?Draw@BNC_DrawString@@QAEX_NPAVCDC@@H@Z 10174a50 f   BNC_DrawString.obj
 0002:000b1ce0       ?GetDrawArea@BNC_DrawString@@QAE?AVCSize@@PAVCDC@@@Z 10174ce0 f   BNC_DrawString.obj
 0002:000b1e20       ??0BNC_DwmColorControl@@QAE@XZ 10174e20 f   BNC_DwmColorControl.obj
 0002:000b1e90       ??0CRegKey@ATL@@QAE@PAVCAtlTransactionManager@1@@Z 10174e90 f i BNC_DwmColorControl.obj
 0002:000b1ef0       ??1BNC_DwmColorControl@@QAE@XZ 10174ef0 f   BNC_DwmColorControl.obj
 0002:000b1f60       ??1CRegKey@ATL@@QAE@XZ     10174f60 f i BNC_DwmColorControl.obj
 0002:000b1fb0       ?AtlHresultFromLastError@ATL@@YAJXZ 10174fb0 f i BNC_DwmColorControl.obj
 0002:000b2020       ?AtlHresultFromWin32@ATL@@YAJK@Z 10175020 f i BNC_DwmColorControl.obj
 0002:000b2070       ?Close@CRegKey@ATL@@QAEJXZ 10175070 f i BNC_DwmColorControl.obj
 0002:000b2110       ?Create@CRegKey@ATL@@QAEJPAUHKEY__@@PB_WPA_WKKPAU_SECURITY_ATTRIBUTES@@PAK@Z 10175110 f i BNC_DwmColorControl.obj
 0002:000b22f0       ?DeleteValue@CRegKey@ATL@@QAEJPB_W@Z 101752f0 f i BNC_DwmColorControl.obj
 0002:000b23b0       ?GetAccentColor@BNC_DwmColorControl@@QAEKXZ 101753b0 f   BNC_DwmColorControl.obj
 0002:000b2520       ?GetColorParam@BNC_DwmColorControl@@SA_NPB_WPAK@Z 10175520 f   BNC_DwmColorControl.obj
 0002:000b2660       ?GetDwmColorizationColor@BNC_DwmColorControl@@QAEKXZ 10175660 f   BNC_DwmColorControl.obj
 0002:000b2810       ?InitWindowsThemeColorApi@BNC_DwmColorControl@@QAEXXZ 10175810 f   BNC_DwmColorControl.obj
 0002:000b2cb0       ?IsNewAutoColorAccentAlgorithm@BNC_DwmColorControl@@QAE_NXZ 10175cb0 f   BNC_DwmColorControl.obj
 0002:000b3070       ?Open@CRegKey@ATL@@QAEJPAUHKEY__@@PB_WK@Z 10176070 f i BNC_DwmColorControl.obj
 0002:000b3260       ?QueryDWORDValue@CRegKey@ATL@@QAEJPB_WAAK@Z 10176260 f i BNC_DwmColorControl.obj
 0002:000b33c0       ?RegCreateKeyExW@CAtlTransactionManager@ATL@@QAEJPAUHKEY__@@PB_WKPA_WKKQAU_SECURITY_ATTRIBUTES@@PAPAU3@PAK@Z 101763c0 f i BNC_DwmColorControl.obj
 0002:000b3560       ?RegOpenKeyExW@CAtlTransactionManager@ATL@@QAEJPAUHKEY__@@PB_WKKPAPAU3@@Z 10176560 f i BNC_DwmColorControl.obj
 0002:000b36d0       ?SetAccentColor@BNC_DwmColorControl@@QAEXK_N@Z 101766d0 f   BNC_DwmColorControl.obj
 0002:000b39a0       ?SetAutoColorAccentAlgorithm@BNC_DwmColorControl@@QAEX_N@Z 101769a0 f   BNC_DwmColorControl.obj
 0002:000b3d30       ?SetDWORDValue@CRegKey@ATL@@QAEJPB_WK@Z 10176d30 f i BNC_DwmColorControl.obj
 0002:000b3e00       ?SetDwmColorizationColor@BNC_DwmColorControl@@QAEXK@Z 10176e00 f   BNC_DwmColorControl.obj
 0002:000b4080       ?__autoclassinit2@CRegKey@ATL@@QAEXI@Z 10177080 f i BNC_DwmColorControl.obj
 0002:000b40e0       ??$?0AAPAV?$shared_ptr@VBNC_FakeRect@@@std@@AAPAV01@X@?$pair@PAV?$shared_ptr@VBNC_FakeRect@@@std@@PAV12@@std@@QAE@AAPAV?$shared_ptr@VBNC_FakeRect@@@1@0@Z 101770e0 f i BNC_FakeBtnSet.obj
 0002:000b4160       ??$?0PAUHWND__@@AAV?$function@$$A6AXAAVGraphics@Gdiplus@@PAVCDC@@1AAVBNC_FakeRect@@@Z@std@@AAV?$function@$$A6AXHHH_N@Z@2@@?$_Ref_count_obj@VBNC_FakeRect@@@std@@QAE@$$QAPAUHWND__@@AAV?$function@$$A6AXAAVGraphics@Gdiplus@@PAVCDC@@1AAVBNC_FakeRect@@@Z@1@AAV?$function@$$A6AXHHH_N@Z@1@@Z 10177160 f i BNC_FakeBtnSet.obj
 0002:000b4310       ??$_Adjust_heap@PAV?$shared_ptr@VBNC_FakeRect@@@std@@HV12@V<lambda_7ce23148b5fee2027ad36ebef1ba7dcd>@@@std@@YAXPAV?$shared_ptr@VBNC_FakeRect@@@0@HH$$QAV10@V<lambda_7ce23148b5fee2027ad36ebef1ba7dcd>@@@Z 10177310 f i BNC_FakeBtnSet.obj
 0002:000b4470       ??$_Allocate@I@std@@YAPAIIPAI@Z 10177470 f i BNC_FakeBtnSet.obj
 0002:000b4510       ??$_Debug_heap@PAV?$shared_ptr@VBNC_FakeRect@@@std@@V<lambda_7ce23148b5fee2027ad36ebef1ba7dcd>@@@std@@YAXPAV?$shared_ptr@VBNC_FakeRect@@@0@0V<lambda_7ce23148b5fee2027ad36ebef1ba7dcd>@@@Z 10177510 f i BNC_FakeBtnSet.obj
 0002:000b4670       ??$_Debug_lt_pred@V<lambda_7ce23148b5fee2027ad36ebef1ba7dcd>@@AAV?$shared_ptr@VBNC_FakeRect@@@std@@AAV23@@std@@YA_NV<lambda_7ce23148b5fee2027ad36ebef1ba7dcd>@@AAV?$shared_ptr@VBNC_FakeRect@@@0@1PB_WI@Z 10177670 f i BNC_FakeBtnSet.obj
 0002:000b4750       ??$_Debug_pointer@I@std@@YAXPAIPB_WI@Z 10177750 f i BNC_FakeBtnSet.obj
 0002:000b47c0       ??$_Debug_pointer@V<lambda_7ce23148b5fee2027ad36ebef1ba7dcd>@@@std@@YAXAAV<lambda_7ce23148b5fee2027ad36ebef1ba7dcd>@@PB_WI@Z 101777c0 f i BNC_FakeBtnSet.obj
 0002:000b47f0       ??$_Debug_pointer@V?$_Vector_iterator@V?$_Vector_val@U?$_Simple_types@V?$shared_ptr@VBNC_FakeRect@@@std@@@std@@@std@@@std@@@std@@YAXAAV?$_Vector_iterator@V?$_Vector_val@U?$_Simple_types@V?$shared_ptr@VBNC_FakeRect@@@std@@@std@@@std@@@0@PB_WI@Z 101777f0 f i BNC_FakeBtnSet.obj
 0002:000b4820       ??$_Debug_range2@PAI@std@@YAXPAI0PB_WIUrandom_access_iterator_tag@0@@Z 10177820 f i BNC_FakeBtnSet.obj
 0002:000b48d0       ??$_Debug_range2@V?$_Vector_iterator@V?$_Vector_val@U?$_Simple_types@V?$shared_ptr@VBNC_FakeRect@@@std@@@std@@@std@@@std@@@std@@YAXV?$_Vector_iterator@V?$_Vector_val@U?$_Simple_types@V?$shared_ptr@VBNC_FakeRect@@@std@@@std@@@std@@@0@0PB_WIUrandom_access_iterator_tag@0@@Z 101778d0 f i BNC_FakeBtnSet.obj
 0002:000b4a00       ??$_Debug_range@PAI@std@@YAXPAI0PB_WI@Z 10177a00 f i BNC_FakeBtnSet.obj
 0002:000b4a80       ??$_Debug_range@V?$_Vector_iterator@V?$_Vector_val@U?$_Simple_types@V?$shared_ptr@VBNC_FakeRect@@@std@@@std@@@std@@@std@@@std@@YAXV?$_Vector_iterator@V?$_Vector_val@U?$_Simple_types@V?$shared_ptr@VBNC_FakeRect@@@std@@@std@@@std@@@0@0PB_WI@Z 10177a80 f i BNC_FakeBtnSet.obj
 0002:000b4bb0       ??$_Destroy_range@U?$_Wrap_alloc@V?$allocator@I@std@@@std@@@std@@YAXPAI0AAU?$_Wrap_alloc@V?$allocator@I@std@@@0@@Z 10177bb0 f i BNC_FakeBtnSet.obj
 0002:000b4c30       ??$_Destroy_range@U?$_Wrap_alloc@V?$allocator@I@std@@@std@@@std@@YAXPAI0AAU?$_Wrap_alloc@V?$allocator@I@std@@@0@U_Scalar_ptr_iterator_tag@0@@Z 10177c30 f i BNC_FakeBtnSet.obj
 0002:000b4c60       ??$_Dist_type@PAV?$shared_ptr@VBNC_FakeRect@@@std@@@std@@YAPAHPAV?$shared_ptr@VBNC_FakeRect@@@0@@Z 10177c60 f i BNC_FakeBtnSet.obj
 0002:000b4c90       ??$_Insertion_sort1@PAV?$shared_ptr@VBNC_FakeRect@@@std@@V<lambda_7ce23148b5fee2027ad36ebef1ba7dcd>@@V12@@std@@YAXPAV?$shared_ptr@VBNC_FakeRect@@@0@0V<lambda_7ce23148b5fee2027ad36ebef1ba7dcd>@@0@Z 10177c90 f i BNC_FakeBtnSet.obj
 0002:000b4ec0       ??$_Insertion_sort@PAV?$shared_ptr@VBNC_FakeRect@@@std@@V<lambda_7ce23148b5fee2027ad36ebef1ba7dcd>@@@std@@YAXPAV?$shared_ptr@VBNC_FakeRect@@@0@0V<lambda_7ce23148b5fee2027ad36ebef1ba7dcd>@@@Z 10177ec0 f i BNC_FakeBtnSet.obj
 0002:000b4f30       ??$_Iter_cat@PAI@std@@YA?AUrandom_access_iterator_tag@0@ABQAI@Z 10177f30 f i BNC_FakeBtnSet.obj
 0002:000b4fb0       ??$_Iter_cat@V?$_Vector_iterator@V?$_Vector_val@U?$_Simple_types@V?$shared_ptr@VBNC_FakeRect@@@std@@@std@@@std@@@std@@@std@@YA?AUrandom_access_iterator_tag@0@ABV?$_Vector_iterator@V?$_Vector_val@U?$_Simple_types@V?$shared_ptr@VBNC_FakeRect@@@std@@@std@@@std@@@0@@Z 10177fb0 f i BNC_FakeBtnSet.obj
 0002:000b5030       ??$_Make_heap@PAV?$shared_ptr@VBNC_FakeRect@@@std@@HV12@V<lambda_7ce23148b5fee2027ad36ebef1ba7dcd>@@@std@@YAXPAV?$shared_ptr@VBNC_FakeRect@@@0@0V<lambda_7ce23148b5fee2027ad36ebef1ba7dcd>@@PAH0@Z 10178030 f i BNC_FakeBtnSet.obj
 0002:000b51a0       ??$_Med3@PAV?$shared_ptr@VBNC_FakeRect@@@std@@V<lambda_7ce23148b5fee2027ad36ebef1ba7dcd>@@@std@@YAXPAV?$shared_ptr@VBNC_FakeRect@@@0@00V<lambda_7ce23148b5fee2027ad36ebef1ba7dcd>@@@Z 101781a0 f i BNC_FakeBtnSet.obj
 0002:000b52b0       ??$_Median@PAV?$shared_ptr@VBNC_FakeRect@@@std@@V<lambda_7ce23148b5fee2027ad36ebef1ba7dcd>@@@std@@YAXPAV?$shared_ptr@VBNC_FakeRect@@@0@00V<lambda_7ce23148b5fee2027ad36ebef1ba7dcd>@@@Z 101782b0 f i BNC_FakeBtnSet.obj
 0002:000b5410       ??$_Move@AAV?$shared_ptr@VBNC_FakeRect@@@std@@@std@@YA$$QAV?$shared_ptr@VBNC_FakeRect@@@0@AAV10@@Z 10178410 f i BNC_FakeBtnSet.obj
 0002:000b5450       ??$_Move_backward@PAV?$shared_ptr@VBNC_FakeRect@@@std@@PAV12@@std@@YAPAV?$shared_ptr@VBNC_FakeRect@@@0@PAV10@00@Z 10178450 f i BNC_FakeBtnSet.obj
 0002:000b54d0       ??$_Move_backward@PAV?$shared_ptr@VBNC_FakeRect@@@std@@PAV12@@std@@YAPAV?$shared_ptr@VBNC_FakeRect@@@0@PAV10@00U_Nonscalar_ptr_iterator_tag@0@@Z 101784d0 f i BNC_FakeBtnSet.obj
 0002:000b5550       ??$_Pop_heap@PAV?$shared_ptr@VBNC_FakeRect@@@std@@HV12@V<lambda_7ce23148b5fee2027ad36ebef1ba7dcd>@@@std@@YAXPAV?$shared_ptr@VBNC_FakeRect@@@0@00$$QAV10@V<lambda_7ce23148b5fee2027ad36ebef1ba7dcd>@@PAH@Z 10178550 f i BNC_FakeBtnSet.obj
 0002:000b55e0       ??$_Pop_heap@PAV?$shared_ptr@VBNC_FakeRect@@@std@@V<lambda_7ce23148b5fee2027ad36ebef1ba7dcd>@@@std@@YAXPAV?$shared_ptr@VBNC_FakeRect@@@0@0V<lambda_7ce23148b5fee2027ad36ebef1ba7dcd>@@@Z 101785e0 f i BNC_FakeBtnSet.obj
 0002:000b5660       ??$_Pop_heap_0@PAV?$shared_ptr@VBNC_FakeRect@@@std@@V12@V<lambda_7ce23148b5fee2027ad36ebef1ba7dcd>@@@std@@YAXPAV?$shared_ptr@VBNC_FakeRect@@@0@0V<lambda_7ce23148b5fee2027ad36ebef1ba7dcd>@@0@Z 10178660 f i BNC_FakeBtnSet.obj
 0002:000b57b0       ??$_Ptr_cat@II@std@@YA?AU_Scalar_ptr_iterator_tag@0@PAI0@Z 101787b0 f i BNC_FakeBtnSet.obj
 0002:000b5820       ??$_Push_heap@PAV?$shared_ptr@VBNC_FakeRect@@@std@@HV12@V<lambda_7ce23148b5fee2027ad36ebef1ba7dcd>@@@std@@YAXPAV?$shared_ptr@VBNC_FakeRect@@@0@HH$$QAV10@V<lambda_7ce23148b5fee2027ad36ebef1ba7dcd>@@@Z 10178820 f i BNC_FakeBtnSet.obj
 0002:000b5920       ??$_Rechecked@PAIPAI@std@@YAAAPAIAAPAIPAI@Z 10178920 f i BNC_FakeBtnSet.obj
 0002:000b5960       ??$_Resetp0@VBNC_FakeRect@@@?$shared_ptr@VBNC_FakeRect@@@std@@QAEXPAVBNC_FakeRect@@PAV_Ref_count_base@1@@Z 10178960 f i BNC_FakeBtnSet.obj
 0002:000b59d0       ??$_Sort@PAV?$shared_ptr@VBNC_FakeRect@@@std@@HV<lambda_7ce23148b5fee2027ad36ebef1ba7dcd>@@@std@@YAXPAV?$shared_ptr@VBNC_FakeRect@@@0@0HV<lambda_7ce23148b5fee2027ad36ebef1ba7dcd>@@@Z 101789d0 f i BNC_FakeBtnSet.obj
 0002:000b5ba0       ??$_Sort_heap@PAV?$shared_ptr@VBNC_FakeRect@@@std@@V<lambda_7ce23148b5fee2027ad36ebef1ba7dcd>@@@std@@YAXPAV?$shared_ptr@VBNC_FakeRect@@@0@0V<lambda_7ce23148b5fee2027ad36ebef1ba7dcd>@@@Z 10178ba0 f i BNC_FakeBtnSet.obj
 0002:000b5c20       ??$_Umove@PAI@?$vector@IV?$allocator@I@std@@@std@@IAEPAIPAI00@Z 10178c20 f i BNC_FakeBtnSet.obj
 0002:000b5cf0       ??$_Umove@PAV?$shared_ptr@VBNC_FakeRect@@@std@@@?$vector@V?$shared_ptr@VBNC_FakeRect@@@std@@V?$allocator@V?$shared_ptr@VBNC_FakeRect@@@std@@@2@@std@@IAEPAV?$shared_ptr@VBNC_FakeRect@@@1@PAV21@00@Z 10178cf0 f i BNC_FakeBtnSet.obj
 0002:000b5dc0       ??$_Unchecked@PAI@std@@YAPAIPAI@Z 10178dc0 f i BNC_FakeBtnSet.obj
 0002:000b5e00       ??$_Unchecked@V?$_Vector_val@U?$_Simple_types@V?$shared_ptr@VBNC_FakeRect@@@std@@@std@@@std@@@std@@YAPAV?$shared_ptr@VBNC_FakeRect@@@0@V?$_Vector_iterator@V?$_Vector_val@U?$_Simple_types@V?$shared_ptr@VBNC_FakeRect@@@std@@@std@@@std@@@0@@Z 10178e00 f i BNC_FakeBtnSet.obj
 0002:000b5eb0       ??$_Unguarded_partition@PAV?$shared_ptr@VBNC_FakeRect@@@std@@V<lambda_7ce23148b5fee2027ad36ebef1ba7dcd>@@@std@@YA?AU?$pair@PAV?$shared_ptr@VBNC_FakeRect@@@std@@PAV12@@0@PAV?$shared_ptr@VBNC_FakeRect@@@0@0V<lambda_7ce23148b5fee2027ad36ebef1ba7dcd>@@@Z 10178eb0 f i BNC_FakeBtnSet.obj
 0002:000b6370       ??$_Uninit_move@III@std@@YAPAIPAI00AAU?$_Wrap_alloc@V?$allocator@I@std@@@0@0U_Scalar_ptr_iterator_tag@0@@Z 10179370 f i BNC_FakeBtnSet.obj
 0002:000b6430       ??$_Uninit_move@PAIPAIU?$_Wrap_alloc@V?$allocator@I@std@@@std@@@std@@YAPAIPAI00AAU?$_Wrap_alloc@V?$allocator@I@std@@@0@@Z 10179430 f i BNC_FakeBtnSet.obj
 0002:000b64d0       ??$_Uninit_move@PAV?$shared_ptr@VBNC_FakeRect@@@std@@PAV12@U?$_Wrap_alloc@V?$allocator@V?$shared_ptr@VBNC_FakeRect@@@std@@@std@@@2@@std@@YAPAV?$shared_ptr@VBNC_FakeRect@@@0@PAV10@00AAU?$_Wrap_alloc@V?$allocator@V?$shared_ptr@VBNC_FakeRect@@@std@@@std@@@0@@Z 101794d0 f i BNC_FakeBtnSet.obj
 0002:000b6570       ??$_Uninit_move@PAV?$shared_ptr@VBNC_FakeRect@@@std@@PAV12@V?$allocator@V?$shared_ptr@VBNC_FakeRect@@@std@@@2@V12@@std@@YAPAV?$shared_ptr@VBNC_FakeRect@@@0@PAV10@00AAU?$_Wrap_alloc@V?$allocator@V?$shared_ptr@VBNC_FakeRect@@@std@@@std@@@0@0U_Nonscalar_ptr_iterator_tag@0@@Z 10179570 f i BNC_FakeBtnSet.obj
 0002:000b66d0       ??$_Uninitialized_move@PAIPAIU?$_Wrap_alloc@V?$allocator@I@std@@@std@@@std@@YAPAIPAI00AAU?$_Wrap_alloc@V?$allocator@I@std@@@0@@Z 101796d0 f i BNC_FakeBtnSet.obj
 0002:000b6770       ??$_Uninitialized_move@PAV?$shared_ptr@VBNC_FakeRect@@@std@@PAV12@U?$_Wrap_alloc@V?$allocator@V?$shared_ptr@VBNC_FakeRect@@@std@@@std@@@2@@std@@YAPAV?$shared_ptr@VBNC_FakeRect@@@0@PAV10@00AAU?$_Wrap_alloc@V?$allocator@V?$shared_ptr@VBNC_FakeRect@@@std@@@std@@@0@@Z 10179770 f i BNC_FakeBtnSet.obj
 0002:000b6810       ??$_Val_type@PAI@std@@YAPAIPAI@Z 10179810 f i BNC_FakeBtnSet.obj
 0002:000b6840       ??$_Val_type@PAV?$shared_ptr@VBNC_FakeRect@@@std@@@std@@YAPAV?$shared_ptr@VBNC_FakeRect@@@0@PAV10@@Z 10179840 f i BNC_FakeBtnSet.obj
 0002:000b6870       ??$addressof@$$CBI@std@@YAPBIABI@Z 10179870 f i BNC_FakeBtnSet.obj
 0002:000b68b0       ??$addressof@V?$shared_ptr@VBNC_FakeRect@@@std@@@std@@YAPAV?$shared_ptr@VBNC_FakeRect@@@0@AAV10@@Z 101798b0 f i BNC_FakeBtnSet.obj
 0002:000b68f0       ??$construct@IAAI@?$_Wrap_alloc@V?$allocator@I@std@@@std@@QAEXPAIAAI@Z 101798f0 f i BNC_FakeBtnSet.obj
 0002:000b6960       ??$construct@IAAI@?$allocator@I@std@@QAEXPAIAAI@Z 10179960 f i BNC_FakeBtnSet.obj
 0002:000b6a60       ??$construct@IAAI@?$allocator_traits@V?$allocator@I@std@@@std@@SAXAAV?$allocator@I@1@PAIAAI@Z 10179a60 f i BNC_FakeBtnSet.obj
 0002:000b6ac0       ??$construct@IABI@?$_Wrap_alloc@V?$allocator@I@std@@@std@@QAEXPAIABI@Z 10179ac0 f i BNC_FakeBtnSet.obj
 0002:000b6b30       ??$construct@IABI@?$allocator_traits@V?$allocator@I@std@@@std@@SAXAAV?$allocator@I@1@PAIABI@Z 10179b30 f i BNC_FakeBtnSet.obj
 0002:000b6b90       ??$construct@V?$shared_ptr@VBNC_FakeRect@@@std@@V12@@?$_Wrap_alloc@V?$allocator@V?$shared_ptr@VBNC_FakeRect@@@std@@@std@@@std@@QAEXPAV?$shared_ptr@VBNC_FakeRect@@@1@$$QAV21@@Z 10179b90 f i BNC_FakeBtnSet.obj
 0002:000b6c00       ??$construct@V?$shared_ptr@VBNC_FakeRect@@@std@@V12@@?$allocator@V?$shared_ptr@VBNC_FakeRect@@@std@@@std@@QAEXPAV?$shared_ptr@VBNC_FakeRect@@@1@$$QAV21@@Z 10179c00 f i BNC_FakeBtnSet.obj
 0002:000b6d00       ??$construct@V?$shared_ptr@VBNC_FakeRect@@@std@@V12@@?$allocator_traits@V?$allocator@V?$shared_ptr@VBNC_FakeRect@@@std@@@std@@@std@@SAXAAV?$allocator@V?$shared_ptr@VBNC_FakeRect@@@std@@@1@PAV?$shared_ptr@VBNC_FakeRect@@@1@$$QAV31@@Z 10179d00 f i BNC_FakeBtnSet.obj
 0002:000b6d60       ??$forward@AAI@std@@YAAAIAAI@Z 10179d60 f i BNC_FakeBtnSet.obj
 0002:000b6da0       ??$forward@AAPAV?$shared_ptr@VBNC_FakeRect@@@std@@@std@@YAAAPAV?$shared_ptr@VBNC_FakeRect@@@0@AAPAV10@@Z 10179da0 f i BNC_FakeBtnSet.obj
 0002:000b6de0       ??$forward@AAV?$function@$$A6AXAAVGraphics@Gdiplus@@PAVCDC@@1AAVBNC_FakeRect@@@Z@std@@@std@@YAAAV?$function@$$A6AXAAVGraphics@Gdiplus@@PAVCDC@@1AAVBNC_FakeRect@@@Z@0@AAV10@@Z 10179de0 f i BNC_FakeBtnSet.obj
 0002:000b6e20       ??$forward@AAV?$function@$$A6AXHHH_N@Z@std@@@std@@YAAAV?$function@$$A6AXHHH_N@Z@0@AAV10@@Z 10179e20 f i BNC_FakeBtnSet.obj
 0002:000b6e60       ??$forward@ABI@std@@YAABIABI@Z 10179e60 f i BNC_FakeBtnSet.obj
 0002:000b6ea0       ??$forward@PAUHWND__@@@std@@YA$$QAPAUHWND__@@AAPAU1@@Z 10179ea0 f i BNC_FakeBtnSet.obj
 0002:000b6ee0       ??$forward@V?$_Ptr_base@VBNC_FakeRect@@@std@@@std@@YA$$QAV?$_Ptr_base@VBNC_FakeRect@@@0@AAV10@@Z 10179ee0 f i BNC_FakeBtnSet.obj
 0002:000b6f20       ??$forward@V?$shared_ptr@VBNC_FakeRect@@@std@@@std@@YA$$QAV?$shared_ptr@VBNC_FakeRect@@@0@AAV10@@Z 10179f20 f i BNC_FakeBtnSet.obj
 0002:000b6f60       ??$iter_swap@PAV?$shared_ptr@VBNC_FakeRect@@@std@@PAV12@@std@@YAXPAV?$shared_ptr@VBNC_FakeRect@@@0@0@Z 10179f60 f i BNC_FakeBtnSet.obj
 0002:000b6fc0       ??$make_heap@PAV?$shared_ptr@VBNC_FakeRect@@@std@@V<lambda_7ce23148b5fee2027ad36ebef1ba7dcd>@@@std@@YAXPAV?$shared_ptr@VBNC_FakeRect@@@0@0V<lambda_7ce23148b5fee2027ad36ebef1ba7dcd>@@@Z 10179fc0 f i BNC_FakeBtnSet.obj
 0002:000b70a0       ??$make_shared@VBNC_FakeRect@@PAUHWND__@@AAV?$function@$$A6AXAAVGraphics@Gdiplus@@PAVCDC@@1AAVBNC_FakeRect@@@Z@std@@AAV?$function@$$A6AXHHH_N@Z@4@@std@@YA?AV?$shared_ptr@VBNC_FakeRect@@@0@$$QAPAUHWND__@@AAV?$function@$$A6AXAAVGraphics@Gdiplus@@PAVCDC@@1AAVBNC_FakeRect@@@Z@0@AAV?$function@$$A6AXHHH_N@Z@0@@Z 1017a0a0 f i BNC_FakeBtnSet.obj
 0002:000b7280       ??$move@AAV?$shared_ptr@VBNC_FakeRect@@@std@@@std@@YA$$QAV?$shared_ptr@VBNC_FakeRect@@@0@AAV10@@Z 1017a280 f i BNC_FakeBtnSet.obj
 0002:000b72c0       ??$sort@V?$_Vector_iterator@V?$_Vector_val@U?$_Simple_types@V?$shared_ptr@VBNC_FakeRect@@@std@@@std@@@std@@@std@@V<lambda_7ce23148b5fee2027ad36ebef1ba7dcd>@@@std@@YAXV?$_Vector_iterator@V?$_Vector_val@U?$_Simple_types@V?$shared_ptr@VBNC_FakeRect@@@std@@@std@@@std@@@0@0V<lambda_7ce23148b5fee2027ad36ebef1ba7dcd>@@@Z 1017a2c0 f i BNC_FakeBtnSet.obj
 0002:000b7480       ??$sort_heap@PAV?$shared_ptr@VBNC_FakeRect@@@std@@V<lambda_7ce23148b5fee2027ad36ebef1ba7dcd>@@@std@@YAXPAV?$shared_ptr@VBNC_FakeRect@@@0@0V<lambda_7ce23148b5fee2027ad36ebef1ba7dcd>@@@Z 1017a480 f i BNC_FakeBtnSet.obj
 0002:000b7560       ??$swap@VBNC_FakeRect@@@std@@YAXAAV?$shared_ptr@VBNC_FakeRect@@@0@0@Z 1017a560 f i BNC_FakeBtnSet.obj
 0002:000b75b0       ??0?$_Func_class@XAAVGraphics@Gdiplus@@PAVCDC@@PAV3@AAVBNC_FakeRect@@@std@@QAE@XZ 1017a5b0 f i BNC_FakeBtnSet.obj
 0002:000b7600       ??0?$_Func_class@XHHH_N@std@@QAE@XZ 1017a600 f i BNC_FakeBtnSet.obj
 0002:000b7650       ??0?$_Ptr_base@VBNC_FakeRect@@@std@@QAE@$$QAV01@@Z 1017a650 f i BNC_FakeBtnSet.obj
 0002:000b76d0       ??0?$_Vector_alloc@$0A@U?$_Vec_base_types@IV?$allocator@I@std@@@std@@@std@@QAE@ABV?$allocator@I@1@@Z 1017a6d0 f i BNC_FakeBtnSet.obj
 0002:000b7780       ??0?$_Vector_iterator@V?$_Vector_val@U?$_Simple_types@V?$shared_ptr@VBNC_FakeRect@@@std@@@std@@@std@@@std@@QAE@ABV01@@Z 1017a780 f i BNC_FakeBtnSet.obj
 0002:000b77e0       ??0?$_Vector_iterator@V?$_Vector_val@U?$_Simple_types@V?$shared_ptr@VBNC_FakeRect@@@std@@@std@@@std@@@std@@QAE@PAV?$shared_ptr@VBNC_FakeRect@@@1@PBU_Container_base12@1@@Z 1017a7e0 f i BNC_FakeBtnSet.obj
 0002:000b7840       ??0?$_Vector_val@U?$_Simple_types@I@std@@@std@@QAE@XZ 1017a840 f i BNC_FakeBtnSet.obj
 0002:000b78d0       ??0?$_Wrap_alloc@V?$allocator@I@std@@@std@@QAE@XZ 1017a8d0 f i BNC_FakeBtnSet.obj
 0002:000b7930       ??0?$allocator@I@std@@QAE@XZ 1017a930 f i BNC_FakeBtnSet.obj
 0002:000b7970       ??0?$function@$$A6AXAAVGraphics@Gdiplus@@PAVCDC@@1AAVBNC_FakeRect@@@Z@std@@QAE@AAV01@@Z 1017a970 f i BNC_FakeBtnSet.obj
 0002:000b7a20       ??0?$function@$$A6AXHHH_N@Z@std@@QAE@AAV01@@Z 1017aa20 f i BNC_FakeBtnSet.obj
 0002:000b7ad0       ??0?$shared_ptr@VBNC_FakeRect@@@std@@QAE@$$QAV01@@Z 1017aad0 f i BNC_FakeBtnSet.obj
 0002:000b7b40       ??0?$shared_ptr@VBNC_FakeRect@@@std@@QAE@XZ 1017ab40 f i BNC_FakeBtnSet.obj
 0002:000b7ba0       ??0?$vector@IV?$allocator@I@std@@@std@@QAE@XZ 1017aba0 f i BNC_FakeBtnSet.obj
 0002:000b7c10       ??0?$vector@V?$shared_ptr@VBNC_FakeRect@@@std@@V?$allocator@V?$shared_ptr@VBNC_FakeRect@@@std@@@2@@std@@QAE@XZ 1017ac10 f i BNC_FakeBtnSet.obj
 0002:000b7c80       ??0BNC_FakeBtnSet@@QAE@XZ  1017ac80 f   BNC_FakeBtnSet.obj
 0002:000b7d50       ??0_Ref_count_base@std@@IAE@XZ 1017ad50 f i BNC_FakeBtnSet.obj
 0002:000b7dd0       ??1?$_Func_class@XAAVGraphics@Gdiplus@@PAVCDC@@PAV3@AAVBNC_FakeRect@@@std@@QAE@XZ 1017add0 f i BNC_FakeBtnSet.obj
 0002:000b7e20       ??1?$_Func_class@XHHH_N@std@@QAE@XZ 1017ae20 f i BNC_FakeBtnSet.obj
 0002:000b7e70       ??1?$_Ref_count_obj@VBNC_FakeRect@@@std@@UAE@XZ 1017ae70 f i BNC_FakeBtnSet.obj
 0002:000b7ec0       ??1?$_Vector_alloc@$0A@U?$_Vec_base_types@IV?$allocator@I@std@@@std@@@std@@QAE@XZ 1017aec0 f i BNC_FakeBtnSet.obj
 0002:000b7f20       ??1?$_Vector_iterator@V?$_Vector_val@U?$_Simple_types@V?$shared_ptr@VBNC_FakeRect@@@std@@@std@@@std@@@std@@QAE@XZ 1017af20 f i BNC_FakeBtnSet.obj
 0002:000b7f70       ??1?$_Vector_val@U?$_Simple_types@I@std@@@std@@QAE@XZ 1017af70 f i BNC_FakeBtnSet.obj
 0002:000b7fd0       ??1?$function@$$A6AXAAVGraphics@Gdiplus@@PAVCDC@@1AAVBNC_FakeRect@@@Z@std@@QAE@XZ 1017afd0 f i BNC_FakeBtnSet.obj
 0002:000b8030       ??1?$function@$$A6AXHHH_N@Z@std@@QAE@XZ 1017b030 f i BNC_FakeBtnSet.obj
 0002:000b8090       ??1?$vector@IV?$allocator@I@std@@@std@@QAE@XZ 1017b090 f i BNC_FakeBtnSet.obj
 0002:000b80f0       ??1?$vector@V?$shared_ptr@VBNC_FakeRect@@@std@@V?$allocator@V?$shared_ptr@VBNC_FakeRect@@@std@@@2@@std@@QAE@XZ 1017b0f0 f i BNC_FakeBtnSet.obj
 0002:000b8150       ??1BNC_FakeBtnSet@@QAE@XZ  1017b150 f   BNC_FakeBtnSet.obj
 0002:000b8210       ??1_Ref_count_base@std@@UAE@XZ 1017b210 f i BNC_FakeBtnSet.obj
 0002:000b8250       ??4?$shared_ptr@VBNC_FakeRect@@@std@@QAEAAV01@$$QAV01@@Z 1017b250 f i BNC_FakeBtnSet.obj
 0002:000b82e0       ??8?$_Vector_const_iterator@V?$_Vector_val@U?$_Simple_types@V?$shared_ptr@VBNC_FakeRect@@@std@@@std@@@std@@@std@@QBE_NABV01@@Z 1017b2e0 f i BNC_FakeBtnSet.obj
 0002:000b8370       ??9?$_Vector_const_iterator@V?$_Vector_val@U?$_Simple_types@V?$shared_ptr@VBNC_FakeRect@@@std@@@std@@@std@@@std@@QBE_NABV01@@Z 1017b370 f i BNC_FakeBtnSet.obj
 0002:000b8400       ??A?$vector@IV?$allocator@I@std@@@std@@QAEAAII@Z 1017b400 f i BNC_FakeBtnSet.obj
 0002:000b8520       ??A?$vector@V?$shared_ptr@VBNC_FakeRect@@@std@@V?$allocator@V?$shared_ptr@VBNC_FakeRect@@@std@@@2@@std@@QAEAAV?$shared_ptr@VBNC_FakeRect@@@1@I@Z 1017b520 f i BNC_FakeBtnSet.obj
 0002:000b8640       ??C?$shared_ptr@VBNC_FakeRect@@@std@@QBEPAVBNC_FakeRect@@XZ 1017b640 f i BNC_FakeBtnSet.obj
 0002:000b8690       ??D?$_Vector_const_iterator@V?$_Vector_val@U?$_Simple_types@V?$shared_ptr@VBNC_FakeRect@@@std@@@std@@@std@@@std@@QBEABV?$shared_ptr@VBNC_FakeRect@@@1@XZ 1017b690 f i BNC_FakeBtnSet.obj
 0002:000b87d0       ??D?$_Vector_iterator@V?$_Vector_val@U?$_Simple_types@V?$shared_ptr@VBNC_FakeRect@@@std@@@std@@@std@@@std@@QBEAAV?$shared_ptr@VBNC_FakeRect@@@1@XZ 1017b7d0 f i BNC_FakeBtnSet.obj
 0002:000b8820       ??E?$_Vector_const_iterator@V?$_Vector_val@U?$_Simple_types@V?$shared_ptr@VBNC_FakeRect@@@std@@@std@@@std@@@std@@QAEAAV01@XZ 1017b820 f i BNC_FakeBtnSet.obj
 0002:000b8950       ??E?$_Vector_iterator@V?$_Vector_val@U?$_Simple_types@V?$shared_ptr@VBNC_FakeRect@@@std@@@std@@@std@@@std@@QAEAAV01@XZ 1017b950 f i BNC_FakeBtnSet.obj
 0002:000b89b0       ??G?$_Vector_const_iterator@V?$_Vector_val@U?$_Simple_types@V?$shared_ptr@VBNC_FakeRect@@@std@@@std@@@std@@@std@@QBEHABV01@@Z 1017b9b0 f i BNC_FakeBtnSet.obj
 0002:000b8a20       ??G?$_Vector_iterator@V?$_Vector_val@U?$_Simple_types@V?$shared_ptr@VBNC_FakeRect@@@std@@@std@@@std@@@std@@QBEHABV?$_Vector_const_iterator@V?$_Vector_val@U?$_Simple_types@V?$shared_ptr@VBNC_FakeRect@@@std@@@std@@@std@@@1@@Z 1017ba20 f i BNC_FakeBtnSet.obj
 0002:000b8a80       ??M?$_Vector_const_iterator@V?$_Vector_val@U?$_Simple_types@V?$shared_ptr@VBNC_FakeRect@@@std@@@std@@@std@@@std@@QBE_NABV01@@Z 1017ba80 f i BNC_FakeBtnSet.obj
 0002:000b8bb0       ??_G?$_Ref_count_obj@VBNC_FakeRect@@@std@@UAEPAXI@Z 1017bbb0 f i BNC_FakeBtnSet.obj
 0002:000b8bb0       ??_E?$_Ref_count_obj@VBNC_FakeRect@@@std@@UAEPAXI@Z 1017bbb0 f i BNC_FakeBtnSet.obj
 0002:000b8c20       ??_GBNC_FakeRect@@QAEPAXI@Z 1017bc20 f i BNC_FakeBtnSet.obj
 0002:000b8c90       ??_G_Ref_count_base@std@@UAEPAXI@Z 1017bc90 f i BNC_FakeBtnSet.obj
 0002:000b8c90       ??_E_Ref_count_base@std@@UAEPAXI@Z 1017bc90 f i BNC_FakeBtnSet.obj
 0002:000b8d00       ?Draw@BNC_FakeBtnSet@@QAEXIAAVGraphics@Gdiplus@@PAVCDC@@1@Z 1017bd00 f   BNC_FakeBtnSet.obj
 0002:000b8da0       ?DrawAll@BNC_FakeBtnSet@@QAEXAAVGraphics@Gdiplus@@PAVCDC@@1_N@Z 1017bda0 f   BNC_FakeBtnSet.obj
 0002:000b9100       ?GetRect@BNC_FakeBtnSet@@QAE?AVCRect@@I@Z 1017c100 f   BNC_FakeBtnSet.obj
 0002:000b91c0       ?InitButton@BNC_FakeBtnSet@@QAE_NIVCSize@@_N1@Z 1017c1c0 f   BNC_FakeBtnSet.obj
 0002:000b92e0       ?Initialize@BNC_FakeBtnSet@@QAEXPAVBNC_BaseClient@@IV?$function@$$A6AXAAVGraphics@Gdiplus@@PAVCDC@@1AAVBNC_FakeRect@@@Z@std@@V?$function@$$A6AXHHH_N@Z@4@@Z 1017c2e0 f   BNC_FakeBtnSet.obj
 0002:000b94c0       ?MouseLBtnDown@BNC_FakeBtnSet@@QAE_NIVCPoint@@@Z 1017c4c0 f   BNC_FakeBtnSet.obj
 0002:000b9700       ?MouseLBtnUp@BNC_FakeBtnSet@@QAE_NIVCPoint@@@Z 1017c700 f   BNC_FakeBtnSet.obj
 0002:000b9940       ?MouseMove@BNC_FakeBtnSet@@QAE_NIVCPoint@@@Z 1017c940 f   BNC_FakeBtnSet.obj
 0002:000b9b80       ?MouseReset@BNC_FakeBtnSet@@QAEXI@Z 1017cb80 f   BNC_FakeBtnSet.obj
 0002:000b9c00       ?MouseReset@BNC_FakeBtnSet@@QAEXXZ 1017cc00 f   BNC_FakeBtnSet.obj
 0002:000b9dd0       ?Move@BNC_FakeBtnSet@@QAEXIVCPoint@@_N@Z 1017cdd0 f   BNC_FakeBtnSet.obj
 0002:000b9e60       ?MoveEx@BNC_FakeBtnSet@@QAEXIVCPoint@@_NH@Z 1017ce60 f   BNC_FakeBtnSet.obj
 0002:000b9f00       ?Show@BNC_FakeBtnSet@@QAEXI_N@Z 1017cf00 f   BNC_FakeBtnSet.obj
 0002:000b9f90       ?SortFromID@BNC_FakeBtnSet@@QAEXXZ 1017cf90 f   BNC_FakeBtnSet.obj
 0002:000ba040       ?_Alloc_proxy@?$_Vector_alloc@$0A@U?$_Vec_base_types@IV?$allocator@I@std@@@std@@@std@@QAEXXZ 1017d040 f i BNC_FakeBtnSet.obj
 0002:000ba130       ?_Assign_rv@?$_Ptr_base@VBNC_FakeRect@@@std@@QAEX$$QAV12@@Z 1017d130 f i BNC_FakeBtnSet.obj
 0002:000ba190       ?_Compat@?$_Vector_const_iterator@V?$_Vector_val@U?$_Simple_types@V?$shared_ptr@VBNC_FakeRect@@@std@@@std@@@std@@@std@@QBEXABV12@@Z 1017d190 f i BNC_FakeBtnSet.obj
 0002:000ba2b0       ?_Delete_this@?$_Ref_count_obj@VBNC_FakeRect@@@std@@EAEXXZ 1017d2b0 f i BNC_FakeBtnSet.obj
 0002:000ba360       ?_Destroy@?$_Ref_count_obj@VBNC_FakeRect@@@std@@EAEXXZ 1017d360 f i BNC_FakeBtnSet.obj
 0002:000ba3c0       ?_Destroy@?$vector@IV?$allocator@I@std@@@std@@IAEXPAI0@Z 1017d3c0 f i BNC_FakeBtnSet.obj
 0002:000ba490       ?_Enable_shared@std@@YAXPDX0@Z 1017d490 f i BNC_FakeBtnSet.obj
 0002:000ba4c0       ?_Free_proxy@?$_Vector_alloc@$0A@U?$_Vec_base_types@IV?$allocator@I@std@@@std@@@std@@QAEXXZ 1017d4c0 f i BNC_FakeBtnSet.obj
 0002:000ba5b0       ?_Get@?$_Ptr_base@VBNC_FakeRect@@@std@@QBEPAVBNC_FakeRect@@XZ 1017d5b0 f i BNC_FakeBtnSet.obj
 0002:000ba5f0       ?_Get_deleter@_Ref_count_base@std@@UBEPAXABVtype_info@@@Z 1017d5f0 f i BNC_FakeBtnSet.obj
 0002:000ba630       ?_Getal@?$_Vector_alloc@$0A@U?$_Vec_base_types@IV?$allocator@I@std@@@std@@@std@@QBE?AU?$_Wrap_alloc@V?$allocator@I@std@@@2@XZ 1017d630 f i BNC_FakeBtnSet.obj
 0002:000ba690       ?_Getptr@?$_Ref_count_obj@VBNC_FakeRect@@@std@@QBEPAVBNC_FakeRect@@XZ 1017d690 f i BNC_FakeBtnSet.obj
 0002:000ba6d0       ?_Grow_to@?$vector@IV?$allocator@I@std@@@std@@IBEII@Z 1017d6d0 f i BNC_FakeBtnSet.obj
 0002:000ba780       ?_Grow_to@?$vector@V?$shared_ptr@VBNC_FakeRect@@@std@@V?$allocator@V?$shared_ptr@VBNC_FakeRect@@@std@@@2@@std@@IBEII@Z 1017d780 f i BNC_FakeBtnSet.obj
 0002:000ba830       ?_Init_atomic_counter@std@@YAXAAKK@Z 1017d830 f i BNC_FakeBtnSet.obj
 0002:000ba870       ?_Inside@?$vector@IV?$allocator@I@std@@@std@@IBE_NPBI@Z 1017d870 f i BNC_FakeBtnSet.obj
